ARM GAS  C:\Users\Alan\AppData\Local\Temp\cc5hLSmt.s 			page 1


   1              		.cpu cortex-m0plus
   2              		.fpu softvfp
   3              		.eabi_attribute 20, 1
   4              		.eabi_attribute 21, 1
   5              		.eabi_attribute 23, 3
   6              		.eabi_attribute 24, 1
   7              		.eabi_attribute 25, 1
   8              		.eabi_attribute 26, 1
   9              		.eabi_attribute 30, 1
  10              		.eabi_attribute 34, 0
  11              		.eabi_attribute 18, 4
  12              		.code	16
  13              		.file	"capsense_Filter.c"
  14              		.text
  15              	.Ltext0:
  16              		.cfi_sections	.debug_frame
  17              		.section	.text.capsense_FtInitialize,"ax",%progbits
  18              		.align	2
  19              		.global	capsense_FtInitialize
  20              		.code	16
  21              		.thumb_func
  22              		.type	capsense_FtInitialize, %function
  23              	capsense_FtInitialize:
  24              	.LFB1:
  25              		.file 1 ".\\Generated_Source\\PSoC4\\capsense_Filter.c"
   1:.\Generated_Source\PSoC4/capsense_Filter.c **** /***************************************************************************//**
   2:.\Generated_Source\PSoC4/capsense_Filter.c **** * \file     capsense_Filter.c
   3:.\Generated_Source\PSoC4/capsense_Filter.c **** * \version  3.0
   4:.\Generated_Source\PSoC4/capsense_Filter.c **** *
   5:.\Generated_Source\PSoC4/capsense_Filter.c **** * \brief    This file contains the implementation source code to implement all 
   6:.\Generated_Source\PSoC4/capsense_Filter.c **** *           firmware filters.
   7:.\Generated_Source\PSoC4/capsense_Filter.c **** *
   8:.\Generated_Source\PSoC4/capsense_Filter.c **** * \note:
   9:.\Generated_Source\PSoC4/capsense_Filter.c **** *   None.
  10:.\Generated_Source\PSoC4/capsense_Filter.c **** *
  11:.\Generated_Source\PSoC4/capsense_Filter.c **** * Firmware Dependency:
  12:.\Generated_Source\PSoC4/capsense_Filter.c **** *   1. capsense_Customizer.h
  13:.\Generated_Source\PSoC4/capsense_Filter.c **** *   2. capsense_DataStructure.h
  14:.\Generated_Source\PSoC4/capsense_Filter.c **** *
  15:.\Generated_Source\PSoC4/capsense_Filter.c **** * Hardware Dependency:
  16:.\Generated_Source\PSoC4/capsense_Filter.c **** *   None.
  17:.\Generated_Source\PSoC4/capsense_Filter.c **** *
  18:.\Generated_Source\PSoC4/capsense_Filter.c **** *   \see    1. 001-64846 Getting Started With CapSense
  19:.\Generated_Source\PSoC4/capsense_Filter.c **** *   \see    2. 001-85951 PSoC 4 CapSense Design Guide
  20:.\Generated_Source\PSoC4/capsense_Filter.c **** *   \see    3. CapSense Component Datasheet
  21:.\Generated_Source\PSoC4/capsense_Filter.c **** *   \see    4. PSoC 4 Device Technical Reference Manual
  22:.\Generated_Source\PSoC4/capsense_Filter.c **** * 
  23:.\Generated_Source\PSoC4/capsense_Filter.c **** *//*****************************************************************************
  24:.\Generated_Source\PSoC4/capsense_Filter.c **** * Copyright (2016), Cypress Semiconductor Corporation.
  25:.\Generated_Source\PSoC4/capsense_Filter.c **** ********************************************************************************
  26:.\Generated_Source\PSoC4/capsense_Filter.c **** * This software is owned by Cypress Semiconductor Corporation (Cypress) and is
  27:.\Generated_Source\PSoC4/capsense_Filter.c **** * protected by and subject to worldwide patent protection (United States and
  28:.\Generated_Source\PSoC4/capsense_Filter.c **** * foreign), United States copyright laws and international treaty provisions.
  29:.\Generated_Source\PSoC4/capsense_Filter.c **** * Cypress hereby grants to licensee a personal, non-exclusive, non-transferable
  30:.\Generated_Source\PSoC4/capsense_Filter.c **** * license to copy, use, modify, create derivative works of, and compile the
  31:.\Generated_Source\PSoC4/capsense_Filter.c **** * Cypress Source Code and derivative works for the sole purpose of creating
  32:.\Generated_Source\PSoC4/capsense_Filter.c **** * custom software in support of licensee product to be used only in conjunction
ARM GAS  C:\Users\Alan\AppData\Local\Temp\cc5hLSmt.s 			page 2


  33:.\Generated_Source\PSoC4/capsense_Filter.c **** * with a Cypress integrated circuit as specified in the applicable agreement.
  34:.\Generated_Source\PSoC4/capsense_Filter.c **** * Any reproduction, modification, translation, compilation, or representation of
  35:.\Generated_Source\PSoC4/capsense_Filter.c **** * this software except as specified above is prohibited without the express
  36:.\Generated_Source\PSoC4/capsense_Filter.c **** * written permission of Cypress.
  37:.\Generated_Source\PSoC4/capsense_Filter.c **** *
  38:.\Generated_Source\PSoC4/capsense_Filter.c **** * Disclaimer: CYPRESS MAKES NO WARRANTY OF ANY KIND, EXPRESS OR IMPLIED, WITH
  39:.\Generated_Source\PSoC4/capsense_Filter.c **** * REGARD TO THIS MATERIAL, INCLUDING, BUT NOT LIMITED TO, THE IMPLIED
  40:.\Generated_Source\PSoC4/capsense_Filter.c **** * WARRANTIES OF MERCHANTABILITY AND FITNESS FOR A PARTICULAR PURPOSE.
  41:.\Generated_Source\PSoC4/capsense_Filter.c **** * Cypress reserves the right to make changes without further notice to the
  42:.\Generated_Source\PSoC4/capsense_Filter.c **** * materials described herein. Cypress does not assume any liability arising out
  43:.\Generated_Source\PSoC4/capsense_Filter.c **** * of the application or use of any product or circuit described herein. Cypress
  44:.\Generated_Source\PSoC4/capsense_Filter.c **** * does not authorize its products for use as critical components in life-support
  45:.\Generated_Source\PSoC4/capsense_Filter.c **** * systems where a malfunction or failure may reasonably be expected to result in
  46:.\Generated_Source\PSoC4/capsense_Filter.c **** * significant injury to the user. The inclusion of Cypress' product in a life-
  47:.\Generated_Source\PSoC4/capsense_Filter.c **** * support systems application implies that the manufacturer assumes all risk of
  48:.\Generated_Source\PSoC4/capsense_Filter.c **** * such use and in doing so indemnifies Cypress against all charges. Use may be
  49:.\Generated_Source\PSoC4/capsense_Filter.c **** * limited by and subject to the applicable Cypress software license agreement.
  50:.\Generated_Source\PSoC4/capsense_Filter.c **** *******************************************************************************/
  51:.\Generated_Source\PSoC4/capsense_Filter.c **** 
  52:.\Generated_Source\PSoC4/capsense_Filter.c **** #include "capsense_Filter.h"
  53:.\Generated_Source\PSoC4/capsense_Filter.c **** 
  54:.\Generated_Source\PSoC4/capsense_Filter.c **** #if (0 != (capsense_CSD_AUTOTUNE & capsense_CSD_SS_TH_EN))
  55:.\Generated_Source\PSoC4/capsense_Filter.c ****     #include "capsense_SmartSense_LL.h"
  56:.\Generated_Source\PSoC4/capsense_Filter.c **** #endif /* (0 != (capsense_CSD_AUTOTUNE & capsense_CSD_SS_TH_EN)) */
  57:.\Generated_Source\PSoC4/capsense_Filter.c **** 
  58:.\Generated_Source\PSoC4/capsense_Filter.c **** /*******************************************************************************
  59:.\Generated_Source\PSoC4/capsense_Filter.c **** * Function Name: capsense_FtInitialize
  60:.\Generated_Source\PSoC4/capsense_Filter.c **** ****************************************************************************//**
  61:.\Generated_Source\PSoC4/capsense_Filter.c **** *
  62:.\Generated_Source\PSoC4/capsense_Filter.c **** * \brief
  63:.\Generated_Source\PSoC4/capsense_Filter.c **** *    Initializes all the firmware filter history, except the baseline filter.
  64:.\Generated_Source\PSoC4/capsense_Filter.c **** *
  65:.\Generated_Source\PSoC4/capsense_Filter.c **** * \details
  66:.\Generated_Source\PSoC4/capsense_Filter.c **** *    Initializes all the firmware filter history, except the baseline filter.
  67:.\Generated_Source\PSoC4/capsense_Filter.c **** *
  68:.\Generated_Source\PSoC4/capsense_Filter.c **** *******************************************************************************/
  69:.\Generated_Source\PSoC4/capsense_Filter.c **** void capsense_FtInitialize(void)
  70:.\Generated_Source\PSoC4/capsense_Filter.c **** {
  26              		.loc 1 70 0
  27              		.cfi_startproc
  28 0000 F8B5     		push	{r3, r4, r5, r6, r7, lr}
  29              		.cfi_def_cfa_offset 24
  30              		.cfi_offset 3, -24
  31              		.cfi_offset 4, -20
  32              		.cfi_offset 5, -16
  33              		.cfi_offset 6, -12
  34              		.cfi_offset 7, -8
  35              		.cfi_offset 14, -4
  36              	.LVL0:
  71:.\Generated_Source\PSoC4/capsense_Filter.c ****     uint32 widgetId;
  72:.\Generated_Source\PSoC4/capsense_Filter.c ****     uint32 sensorId;
  73:.\Generated_Source\PSoC4/capsense_Filter.c ****     uint32 sensorsNumber;
  74:.\Generated_Source\PSoC4/capsense_Filter.c **** 
  75:.\Generated_Source\PSoC4/capsense_Filter.c ****     capsense_FLASH_WD_STRUCT const *ptrWidget;
  76:.\Generated_Source\PSoC4/capsense_Filter.c ****     capsense_RAM_SNS_STRUCT *ptrSensor = NULL;
  77:.\Generated_Source\PSoC4/capsense_Filter.c ****     capsense_PTR_FILTER_VARIANT ptrFilterHistObj;
  78:.\Generated_Source\PSoC4/capsense_Filter.c ****     
ARM GAS  C:\Users\Alan\AppData\Local\Temp\cc5hLSmt.s 			page 3


  79:.\Generated_Source\PSoC4/capsense_Filter.c ****     #if capsense_CSD_AUTOTUNE & capsense_CSD_SS_TH_EN
  80:.\Generated_Source\PSoC4/capsense_Filter.c ****         capsense_RAM_WD_BASE_STRUCT *ptrWidgetRam;
  81:.\Generated_Source\PSoC4/capsense_Filter.c ****         SMARTSENSE_CSD_NOISE_ENVELOPE_STRUCT *ptrNoiseEnvelope = NULL;
  82:.\Generated_Source\PSoC4/capsense_Filter.c ****     #endif /* #if capsense_CSD_AUTOTUNE & capsense_CSD_SS_TH_EN */
  83:.\Generated_Source\PSoC4/capsense_Filter.c ****     
  84:.\Generated_Source\PSoC4/capsense_Filter.c ****     for (widgetId = capsense_TOTAL_WIDGETS; widgetId-- > 0u;)
  37              		.loc 1 84 0
  38 0002 0123     		mov	r3, #1
  39 0004 1EE0     		b	.L2
  40              	.LVL1:
  41              	.L5:
  85:.\Generated_Source\PSoC4/capsense_Filter.c ****     {
  86:.\Generated_Source\PSoC4/capsense_Filter.c ****         ptrWidget = &capsense_dsFlash.wdgtArray[widgetId];
  87:.\Generated_Source\PSoC4/capsense_Filter.c ****         
  88:.\Generated_Source\PSoC4/capsense_Filter.c ****         #if capsense_CSD_AUTOTUNE & capsense_CSD_SS_TH_EN
  89:.\Generated_Source\PSoC4/capsense_Filter.c ****             ptrWidgetRam = ptrWidget->ptr2WdgtRam;
  42              		.loc 1 89 0
  43 0006 AB00     		lsl	r3, r5, #2
  44 0008 5B19     		add	r3, r3, r5
  45 000a DB00     		lsl	r3, r3, #3
  46 000c 0F4A     		ldr	r2, .L6
  47 000e D318     		add	r3, r2, r3
  48 0010 5E68     		ldr	r6, [r3, #4]
  49              	.LVL2:
  90:.\Generated_Source\PSoC4/capsense_Filter.c ****         #endif /* #if capsense_CSD_AUTOTUNE & capsense_CSD_SS_TH_EN */
  91:.\Generated_Source\PSoC4/capsense_Filter.c **** 
  92:.\Generated_Source\PSoC4/capsense_Filter.c ****         /* Find total amount of sensors in specified widget */   
  93:.\Generated_Source\PSoC4/capsense_Filter.c ****         sensorsNumber = capsense_GET_SNS_CNT_BY_PTR(ptrWidget);    
  50              		.loc 1 93 0
  51 0012 DB8A     		ldrh	r3, [r3, #22]
  52              	.LVL3:
  94:.\Generated_Source\PSoC4/capsense_Filter.c ****     
  95:.\Generated_Source\PSoC4/capsense_Filter.c ****         for (sensorId = sensorsNumber; sensorId-- > 0u;) 
  53              		.loc 1 95 0
  54 0014 12E0     		b	.L3
  55              	.LVL4:
  56              	.L4:
  96:.\Generated_Source\PSoC4/capsense_Filter.c ****         {
  97:.\Generated_Source\PSoC4/capsense_Filter.c ****             /* Find pointer to specified sensor object */
  98:.\Generated_Source\PSoC4/capsense_Filter.c ****             ptrSensor = ptrWidget->ptr2SnsRam;
  57              		.loc 1 98 0
  58 0016 AB00     		lsl	r3, r5, #2
  59 0018 5B19     		add	r3, r3, r5
  60 001a DB00     		lsl	r3, r3, #3
  61 001c 0B4A     		ldr	r2, .L6
  62 001e D318     		add	r3, r2, r3
  63 0020 9F68     		ldr	r7, [r3, #8]
  64              	.LVL5:
  99:.\Generated_Source\PSoC4/capsense_Filter.c ****             ptrSensor = &ptrSensor[sensorId];
  65              		.loc 1 99 0
  66 0022 A000     		lsl	r0, r4, #2
  67 0024 0019     		add	r0, r0, r4
  68 0026 4000     		lsl	r0, r0, #1
  69              	.LVL6:
 100:.\Generated_Source\PSoC4/capsense_Filter.c ****                         
 101:.\Generated_Source\PSoC4/capsense_Filter.c ****             /* Find pointer to to specified filter sensor object */
 102:.\Generated_Source\PSoC4/capsense_Filter.c ****             ptrFilterHistObj.ptr = ptrWidget->ptr2FltrHistory;
ARM GAS  C:\Users\Alan\AppData\Local\Temp\cc5hLSmt.s 			page 4


 103:.\Generated_Source\PSoC4/capsense_Filter.c **** 
 104:.\Generated_Source\PSoC4/capsense_Filter.c ****             #if capsense_CSD_AUTOTUNE & capsense_CSD_SS_TH_EN
 105:.\Generated_Source\PSoC4/capsense_Filter.c ****                 /* Find pointer to specified noise envelope sensor object */
 106:.\Generated_Source\PSoC4/capsense_Filter.c ****                 ptrNoiseEnvelope = ptrWidget->ptr2NoiseEnvlp;
  70              		.loc 1 106 0
  71 0028 1A6A     		ldr	r2, [r3, #32]
  72              	.LVL7:
 107:.\Generated_Source\PSoC4/capsense_Filter.c ****                 ptrNoiseEnvelope = &ptrNoiseEnvelope[sensorId];    
  73              		.loc 1 107 0
  74 002a 6100     		lsl	r1, r4, #1
  75 002c 0B19     		add	r3, r1, r4
  76 002e 9B00     		lsl	r3, r3, #2
  77 0030 D218     		add	r2, r2, r3
  78              	.LVL8:
 108:.\Generated_Source\PSoC4/capsense_Filter.c ****             #endif /* #if capsense_CSD_AUTOTUNE & capsense_CSD_SS_TH_EN */
 109:.\Generated_Source\PSoC4/capsense_Filter.c ****             
 110:.\Generated_Source\PSoC4/capsense_Filter.c ****             if ((capsense_WD_TYPE_ENUM)ptrWidget->wdgtType != capsense_WD_PROXIMITY_E)
 111:.\Generated_Source\PSoC4/capsense_Filter.c ****             {
 112:.\Generated_Source\PSoC4/capsense_Filter.c ****                 #if (capsense_REGULAR_SENSOR_EN)             
 113:.\Generated_Source\PSoC4/capsense_Filter.c ****                     ptrFilterHistObj.ptrRegular = &ptrFilterHistObj.ptrRegular[sensorId];
 114:.\Generated_Source\PSoC4/capsense_Filter.c ****                 #endif /* (capsense_REGULAR_SENSOR_EN) */
 115:.\Generated_Source\PSoC4/capsense_Filter.c ****             }
 116:.\Generated_Source\PSoC4/capsense_Filter.c ****             else
 117:.\Generated_Source\PSoC4/capsense_Filter.c ****             {
 118:.\Generated_Source\PSoC4/capsense_Filter.c ****                 #if (capsense_PROXIMITY_SENSOR_EN)             
 119:.\Generated_Source\PSoC4/capsense_Filter.c ****                     ptrFilterHistObj.ptrProx = &ptrFilterHistObj.ptrProx[sensorId];
 120:.\Generated_Source\PSoC4/capsense_Filter.c ****                 #endif /* (capsense_PROXIMITY_SENSOR_EN) */
 121:.\Generated_Source\PSoC4/capsense_Filter.c ****             }
 122:.\Generated_Source\PSoC4/capsense_Filter.c ****             
 123:.\Generated_Source\PSoC4/capsense_Filter.c ****             #if (capsense_REGULAR_RC_IIR_FILTER_EN || capsense_PROX_RC_IIR_FILTER_EN)
 124:.\Generated_Source\PSoC4/capsense_Filter.c ****                 capsense_InitializeIIRInternal(ptrFilterHistObj, ptrSensor, (uint32)ptrWidget->wdgt
 125:.\Generated_Source\PSoC4/capsense_Filter.c ****             #endif /* (capsense_REGULAR_RC_IIR_FILTER_EN || capsense_PROX_RC_IIR_FILTER_EN) */     
 126:.\Generated_Source\PSoC4/capsense_Filter.c **** 
 127:.\Generated_Source\PSoC4/capsense_Filter.c ****             #if (capsense_REGULAR_RC_MEDIAN_FILTER_EN || capsense_PROX_RC_MEDIAN_FILTER_EN)
 128:.\Generated_Source\PSoC4/capsense_Filter.c ****                 capsense_InitializeMedianInternal(ptrFilterHistObj, ptrSensor, (uint32)ptrWidget->w
 129:.\Generated_Source\PSoC4/capsense_Filter.c ****             #endif /* (capsense_REGULAR_RC_MEDIAN_FILTER_EN || capsense_PROX_RC_MEDIAN_FILTER_EN) *
 130:.\Generated_Source\PSoC4/capsense_Filter.c **** 
 131:.\Generated_Source\PSoC4/capsense_Filter.c ****             #if (capsense_REGULAR_RC_AVERAGE_FILTER_EN || capsense_PROX_RC_AVERAGE_FILTER_EN)
 132:.\Generated_Source\PSoC4/capsense_Filter.c ****                 capsense_InitializeAverageInternal(ptrFilterHistObj, ptrSensor, (uint32)ptrWidget->
 133:.\Generated_Source\PSoC4/capsense_Filter.c ****             #endif /* (capsense_REGULAR_RC_AVERAGE_FILTER_EN || capsense_PROX_RC_AVERAGE_FILTER_EN)
 134:.\Generated_Source\PSoC4/capsense_Filter.c ****             
 135:.\Generated_Source\PSoC4/capsense_Filter.c ****             #if (capsense_CSD_AUTOTUNE & capsense_CSD_SS_TH_EN)
 136:.\Generated_Source\PSoC4/capsense_Filter.c ****                 if (capsense_SENSE_METHOD_CSD_E ==
 137:.\Generated_Source\PSoC4/capsense_Filter.c ****                     (capsense_SENSE_METHOD_ENUM)capsense_GET_SENSE_METHOD(&capsense_dsFlash.wdgtArr
 138:.\Generated_Source\PSoC4/capsense_Filter.c ****                 {
 139:.\Generated_Source\PSoC4/capsense_Filter.c ****                     SmartSense_InitializeNoiseEnvelope(ptrSensor->raw[0u], ptrWidgetRam->sigPPf, pt
  79              		.loc 1 139 0
  80 0032 385A     		ldrh	r0, [r7, r0]
  81              	.LVL9:
  82 0034 F189     		ldrh	r1, [r6, #14]
  83 0036 FFF7FEFF 		bl	SmartSense_InitializeNoiseEnvelope
  84              	.LVL10:
  95:.\Generated_Source\PSoC4/capsense_Filter.c ****         {
  85              		.loc 1 95 0
  86 003a 231C     		mov	r3, r4
  87              	.LVL11:
  88              	.L3:
ARM GAS  C:\Users\Alan\AppData\Local\Temp\cc5hLSmt.s 			page 5


  95:.\Generated_Source\PSoC4/capsense_Filter.c ****         {
  89              		.loc 1 95 0 is_stmt 0 discriminator 1
  90 003c 5C1E     		sub	r4, r3, #1
  91              	.LVL12:
  92 003e 002B     		cmp	r3, #0
  93 0040 E9D1     		bne	.L4
  84:.\Generated_Source\PSoC4/capsense_Filter.c ****     {
  94              		.loc 1 84 0 is_stmt 1
  95 0042 2B1C     		mov	r3, r5
  96              	.LVL13:
  97              	.L2:
  84:.\Generated_Source\PSoC4/capsense_Filter.c ****     {
  98              		.loc 1 84 0 is_stmt 0 discriminator 1
  99 0044 5D1E     		sub	r5, r3, #1
 100              	.LVL14:
 101 0046 002B     		cmp	r3, #0
 102 0048 DDD1     		bne	.L5
 140:.\Generated_Source\PSoC4/capsense_Filter.c ****                 }
 141:.\Generated_Source\PSoC4/capsense_Filter.c ****             #endif /* #if capsense_CSD_AUTOTUNE & capsense_CSD_SS_TH_EN */
 142:.\Generated_Source\PSoC4/capsense_Filter.c ****         }
 143:.\Generated_Source\PSoC4/capsense_Filter.c ****     }   
 144:.\Generated_Source\PSoC4/capsense_Filter.c **** }
 103              		.loc 1 144 0 is_stmt 1
 104              		@ sp needed
 105              	.LVL15:
 106 004a F8BD     		pop	{r3, r4, r5, r6, r7, pc}
 107              	.L7:
 108              		.align	2
 109              	.L6:
 110 004c 00000000 		.word	capsense_dsFlash
 111              		.cfi_endproc
 112              	.LFE1:
 113              		.size	capsense_FtInitialize, .-capsense_FtInitialize
 114              		.section	.text.capsense_FtInitializeBaselineChannel,"ax",%progbits
 115              		.align	2
 116              		.global	capsense_FtInitializeBaselineChannel
 117              		.code	16
 118              		.thumb_func
 119              		.type	capsense_FtInitializeBaselineChannel, %function
 120              	capsense_FtInitializeBaselineChannel:
 121              	.LFB10:
 145:.\Generated_Source\PSoC4/capsense_Filter.c **** 
 146:.\Generated_Source\PSoC4/capsense_Filter.c **** 
 147:.\Generated_Source\PSoC4/capsense_Filter.c **** /*******************************************************************************
 148:.\Generated_Source\PSoC4/capsense_Filter.c **** * Function Name: capsense_UpdateAllBaselines
 149:.\Generated_Source\PSoC4/capsense_Filter.c **** ****************************************************************************//**
 150:.\Generated_Source\PSoC4/capsense_Filter.c **** *
 151:.\Generated_Source\PSoC4/capsense_Filter.c **** * \brief    Updates the baseline for all sensors in all widgets.
 152:.\Generated_Source\PSoC4/capsense_Filter.c **** *
 153:.\Generated_Source\PSoC4/capsense_Filter.c **** * \details
 154:.\Generated_Source\PSoC4/capsense_Filter.c **** *  Updates the baseline for all sensors in all widgets.
 155:.\Generated_Source\PSoC4/capsense_Filter.c **** *
 156:.\Generated_Source\PSoC4/capsense_Filter.c **** * \return   Returns a status indicating whether all relevant sensor 
 157:.\Generated_Source\PSoC4/capsense_Filter.c **** *           baselines have been updated.
 158:.\Generated_Source\PSoC4/capsense_Filter.c **** *
 159:.\Generated_Source\PSoC4/capsense_Filter.c **** *******************************************************************************/
 160:.\Generated_Source\PSoC4/capsense_Filter.c **** cystatus capsense_UpdateAllBaselines(void)
ARM GAS  C:\Users\Alan\AppData\Local\Temp\cc5hLSmt.s 			page 6


 161:.\Generated_Source\PSoC4/capsense_Filter.c **** {
 162:.\Generated_Source\PSoC4/capsense_Filter.c ****     uint32 widgetId; 
 163:.\Generated_Source\PSoC4/capsense_Filter.c ****     cystatus bslnStatus = CYRET_SUCCESS;
 164:.\Generated_Source\PSoC4/capsense_Filter.c ****     
 165:.\Generated_Source\PSoC4/capsense_Filter.c ****     for(widgetId = capsense_TOTAL_WIDGETS; widgetId-- > 0u;)
 166:.\Generated_Source\PSoC4/capsense_Filter.c ****     {            
 167:.\Generated_Source\PSoC4/capsense_Filter.c ****         bslnStatus |= capsense_UpdateWidgetBaseline(widgetId);       
 168:.\Generated_Source\PSoC4/capsense_Filter.c ****     }      
 169:.\Generated_Source\PSoC4/capsense_Filter.c ****     
 170:.\Generated_Source\PSoC4/capsense_Filter.c ****     return(bslnStatus);
 171:.\Generated_Source\PSoC4/capsense_Filter.c **** }
 172:.\Generated_Source\PSoC4/capsense_Filter.c ****   
 173:.\Generated_Source\PSoC4/capsense_Filter.c **** 
 174:.\Generated_Source\PSoC4/capsense_Filter.c **** /*******************************************************************************
 175:.\Generated_Source\PSoC4/capsense_Filter.c **** * Function Name: capsense_UpdateWidgetBaseline
 176:.\Generated_Source\PSoC4/capsense_Filter.c **** ****************************************************************************//**
 177:.\Generated_Source\PSoC4/capsense_Filter.c **** *
 178:.\Generated_Source\PSoC4/capsense_Filter.c **** * \brief    Updates the baseline for all sensors in a widget indicated by an input
 179:.\Generated_Source\PSoC4/capsense_Filter.c **** *           parameter.
 180:.\Generated_Source\PSoC4/capsense_Filter.c **** *
 181:.\Generated_Source\PSoC4/capsense_Filter.c **** * \details  Updates the baseline for all sensors in a widget indicated by an input
 182:.\Generated_Source\PSoC4/capsense_Filter.c **** *           parameter.
 183:.\Generated_Source\PSoC4/capsense_Filter.c **** *
 184:.\Generated_Source\PSoC4/capsense_Filter.c **** * \param   widgetId Specifies the ID number of the widget to update the baseline of
 185:.\Generated_Source\PSoC4/capsense_Filter.c **** *                       the sensors in the widget.
 186:.\Generated_Source\PSoC4/capsense_Filter.c **** *
 187:.\Generated_Source\PSoC4/capsense_Filter.c **** * \return   Returns a status indicating whether the baselines of all
 188:.\Generated_Source\PSoC4/capsense_Filter.c **** *           relevant sensors have been updated or not.
 189:.\Generated_Source\PSoC4/capsense_Filter.c **** *
 190:.\Generated_Source\PSoC4/capsense_Filter.c **** *******************************************************************************/
 191:.\Generated_Source\PSoC4/capsense_Filter.c **** cystatus capsense_UpdateWidgetBaseline(uint32 widgetId)
 192:.\Generated_Source\PSoC4/capsense_Filter.c **** {
 193:.\Generated_Source\PSoC4/capsense_Filter.c ****     uint32 sensorId;       
 194:.\Generated_Source\PSoC4/capsense_Filter.c ****     uint32 sensorsNumber;  
 195:.\Generated_Source\PSoC4/capsense_Filter.c **** 
 196:.\Generated_Source\PSoC4/capsense_Filter.c ****     capsense_FLASH_WD_STRUCT const *ptrWidget = &capsense_dsFlash.wdgtArray[widgetId];    
 197:.\Generated_Source\PSoC4/capsense_Filter.c ****     cystatus bslnStatus = CYRET_SUCCESS;    
 198:.\Generated_Source\PSoC4/capsense_Filter.c ****     
 199:.\Generated_Source\PSoC4/capsense_Filter.c ****     /* Find total amount of sensors in specified widget */   
 200:.\Generated_Source\PSoC4/capsense_Filter.c ****     sensorsNumber = capsense_GET_SNS_CNT_BY_PTR(ptrWidget);    
 201:.\Generated_Source\PSoC4/capsense_Filter.c ****     
 202:.\Generated_Source\PSoC4/capsense_Filter.c ****     for(sensorId = sensorsNumber; sensorId-- > 0u;)
 203:.\Generated_Source\PSoC4/capsense_Filter.c ****     {
 204:.\Generated_Source\PSoC4/capsense_Filter.c ****         bslnStatus |= capsense_UpdateSensorBaseline(widgetId, sensorId);    
 205:.\Generated_Source\PSoC4/capsense_Filter.c ****     }
 206:.\Generated_Source\PSoC4/capsense_Filter.c **** 
 207:.\Generated_Source\PSoC4/capsense_Filter.c ****     return(bslnStatus);
 208:.\Generated_Source\PSoC4/capsense_Filter.c **** }
 209:.\Generated_Source\PSoC4/capsense_Filter.c **** 
 210:.\Generated_Source\PSoC4/capsense_Filter.c **** 
 211:.\Generated_Source\PSoC4/capsense_Filter.c **** /*******************************************************************************
 212:.\Generated_Source\PSoC4/capsense_Filter.c **** * Function Name: capsense_UpdateSensorBaseline
 213:.\Generated_Source\PSoC4/capsense_Filter.c **** ****************************************************************************//**
 214:.\Generated_Source\PSoC4/capsense_Filter.c **** *
 215:.\Generated_Source\PSoC4/capsense_Filter.c **** * \brief    Updates the baseline for a sensor specified by an input parameter.
 216:.\Generated_Source\PSoC4/capsense_Filter.c **** *
 217:.\Generated_Source\PSoC4/capsense_Filter.c **** * \details  Updates the baseline for a sensor specified by an input parameter.
ARM GAS  C:\Users\Alan\AppData\Local\Temp\cc5hLSmt.s 			page 7


 218:.\Generated_Source\PSoC4/capsense_Filter.c **** *
 219:.\Generated_Source\PSoC4/capsense_Filter.c **** * \param   widgetId Specifies the ID number of the widget to update the baseline.
 220:.\Generated_Source\PSoC4/capsense_Filter.c **** *
 221:.\Generated_Source\PSoC4/capsense_Filter.c **** * \param   sensorId Specifies the ID number of the sensor in the widget to update the baseline.
 222:.\Generated_Source\PSoC4/capsense_Filter.c **** *
 223:.\Generated_Source\PSoC4/capsense_Filter.c **** * \return   Returns a status indicating whether the baseline has been updated. 
 224:.\Generated_Source\PSoC4/capsense_Filter.c **** *
 225:.\Generated_Source\PSoC4/capsense_Filter.c **** *******************************************************************************/
 226:.\Generated_Source\PSoC4/capsense_Filter.c **** cystatus capsense_UpdateSensorBaseline(uint32 widgetId, uint32 sensorId)
 227:.\Generated_Source\PSoC4/capsense_Filter.c **** {    
 228:.\Generated_Source\PSoC4/capsense_Filter.c ****     cystatus bslnStatus = CYRET_SUCCESS;  
 229:.\Generated_Source\PSoC4/capsense_Filter.c ****     
 230:.\Generated_Source\PSoC4/capsense_Filter.c ****     capsense_RAM_SNS_STRUCT *ptrSensor = NULL;    
 231:.\Generated_Source\PSoC4/capsense_Filter.c ****     capsense_FLASH_WD_STRUCT const *ptrWidget = &capsense_dsFlash.wdgtArray[widgetId];    
 232:.\Generated_Source\PSoC4/capsense_Filter.c ****     capsense_RAM_WD_BASE_STRUCT *ptrWidgetRam = ptrWidget->ptr2WdgtRam;   
 233:.\Generated_Source\PSoC4/capsense_Filter.c ****           
 234:.\Generated_Source\PSoC4/capsense_Filter.c ****     /* Find pointer to specified sensor object */     
 235:.\Generated_Source\PSoC4/capsense_Filter.c ****     ptrSensor = ptrWidget->ptr2SnsRam;
 236:.\Generated_Source\PSoC4/capsense_Filter.c ****     ptrSensor = &ptrSensor[sensorId];
 237:.\Generated_Source\PSoC4/capsense_Filter.c ****     
 238:.\Generated_Source\PSoC4/capsense_Filter.c ****     bslnStatus = capsense_FtUpdateBaseline(
 239:.\Generated_Source\PSoC4/capsense_Filter.c ****                         ptrWidgetRam, ptrSensor, (uint32)ptrWidget->wdgtType);
 240:.\Generated_Source\PSoC4/capsense_Filter.c ****    
 241:.\Generated_Source\PSoC4/capsense_Filter.c ****     return(bslnStatus);
 242:.\Generated_Source\PSoC4/capsense_Filter.c **** }
 243:.\Generated_Source\PSoC4/capsense_Filter.c ****  
 244:.\Generated_Source\PSoC4/capsense_Filter.c **** 
 245:.\Generated_Source\PSoC4/capsense_Filter.c **** /*******************************************************************************
 246:.\Generated_Source\PSoC4/capsense_Filter.c **** * Function Name: capsense_FtUpdateBaseline
 247:.\Generated_Source\PSoC4/capsense_Filter.c **** ****************************************************************************//**
 248:.\Generated_Source\PSoC4/capsense_Filter.c **** *
 249:.\Generated_Source\PSoC4/capsense_Filter.c **** * \brief    Updates the baseline for a sensor specified by an input parameter.
 250:.\Generated_Source\PSoC4/capsense_Filter.c **** *
 251:.\Generated_Source\PSoC4/capsense_Filter.c **** * \details  Updates the baseline for a sensor specified by an input parameter.
 252:.\Generated_Source\PSoC4/capsense_Filter.c **** *
 253:.\Generated_Source\PSoC4/capsense_Filter.c **** * \param    ptr2wd_ram The pointer to the widget RAM structure where all the widget 
 254:.\Generated_Source\PSoC4/capsense_Filter.c **** *           parameters are stored.
 255:.\Generated_Source\PSoC4/capsense_Filter.c **** *
 256:.\Generated_Source\PSoC4/capsense_Filter.c **** * \param    ptrSensor The pointer to the sensor RAM structure where all the sensor
 257:.\Generated_Source\PSoC4/capsense_Filter.c **** *           parameters are stored.
 258:.\Generated_Source\PSoC4/capsense_Filter.c **** *
 259:.\Generated_Source\PSoC4/capsense_Filter.c **** * \return   Returns a status indicating whether the baseline has been updated. 
 260:.\Generated_Source\PSoC4/capsense_Filter.c **** *
 261:.\Generated_Source\PSoC4/capsense_Filter.c **** *******************************************************************************/
 262:.\Generated_Source\PSoC4/capsense_Filter.c **** cystatus capsense_FtUpdateBaseline(
 263:.\Generated_Source\PSoC4/capsense_Filter.c ****                                 capsense_RAM_WD_BASE_STRUCT *ptrWidgetRam,
 264:.\Generated_Source\PSoC4/capsense_Filter.c ****                                 capsense_RAM_SNS_STRUCT *ptrSensor, 
 265:.\Generated_Source\PSoC4/capsense_Filter.c ****                                 uint32 wdType)
 266:.\Generated_Source\PSoC4/capsense_Filter.c **** {         
 267:.\Generated_Source\PSoC4/capsense_Filter.c ****     uint32 sign;
 268:.\Generated_Source\PSoC4/capsense_Filter.c ****     uint32 difference;        
 269:.\Generated_Source\PSoC4/capsense_Filter.c ****     uint32 channel;
 270:.\Generated_Source\PSoC4/capsense_Filter.c ****     cystatus bslnStatus = CYRET_SUCCESS; 
 271:.\Generated_Source\PSoC4/capsense_Filter.c ****     
 272:.\Generated_Source\PSoC4/capsense_Filter.c ****     #if (capsense_TOTAL_WIDGETS)  
 273:.\Generated_Source\PSoC4/capsense_Filter.c ****         uint32 history;
 274:.\Generated_Source\PSoC4/capsense_Filter.c ****     #endif /* (capsense_TOTAL_WIDGETS) */    
ARM GAS  C:\Users\Alan\AppData\Local\Temp\cc5hLSmt.s 			page 8


 275:.\Generated_Source\PSoC4/capsense_Filter.c ****     
 276:.\Generated_Source\PSoC4/capsense_Filter.c ****     /* Apply baseline to every channel in sensor */
 277:.\Generated_Source\PSoC4/capsense_Filter.c ****     for(channel = capsense_NUM_SCAN_FREQS; channel-- > 0u;) 
 278:.\Generated_Source\PSoC4/capsense_Filter.c ****     {               
 279:.\Generated_Source\PSoC4/capsense_Filter.c ****         /* Calculate signal value and its sign */
 280:.\Generated_Source\PSoC4/capsense_Filter.c ****         if(ptrSensor->raw[channel] >= ptrSensor->bsln[channel])
 281:.\Generated_Source\PSoC4/capsense_Filter.c ****         {
 282:.\Generated_Source\PSoC4/capsense_Filter.c ****             difference = (uint32)ptrSensor->raw[channel] - (uint32)ptrSensor->bsln[channel];
 283:.\Generated_Source\PSoC4/capsense_Filter.c ****             sign = 1u;
 284:.\Generated_Source\PSoC4/capsense_Filter.c ****             ptrSensor->negBslnRstCnt[channel] = 0u;
 285:.\Generated_Source\PSoC4/capsense_Filter.c ****         }
 286:.\Generated_Source\PSoC4/capsense_Filter.c ****         else
 287:.\Generated_Source\PSoC4/capsense_Filter.c ****         {
 288:.\Generated_Source\PSoC4/capsense_Filter.c ****             difference = (uint32)ptrSensor->bsln[channel] - (uint32)ptrSensor->raw[channel];
 289:.\Generated_Source\PSoC4/capsense_Filter.c ****             sign = 0u;
 290:.\Generated_Source\PSoC4/capsense_Filter.c ****         }     
 291:.\Generated_Source\PSoC4/capsense_Filter.c ****         
 292:.\Generated_Source\PSoC4/capsense_Filter.c ****         /* Reset baseline if condition is met */ 
 293:.\Generated_Source\PSoC4/capsense_Filter.c ****         if((sign == 0u) && (difference > (uint32) ptrWidgetRam->nNoiseTh))
 294:.\Generated_Source\PSoC4/capsense_Filter.c ****         {
 295:.\Generated_Source\PSoC4/capsense_Filter.c ****             if(ptrSensor->negBslnRstCnt[channel] >= ptrWidgetRam->lowBslnRst)
 296:.\Generated_Source\PSoC4/capsense_Filter.c ****             {                
 297:.\Generated_Source\PSoC4/capsense_Filter.c ****                 capsense_FtInitializeBaselineChannel(ptrSensor, wdType, channel);             
 298:.\Generated_Source\PSoC4/capsense_Filter.c ****             }
 299:.\Generated_Source\PSoC4/capsense_Filter.c ****             else
 300:.\Generated_Source\PSoC4/capsense_Filter.c ****             {
 301:.\Generated_Source\PSoC4/capsense_Filter.c ****                 ptrSensor->negBslnRstCnt[channel]++;
 302:.\Generated_Source\PSoC4/capsense_Filter.c ****             }
 303:.\Generated_Source\PSoC4/capsense_Filter.c ****         }
 304:.\Generated_Source\PSoC4/capsense_Filter.c ****         else
 305:.\Generated_Source\PSoC4/capsense_Filter.c ****         {
 306:.\Generated_Source\PSoC4/capsense_Filter.c ****             #if (!capsense_SENSOR_AUTO_RESET_EN)
 307:.\Generated_Source\PSoC4/capsense_Filter.c ****                 /* Update baseline only if signal is in range between noiseThreshold and negativeno
 308:.\Generated_Source\PSoC4/capsense_Filter.c ****                 if ((difference <= (uint32)ptrWidgetRam->noiseTh) ||
 309:.\Generated_Source\PSoC4/capsense_Filter.c ****                     ((difference < (uint32) ptrWidgetRam->nNoiseTh) && (sign == 0u)))
 310:.\Generated_Source\PSoC4/capsense_Filter.c ****                 {
 311:.\Generated_Source\PSoC4/capsense_Filter.c ****             #endif /* (CapSense_CSD_AUTO_RESET == CapSense_CSD_AUTO_RESET_DISABLE) */
 312:.\Generated_Source\PSoC4/capsense_Filter.c ****                     #if (capsense_BASELINE_TYPE == capsense_IIR_BASELINE)  
 313:.\Generated_Source\PSoC4/capsense_Filter.c ****                         
 314:.\Generated_Source\PSoC4/capsense_Filter.c ****                         /* Calculate baseline value */
 315:.\Generated_Source\PSoC4/capsense_Filter.c ****                         if ((capsense_WD_TYPE_ENUM)wdType != capsense_WD_PROXIMITY_E)
 316:.\Generated_Source\PSoC4/capsense_Filter.c ****                         {
 317:.\Generated_Source\PSoC4/capsense_Filter.c ****                             #if (capsense_REGULAR_SENSOR_EN) 
 318:.\Generated_Source\PSoC4/capsense_Filter.c ****                                 #if (capsense_REGULAR_IIR_BL_TYPE == capsense_IIR_FILTER_PERFORMANC
 319:.\Generated_Source\PSoC4/capsense_Filter.c ****                                     history = (uint32) ptrSensor->bsln[channel] << 8u; 
 320:.\Generated_Source\PSoC4/capsense_Filter.c ****                                     history |= ptrSensor->bslnExt[channel];
 321:.\Generated_Source\PSoC4/capsense_Filter.c ****                                 #else
 322:.\Generated_Source\PSoC4/capsense_Filter.c ****                                     history = ptrSensor->bsln[channel];                            
 323:.\Generated_Source\PSoC4/capsense_Filter.c ****                                 #endif /* (capsense_REGULAR_IIR_BL_TYPE == capsense_IIR_FILTER_PERF
 324:.\Generated_Source\PSoC4/capsense_Filter.c ****                             
 325:.\Generated_Source\PSoC4/capsense_Filter.c ****                                 history =  capsense_FtIIR1stOrder(
 326:.\Generated_Source\PSoC4/capsense_Filter.c ****                                                 (uint32)ptrSensor->raw[channel],
 327:.\Generated_Source\PSoC4/capsense_Filter.c ****                                                 history, 
 328:.\Generated_Source\PSoC4/capsense_Filter.c ****                                                 capsense_REGULAR_IIR_BL_N, 
 329:.\Generated_Source\PSoC4/capsense_Filter.c ****                                                 capsense_REGULAR_IIR_BL_SHIFT);
 330:.\Generated_Source\PSoC4/capsense_Filter.c ****                                                            
 331:.\Generated_Source\PSoC4/capsense_Filter.c ****                                 #if (capsense_REGULAR_IIR_BL_TYPE == capsense_IIR_FILTER_PERFORMANC
ARM GAS  C:\Users\Alan\AppData\Local\Temp\cc5hLSmt.s 			page 9


 332:.\Generated_Source\PSoC4/capsense_Filter.c ****                                     ptrSensor->bsln[channel] = LO16(history >> 8u);
 333:.\Generated_Source\PSoC4/capsense_Filter.c ****                                     ptrSensor->bslnExt[channel] = LO8(history);
 334:.\Generated_Source\PSoC4/capsense_Filter.c ****                                 #else
 335:.\Generated_Source\PSoC4/capsense_Filter.c ****                                     ptrSensor->bsln[channel] = LO16(history);
 336:.\Generated_Source\PSoC4/capsense_Filter.c ****                                 #endif /* (capsense_REGULAR_IIR_BL_TYPE == capsense_IIR_FILTER_PERF
 337:.\Generated_Source\PSoC4/capsense_Filter.c ****                             #endif /* (capsense_REGULAR_SENSOR_EN) */
 338:.\Generated_Source\PSoC4/capsense_Filter.c ****                         }
 339:.\Generated_Source\PSoC4/capsense_Filter.c ****                         else 
 340:.\Generated_Source\PSoC4/capsense_Filter.c ****                         {
 341:.\Generated_Source\PSoC4/capsense_Filter.c ****                             #if (capsense_PROXIMITY_SENSOR_EN)     
 342:.\Generated_Source\PSoC4/capsense_Filter.c ****                                 #if (capsense_PROX_IIR_BL_TYPE == capsense_IIR_FILTER_PERFORMANCE) 
 343:.\Generated_Source\PSoC4/capsense_Filter.c ****                                     history = (uint32) ptrSensor->bsln[channel] << 8u; 
 344:.\Generated_Source\PSoC4/capsense_Filter.c ****                                     history |= ptrSensor->bslnExt[channel];
 345:.\Generated_Source\PSoC4/capsense_Filter.c ****                                 #else
 346:.\Generated_Source\PSoC4/capsense_Filter.c ****                                     history = (uint32) ptrSensor->bsln[channel];                   
 347:.\Generated_Source\PSoC4/capsense_Filter.c ****                                 #endif /* (capsense_PROX_IIR_BL_TYPE == capsense_IIR_FILTER_PERFORM
 348:.\Generated_Source\PSoC4/capsense_Filter.c ****                                 
 349:.\Generated_Source\PSoC4/capsense_Filter.c ****                                 history = capsense_FtIIR1stOrder((uint32)ptrSensor->raw[channel], h
 350:.\Generated_Source\PSoC4/capsense_Filter.c ****                                 
 351:.\Generated_Source\PSoC4/capsense_Filter.c ****                                 #if (capsense_PROX_IIR_BL_TYPE == capsense_IIR_FILTER_PERFORMANCE) 
 352:.\Generated_Source\PSoC4/capsense_Filter.c ****                                     ptrSensor->bsln[channel] = LO16(history >> 8u);
 353:.\Generated_Source\PSoC4/capsense_Filter.c ****                                     ptrSensor->bslnExt[channel] = LO8(history);
 354:.\Generated_Source\PSoC4/capsense_Filter.c ****                                 #else
 355:.\Generated_Source\PSoC4/capsense_Filter.c ****                                     ptrSensor->bsln[channel] = LO16(history);
 356:.\Generated_Source\PSoC4/capsense_Filter.c ****                                 #endif /* (capsense_PROX_IIR_BL_TYPE == capsense_IIR_FILTER_PERFORM
 357:.\Generated_Source\PSoC4/capsense_Filter.c ****                             #endif /* (capsense_PROX_SENSOR_EN)   */
 358:.\Generated_Source\PSoC4/capsense_Filter.c ****                         }
 359:.\Generated_Source\PSoC4/capsense_Filter.c ****                     #else
 360:.\Generated_Source\PSoC4/capsense_Filter.c ****                         
 361:.\Generated_Source\PSoC4/capsense_Filter.c ****                         /******************************************************************
 362:.\Generated_Source\PSoC4/capsense_Filter.c ****                         * This is the place where the bucket algorithm should be implemented.
 363:.\Generated_Source\PSoC4/capsense_Filter.c ****                         * The bucket method will be implemented in the next component version.
 364:.\Generated_Source\PSoC4/capsense_Filter.c ****                         *******************************************************************/
 365:.\Generated_Source\PSoC4/capsense_Filter.c ****                         
 366:.\Generated_Source\PSoC4/capsense_Filter.c ****                     #endif /* (capsense_CSD_BASELINE_TYPE == capsense_IIR_BASELINE)  */
 367:.\Generated_Source\PSoC4/capsense_Filter.c ****                     
 368:.\Generated_Source\PSoC4/capsense_Filter.c ****             #if (!capsense_SENSOR_AUTO_RESET_EN)
 369:.\Generated_Source\PSoC4/capsense_Filter.c ****                 }
 370:.\Generated_Source\PSoC4/capsense_Filter.c ****             #endif /* (!capsense_SENSOR_AUTO_RESET_EN) */
 371:.\Generated_Source\PSoC4/capsense_Filter.c ****         }
 372:.\Generated_Source\PSoC4/capsense_Filter.c ****     }
 373:.\Generated_Source\PSoC4/capsense_Filter.c ****     
 374:.\Generated_Source\PSoC4/capsense_Filter.c ****     return(bslnStatus);    
 375:.\Generated_Source\PSoC4/capsense_Filter.c **** }
 376:.\Generated_Source\PSoC4/capsense_Filter.c **** 
 377:.\Generated_Source\PSoC4/capsense_Filter.c **** 
 378:.\Generated_Source\PSoC4/capsense_Filter.c **** /*******************************************************************************
 379:.\Generated_Source\PSoC4/capsense_Filter.c **** * Function Name: capsense_InitializeAllBaselines
 380:.\Generated_Source\PSoC4/capsense_Filter.c **** ****************************************************************************//**
 381:.\Generated_Source\PSoC4/capsense_Filter.c **** *
 382:.\Generated_Source\PSoC4/capsense_Filter.c **** * \brief    Initializes the baseline for all sensors of all widgets. 
 383:.\Generated_Source\PSoC4/capsense_Filter.c **** *           Also, this function can be used to re-initialise baselines.
 384:.\Generated_Source\PSoC4/capsense_Filter.c **** *
 385:.\Generated_Source\PSoC4/capsense_Filter.c **** * \details  Initializes the baseline for all sensors of all widgets. 
 386:.\Generated_Source\PSoC4/capsense_Filter.c **** *           Also, this function can be used to re-initialise baselines.
 387:.\Generated_Source\PSoC4/capsense_Filter.c **** *
 388:.\Generated_Source\PSoC4/capsense_Filter.c **** *******************************************************************************/
ARM GAS  C:\Users\Alan\AppData\Local\Temp\cc5hLSmt.s 			page 10


 389:.\Generated_Source\PSoC4/capsense_Filter.c **** void capsense_InitializeAllBaselines(void)
 390:.\Generated_Source\PSoC4/capsense_Filter.c **** {
 391:.\Generated_Source\PSoC4/capsense_Filter.c ****     uint32 widgetId;    
 392:.\Generated_Source\PSoC4/capsense_Filter.c ****     
 393:.\Generated_Source\PSoC4/capsense_Filter.c ****     for(widgetId = capsense_TOTAL_WIDGETS; widgetId-- > 0u;)
 394:.\Generated_Source\PSoC4/capsense_Filter.c ****     {
 395:.\Generated_Source\PSoC4/capsense_Filter.c ****         capsense_InitializeWidgetBaseline(widgetId); 
 396:.\Generated_Source\PSoC4/capsense_Filter.c ****     }
 397:.\Generated_Source\PSoC4/capsense_Filter.c **** }
 398:.\Generated_Source\PSoC4/capsense_Filter.c **** 
 399:.\Generated_Source\PSoC4/capsense_Filter.c **** 
 400:.\Generated_Source\PSoC4/capsense_Filter.c **** /*******************************************************************************
 401:.\Generated_Source\PSoC4/capsense_Filter.c **** * Function Name: capsense_InitializeWidgetBaseline
 402:.\Generated_Source\PSoC4/capsense_Filter.c **** ****************************************************************************//**
 403:.\Generated_Source\PSoC4/capsense_Filter.c **** *
 404:.\Generated_Source\PSoC4/capsense_Filter.c **** * \brief    Initializes the baseline for all sensors of the widgets indicated by 
 405:.\Generated_Source\PSoC4/capsense_Filter.c **** *           an input parameter. 
 406:.\Generated_Source\PSoC4/capsense_Filter.c **** *
 407:.\Generated_Source\PSoC4/capsense_Filter.c **** * \details  Initializes the baseline for all sensors of the widgets indicated by 
 408:.\Generated_Source\PSoC4/capsense_Filter.c **** *           an input parameter. 
 409:.\Generated_Source\PSoC4/capsense_Filter.c **** *
 410:.\Generated_Source\PSoC4/capsense_Filter.c **** * \param  widgetId Specifies the ID number of a widget to initialize the baseline 
 411:.\Generated_Source\PSoC4/capsense_Filter.c **** *                       of all sensors in the widget.
 412:.\Generated_Source\PSoC4/capsense_Filter.c **** *
 413:.\Generated_Source\PSoC4/capsense_Filter.c **** *******************************************************************************/
 414:.\Generated_Source\PSoC4/capsense_Filter.c **** void capsense_InitializeWidgetBaseline(uint32 widgetId)
 415:.\Generated_Source\PSoC4/capsense_Filter.c **** {   
 416:.\Generated_Source\PSoC4/capsense_Filter.c ****     uint32 sensorId;
 417:.\Generated_Source\PSoC4/capsense_Filter.c ****     uint32 sensorsNumber;
 418:.\Generated_Source\PSoC4/capsense_Filter.c ****   
 419:.\Generated_Source\PSoC4/capsense_Filter.c ****     capsense_FLASH_WD_STRUCT const *ptrWidget = &capsense_dsFlash.wdgtArray[widgetId];
 420:.\Generated_Source\PSoC4/capsense_Filter.c **** 
 421:.\Generated_Source\PSoC4/capsense_Filter.c ****     /* Find total amount of sensors in specified widget */   
 422:.\Generated_Source\PSoC4/capsense_Filter.c ****     sensorsNumber = capsense_GET_SNS_CNT_BY_PTR(ptrWidget);    
 423:.\Generated_Source\PSoC4/capsense_Filter.c ****     
 424:.\Generated_Source\PSoC4/capsense_Filter.c ****     for(sensorId = sensorsNumber; sensorId-- > 0u;)
 425:.\Generated_Source\PSoC4/capsense_Filter.c ****     {
 426:.\Generated_Source\PSoC4/capsense_Filter.c ****         capsense_InitializeSensorBaseline(widgetId, sensorId);   
 427:.\Generated_Source\PSoC4/capsense_Filter.c ****     }
 428:.\Generated_Source\PSoC4/capsense_Filter.c **** }
 429:.\Generated_Source\PSoC4/capsense_Filter.c **** 
 430:.\Generated_Source\PSoC4/capsense_Filter.c **** 
 431:.\Generated_Source\PSoC4/capsense_Filter.c **** /*******************************************************************************
 432:.\Generated_Source\PSoC4/capsense_Filter.c **** * Function Name: capsense_InitializeSensorBaseline
 433:.\Generated_Source\PSoC4/capsense_Filter.c **** ****************************************************************************//**
 434:.\Generated_Source\PSoC4/capsense_Filter.c **** *
 435:.\Generated_Source\PSoC4/capsense_Filter.c **** * \brief    Initializes the baseline history for a sensor indicated by an input
 436:.\Generated_Source\PSoC4/capsense_Filter.c **** *           parameter.
 437:.\Generated_Source\PSoC4/capsense_Filter.c **** *
 438:.\Generated_Source\PSoC4/capsense_Filter.c **** * \details  Initializes the baseline history for a sensor indicated by an input
 439:.\Generated_Source\PSoC4/capsense_Filter.c **** *           parameter.
 440:.\Generated_Source\PSoC4/capsense_Filter.c **** *
 441:.\Generated_Source\PSoC4/capsense_Filter.c **** * \param    widgetId Specifies the ID number of a widget to initialize the baseline 
 442:.\Generated_Source\PSoC4/capsense_Filter.c **** *                       of all sensors in the widget.
 443:.\Generated_Source\PSoC4/capsense_Filter.c **** * \param    sensorId Specifies the ID number of sensor to initialize the baseline.
 444:.\Generated_Source\PSoC4/capsense_Filter.c **** *
 445:.\Generated_Source\PSoC4/capsense_Filter.c **** *******************************************************************************/
ARM GAS  C:\Users\Alan\AppData\Local\Temp\cc5hLSmt.s 			page 11


 446:.\Generated_Source\PSoC4/capsense_Filter.c **** void capsense_InitializeSensorBaseline(uint32 widgetId, uint32 sensorId)
 447:.\Generated_Source\PSoC4/capsense_Filter.c **** {      
 448:.\Generated_Source\PSoC4/capsense_Filter.c ****     capsense_RAM_SNS_STRUCT *ptrSensor = NULL;    
 449:.\Generated_Source\PSoC4/capsense_Filter.c ****     capsense_FLASH_WD_STRUCT const *ptrWidget = NULL;
 450:.\Generated_Source\PSoC4/capsense_Filter.c ****     ptrWidget = &capsense_dsFlash.wdgtArray[widgetId];
 451:.\Generated_Source\PSoC4/capsense_Filter.c ****     
 452:.\Generated_Source\PSoC4/capsense_Filter.c ****     /* Find pointer to specified sensor object */     
 453:.\Generated_Source\PSoC4/capsense_Filter.c ****     ptrSensor = ptrWidget->ptr2SnsRam;
 454:.\Generated_Source\PSoC4/capsense_Filter.c ****     ptrSensor = &ptrSensor[sensorId];
 455:.\Generated_Source\PSoC4/capsense_Filter.c ****     
 456:.\Generated_Source\PSoC4/capsense_Filter.c ****     capsense_FtInitializeBaseline(ptrSensor, (uint32)ptrWidget->wdgtType);      
 457:.\Generated_Source\PSoC4/capsense_Filter.c **** }
 458:.\Generated_Source\PSoC4/capsense_Filter.c **** 
 459:.\Generated_Source\PSoC4/capsense_Filter.c **** 
 460:.\Generated_Source\PSoC4/capsense_Filter.c **** /*******************************************************************************
 461:.\Generated_Source\PSoC4/capsense_Filter.c **** * Function Name: capsense_FtInitializeBaseline
 462:.\Generated_Source\PSoC4/capsense_Filter.c **** ****************************************************************************//**
 463:.\Generated_Source\PSoC4/capsense_Filter.c **** *
 464:.\Generated_Source\PSoC4/capsense_Filter.c **** * \brief    Initializes the baseline history for a sensor indicated by an input
 465:.\Generated_Source\PSoC4/capsense_Filter.c **** *           parameter.
 466:.\Generated_Source\PSoC4/capsense_Filter.c **** *
 467:.\Generated_Source\PSoC4/capsense_Filter.c **** * \details  Initializes the baseline history for a sensor indicated by an input
 468:.\Generated_Source\PSoC4/capsense_Filter.c **** *           parameter.
 469:.\Generated_Source\PSoC4/capsense_Filter.c **** *
 470:.\Generated_Source\PSoC4/capsense_Filter.c **** * \param    *ptrSensor The pointer to the sensor RAM object.
 471:.\Generated_Source\PSoC4/capsense_Filter.c **** * \param    wdType     Specifies the type of a widget.
 472:.\Generated_Source\PSoC4/capsense_Filter.c **** *
 473:.\Generated_Source\PSoC4/capsense_Filter.c **** *******************************************************************************/
 474:.\Generated_Source\PSoC4/capsense_Filter.c **** CY_INLINE void capsense_FtInitializeBaseline(capsense_RAM_SNS_STRUCT *ptrSensor, uint32 wdType) 
 475:.\Generated_Source\PSoC4/capsense_Filter.c **** {
 476:.\Generated_Source\PSoC4/capsense_Filter.c ****     uint32 channel;
 477:.\Generated_Source\PSoC4/capsense_Filter.c **** 
 478:.\Generated_Source\PSoC4/capsense_Filter.c ****     /* Apply baseline initialization to every channel in sensor */    
 479:.\Generated_Source\PSoC4/capsense_Filter.c ****     for(channel = capsense_NUM_SCAN_FREQS; channel-- > 0u;) 
 480:.\Generated_Source\PSoC4/capsense_Filter.c ****     {
 481:.\Generated_Source\PSoC4/capsense_Filter.c ****         capsense_FtInitializeBaselineChannel(ptrSensor, wdType, channel); 
 482:.\Generated_Source\PSoC4/capsense_Filter.c ****     }
 483:.\Generated_Source\PSoC4/capsense_Filter.c **** }
 484:.\Generated_Source\PSoC4/capsense_Filter.c **** 
 485:.\Generated_Source\PSoC4/capsense_Filter.c **** 
 486:.\Generated_Source\PSoC4/capsense_Filter.c **** /*******************************************************************************
 487:.\Generated_Source\PSoC4/capsense_Filter.c **** * Function Name: capsense_FtInitializeBaselineChannel
 488:.\Generated_Source\PSoC4/capsense_Filter.c **** ****************************************************************************//**
 489:.\Generated_Source\PSoC4/capsense_Filter.c **** *
 490:.\Generated_Source\PSoC4/capsense_Filter.c **** * \brief    Initializes the baseline history for a sensor indicated by an input
 491:.\Generated_Source\PSoC4/capsense_Filter.c **** *           parameter.
 492:.\Generated_Source\PSoC4/capsense_Filter.c **** *
 493:.\Generated_Source\PSoC4/capsense_Filter.c **** * \details  Initializes the baseline history for a sensor indicated by an input
 494:.\Generated_Source\PSoC4/capsense_Filter.c **** *           parameter.
 495:.\Generated_Source\PSoC4/capsense_Filter.c **** *
 496:.\Generated_Source\PSoC4/capsense_Filter.c **** * \param    *ptrSensor The pointer to the sensor RAM object.
 497:.\Generated_Source\PSoC4/capsense_Filter.c **** * \param    wdType     Specifies the type of a widget.
 498:.\Generated_Source\PSoC4/capsense_Filter.c **** * \param    channel    Specifies the number of the channel to be initialized.
 499:.\Generated_Source\PSoC4/capsense_Filter.c **** *
 500:.\Generated_Source\PSoC4/capsense_Filter.c **** *******************************************************************************/
 501:.\Generated_Source\PSoC4/capsense_Filter.c **** void capsense_FtInitializeBaselineChannel(capsense_RAM_SNS_STRUCT *ptrSensor, uint32 wdType, uint32
 502:.\Generated_Source\PSoC4/capsense_Filter.c **** {
ARM GAS  C:\Users\Alan\AppData\Local\Temp\cc5hLSmt.s 			page 12


 122              		.loc 1 502 0
 123              		.cfi_startproc
 124              	.LVL16:
 503:.\Generated_Source\PSoC4/capsense_Filter.c ****     #if (capsense_BASELINE_TYPE == capsense_IIR_BASELINE)  
 504:.\Generated_Source\PSoC4/capsense_Filter.c ****         if ((capsense_WD_TYPE_ENUM)wdType != capsense_WD_PROXIMITY_E)
 125              		.loc 1 504 0
 126 0000 C9B2     		uxtb	r1, r1
 127              	.LVL17:
 128 0002 0629     		cmp	r1, #6
 129 0004 02D0     		beq	.L9
 505:.\Generated_Source\PSoC4/capsense_Filter.c ****         {
 506:.\Generated_Source\PSoC4/capsense_Filter.c ****             #if (capsense_REGULAR_SENSOR_EN)
 507:.\Generated_Source\PSoC4/capsense_Filter.c ****                 #if (capsense_REGULAR_IIR_BL_TYPE == capsense_IIR_FILTER_PERFORMANCE)              
 508:.\Generated_Source\PSoC4/capsense_Filter.c ****                     ptrSensor->bslnExt[channel] = 0u;                
 130              		.loc 1 508 0
 131 0006 8318     		add	r3, r0, r2
 132 0008 0021     		mov	r1, #0
 133 000a 1971     		strb	r1, [r3, #4]
 134              	.L9:
 509:.\Generated_Source\PSoC4/capsense_Filter.c ****                 #endif /* (capsense_REGULAR_IIR_BL_TYPE == capsense_IIR_FILTER_PERFORMANCE) */
 510:.\Generated_Source\PSoC4/capsense_Filter.c ****             #endif /* (capsense_REGULAR_SENSOR_EN) */
 511:.\Generated_Source\PSoC4/capsense_Filter.c ****         }
 512:.\Generated_Source\PSoC4/capsense_Filter.c ****         else
 513:.\Generated_Source\PSoC4/capsense_Filter.c ****         {
 514:.\Generated_Source\PSoC4/capsense_Filter.c ****             #if (capsense_PROXIMITY_SENSOR_EN)     
 515:.\Generated_Source\PSoC4/capsense_Filter.c ****                 #if (capsense_PROX_IIR_BL_TYPE == capsense_IIR_FILTER_PERFORMANCE)                 
 516:.\Generated_Source\PSoC4/capsense_Filter.c ****                     ptrSensor->bslnExt[channel] = 0u;               
 517:.\Generated_Source\PSoC4/capsense_Filter.c ****                 #endif /* (capsense_PROX_IIR_BL_TYPE == capsense_IIR_FILTER_PERFORMANCE) */
 518:.\Generated_Source\PSoC4/capsense_Filter.c ****             #endif /* (capsense_PROX_SENSOR_EN) */
 519:.\Generated_Source\PSoC4/capsense_Filter.c ****         }
 520:.\Generated_Source\PSoC4/capsense_Filter.c ****     #else
 521:.\Generated_Source\PSoC4/capsense_Filter.c ****         /* capsense_BASELINE_TYPE == capsense_BUCKET_BASELINE */        
 522:.\Generated_Source\PSoC4/capsense_Filter.c ****         ptrSensor->bslnExt[channel] = 0u;        
 523:.\Generated_Source\PSoC4/capsense_Filter.c ****     #endif /* (capsense_BASELINE_TYPE == capsense_IIR_BASELINE) */      
 524:.\Generated_Source\PSoC4/capsense_Filter.c ****     
 525:.\Generated_Source\PSoC4/capsense_Filter.c ****     ptrSensor->bsln[channel] = ptrSensor->raw[channel];
 135              		.loc 1 525 0
 136 000c 5300     		lsl	r3, r2, #1
 137 000e 195A     		ldrh	r1, [r3, r0]
 138 0010 C318     		add	r3, r0, r3
 139 0012 5980     		strh	r1, [r3, #2]
 526:.\Generated_Source\PSoC4/capsense_Filter.c ****     ptrSensor->negBslnRstCnt[channel] = 0u;
 140              		.loc 1 526 0
 141 0014 8218     		add	r2, r0, r2
 142              	.LVL18:
 143 0016 0023     		mov	r3, #0
 144 0018 1372     		strb	r3, [r2, #8]
 527:.\Generated_Source\PSoC4/capsense_Filter.c **** }
 145              		.loc 1 527 0
 146              		@ sp needed
 147 001a 7047     		bx	lr
 148              		.cfi_endproc
 149              	.LFE10:
 150              		.size	capsense_FtInitializeBaselineChannel, .-capsense_FtInitializeBaselineChannel
 151              		.section	.text.capsense_FtInitializeBaseline,"ax",%progbits
 152              		.align	2
 153              		.global	capsense_FtInitializeBaseline
ARM GAS  C:\Users\Alan\AppData\Local\Temp\cc5hLSmt.s 			page 13


 154              		.code	16
 155              		.thumb_func
 156              		.type	capsense_FtInitializeBaseline, %function
 157              	capsense_FtInitializeBaseline:
 158              	.LFB9:
 475:.\Generated_Source\PSoC4/capsense_Filter.c ****     uint32 channel;
 159              		.loc 1 475 0
 160              		.cfi_startproc
 161              	.LVL19:
 162 0000 70B5     		push	{r4, r5, r6, lr}
 163              		.cfi_def_cfa_offset 16
 164              		.cfi_offset 4, -16
 165              		.cfi_offset 5, -12
 166              		.cfi_offset 6, -8
 167              		.cfi_offset 14, -4
 168 0002 061C     		mov	r6, r0
 169 0004 0D1C     		mov	r5, r1
 170              	.LVL20:
 479:.\Generated_Source\PSoC4/capsense_Filter.c ****     {
 171              		.loc 1 479 0
 172 0006 0123     		mov	r3, #1
 173 0008 05E0     		b	.L11
 174              	.LVL21:
 175              	.L12:
 481:.\Generated_Source\PSoC4/capsense_Filter.c ****     }
 176              		.loc 1 481 0
 177 000a 301C     		mov	r0, r6
 178 000c 291C     		mov	r1, r5
 179 000e 221C     		mov	r2, r4
 180 0010 FFF7FEFF 		bl	capsense_FtInitializeBaselineChannel
 181              	.LVL22:
 479:.\Generated_Source\PSoC4/capsense_Filter.c ****     {
 182              		.loc 1 479 0
 183 0014 231C     		mov	r3, r4
 184              	.LVL23:
 185              	.L11:
 479:.\Generated_Source\PSoC4/capsense_Filter.c ****     {
 186              		.loc 1 479 0 is_stmt 0 discriminator 1
 187 0016 5C1E     		sub	r4, r3, #1
 188              	.LVL24:
 189 0018 002B     		cmp	r3, #0
 190 001a F6D1     		bne	.L12
 483:.\Generated_Source\PSoC4/capsense_Filter.c **** 
 191              		.loc 1 483 0 is_stmt 1
 192              		@ sp needed
 193              	.LVL25:
 194              	.LVL26:
 195              	.LVL27:
 196 001c 70BD     		pop	{r4, r5, r6, pc}
 197              		.cfi_endproc
 198              	.LFE9:
 199              		.size	capsense_FtInitializeBaseline, .-capsense_FtInitializeBaseline
 200 001e C046     		.section	.text.capsense_InitializeSensorBaseline,"ax",%progbits
 201              		.align	2
 202              		.global	capsense_InitializeSensorBaseline
 203              		.code	16
 204              		.thumb_func
ARM GAS  C:\Users\Alan\AppData\Local\Temp\cc5hLSmt.s 			page 14


 205              		.type	capsense_InitializeSensorBaseline, %function
 206              	capsense_InitializeSensorBaseline:
 207              	.LFB8:
 447:.\Generated_Source\PSoC4/capsense_Filter.c ****     capsense_RAM_SNS_STRUCT *ptrSensor = NULL;    
 208              		.loc 1 447 0
 209              		.cfi_startproc
 210              	.LVL28:
 211 0000 70B5     		push	{r4, r5, r6, lr}
 212              		.cfi_def_cfa_offset 16
 213              		.cfi_offset 4, -16
 214              		.cfi_offset 5, -12
 215              		.cfi_offset 6, -8
 216              		.cfi_offset 14, -4
 217              	.LVL29:
 453:.\Generated_Source\PSoC4/capsense_Filter.c ****     ptrSensor = &ptrSensor[sensorId];
 218              		.loc 1 453 0
 219 0002 0D4A     		ldr	r2, .L16
 220 0004 8500     		lsl	r5, r0, #2
 221 0006 2B18     		add	r3, r5, r0
 222 0008 DB00     		lsl	r3, r3, #3
 223 000a D318     		add	r3, r2, r3
 224 000c 9C68     		ldr	r4, [r3, #8]
 225              	.LVL30:
 454:.\Generated_Source\PSoC4/capsense_Filter.c ****     
 226              		.loc 1 454 0
 227 000e 8B00     		lsl	r3, r1, #2
 228 0010 5918     		add	r1, r3, r1
 229              	.LVL31:
 230 0012 4900     		lsl	r1, r1, #1
 231 0014 6418     		add	r4, r4, r1
 232              	.LVL32:
 456:.\Generated_Source\PSoC4/capsense_Filter.c **** }
 233              		.loc 1 456 0
 234 0016 2818     		add	r0, r5, r0
 235              	.LVL33:
 236 0018 C000     		lsl	r0, r0, #3
 237 001a 1018     		add	r0, r2, r0
 238 001c 067E     		ldrb	r6, [r0, #24]
 239              	.LVL34:
 240              	.LBB4:
 241              	.LBB5:
 479:.\Generated_Source\PSoC4/capsense_Filter.c ****     {
 242              		.loc 1 479 0
 243 001e 0123     		mov	r3, #1
 244 0020 05E0     		b	.L14
 245              	.LVL35:
 246              	.L15:
 481:.\Generated_Source\PSoC4/capsense_Filter.c ****     }
 247              		.loc 1 481 0
 248 0022 201C     		mov	r0, r4
 249 0024 311C     		mov	r1, r6
 250 0026 2A1C     		mov	r2, r5
 251 0028 FFF7FEFF 		bl	capsense_FtInitializeBaselineChannel
 252              	.LVL36:
 479:.\Generated_Source\PSoC4/capsense_Filter.c ****     {
 253              		.loc 1 479 0
 254 002c 2B1C     		mov	r3, r5
ARM GAS  C:\Users\Alan\AppData\Local\Temp\cc5hLSmt.s 			page 15


 255              	.LVL37:
 256              	.L14:
 257 002e 5D1E     		sub	r5, r3, #1
 258              	.LVL38:
 259 0030 002B     		cmp	r3, #0
 260 0032 F6D1     		bne	.L15
 261              	.LBE5:
 262              	.LBE4:
 457:.\Generated_Source\PSoC4/capsense_Filter.c **** 
 263              		.loc 1 457 0
 264              		@ sp needed
 265              	.LVL39:
 266              	.LVL40:
 267              	.LVL41:
 268 0034 70BD     		pop	{r4, r5, r6, pc}
 269              	.L17:
 270 0036 C046     		.align	2
 271              	.L16:
 272 0038 00000000 		.word	capsense_dsFlash
 273              		.cfi_endproc
 274              	.LFE8:
 275              		.size	capsense_InitializeSensorBaseline, .-capsense_InitializeSensorBaseline
 276              		.section	.text.capsense_InitializeWidgetBaseline,"ax",%progbits
 277              		.align	2
 278              		.global	capsense_InitializeWidgetBaseline
 279              		.code	16
 280              		.thumb_func
 281              		.type	capsense_InitializeWidgetBaseline, %function
 282              	capsense_InitializeWidgetBaseline:
 283              	.LFB7:
 415:.\Generated_Source\PSoC4/capsense_Filter.c ****     uint32 sensorId;
 284              		.loc 1 415 0
 285              		.cfi_startproc
 286              	.LVL42:
 287 0000 38B5     		push	{r3, r4, r5, lr}
 288              		.cfi_def_cfa_offset 16
 289              		.cfi_offset 3, -16
 290              		.cfi_offset 4, -12
 291              		.cfi_offset 5, -8
 292              		.cfi_offset 14, -4
 293 0002 051C     		mov	r5, r0
 294              	.LVL43:
 422:.\Generated_Source\PSoC4/capsense_Filter.c ****     
 295              		.loc 1 422 0
 296 0004 8300     		lsl	r3, r0, #2
 297 0006 1B18     		add	r3, r3, r0
 298 0008 DB00     		lsl	r3, r3, #3
 299 000a 064A     		ldr	r2, .L21
 300 000c D318     		add	r3, r2, r3
 301 000e DB8A     		ldrh	r3, [r3, #22]
 302              	.LVL44:
 424:.\Generated_Source\PSoC4/capsense_Filter.c ****     {
 303              		.loc 1 424 0
 304 0010 04E0     		b	.L19
 305              	.LVL45:
 306              	.L20:
 426:.\Generated_Source\PSoC4/capsense_Filter.c ****     }
ARM GAS  C:\Users\Alan\AppData\Local\Temp\cc5hLSmt.s 			page 16


 307              		.loc 1 426 0
 308 0012 281C     		mov	r0, r5
 309 0014 211C     		mov	r1, r4
 310 0016 FFF7FEFF 		bl	capsense_InitializeSensorBaseline
 311              	.LVL46:
 424:.\Generated_Source\PSoC4/capsense_Filter.c ****     {
 312              		.loc 1 424 0
 313 001a 231C     		mov	r3, r4
 314              	.LVL47:
 315              	.L19:
 424:.\Generated_Source\PSoC4/capsense_Filter.c ****     {
 316              		.loc 1 424 0 is_stmt 0 discriminator 1
 317 001c 5C1E     		sub	r4, r3, #1
 318              	.LVL48:
 319 001e 002B     		cmp	r3, #0
 320 0020 F7D1     		bne	.L20
 428:.\Generated_Source\PSoC4/capsense_Filter.c **** 
 321              		.loc 1 428 0 is_stmt 1
 322              		@ sp needed
 323              	.LVL49:
 324              	.LVL50:
 325 0022 38BD     		pop	{r3, r4, r5, pc}
 326              	.L22:
 327              		.align	2
 328              	.L21:
 329 0024 00000000 		.word	capsense_dsFlash
 330              		.cfi_endproc
 331              	.LFE7:
 332              		.size	capsense_InitializeWidgetBaseline, .-capsense_InitializeWidgetBaseline
 333              		.section	.text.capsense_InitializeAllBaselines,"ax",%progbits
 334              		.align	2
 335              		.global	capsense_InitializeAllBaselines
 336              		.code	16
 337              		.thumb_func
 338              		.type	capsense_InitializeAllBaselines, %function
 339              	capsense_InitializeAllBaselines:
 340              	.LFB6:
 390:.\Generated_Source\PSoC4/capsense_Filter.c ****     uint32 widgetId;    
 341              		.loc 1 390 0
 342              		.cfi_startproc
 343 0000 10B5     		push	{r4, lr}
 344              		.cfi_def_cfa_offset 8
 345              		.cfi_offset 4, -8
 346              		.cfi_offset 14, -4
 347              	.LVL51:
 393:.\Generated_Source\PSoC4/capsense_Filter.c ****     {
 348              		.loc 1 393 0
 349 0002 0123     		mov	r3, #1
 350 0004 03E0     		b	.L24
 351              	.LVL52:
 352              	.L25:
 395:.\Generated_Source\PSoC4/capsense_Filter.c ****     }
 353              		.loc 1 395 0
 354 0006 201C     		mov	r0, r4
 355 0008 FFF7FEFF 		bl	capsense_InitializeWidgetBaseline
 356              	.LVL53:
 393:.\Generated_Source\PSoC4/capsense_Filter.c ****     {
ARM GAS  C:\Users\Alan\AppData\Local\Temp\cc5hLSmt.s 			page 17


 357              		.loc 1 393 0
 358 000c 231C     		mov	r3, r4
 359              	.LVL54:
 360              	.L24:
 393:.\Generated_Source\PSoC4/capsense_Filter.c ****     {
 361              		.loc 1 393 0 is_stmt 0 discriminator 1
 362 000e 5C1E     		sub	r4, r3, #1
 363              	.LVL55:
 364 0010 002B     		cmp	r3, #0
 365 0012 F8D1     		bne	.L25
 397:.\Generated_Source\PSoC4/capsense_Filter.c **** 
 366              		.loc 1 397 0 is_stmt 1
 367              		@ sp needed
 368              	.LVL56:
 369 0014 10BD     		pop	{r4, pc}
 370              		.cfi_endproc
 371              	.LFE6:
 372              		.size	capsense_InitializeAllBaselines, .-capsense_InitializeAllBaselines
 373 0016 C046     		.section	.text.capsense_RunNoiseEnvelope,"ax",%progbits
 374              		.align	2
 375              		.global	capsense_RunNoiseEnvelope
 376              		.code	16
 377              		.thumb_func
 378              		.type	capsense_RunNoiseEnvelope, %function
 379              	capsense_RunNoiseEnvelope:
 380              	.LFB11:
 528:.\Generated_Source\PSoC4/capsense_Filter.c **** 
 529:.\Generated_Source\PSoC4/capsense_Filter.c **** 
 530:.\Generated_Source\PSoC4/capsense_Filter.c **** #if (capsense_REGULAR_RC_IIR_FILTER_EN || capsense_PROX_RC_IIR_FILTER_EN)
 531:.\Generated_Source\PSoC4/capsense_Filter.c **** 
 532:.\Generated_Source\PSoC4/capsense_Filter.c **** /*******************************************************************************
 533:.\Generated_Source\PSoC4/capsense_Filter.c **** * Function Name: capsense_InitializeIIR
 534:.\Generated_Source\PSoC4/capsense_Filter.c **** ****************************************************************************//**
 535:.\Generated_Source\PSoC4/capsense_Filter.c **** *
 536:.\Generated_Source\PSoC4/capsense_Filter.c **** * \brief    Initialize the IIR filter history.
 537:.\Generated_Source\PSoC4/capsense_Filter.c **** *
 538:.\Generated_Source\PSoC4/capsense_Filter.c **** * \details  Initialize the IIR filter history.
 539:.\Generated_Source\PSoC4/capsense_Filter.c **** *
 540:.\Generated_Source\PSoC4/capsense_Filter.c **** * \param    widgetId Specifies the ID number of the widget.
 541:.\Generated_Source\PSoC4/capsense_Filter.c **** * \param    sensorId Specifies the ID number of the sensor in the widget.
 542:.\Generated_Source\PSoC4/capsense_Filter.c **** *
 543:.\Generated_Source\PSoC4/capsense_Filter.c **** *******************************************************************************/
 544:.\Generated_Source\PSoC4/capsense_Filter.c **** void capsense_InitializeIIR(uint32 widgetId, uint32 sensorId)
 545:.\Generated_Source\PSoC4/capsense_Filter.c **** {   
 546:.\Generated_Source\PSoC4/capsense_Filter.c ****     capsense_FLASH_WD_STRUCT const *ptrWidget = &capsense_dsFlash.wdgtArray[widgetId];      
 547:.\Generated_Source\PSoC4/capsense_Filter.c ****     capsense_RAM_SNS_STRUCT *ptrSensor = NULL;    
 548:.\Generated_Source\PSoC4/capsense_Filter.c ****     capsense_PTR_FILTER_VARIANT ptrFilterHistObj; 
 549:.\Generated_Source\PSoC4/capsense_Filter.c ****               
 550:.\Generated_Source\PSoC4/capsense_Filter.c ****     /* Find pointer to specified sensor object */     
 551:.\Generated_Source\PSoC4/capsense_Filter.c ****     ptrSensor = ptrWidget->ptr2SnsRam;
 552:.\Generated_Source\PSoC4/capsense_Filter.c ****     ptrSensor = &ptrSensor[sensorId];
 553:.\Generated_Source\PSoC4/capsense_Filter.c ****         
 554:.\Generated_Source\PSoC4/capsense_Filter.c ****     /* Find pointer to specified filter sensor object */     
 555:.\Generated_Source\PSoC4/capsense_Filter.c ****     ptrFilterHistObj.ptr = ptrWidget->ptr2FltrHistory;
 556:.\Generated_Source\PSoC4/capsense_Filter.c ****     
 557:.\Generated_Source\PSoC4/capsense_Filter.c ****     if ((capsense_WD_TYPE_ENUM)ptrWidget->wdgtType != capsense_WD_PROXIMITY_E)
 558:.\Generated_Source\PSoC4/capsense_Filter.c ****     {
ARM GAS  C:\Users\Alan\AppData\Local\Temp\cc5hLSmt.s 			page 18


 559:.\Generated_Source\PSoC4/capsense_Filter.c ****         #if (capsense_REGULAR_SENSOR_EN)
 560:.\Generated_Source\PSoC4/capsense_Filter.c ****             ptrFilterHistObj.ptrRegular = &ptrFilterHistObj.ptrRegular[sensorId];
 561:.\Generated_Source\PSoC4/capsense_Filter.c ****         #endif /* (capsense_REGULAR_SENSOR_EN) */
 562:.\Generated_Source\PSoC4/capsense_Filter.c ****     }
 563:.\Generated_Source\PSoC4/capsense_Filter.c ****     else
 564:.\Generated_Source\PSoC4/capsense_Filter.c ****     {
 565:.\Generated_Source\PSoC4/capsense_Filter.c ****         #if (capsense_PROXIMITY_SENSOR_EN)
 566:.\Generated_Source\PSoC4/capsense_Filter.c ****             ptrFilterHistObj.ptrProx = &ptrFilterHistObj.ptrProx[sensorId];
 567:.\Generated_Source\PSoC4/capsense_Filter.c ****         #endif /* (capsense_PROXIMITY_SENSOR_EN) */
 568:.\Generated_Source\PSoC4/capsense_Filter.c ****     }    
 569:.\Generated_Source\PSoC4/capsense_Filter.c ****     
 570:.\Generated_Source\PSoC4/capsense_Filter.c ****     capsense_InitializeIIRInternal(ptrFilterHistObj, ptrSensor, (uint32)ptrWidget->wdgtType);
 571:.\Generated_Source\PSoC4/capsense_Filter.c **** }
 572:.\Generated_Source\PSoC4/capsense_Filter.c **** 
 573:.\Generated_Source\PSoC4/capsense_Filter.c **** 
 574:.\Generated_Source\PSoC4/capsense_Filter.c **** /*******************************************************************************
 575:.\Generated_Source\PSoC4/capsense_Filter.c **** * Function Name: capsense_RunIIR
 576:.\Generated_Source\PSoC4/capsense_Filter.c **** ****************************************************************************//**
 577:.\Generated_Source\PSoC4/capsense_Filter.c **** *
 578:.\Generated_Source\PSoC4/capsense_Filter.c **** * \brief    Executes the IIR filter algorithm on a sensor indicated by an input
 579:.\Generated_Source\PSoC4/capsense_Filter.c **** *           parameter. 
 580:.\Generated_Source\PSoC4/capsense_Filter.c **** *
 581:.\Generated_Source\PSoC4/capsense_Filter.c **** * \details  Executes the IIR filter algorithm on a sensor indicated by an input
 582:.\Generated_Source\PSoC4/capsense_Filter.c **** *           parameter. 
 583:.\Generated_Source\PSoC4/capsense_Filter.c **** *
 584:.\Generated_Source\PSoC4/capsense_Filter.c **** * \param    widgetId Specifies the ID number of the widget.
 585:.\Generated_Source\PSoC4/capsense_Filter.c **** * \param    sensorId Specifies the ID number of the sensor in the widget.
 586:.\Generated_Source\PSoC4/capsense_Filter.c **** *
 587:.\Generated_Source\PSoC4/capsense_Filter.c **** *******************************************************************************/
 588:.\Generated_Source\PSoC4/capsense_Filter.c **** void capsense_RunIIR(uint32 widgetId, uint32 sensorId)
 589:.\Generated_Source\PSoC4/capsense_Filter.c **** {
 590:.\Generated_Source\PSoC4/capsense_Filter.c ****     capsense_FLASH_WD_STRUCT const *ptrWidget = &capsense_dsFlash.wdgtArray[widgetId];      
 591:.\Generated_Source\PSoC4/capsense_Filter.c ****     capsense_RAM_SNS_STRUCT *ptrSensor = NULL;    
 592:.\Generated_Source\PSoC4/capsense_Filter.c ****     capsense_PTR_FILTER_VARIANT ptrFilterHistObj; 
 593:.\Generated_Source\PSoC4/capsense_Filter.c ****               
 594:.\Generated_Source\PSoC4/capsense_Filter.c ****     /* Find pointer to specified sensor object */     
 595:.\Generated_Source\PSoC4/capsense_Filter.c ****     ptrSensor = ptrWidget->ptr2SnsRam;
 596:.\Generated_Source\PSoC4/capsense_Filter.c ****     ptrSensor = &ptrSensor[sensorId];
 597:.\Generated_Source\PSoC4/capsense_Filter.c ****         
 598:.\Generated_Source\PSoC4/capsense_Filter.c ****     /* Find pointer to specified filter sensor object */     
 599:.\Generated_Source\PSoC4/capsense_Filter.c ****     ptrFilterHistObj.ptr = ptrWidget->ptr2FltrHistory;
 600:.\Generated_Source\PSoC4/capsense_Filter.c ****     
 601:.\Generated_Source\PSoC4/capsense_Filter.c ****     if ((capsense_WD_TYPE_ENUM)ptrWidget->wdgtType != capsense_WD_PROXIMITY_E)
 602:.\Generated_Source\PSoC4/capsense_Filter.c ****     {
 603:.\Generated_Source\PSoC4/capsense_Filter.c ****         #if (capsense_REGULAR_SENSOR_EN)
 604:.\Generated_Source\PSoC4/capsense_Filter.c ****             ptrFilterHistObj.ptrRegular = &ptrFilterHistObj.ptrRegular[sensorId];
 605:.\Generated_Source\PSoC4/capsense_Filter.c ****         #endif /* (capsense_REGULAR_SENSOR_EN) */
 606:.\Generated_Source\PSoC4/capsense_Filter.c ****     }
 607:.\Generated_Source\PSoC4/capsense_Filter.c ****     else
 608:.\Generated_Source\PSoC4/capsense_Filter.c ****     {
 609:.\Generated_Source\PSoC4/capsense_Filter.c ****         #if (capsense_PROXIMITY_SENSOR_EN)
 610:.\Generated_Source\PSoC4/capsense_Filter.c ****             ptrFilterHistObj.ptrProx = &ptrFilterHistObj.ptrProx[sensorId];
 611:.\Generated_Source\PSoC4/capsense_Filter.c ****         #endif /* (capsense_PROXIMITY_SENSOR_EN) */
 612:.\Generated_Source\PSoC4/capsense_Filter.c ****     }    
 613:.\Generated_Source\PSoC4/capsense_Filter.c ****     
 614:.\Generated_Source\PSoC4/capsense_Filter.c ****     capsense_RunIIRInternal(ptrFilterHistObj, ptrSensor, (uint32)ptrWidget->wdgtType);
 615:.\Generated_Source\PSoC4/capsense_Filter.c **** }
ARM GAS  C:\Users\Alan\AppData\Local\Temp\cc5hLSmt.s 			page 19


 616:.\Generated_Source\PSoC4/capsense_Filter.c ****     
 617:.\Generated_Source\PSoC4/capsense_Filter.c **** /*******************************************************************************
 618:.\Generated_Source\PSoC4/capsense_Filter.c **** * Function Name: capsense_InitializeIIRInternal
 619:.\Generated_Source\PSoC4/capsense_Filter.c **** ****************************************************************************//**
 620:.\Generated_Source\PSoC4/capsense_Filter.c **** *
 621:.\Generated_Source\PSoC4/capsense_Filter.c **** * \brief    Initializes the IIR filter history.
 622:.\Generated_Source\PSoC4/capsense_Filter.c **** *
 623:.\Generated_Source\PSoC4/capsense_Filter.c **** * \details  Initializes the IIR filter history.
 624:.\Generated_Source\PSoC4/capsense_Filter.c **** *
 625:.\Generated_Source\PSoC4/capsense_Filter.c **** * \param    ptrFilterHistObj The pointer to the filter RAM object of the sensor.
 626:.\Generated_Source\PSoC4/capsense_Filter.c **** * \param    ptrSensorObj     The pointer to the sensor RAM object of the sensor.
 627:.\Generated_Source\PSoC4/capsense_Filter.c **** * \param    wdType           Specifies the type of a widget.                                  
 628:.\Generated_Source\PSoC4/capsense_Filter.c **** *
 629:.\Generated_Source\PSoC4/capsense_Filter.c **** *******************************************************************************/
 630:.\Generated_Source\PSoC4/capsense_Filter.c **** void capsense_InitializeIIRInternal(capsense_PTR_FILTER_VARIANT ptrFilterHistObj,
 631:.\Generated_Source\PSoC4/capsense_Filter.c ****                                             capsense_RAM_SNS_STRUCT *ptrSensorObj, uint32 wdType)
 632:.\Generated_Source\PSoC4/capsense_Filter.c **** {
 633:.\Generated_Source\PSoC4/capsense_Filter.c ****     uint32 channel;
 634:.\Generated_Source\PSoC4/capsense_Filter.c **** 
 635:.\Generated_Source\PSoC4/capsense_Filter.c ****     for(channel = capsense_NUM_SCAN_FREQS; channel-- > 0u;)
 636:.\Generated_Source\PSoC4/capsense_Filter.c ****     {
 637:.\Generated_Source\PSoC4/capsense_Filter.c ****         if ((capsense_WD_TYPE_ENUM)wdType != capsense_WD_PROXIMITY_E)
 638:.\Generated_Source\PSoC4/capsense_Filter.c ****         {
 639:.\Generated_Source\PSoC4/capsense_Filter.c ****             #if (capsense_REGULAR_SENSOR_EN && capsense_REGULAR_RC_IIR_FILTER_EN)
 640:.\Generated_Source\PSoC4/capsense_Filter.c ****                 #if (capsense_REGULAR_IIR_RC_TYPE == capsense_IIR_FILTER_PERFORMANCE)
 641:.\Generated_Source\PSoC4/capsense_Filter.c ****                     ptrFilterHistObj.ptrRegular->regularChannel[channel].iirHistory = ptrSensorObj-
 642:.\Generated_Source\PSoC4/capsense_Filter.c ****                     ptrFilterHistObj.ptrRegular->regularChannel[channel].iirHistoryLow = 0u;
 643:.\Generated_Source\PSoC4/capsense_Filter.c ****                 #else
 644:.\Generated_Source\PSoC4/capsense_Filter.c ****                     ptrFilterHistObj.ptrRegular->regularChannel[channel].iirHistory = ptrSensorObj-
 645:.\Generated_Source\PSoC4/capsense_Filter.c ****                 #endif /* (capsense_REGULAR_IIR_RC_TYPE == capsense_IIR_FILTER_PERFORMANCE) */
 646:.\Generated_Source\PSoC4/capsense_Filter.c ****             #endif /* (capsense_REGULAR_SENSOR_EN) */    
 647:.\Generated_Source\PSoC4/capsense_Filter.c ****         }
 648:.\Generated_Source\PSoC4/capsense_Filter.c ****         else
 649:.\Generated_Source\PSoC4/capsense_Filter.c ****         {
 650:.\Generated_Source\PSoC4/capsense_Filter.c ****             #if (capsense_PROXIMITY_SENSOR_EN && capsense_PROX_RC_IIR_FILTER_EN)
 651:.\Generated_Source\PSoC4/capsense_Filter.c ****                 #if (capsense_PROX_IIR_RC_TYPE == capsense_IIR_FILTER_PERFORMANCE)
 652:.\Generated_Source\PSoC4/capsense_Filter.c ****                     ptrFilterHistObj.ptrProx->proxChannel[channel].iirHistory = ptrSensorObj->raw[c
 653:.\Generated_Source\PSoC4/capsense_Filter.c ****                     ptrFilterHistObj.ptrProx->proxChannel[channel].iirHistoryLow = 0u;    
 654:.\Generated_Source\PSoC4/capsense_Filter.c ****                 #else
 655:.\Generated_Source\PSoC4/capsense_Filter.c ****                     ptrFilterHistObj.ptrProx->proxChannel[channel].iirHistory = ptrSensorObj->raw[c
 656:.\Generated_Source\PSoC4/capsense_Filter.c ****                 #endif /* (capsense_PROX_IIR_RC_TYPE == capsense_IIR_FILTER_PERFORMANCE) */
 657:.\Generated_Source\PSoC4/capsense_Filter.c ****             #endif /* (capsense_PROX_SENSOR_EN) */
 658:.\Generated_Source\PSoC4/capsense_Filter.c ****         }    
 659:.\Generated_Source\PSoC4/capsense_Filter.c ****     }    
 660:.\Generated_Source\PSoC4/capsense_Filter.c **** }
 661:.\Generated_Source\PSoC4/capsense_Filter.c ****  
 662:.\Generated_Source\PSoC4/capsense_Filter.c **** 
 663:.\Generated_Source\PSoC4/capsense_Filter.c **** /*******************************************************************************
 664:.\Generated_Source\PSoC4/capsense_Filter.c **** * Function Name: capsense_RunIIRInternal
 665:.\Generated_Source\PSoC4/capsense_Filter.c **** ****************************************************************************//**
 666:.\Generated_Source\PSoC4/capsense_Filter.c **** *
 667:.\Generated_Source\PSoC4/capsense_Filter.c **** * \brief    Run the IIR filter.
 668:.\Generated_Source\PSoC4/capsense_Filter.c **** *
 669:.\Generated_Source\PSoC4/capsense_Filter.c **** * \details  Run the IIR filter.
 670:.\Generated_Source\PSoC4/capsense_Filter.c **** *
 671:.\Generated_Source\PSoC4/capsense_Filter.c **** * \param    ptrFilterHistObj The pointer to the filter RAM object of the sensor.
 672:.\Generated_Source\PSoC4/capsense_Filter.c **** * \param    ptrSensorObj     The pointer to the sensor RAM object of the sensor.
ARM GAS  C:\Users\Alan\AppData\Local\Temp\cc5hLSmt.s 			page 20


 673:.\Generated_Source\PSoC4/capsense_Filter.c **** * \param    wdType           Specifies the type of a widget.
 674:.\Generated_Source\PSoC4/capsense_Filter.c **** *
 675:.\Generated_Source\PSoC4/capsense_Filter.c **** *******************************************************************************/    
 676:.\Generated_Source\PSoC4/capsense_Filter.c **** void capsense_RunIIRInternal(capsense_PTR_FILTER_VARIANT ptrFilterHistObj, 
 677:.\Generated_Source\PSoC4/capsense_Filter.c ****                                      capsense_RAM_SNS_STRUCT *ptrSensorObj, uint32 wdType)
 678:.\Generated_Source\PSoC4/capsense_Filter.c **** {        
 679:.\Generated_Source\PSoC4/capsense_Filter.c ****     uint32 channel;
 680:.\Generated_Source\PSoC4/capsense_Filter.c ****     uint32 temp;
 681:.\Generated_Source\PSoC4/capsense_Filter.c **** 
 682:.\Generated_Source\PSoC4/capsense_Filter.c ****     for(channel = capsense_NUM_SCAN_FREQS; channel-- > 0u;)
 683:.\Generated_Source\PSoC4/capsense_Filter.c ****     {
 684:.\Generated_Source\PSoC4/capsense_Filter.c ****         if ((capsense_WD_TYPE_ENUM)wdType != capsense_WD_PROXIMITY_E)
 685:.\Generated_Source\PSoC4/capsense_Filter.c ****         {
 686:.\Generated_Source\PSoC4/capsense_Filter.c ****             #if (capsense_REGULAR_SENSOR_EN && capsense_REGULAR_RC_IIR_FILTER_EN)
 687:.\Generated_Source\PSoC4/capsense_Filter.c ****                 #if (capsense_REGULAR_IIR_RC_TYPE == capsense_IIR_FILTER_PERFORMANCE)
 688:.\Generated_Source\PSoC4/capsense_Filter.c ****                     temp =  ptrFilterHistObj.ptrRegular->regularChannel[channel].iirHistory << caps
 689:.\Generated_Source\PSoC4/capsense_Filter.c ****                     temp |= ptrFilterHistObj.ptrRegular->regularChannel[channel].iirHistoryLow;
 690:.\Generated_Source\PSoC4/capsense_Filter.c ****                     temp =capsense_FtIIR1stOrder((uint32)ptrSensorObj->raw[channel],
 691:.\Generated_Source\PSoC4/capsense_Filter.c ****                                                         temp,
 692:.\Generated_Source\PSoC4/capsense_Filter.c ****                                                         capsense_REGULAR_IIR_RC_N,
 693:.\Generated_Source\PSoC4/capsense_Filter.c ****                                                         capsense_REGULAR_IIR_RC_SHIFT);
 694:.\Generated_Source\PSoC4/capsense_Filter.c ****                     ptrFilterHistObj.ptrRegular->regularChannel[channel].iirHistory = LO16(temp >>c
 695:.\Generated_Source\PSoC4/capsense_Filter.c ****                     ptrFilterHistObj.ptrRegular->regularChannel[channel].iirHistoryLow = LO8(temp);
 696:.\Generated_Source\PSoC4/capsense_Filter.c ****                     ptrSensorObj->raw[channel] = LO16(temp >>capsense_REGULAR_IIR_RC_SHIFT);
 697:.\Generated_Source\PSoC4/capsense_Filter.c ****                 #else
 698:.\Generated_Source\PSoC4/capsense_Filter.c ****                     temp =capsense_FtIIR1stOrder((uint32)ptrSensorObj->raw[channel],
 699:.\Generated_Source\PSoC4/capsense_Filter.c ****                                                         (uint32)ptrFilterHistObj.ptrRegular->regula
 700:.\Generated_Source\PSoC4/capsense_Filter.c ****                                                         capsense_REGULAR_IIR_RC_N,
 701:.\Generated_Source\PSoC4/capsense_Filter.c ****                                                         capsense_REGULAR_IIR_RC_SHIFT);
 702:.\Generated_Source\PSoC4/capsense_Filter.c ****                     ptrFilterHistObj.ptrRegular->regularChannel[channel].iirHistory = LO16(temp);
 703:.\Generated_Source\PSoC4/capsense_Filter.c ****                     ptrSensorObj->raw[channel] = LO16(temp >>capsense_REGULAR_IIR_RC_SHIFT);
 704:.\Generated_Source\PSoC4/capsense_Filter.c ****                 #endif /* (capsense_REGULAR_IIR_RC_TYPE == capsense_IIR_FILTER_PERFORMANCE) */
 705:.\Generated_Source\PSoC4/capsense_Filter.c ****             #endif /* (capsense_REGULAR_SENSOR_EN) */    
 706:.\Generated_Source\PSoC4/capsense_Filter.c ****         }
 707:.\Generated_Source\PSoC4/capsense_Filter.c ****         else
 708:.\Generated_Source\PSoC4/capsense_Filter.c ****         {
 709:.\Generated_Source\PSoC4/capsense_Filter.c ****             #if (capsense_PROXIMITY_SENSOR_EN && capsense_PROX_RC_IIR_FILTER_EN)
 710:.\Generated_Source\PSoC4/capsense_Filter.c ****                 #if (capsense_PROX_IIR_RC_TYPE == capsense_IIR_FILTER_PERFORMANCE)
 711:.\Generated_Source\PSoC4/capsense_Filter.c ****                     temp =  ptrFilterHistObj.ptrProx->proxChannel[channel].iirHistory << capsense_P
 712:.\Generated_Source\PSoC4/capsense_Filter.c ****                     temp |= ptrFilterHistObj.ptrProx->proxChannel[channel].iirHistoryLow;
 713:.\Generated_Source\PSoC4/capsense_Filter.c ****                     temp =capsense_FtIIR1stOrder((uint32)ptrSensorObj->raw[channel],
 714:.\Generated_Source\PSoC4/capsense_Filter.c ****                                                         temp,
 715:.\Generated_Source\PSoC4/capsense_Filter.c ****                                                         capsense_PROX_IIR_RC_N,
 716:.\Generated_Source\PSoC4/capsense_Filter.c ****                                                         capsense_PROX_IIR_RC_SHIFT);
 717:.\Generated_Source\PSoC4/capsense_Filter.c ****                     ptrFilterHistObj.ptrProx->proxChannel[channel].iirHistory = LO16(temp >>capsens
 718:.\Generated_Source\PSoC4/capsense_Filter.c ****                     ptrFilterHistObj.ptrProx->proxChannel[channel].iirHistoryLow = LO8(temp);
 719:.\Generated_Source\PSoC4/capsense_Filter.c ****                     ptrSensorObj->raw[channel] = LO16(temp >>capsense_PROX_IIR_RC_SHIFT);
 720:.\Generated_Source\PSoC4/capsense_Filter.c ****                 #else
 721:.\Generated_Source\PSoC4/capsense_Filter.c ****                     temp =capsense_FtIIR1stOrder((uint32)ptrSensorObj->raw[channel],
 722:.\Generated_Source\PSoC4/capsense_Filter.c ****                                                         (uint32)ptrFilterHistObj.ptrProx->proxChann
 723:.\Generated_Source\PSoC4/capsense_Filter.c ****                                                         capsense_PROX_IIR_RC_N,
 724:.\Generated_Source\PSoC4/capsense_Filter.c ****                                                         capsense_PROX_IIR_RC_SHIFT);
 725:.\Generated_Source\PSoC4/capsense_Filter.c ****                     ptrFilterHistObj.ptrProx->proxChannel[channel].iirHistory = LO16(temp);
 726:.\Generated_Source\PSoC4/capsense_Filter.c ****                     ptrSensorObj->raw[channel] = LO16(temp >>capsense_PROX_IIR_RC_SHIFT);
 727:.\Generated_Source\PSoC4/capsense_Filter.c ****                 #endif /* (capsense_PROX_IIR_RC_TYPE == capsense_IIR_FILTER_PERFORMANCE) */
 728:.\Generated_Source\PSoC4/capsense_Filter.c ****             #endif /* (capsense_PROX_SENSOR_EN) */
 729:.\Generated_Source\PSoC4/capsense_Filter.c ****         }    
ARM GAS  C:\Users\Alan\AppData\Local\Temp\cc5hLSmt.s 			page 21


 730:.\Generated_Source\PSoC4/capsense_Filter.c ****     }        
 731:.\Generated_Source\PSoC4/capsense_Filter.c **** }    
 732:.\Generated_Source\PSoC4/capsense_Filter.c **** #endif /* #if (capsense_REGULAR_RC_IIR_FILTER_EN || capsense_PROX_RC_IIR_FILTER_EN) */
 733:.\Generated_Source\PSoC4/capsense_Filter.c **** 
 734:.\Generated_Source\PSoC4/capsense_Filter.c **** 
 735:.\Generated_Source\PSoC4/capsense_Filter.c **** #if (capsense_REGULAR_RC_MEDIAN_FILTER_EN || capsense_PROX_RC_MEDIAN_FILTER_EN)
 736:.\Generated_Source\PSoC4/capsense_Filter.c **** 
 737:.\Generated_Source\PSoC4/capsense_Filter.c **** /*******************************************************************************
 738:.\Generated_Source\PSoC4/capsense_Filter.c **** * Function Name: capsense_InitializeMedian
 739:.\Generated_Source\PSoC4/capsense_Filter.c **** ****************************************************************************//**
 740:.\Generated_Source\PSoC4/capsense_Filter.c **** *
 741:.\Generated_Source\PSoC4/capsense_Filter.c **** * \brief    Initializes the Median filter history.
 742:.\Generated_Source\PSoC4/capsense_Filter.c **** *
 743:.\Generated_Source\PSoC4/capsense_Filter.c **** * \details  Initializes the Median filter history.
 744:.\Generated_Source\PSoC4/capsense_Filter.c **** *
 745:.\Generated_Source\PSoC4/capsense_Filter.c **** * \param    widgetId Specifies the ID number of the widget.
 746:.\Generated_Source\PSoC4/capsense_Filter.c **** * \param    sensorId Specifies the ID number of the sensor in the widget.
 747:.\Generated_Source\PSoC4/capsense_Filter.c **** *
 748:.\Generated_Source\PSoC4/capsense_Filter.c **** *******************************************************************************/
 749:.\Generated_Source\PSoC4/capsense_Filter.c **** void capsense_InitializeMedian(uint32 widgetId, uint32 sensorId)
 750:.\Generated_Source\PSoC4/capsense_Filter.c **** {
 751:.\Generated_Source\PSoC4/capsense_Filter.c ****     capsense_FLASH_WD_STRUCT const *ptrWidget = &capsense_dsFlash.wdgtArray[widgetId];      
 752:.\Generated_Source\PSoC4/capsense_Filter.c ****     capsense_RAM_SNS_STRUCT *ptrSensor = NULL;    
 753:.\Generated_Source\PSoC4/capsense_Filter.c ****     capsense_PTR_FILTER_VARIANT ptrFilterHistObj; 
 754:.\Generated_Source\PSoC4/capsense_Filter.c ****               
 755:.\Generated_Source\PSoC4/capsense_Filter.c ****     /* Find pointer to specified sensor object */     
 756:.\Generated_Source\PSoC4/capsense_Filter.c ****     ptrSensor = ptrWidget->ptr2SnsRam;
 757:.\Generated_Source\PSoC4/capsense_Filter.c ****     ptrSensor = &ptrSensor[sensorId];
 758:.\Generated_Source\PSoC4/capsense_Filter.c ****     
 759:.\Generated_Source\PSoC4/capsense_Filter.c ****     /* Find pointer to specified filter sensor object */     
 760:.\Generated_Source\PSoC4/capsense_Filter.c ****     ptrFilterHistObj.ptr = ptrWidget->ptr2FltrHistory;
 761:.\Generated_Source\PSoC4/capsense_Filter.c ****     
 762:.\Generated_Source\PSoC4/capsense_Filter.c ****     if ((capsense_WD_TYPE_ENUM)ptrWidget->wdgtType != capsense_WD_PROXIMITY_E)
 763:.\Generated_Source\PSoC4/capsense_Filter.c ****     {
 764:.\Generated_Source\PSoC4/capsense_Filter.c ****         #if (capsense_REGULAR_SENSOR_EN)
 765:.\Generated_Source\PSoC4/capsense_Filter.c ****             ptrFilterHistObj.ptrRegular = &ptrFilterHistObj.ptrRegular[sensorId];
 766:.\Generated_Source\PSoC4/capsense_Filter.c ****         #endif /* (capsense_REGULAR_SENSOR_EN) */
 767:.\Generated_Source\PSoC4/capsense_Filter.c ****     }
 768:.\Generated_Source\PSoC4/capsense_Filter.c ****     else
 769:.\Generated_Source\PSoC4/capsense_Filter.c ****     {
 770:.\Generated_Source\PSoC4/capsense_Filter.c ****         #if (capsense_PROXIMITY_SENSOR_EN)
 771:.\Generated_Source\PSoC4/capsense_Filter.c ****             ptrFilterHistObj.ptrProx = &ptrFilterHistObj.ptrProx[sensorId];
 772:.\Generated_Source\PSoC4/capsense_Filter.c ****         #endif /* (capsense_PROXIMITY_SENSOR_EN) */
 773:.\Generated_Source\PSoC4/capsense_Filter.c ****     }
 774:.\Generated_Source\PSoC4/capsense_Filter.c ****     
 775:.\Generated_Source\PSoC4/capsense_Filter.c ****     capsense_InitializeMedianInternal(ptrFilterHistObj, ptrSensor, (uint32)ptrWidget->wdgtType);
 776:.\Generated_Source\PSoC4/capsense_Filter.c **** }     
 777:.\Generated_Source\PSoC4/capsense_Filter.c **** 
 778:.\Generated_Source\PSoC4/capsense_Filter.c **** 
 779:.\Generated_Source\PSoC4/capsense_Filter.c **** /*******************************************************************************
 780:.\Generated_Source\PSoC4/capsense_Filter.c **** * Function Name: capsense_RunMedian
 781:.\Generated_Source\PSoC4/capsense_Filter.c **** ****************************************************************************//**
 782:.\Generated_Source\PSoC4/capsense_Filter.c **** *
 783:.\Generated_Source\PSoC4/capsense_Filter.c **** * \brief    Executes the Median filter algorithm on a sensor indicated by an input 
 784:.\Generated_Source\PSoC4/capsense_Filter.c **** *           parameter. 
 785:.\Generated_Source\PSoC4/capsense_Filter.c **** *
 786:.\Generated_Source\PSoC4/capsense_Filter.c **** * \details  Executes the Median filter algorithm on a sensor indicated by an input 
ARM GAS  C:\Users\Alan\AppData\Local\Temp\cc5hLSmt.s 			page 22


 787:.\Generated_Source\PSoC4/capsense_Filter.c **** *           parameter. 
 788:.\Generated_Source\PSoC4/capsense_Filter.c **** *
 789:.\Generated_Source\PSoC4/capsense_Filter.c **** * \param    widgetId Specifies the ID number of the widget.
 790:.\Generated_Source\PSoC4/capsense_Filter.c **** * \param    sensorId Specifies the ID number of the sensor in the widget.
 791:.\Generated_Source\PSoC4/capsense_Filter.c **** *
 792:.\Generated_Source\PSoC4/capsense_Filter.c **** *******************************************************************************/
 793:.\Generated_Source\PSoC4/capsense_Filter.c **** void capsense_RunMedian(uint32 widgetId, uint32 sensorId)
 794:.\Generated_Source\PSoC4/capsense_Filter.c **** {
 795:.\Generated_Source\PSoC4/capsense_Filter.c ****     capsense_FLASH_WD_STRUCT const *ptrWidget = &capsense_dsFlash.wdgtArray[widgetId];      
 796:.\Generated_Source\PSoC4/capsense_Filter.c ****     capsense_RAM_SNS_STRUCT *ptrSensor = NULL;    
 797:.\Generated_Source\PSoC4/capsense_Filter.c ****     capsense_PTR_FILTER_VARIANT ptrFilterHistObj; 
 798:.\Generated_Source\PSoC4/capsense_Filter.c ****               
 799:.\Generated_Source\PSoC4/capsense_Filter.c ****     /* Find pointer to specified sensor object */     
 800:.\Generated_Source\PSoC4/capsense_Filter.c ****     ptrSensor = ptrWidget->ptr2SnsRam;
 801:.\Generated_Source\PSoC4/capsense_Filter.c ****     ptrSensor = &ptrSensor[sensorId];
 802:.\Generated_Source\PSoC4/capsense_Filter.c ****     
 803:.\Generated_Source\PSoC4/capsense_Filter.c ****     /* Find pointer to specified filter sensor object */     
 804:.\Generated_Source\PSoC4/capsense_Filter.c ****     ptrFilterHistObj.ptr = ptrWidget->ptr2FltrHistory;
 805:.\Generated_Source\PSoC4/capsense_Filter.c ****     
 806:.\Generated_Source\PSoC4/capsense_Filter.c ****     if ((capsense_WD_TYPE_ENUM)ptrWidget->wdgtType != capsense_WD_PROXIMITY_E)
 807:.\Generated_Source\PSoC4/capsense_Filter.c ****     {
 808:.\Generated_Source\PSoC4/capsense_Filter.c ****         #if (capsense_REGULAR_SENSOR_EN)
 809:.\Generated_Source\PSoC4/capsense_Filter.c ****             ptrFilterHistObj.ptrRegular = &ptrFilterHistObj.ptrRegular[sensorId];
 810:.\Generated_Source\PSoC4/capsense_Filter.c ****         #endif /* (capsense_REGULAR_SENSOR_EN) */
 811:.\Generated_Source\PSoC4/capsense_Filter.c ****     }
 812:.\Generated_Source\PSoC4/capsense_Filter.c ****     else
 813:.\Generated_Source\PSoC4/capsense_Filter.c ****     {
 814:.\Generated_Source\PSoC4/capsense_Filter.c ****         #if (capsense_PROXIMITY_SENSOR_EN)
 815:.\Generated_Source\PSoC4/capsense_Filter.c ****             ptrFilterHistObj.ptrProx = &ptrFilterHistObj.ptrProx[sensorId];
 816:.\Generated_Source\PSoC4/capsense_Filter.c ****         #endif /* (capsense_PROXIMITY_SENSOR_EN) */
 817:.\Generated_Source\PSoC4/capsense_Filter.c ****     }
 818:.\Generated_Source\PSoC4/capsense_Filter.c ****     
 819:.\Generated_Source\PSoC4/capsense_Filter.c ****     capsense_RunMedianInternal(ptrFilterHistObj, ptrSensor, (uint32)ptrWidget->wdgtType);
 820:.\Generated_Source\PSoC4/capsense_Filter.c **** }
 821:.\Generated_Source\PSoC4/capsense_Filter.c ****    
 822:.\Generated_Source\PSoC4/capsense_Filter.c **** 
 823:.\Generated_Source\PSoC4/capsense_Filter.c **** /*******************************************************************************
 824:.\Generated_Source\PSoC4/capsense_Filter.c **** * Function Name: capsense_InitializeMedianInternal
 825:.\Generated_Source\PSoC4/capsense_Filter.c **** ****************************************************************************//**
 826:.\Generated_Source\PSoC4/capsense_Filter.c **** *
 827:.\Generated_Source\PSoC4/capsense_Filter.c **** * \brief    Initializes the Median filter.
 828:.\Generated_Source\PSoC4/capsense_Filter.c **** *
 829:.\Generated_Source\PSoC4/capsense_Filter.c **** * \details  Initializes the Median filter.
 830:.\Generated_Source\PSoC4/capsense_Filter.c **** *
 831:.\Generated_Source\PSoC4/capsense_Filter.c **** * \param    ptrFilterHistObj The pointer to the filter RAM object of the sensor.
 832:.\Generated_Source\PSoC4/capsense_Filter.c **** * \param    ptrSensorObj     The pointer to the sensor RAM object of the sensor.
 833:.\Generated_Source\PSoC4/capsense_Filter.c **** * \param    wdType           Specifies the type of a widget.
 834:.\Generated_Source\PSoC4/capsense_Filter.c **** *
 835:.\Generated_Source\PSoC4/capsense_Filter.c **** *******************************************************************************/
 836:.\Generated_Source\PSoC4/capsense_Filter.c **** void capsense_InitializeMedianInternal(capsense_PTR_FILTER_VARIANT ptrFilterHistObj,
 837:.\Generated_Source\PSoC4/capsense_Filter.c ****                                                capsense_RAM_SNS_STRUCT *ptrSensorObj, uint32 wdType
 838:.\Generated_Source\PSoC4/capsense_Filter.c **** {
 839:.\Generated_Source\PSoC4/capsense_Filter.c ****     uint32 channel;
 840:.\Generated_Source\PSoC4/capsense_Filter.c **** 
 841:.\Generated_Source\PSoC4/capsense_Filter.c ****     for(channel = capsense_NUM_SCAN_FREQS; channel-- > 0u;)
 842:.\Generated_Source\PSoC4/capsense_Filter.c ****     {
 843:.\Generated_Source\PSoC4/capsense_Filter.c ****         if ((capsense_WD_TYPE_ENUM)wdType != capsense_WD_PROXIMITY_E)
ARM GAS  C:\Users\Alan\AppData\Local\Temp\cc5hLSmt.s 			page 23


 844:.\Generated_Source\PSoC4/capsense_Filter.c ****         {
 845:.\Generated_Source\PSoC4/capsense_Filter.c ****             #if (capsense_REGULAR_SENSOR_EN && capsense_REGULAR_RC_MEDIAN_FILTER_EN)
 846:.\Generated_Source\PSoC4/capsense_Filter.c ****                 ptrFilterHistObj.ptrRegular->regularChannel[channel].medHistory[0u] = ptrSensorObj-
 847:.\Generated_Source\PSoC4/capsense_Filter.c ****                 ptrFilterHistObj.ptrRegular->regularChannel[channel].medHistory[1u] = ptrSensorObj-
 848:.\Generated_Source\PSoC4/capsense_Filter.c ****             #endif /* (capsense_REGULAR_SENSOR_EN) */
 849:.\Generated_Source\PSoC4/capsense_Filter.c ****         }
 850:.\Generated_Source\PSoC4/capsense_Filter.c ****         else
 851:.\Generated_Source\PSoC4/capsense_Filter.c ****         {
 852:.\Generated_Source\PSoC4/capsense_Filter.c ****             #if (capsense_PROXIMITY_SENSOR_EN && capsense_PROX_RC_MEDIAN_FILTER_EN)
 853:.\Generated_Source\PSoC4/capsense_Filter.c ****                 ptrFilterHistObj.ptrProx->proxChannel[channel].medHistory[0u] = ptrSensorObj->raw[c
 854:.\Generated_Source\PSoC4/capsense_Filter.c ****                 ptrFilterHistObj.ptrProx->proxChannel[channel].medHistory[1u] = ptrSensorObj->raw[c
 855:.\Generated_Source\PSoC4/capsense_Filter.c ****             #endif /* (capsense_PROXIMITY_SENSOR_EN) */               
 856:.\Generated_Source\PSoC4/capsense_Filter.c ****         }
 857:.\Generated_Source\PSoC4/capsense_Filter.c ****     }
 858:.\Generated_Source\PSoC4/capsense_Filter.c **** }
 859:.\Generated_Source\PSoC4/capsense_Filter.c **** 
 860:.\Generated_Source\PSoC4/capsense_Filter.c **** 
 861:.\Generated_Source\PSoC4/capsense_Filter.c **** /*******************************************************************************
 862:.\Generated_Source\PSoC4/capsense_Filter.c **** * Function Name: capsense_RunMedianInternal
 863:.\Generated_Source\PSoC4/capsense_Filter.c **** ****************************************************************************//**
 864:.\Generated_Source\PSoC4/capsense_Filter.c **** *
 865:.\Generated_Source\PSoC4/capsense_Filter.c **** * \brief    Runs the Median filter.
 866:.\Generated_Source\PSoC4/capsense_Filter.c **** *
 867:.\Generated_Source\PSoC4/capsense_Filter.c **** * \details  Runs the Median filter.
 868:.\Generated_Source\PSoC4/capsense_Filter.c **** *
 869:.\Generated_Source\PSoC4/capsense_Filter.c **** * \param    ptrFilterHistObj The pointer to the filter RAM object of the sensor.
 870:.\Generated_Source\PSoC4/capsense_Filter.c **** * \param    ptrSensorObj     The pointer to the sensor RAM object of the sensor.
 871:.\Generated_Source\PSoC4/capsense_Filter.c **** * \param    wdType           Specifies the type of a widget.
 872:.\Generated_Source\PSoC4/capsense_Filter.c **** *
 873:.\Generated_Source\PSoC4/capsense_Filter.c **** *******************************************************************************/
 874:.\Generated_Source\PSoC4/capsense_Filter.c **** void capsense_RunMedianInternal(capsense_PTR_FILTER_VARIANT ptrFilterHistObj,
 875:.\Generated_Source\PSoC4/capsense_Filter.c ****                                         capsense_RAM_SNS_STRUCT *ptrSensorObj, uint32 wdType)
 876:.\Generated_Source\PSoC4/capsense_Filter.c **** {
 877:.\Generated_Source\PSoC4/capsense_Filter.c ****     uint32 channel;
 878:.\Generated_Source\PSoC4/capsense_Filter.c ****     
 879:.\Generated_Source\PSoC4/capsense_Filter.c ****     #if ((capsense_REGULAR_SENSOR_EN && capsense_REGULAR_RC_MEDIAN_FILTER_EN) || \
 880:.\Generated_Source\PSoC4/capsense_Filter.c ****          (capsense_PROXIMITY_SENSOR_EN && capsense_PROX_RC_MEDIAN_FILTER_EN))
 881:.\Generated_Source\PSoC4/capsense_Filter.c ****         uint32 temp;
 882:.\Generated_Source\PSoC4/capsense_Filter.c ****     #endif
 883:.\Generated_Source\PSoC4/capsense_Filter.c ****     
 884:.\Generated_Source\PSoC4/capsense_Filter.c ****     for(channel = capsense_NUM_SCAN_FREQS; channel-- > 0u;)
 885:.\Generated_Source\PSoC4/capsense_Filter.c ****     {    
 886:.\Generated_Source\PSoC4/capsense_Filter.c ****         if ((capsense_WD_TYPE_ENUM)wdType != capsense_WD_PROXIMITY_E)
 887:.\Generated_Source\PSoC4/capsense_Filter.c ****         {                                             
 888:.\Generated_Source\PSoC4/capsense_Filter.c ****             #if (capsense_REGULAR_SENSOR_EN && capsense_REGULAR_RC_MEDIAN_FILTER_EN)
 889:.\Generated_Source\PSoC4/capsense_Filter.c ****                 temp = capsense_FtMedian((uint32)ptrSensorObj->raw[channel],\
 890:.\Generated_Source\PSoC4/capsense_Filter.c ****                                                  (uint32)ptrFilterHistObj.ptrRegular->regularChanne
 891:.\Generated_Source\PSoC4/capsense_Filter.c ****                                                  (uint32)ptrFilterHistObj.ptrRegular->regularChanne
 892:.\Generated_Source\PSoC4/capsense_Filter.c ****                 ptrFilterHistObj.ptrRegular->regularChannel[channel].medHistory[1u] = \
 893:.\Generated_Source\PSoC4/capsense_Filter.c ****                 ptrFilterHistObj.ptrRegular->regularChannel[channel].medHistory[0u];
 894:.\Generated_Source\PSoC4/capsense_Filter.c ****                 ptrFilterHistObj.ptrRegular->regularChannel[channel].medHistory[0u] = ptrSensorObj-
 895:.\Generated_Source\PSoC4/capsense_Filter.c ****                 ptrSensorObj->raw[channel] = LO16(temp);
 896:.\Generated_Source\PSoC4/capsense_Filter.c ****             #endif /* (capsense_REGULAR_SENSOR_EN) */     
 897:.\Generated_Source\PSoC4/capsense_Filter.c ****         }
 898:.\Generated_Source\PSoC4/capsense_Filter.c ****         else 
 899:.\Generated_Source\PSoC4/capsense_Filter.c ****         {                   
 900:.\Generated_Source\PSoC4/capsense_Filter.c ****             #if (capsense_PROXIMITY_SENSOR_EN && capsense_PROX_RC_MEDIAN_FILTER_EN)
ARM GAS  C:\Users\Alan\AppData\Local\Temp\cc5hLSmt.s 			page 24


 901:.\Generated_Source\PSoC4/capsense_Filter.c ****                 temp = capsense_FtMedian((uint32)ptrSensorObj->raw[channel],\
 902:.\Generated_Source\PSoC4/capsense_Filter.c ****                                                  (uint32)ptrFilterHistObj.ptrProx->proxChannel[chan
 903:.\Generated_Source\PSoC4/capsense_Filter.c ****                                                  (uint32)ptrFilterHistObj.ptrProx->proxChannel[chan
 904:.\Generated_Source\PSoC4/capsense_Filter.c ****                 ptrFilterHistObj.ptrProx->proxChannel[channel].medHistory[1u] = \
 905:.\Generated_Source\PSoC4/capsense_Filter.c ****                 ptrFilterHistObj.ptrProx->proxChannel[channel].medHistory[0u];
 906:.\Generated_Source\PSoC4/capsense_Filter.c ****                 ptrFilterHistObj.ptrProx->proxChannel[channel].medHistory[0u] = ptrSensorObj->raw[c
 907:.\Generated_Source\PSoC4/capsense_Filter.c ****                 ptrSensorObj->raw[channel] = LO16(temp);
 908:.\Generated_Source\PSoC4/capsense_Filter.c ****             #endif /* (capsense_PROXIMITY_SENSOR_EN) */               
 909:.\Generated_Source\PSoC4/capsense_Filter.c ****         }
 910:.\Generated_Source\PSoC4/capsense_Filter.c ****     }
 911:.\Generated_Source\PSoC4/capsense_Filter.c **** }
 912:.\Generated_Source\PSoC4/capsense_Filter.c **** #endif /* (capsense_REGULAR_RC_MEDIAN_FILTER_EN || capsense_PROX_RC_MEDIAN_FILTER_EN) */
 913:.\Generated_Source\PSoC4/capsense_Filter.c **** 
 914:.\Generated_Source\PSoC4/capsense_Filter.c **** 
 915:.\Generated_Source\PSoC4/capsense_Filter.c **** #if (capsense_REGULAR_RC_AVERAGE_FILTER_EN || capsense_PROX_RC_AVERAGE_FILTER_EN)
 916:.\Generated_Source\PSoC4/capsense_Filter.c **** 
 917:.\Generated_Source\PSoC4/capsense_Filter.c **** /*******************************************************************************
 918:.\Generated_Source\PSoC4/capsense_Filter.c **** * Function Name: capsense_InitializeAverage
 919:.\Generated_Source\PSoC4/capsense_Filter.c **** ****************************************************************************//**
 920:.\Generated_Source\PSoC4/capsense_Filter.c **** *
 921:.\Generated_Source\PSoC4/capsense_Filter.c **** * \brief    Initializes the average filter history.
 922:.\Generated_Source\PSoC4/capsense_Filter.c **** *
 923:.\Generated_Source\PSoC4/capsense_Filter.c **** * \details  Initializes the average filter history.
 924:.\Generated_Source\PSoC4/capsense_Filter.c **** *
 925:.\Generated_Source\PSoC4/capsense_Filter.c **** * \param    widgetId Specifies the ID number of the widget.
 926:.\Generated_Source\PSoC4/capsense_Filter.c **** * \param    sensorId Specifies the ID number of the sensor in the widget.
 927:.\Generated_Source\PSoC4/capsense_Filter.c **** *
 928:.\Generated_Source\PSoC4/capsense_Filter.c **** *******************************************************************************/
 929:.\Generated_Source\PSoC4/capsense_Filter.c **** void capsense_InitializeAverage(uint32 widgetId, uint32 sensorId)
 930:.\Generated_Source\PSoC4/capsense_Filter.c **** {
 931:.\Generated_Source\PSoC4/capsense_Filter.c ****     capsense_FLASH_WD_STRUCT const *ptrWidget = &capsense_dsFlash.wdgtArray[widgetId];      
 932:.\Generated_Source\PSoC4/capsense_Filter.c ****     capsense_RAM_SNS_STRUCT *ptrSensor = NULL;
 933:.\Generated_Source\PSoC4/capsense_Filter.c ****     capsense_PTR_FILTER_VARIANT ptrFilterHistObj;
 934:.\Generated_Source\PSoC4/capsense_Filter.c **** 
 935:.\Generated_Source\PSoC4/capsense_Filter.c ****     /* Find pointer to specified sensor object */
 936:.\Generated_Source\PSoC4/capsense_Filter.c ****     ptrSensor = ptrWidget->ptr2SnsRam;
 937:.\Generated_Source\PSoC4/capsense_Filter.c ****     ptrSensor = &ptrSensor[sensorId];
 938:.\Generated_Source\PSoC4/capsense_Filter.c ****     
 939:.\Generated_Source\PSoC4/capsense_Filter.c ****     /* Find pointer to specified filter sensor object */
 940:.\Generated_Source\PSoC4/capsense_Filter.c ****     ptrFilterHistObj.ptr = ptrWidget->ptr2FltrHistory;
 941:.\Generated_Source\PSoC4/capsense_Filter.c **** 
 942:.\Generated_Source\PSoC4/capsense_Filter.c ****     if ((capsense_WD_TYPE_ENUM)ptrWidget->wdgtType != capsense_WD_PROXIMITY_E)
 943:.\Generated_Source\PSoC4/capsense_Filter.c ****     {
 944:.\Generated_Source\PSoC4/capsense_Filter.c ****         #if (capsense_REGULAR_SENSOR_EN)
 945:.\Generated_Source\PSoC4/capsense_Filter.c ****             ptrFilterHistObj.ptrRegular = &ptrFilterHistObj.ptrRegular[sensorId];
 946:.\Generated_Source\PSoC4/capsense_Filter.c ****         #endif /* (capsense_REGULAR_SENSOR_EN) */
 947:.\Generated_Source\PSoC4/capsense_Filter.c ****     }
 948:.\Generated_Source\PSoC4/capsense_Filter.c ****     else
 949:.\Generated_Source\PSoC4/capsense_Filter.c ****     {
 950:.\Generated_Source\PSoC4/capsense_Filter.c ****         #if (capsense_PROXIMITY_SENSOR_EN)
 951:.\Generated_Source\PSoC4/capsense_Filter.c ****             ptrFilterHistObj.ptrProx = &ptrFilterHistObj.ptrProx[sensorId];
 952:.\Generated_Source\PSoC4/capsense_Filter.c ****         #endif /* (capsense_PROXIMITY_SENSOR_EN) */
 953:.\Generated_Source\PSoC4/capsense_Filter.c ****     }
 954:.\Generated_Source\PSoC4/capsense_Filter.c **** 
 955:.\Generated_Source\PSoC4/capsense_Filter.c ****     capsense_InitializeAverageInternal(ptrFilterHistObj, ptrSensor, (uint32)ptrWidget->wdgtType);
 956:.\Generated_Source\PSoC4/capsense_Filter.c **** }
 957:.\Generated_Source\PSoC4/capsense_Filter.c **** 
ARM GAS  C:\Users\Alan\AppData\Local\Temp\cc5hLSmt.s 			page 25


 958:.\Generated_Source\PSoC4/capsense_Filter.c **** 
 959:.\Generated_Source\PSoC4/capsense_Filter.c **** /*******************************************************************************
 960:.\Generated_Source\PSoC4/capsense_Filter.c **** * Function Name: capsense_RunAverage
 961:.\Generated_Source\PSoC4/capsense_Filter.c **** ****************************************************************************//**
 962:.\Generated_Source\PSoC4/capsense_Filter.c **** *
 963:.\Generated_Source\PSoC4/capsense_Filter.c **** * \brief    Executes the average filter algorithm on a sensor indicated by an input 
 964:.\Generated_Source\PSoC4/capsense_Filter.c **** *           parameter. 
 965:.\Generated_Source\PSoC4/capsense_Filter.c **** *
 966:.\Generated_Source\PSoC4/capsense_Filter.c **** * \details  Executes the average filter algorithm on a sensor indicated by an input 
 967:.\Generated_Source\PSoC4/capsense_Filter.c **** *           parameter. 
 968:.\Generated_Source\PSoC4/capsense_Filter.c **** *
 969:.\Generated_Source\PSoC4/capsense_Filter.c **** * \param    widgetId Specifies the ID number of the widget.
 970:.\Generated_Source\PSoC4/capsense_Filter.c **** * \param    sensorId Specifies the ID number of the sensor in the widget.
 971:.\Generated_Source\PSoC4/capsense_Filter.c **** *
 972:.\Generated_Source\PSoC4/capsense_Filter.c **** *******************************************************************************/
 973:.\Generated_Source\PSoC4/capsense_Filter.c **** void capsense_RunAverage(uint32 widgetId, uint32 sensorId)
 974:.\Generated_Source\PSoC4/capsense_Filter.c **** {
 975:.\Generated_Source\PSoC4/capsense_Filter.c ****     capsense_FLASH_WD_STRUCT const *ptrWidget = &capsense_dsFlash.wdgtArray[widgetId];      
 976:.\Generated_Source\PSoC4/capsense_Filter.c ****     capsense_RAM_SNS_STRUCT *ptrSensor = NULL;    
 977:.\Generated_Source\PSoC4/capsense_Filter.c ****     capsense_PTR_FILTER_VARIANT ptrFilterHistObj; 
 978:.\Generated_Source\PSoC4/capsense_Filter.c ****               
 979:.\Generated_Source\PSoC4/capsense_Filter.c ****     /* Find pointer to specified sensor object */     
 980:.\Generated_Source\PSoC4/capsense_Filter.c ****     ptrSensor = ptrWidget->ptr2SnsRam;
 981:.\Generated_Source\PSoC4/capsense_Filter.c ****     ptrSensor = &ptrSensor[sensorId];
 982:.\Generated_Source\PSoC4/capsense_Filter.c ****     
 983:.\Generated_Source\PSoC4/capsense_Filter.c ****     /* Find pointer to specified filter sensor object */     
 984:.\Generated_Source\PSoC4/capsense_Filter.c ****     ptrFilterHistObj.ptr = ptrWidget->ptr2FltrHistory;
 985:.\Generated_Source\PSoC4/capsense_Filter.c ****     
 986:.\Generated_Source\PSoC4/capsense_Filter.c ****     if ((capsense_WD_TYPE_ENUM)ptrWidget->wdgtType != capsense_WD_PROXIMITY_E)
 987:.\Generated_Source\PSoC4/capsense_Filter.c ****     {
 988:.\Generated_Source\PSoC4/capsense_Filter.c ****         #if (capsense_REGULAR_SENSOR_EN)
 989:.\Generated_Source\PSoC4/capsense_Filter.c ****             ptrFilterHistObj.ptrRegular = &ptrFilterHistObj.ptrRegular[sensorId];
 990:.\Generated_Source\PSoC4/capsense_Filter.c ****         #endif /* (capsense_REGULAR_SENSOR_EN) */
 991:.\Generated_Source\PSoC4/capsense_Filter.c ****     }
 992:.\Generated_Source\PSoC4/capsense_Filter.c ****     else
 993:.\Generated_Source\PSoC4/capsense_Filter.c ****     {
 994:.\Generated_Source\PSoC4/capsense_Filter.c ****         #if (capsense_PROXIMITY_SENSOR_EN)
 995:.\Generated_Source\PSoC4/capsense_Filter.c ****             ptrFilterHistObj.ptrProx = &ptrFilterHistObj.ptrProx[sensorId];
 996:.\Generated_Source\PSoC4/capsense_Filter.c ****         #endif /* (capsense_PROXIMITY_SENSOR_EN) */
 997:.\Generated_Source\PSoC4/capsense_Filter.c ****     }
 998:.\Generated_Source\PSoC4/capsense_Filter.c ****     
 999:.\Generated_Source\PSoC4/capsense_Filter.c ****     capsense_RunAverageInternal(ptrFilterHistObj, ptrSensor, (uint32)ptrWidget->wdgtType);
1000:.\Generated_Source\PSoC4/capsense_Filter.c **** }
1001:.\Generated_Source\PSoC4/capsense_Filter.c **** 
1002:.\Generated_Source\PSoC4/capsense_Filter.c **** 
1003:.\Generated_Source\PSoC4/capsense_Filter.c **** /*******************************************************************************
1004:.\Generated_Source\PSoC4/capsense_Filter.c **** * Function Name: capsense_InitializeAverageInternal
1005:.\Generated_Source\PSoC4/capsense_Filter.c **** ****************************************************************************//**
1006:.\Generated_Source\PSoC4/capsense_Filter.c **** *
1007:.\Generated_Source\PSoC4/capsense_Filter.c **** * \brief    Initializes the average filter.
1008:.\Generated_Source\PSoC4/capsense_Filter.c **** *
1009:.\Generated_Source\PSoC4/capsense_Filter.c **** * \details  Initializes the average filter.
1010:.\Generated_Source\PSoC4/capsense_Filter.c **** *
1011:.\Generated_Source\PSoC4/capsense_Filter.c **** * \param    ptrFilterHistObj The pointer to the filter RAM object of the sensor.
1012:.\Generated_Source\PSoC4/capsense_Filter.c **** * \param    ptrSensorObj     The pointer to the sensor RAM object of the sensor.
1013:.\Generated_Source\PSoC4/capsense_Filter.c **** * \param    wdType           Specifies the type of a widget.
1014:.\Generated_Source\PSoC4/capsense_Filter.c **** *
ARM GAS  C:\Users\Alan\AppData\Local\Temp\cc5hLSmt.s 			page 26


1015:.\Generated_Source\PSoC4/capsense_Filter.c **** *******************************************************************************/
1016:.\Generated_Source\PSoC4/capsense_Filter.c **** void capsense_InitializeAverageInternal(capsense_PTR_FILTER_VARIANT ptrFilterHistObj,\
1017:.\Generated_Source\PSoC4/capsense_Filter.c ****                                                   capsense_RAM_SNS_STRUCT *ptrSensorObj, uint32 wdT
1018:.\Generated_Source\PSoC4/capsense_Filter.c **** {
1019:.\Generated_Source\PSoC4/capsense_Filter.c ****     uint32 channel;
1020:.\Generated_Source\PSoC4/capsense_Filter.c **** 
1021:.\Generated_Source\PSoC4/capsense_Filter.c ****     for(channel = capsense_NUM_SCAN_FREQS; channel-- > 0u;)
1022:.\Generated_Source\PSoC4/capsense_Filter.c ****     {
1023:.\Generated_Source\PSoC4/capsense_Filter.c ****         if ((capsense_WD_TYPE_ENUM)wdType != capsense_WD_PROXIMITY_E)
1024:.\Generated_Source\PSoC4/capsense_Filter.c ****         {
1025:.\Generated_Source\PSoC4/capsense_Filter.c ****             #if (capsense_REGULAR_SENSOR_EN && capsense_REGULAR_RC_AVERAGE_FILTER_EN)
1026:.\Generated_Source\PSoC4/capsense_Filter.c ****                 ptrFilterHistObj.ptrRegular->regularChannel[channel].avgHistory[0] = ptrSensorObj->
1027:.\Generated_Source\PSoC4/capsense_Filter.c ****                 #if (capsense_REGULAR_AVERAGE_LEN == capsense_AVERAGE_FILTER_LEN_4)
1028:.\Generated_Source\PSoC4/capsense_Filter.c ****                     ptrFilterHistObj.ptrRegular->regularChannel[channel].avgHistory[1u] = ptrSensor
1029:.\Generated_Source\PSoC4/capsense_Filter.c ****                     ptrFilterHistObj.ptrRegular->regularChannel[channel].avgHistory[2u] = ptrSensor
1030:.\Generated_Source\PSoC4/capsense_Filter.c ****                 #endif /* capsense_REGULAR_AVERAGE_LEN == CapSense_1_AVERAGE_FILTER_LEN_4 */
1031:.\Generated_Source\PSoC4/capsense_Filter.c ****             #endif /* (capsense_REGULAR_SENSOR_EN) */      
1032:.\Generated_Source\PSoC4/capsense_Filter.c ****         }
1033:.\Generated_Source\PSoC4/capsense_Filter.c ****         else
1034:.\Generated_Source\PSoC4/capsense_Filter.c ****         {
1035:.\Generated_Source\PSoC4/capsense_Filter.c ****             #if (capsense_PROXIMITY_SENSOR_EN && capsense_PROX_RC_AVERAGE_FILTER_EN)
1036:.\Generated_Source\PSoC4/capsense_Filter.c ****                 ptrFilterHistObj.ptrProx->proxChannel[channel].avgHistory[0] = ptrSensorObj->raw[ch
1037:.\Generated_Source\PSoC4/capsense_Filter.c ****                     #if (capsense_PROX_AVERAGE_LEN == capsense_AVERAGE_FILTER_LEN_4)
1038:.\Generated_Source\PSoC4/capsense_Filter.c ****                         ptrFilterHistObj.ptrProx->proxChannel[channel].avgHistory[1u] = ptrSensorOb
1039:.\Generated_Source\PSoC4/capsense_Filter.c ****                         ptrFilterHistObj.ptrProx->proxChannel[channel].avgHistory[2u] = ptrSensorOb
1040:.\Generated_Source\PSoC4/capsense_Filter.c ****                     #endif /* capsense_REGULAR_AVERAGE_LEN == CapSense_1_AVERAGE_FILTER_LEN_4 */
1041:.\Generated_Source\PSoC4/capsense_Filter.c ****             #endif /* (capsense_PROXIMITY_SENSOR_EN) */
1042:.\Generated_Source\PSoC4/capsense_Filter.c ****         }
1043:.\Generated_Source\PSoC4/capsense_Filter.c ****     }
1044:.\Generated_Source\PSoC4/capsense_Filter.c **** }
1045:.\Generated_Source\PSoC4/capsense_Filter.c **** 
1046:.\Generated_Source\PSoC4/capsense_Filter.c **** 
1047:.\Generated_Source\PSoC4/capsense_Filter.c **** /*******************************************************************************
1048:.\Generated_Source\PSoC4/capsense_Filter.c **** * Function Name: capsense_RunAverageInternal
1049:.\Generated_Source\PSoC4/capsense_Filter.c **** ****************************************************************************//**
1050:.\Generated_Source\PSoC4/capsense_Filter.c **** *
1051:.\Generated_Source\PSoC4/capsense_Filter.c **** * \brief    Runs the average filter.
1052:.\Generated_Source\PSoC4/capsense_Filter.c **** *
1053:.\Generated_Source\PSoC4/capsense_Filter.c **** * \details  Runs the average filter.
1054:.\Generated_Source\PSoC4/capsense_Filter.c **** *
1055:.\Generated_Source\PSoC4/capsense_Filter.c **** * \param    ptrFilterHistObj The pointer to the filter RAM object of the sensor.
1056:.\Generated_Source\PSoC4/capsense_Filter.c **** * \param    ptrSensorObj     The pointer to the sensor RAM object of the sensor.
1057:.\Generated_Source\PSoC4/capsense_Filter.c **** * \param    wdType           Specifies the type of a widget.
1058:.\Generated_Source\PSoC4/capsense_Filter.c **** *
1059:.\Generated_Source\PSoC4/capsense_Filter.c **** *******************************************************************************/
1060:.\Generated_Source\PSoC4/capsense_Filter.c **** void capsense_RunAverageInternal(capsense_PTR_FILTER_VARIANT ptrFilterHistObj,\
1061:.\Generated_Source\PSoC4/capsense_Filter.c ****                                            capsense_RAM_SNS_STRUCT *ptrSensorObj, uint32 wdType)
1062:.\Generated_Source\PSoC4/capsense_Filter.c **** {
1063:.\Generated_Source\PSoC4/capsense_Filter.c ****     uint32 channel;
1064:.\Generated_Source\PSoC4/capsense_Filter.c ****     uint32 temp;
1065:.\Generated_Source\PSoC4/capsense_Filter.c **** 
1066:.\Generated_Source\PSoC4/capsense_Filter.c ****     for(channel = capsense_NUM_SCAN_FREQS; channel-- > 0u;)
1067:.\Generated_Source\PSoC4/capsense_Filter.c ****     {
1068:.\Generated_Source\PSoC4/capsense_Filter.c ****         if ((capsense_WD_TYPE_ENUM)wdType != capsense_WD_PROXIMITY_E)
1069:.\Generated_Source\PSoC4/capsense_Filter.c ****         {
1070:.\Generated_Source\PSoC4/capsense_Filter.c ****             #if (capsense_REGULAR_SENSOR_EN && capsense_REGULAR_RC_AVERAGE_FILTER_EN)
1071:.\Generated_Source\PSoC4/capsense_Filter.c ****                 #if (capsense_REGULAR_AVERAGE_LEN == capsense_AVERAGE_FILTER_LEN_2)
ARM GAS  C:\Users\Alan\AppData\Local\Temp\cc5hLSmt.s 			page 27


1072:.\Generated_Source\PSoC4/capsense_Filter.c ****                     temp = ((uint32)ptrSensorObj->raw[channel] + 
1073:.\Generated_Source\PSoC4/capsense_Filter.c ****                             (uint32)ptrFilterHistObj.ptrRegular->regularChannel[channel].avgHistory
1074:.\Generated_Source\PSoC4/capsense_Filter.c ****                     ptrFilterHistObj.ptrRegular->regularChannel[channel].avgHistory[0] = ptrSensorO
1075:.\Generated_Source\PSoC4/capsense_Filter.c ****                     ptrSensorObj->raw[channel] = LO16(temp);
1076:.\Generated_Source\PSoC4/capsense_Filter.c ****                 #else
1077:.\Generated_Source\PSoC4/capsense_Filter.c ****                     temp = ((uint32)ptrSensorObj->raw[channel] + 
1078:.\Generated_Source\PSoC4/capsense_Filter.c ****                             (uint32)ptrFilterHistObj.ptrRegular->regularChannel[channel].avgHistory
1079:.\Generated_Source\PSoC4/capsense_Filter.c ****                             (uint32)ptrFilterHistObj.ptrRegular->regularChannel[channel].avgHistory
1080:.\Generated_Source\PSoC4/capsense_Filter.c ****                             (uint32)ptrFilterHistObj.ptrRegular->regularChannel[channel].avgHistory
1081:.\Generated_Source\PSoC4/capsense_Filter.c **** 
1082:.\Generated_Source\PSoC4/capsense_Filter.c ****                     ptrFilterHistObj.ptrRegular->regularChannel[channel].avgHistory[2u] =
1083:.\Generated_Source\PSoC4/capsense_Filter.c ****                     ptrFilterHistObj.ptrRegular->regularChannel[channel].avgHistory[1u];
1084:.\Generated_Source\PSoC4/capsense_Filter.c ****                     ptrFilterHistObj.ptrRegular->regularChannel[channel].avgHistory[1u] =
1085:.\Generated_Source\PSoC4/capsense_Filter.c ****                     ptrFilterHistObj.ptrRegular->regularChannel[channel].avgHistory[0];
1086:.\Generated_Source\PSoC4/capsense_Filter.c ****                     ptrFilterHistObj.ptrRegular->regularChannel[channel].avgHistory[0] = ptrSensorO
1087:.\Generated_Source\PSoC4/capsense_Filter.c ****                     ptrSensorObj->raw[channel] = LO16(temp);
1088:.\Generated_Source\PSoC4/capsense_Filter.c ****                 #endif /* capsense_REGULAR_AVERAGE_LEN == CapSense_1_AVERAGE_FILTER_LEN_4 */
1089:.\Generated_Source\PSoC4/capsense_Filter.c ****             #endif /* (capsense_REGULAR_SENSOR_EN) */
1090:.\Generated_Source\PSoC4/capsense_Filter.c ****         }
1091:.\Generated_Source\PSoC4/capsense_Filter.c ****         else 
1092:.\Generated_Source\PSoC4/capsense_Filter.c ****         {
1093:.\Generated_Source\PSoC4/capsense_Filter.c ****             #if (capsense_PROXIMITY_SENSOR_EN && capsense_PROX_RC_AVERAGE_FILTER_EN)
1094:.\Generated_Source\PSoC4/capsense_Filter.c ****                 #if (capsense_PROX_AVERAGE_LEN == capsense_AVERAGE_FILTER_LEN_2)     
1095:.\Generated_Source\PSoC4/capsense_Filter.c ****                     temp = ((uint32)ptrSensorObj->raw[channel] + 
1096:.\Generated_Source\PSoC4/capsense_Filter.c ****                             (uint32)ptrFilterHistObj.ptrProx->proxChannel[channel].avgHistory[0]) >
1097:.\Generated_Source\PSoC4/capsense_Filter.c ****                     ptrFilterHistObj.ptrProx->proxChannel[channel].avgHistory[0] = ptrSensorObj->ra
1098:.\Generated_Source\PSoC4/capsense_Filter.c ****                     ptrSensorObj->raw[channel] = LO16(temp);
1099:.\Generated_Source\PSoC4/capsense_Filter.c ****                 #else
1100:.\Generated_Source\PSoC4/capsense_Filter.c ****                     temp = ((uint32)ptrSensorObj->raw[channel] + 
1101:.\Generated_Source\PSoC4/capsense_Filter.c ****                             (uint32)ptrFilterHistObj.ptrProx->proxChannel[channel].avgHistory[0] +
1102:.\Generated_Source\PSoC4/capsense_Filter.c ****                             (uint32)ptrFilterHistObj.ptrProx->proxChannel[channel].avgHistory[1u] +
1103:.\Generated_Source\PSoC4/capsense_Filter.c ****                             (uint32)ptrFilterHistObj.ptrProx->proxChannel[channel].avgHistory[2u]) 
1104:.\Generated_Source\PSoC4/capsense_Filter.c ****                     
1105:.\Generated_Source\PSoC4/capsense_Filter.c ****                     ptrFilterHistObj.ptrProx->proxChannel[channel].avgHistory[2u] =
1106:.\Generated_Source\PSoC4/capsense_Filter.c ****                     ptrFilterHistObj.ptrProx->proxChannel[channel].avgHistory[1u];
1107:.\Generated_Source\PSoC4/capsense_Filter.c ****                     ptrFilterHistObj.ptrProx->proxChannel[channel].avgHistory[1u] =
1108:.\Generated_Source\PSoC4/capsense_Filter.c ****                     ptrFilterHistObj.ptrProx->proxChannel[channel].avgHistory[0];
1109:.\Generated_Source\PSoC4/capsense_Filter.c ****                     ptrFilterHistObj.ptrProx->proxChannel[channel].avgHistory[0] = ptrSensorObj->ra
1110:.\Generated_Source\PSoC4/capsense_Filter.c ****                     ptrSensorObj->raw[channel] = LO16(temp);
1111:.\Generated_Source\PSoC4/capsense_Filter.c ****                 #endif /* capsense_PROX_AVERAGE_LEN == CapSense_1_AVERAGE_FILTER_LEN_4 */
1112:.\Generated_Source\PSoC4/capsense_Filter.c ****             #endif /* (capsense_PROXIMITY_SENSOR_EN) */
1113:.\Generated_Source\PSoC4/capsense_Filter.c ****         }
1114:.\Generated_Source\PSoC4/capsense_Filter.c ****     }
1115:.\Generated_Source\PSoC4/capsense_Filter.c **** }
1116:.\Generated_Source\PSoC4/capsense_Filter.c **** #endif /* (capsense_REGULAR_RC_AVERAGE_FILTER_EN || capsense_PROX_RC_AVERAGE_FILTER_EN) */
1117:.\Generated_Source\PSoC4/capsense_Filter.c **** 
1118:.\Generated_Source\PSoC4/capsense_Filter.c **** 
1119:.\Generated_Source\PSoC4/capsense_Filter.c **** #if ((capsense_REGULAR_RC_FILTER_EN || capsense_PROX_RC_FILTER_EN))
1120:.\Generated_Source\PSoC4/capsense_Filter.c **** /*******************************************************************************
1121:.\Generated_Source\PSoC4/capsense_Filter.c **** * Function Name: capsense_FtRunEnabledFilters
1122:.\Generated_Source\PSoC4/capsense_Filter.c **** ****************************************************************************//**
1123:.\Generated_Source\PSoC4/capsense_Filter.c **** *
1124:.\Generated_Source\PSoC4/capsense_Filter.c **** * \brief    Runs all enabled filters.
1125:.\Generated_Source\PSoC4/capsense_Filter.c **** *
1126:.\Generated_Source\PSoC4/capsense_Filter.c **** * \details  Runs all enabled filters.
1127:.\Generated_Source\PSoC4/capsense_Filter.c **** *
1128:.\Generated_Source\PSoC4/capsense_Filter.c **** * \param    widgetId Specifies the ID number of a widget to update the IIR filter history.*
ARM GAS  C:\Users\Alan\AppData\Local\Temp\cc5hLSmt.s 			page 28


1129:.\Generated_Source\PSoC4/capsense_Filter.c **** * \param    sensorId Specifies the ID number of a sensor in the widget to update the IIR 
1130:.\Generated_Source\PSoC4/capsense_Filter.c **** *           filter history.
1131:.\Generated_Source\PSoC4/capsense_Filter.c **** *
1132:.\Generated_Source\PSoC4/capsense_Filter.c **** *******************************************************************************/
1133:.\Generated_Source\PSoC4/capsense_Filter.c **** void capsense_FtRunEnabledFilters(uint32 widgetId, uint32 sensorId)
1134:.\Generated_Source\PSoC4/capsense_Filter.c **** {
1135:.\Generated_Source\PSoC4/capsense_Filter.c ****     capsense_FLASH_WD_STRUCT const *ptrWidget = &capsense_dsFlash.wdgtArray[widgetId];      
1136:.\Generated_Source\PSoC4/capsense_Filter.c ****     capsense_RAM_SNS_STRUCT *ptrSensor = NULL;    
1137:.\Generated_Source\PSoC4/capsense_Filter.c ****     capsense_PTR_FILTER_VARIANT ptrFilterHistObj; 
1138:.\Generated_Source\PSoC4/capsense_Filter.c ****               
1139:.\Generated_Source\PSoC4/capsense_Filter.c ****     /* Find pointer to specified sensor object */     
1140:.\Generated_Source\PSoC4/capsense_Filter.c ****     ptrSensor = ptrWidget->ptr2SnsRam;
1141:.\Generated_Source\PSoC4/capsense_Filter.c ****     ptrSensor = &ptrSensor[sensorId];
1142:.\Generated_Source\PSoC4/capsense_Filter.c ****     
1143:.\Generated_Source\PSoC4/capsense_Filter.c ****     /* Find pointer to specified filter sensor object */     
1144:.\Generated_Source\PSoC4/capsense_Filter.c ****     ptrFilterHistObj.ptr = ptrWidget->ptr2FltrHistory;
1145:.\Generated_Source\PSoC4/capsense_Filter.c ****     
1146:.\Generated_Source\PSoC4/capsense_Filter.c ****     if ((capsense_WD_TYPE_ENUM)ptrWidget->wdgtType != capsense_WD_PROXIMITY_E)
1147:.\Generated_Source\PSoC4/capsense_Filter.c ****     {
1148:.\Generated_Source\PSoC4/capsense_Filter.c ****         #if (capsense_REGULAR_SENSOR_EN)
1149:.\Generated_Source\PSoC4/capsense_Filter.c ****             ptrFilterHistObj.ptrRegular = &ptrFilterHistObj.ptrRegular[sensorId];
1150:.\Generated_Source\PSoC4/capsense_Filter.c ****         #endif /* (capsense_REGULAR_SENSOR_EN) */
1151:.\Generated_Source\PSoC4/capsense_Filter.c ****     }
1152:.\Generated_Source\PSoC4/capsense_Filter.c ****     else
1153:.\Generated_Source\PSoC4/capsense_Filter.c ****     {
1154:.\Generated_Source\PSoC4/capsense_Filter.c ****         #if (capsense_PROXIMITY_SENSOR_EN)
1155:.\Generated_Source\PSoC4/capsense_Filter.c ****             ptrFilterHistObj.ptrProx = &ptrFilterHistObj.ptrProx[sensorId];
1156:.\Generated_Source\PSoC4/capsense_Filter.c ****         #endif /* (capsense_PROXIMITY_SENSOR_EN) */
1157:.\Generated_Source\PSoC4/capsense_Filter.c ****     }
1158:.\Generated_Source\PSoC4/capsense_Filter.c ****     
1159:.\Generated_Source\PSoC4/capsense_Filter.c ****     capsense_FtRunEnabledFiltersInternal(ptrFilterHistObj, ptrSensor, (uint32)ptrWidget->wdgtType);
1160:.\Generated_Source\PSoC4/capsense_Filter.c **** }
1161:.\Generated_Source\PSoC4/capsense_Filter.c **** 
1162:.\Generated_Source\PSoC4/capsense_Filter.c **** 
1163:.\Generated_Source\PSoC4/capsense_Filter.c **** /*******************************************************************************
1164:.\Generated_Source\PSoC4/capsense_Filter.c **** * Function Name: capsense_FtRunEnabledFiltersInternal
1165:.\Generated_Source\PSoC4/capsense_Filter.c **** ****************************************************************************//**
1166:.\Generated_Source\PSoC4/capsense_Filter.c **** *
1167:.\Generated_Source\PSoC4/capsense_Filter.c **** * \brief    Runs all enabled filters.
1168:.\Generated_Source\PSoC4/capsense_Filter.c **** *
1169:.\Generated_Source\PSoC4/capsense_Filter.c **** * \details  Runs all enabled filters.
1170:.\Generated_Source\PSoC4/capsense_Filter.c **** *
1171:.\Generated_Source\PSoC4/capsense_Filter.c **** * \param    ptrFilterHistObj The pointer to the filter RAM object of the sensor.
1172:.\Generated_Source\PSoC4/capsense_Filter.c **** * \param    ptrSensorObj     The pointer to the sensor RAM object of the sensor.
1173:.\Generated_Source\PSoC4/capsense_Filter.c **** * \param    wdType           Specifies the type of a widget.
1174:.\Generated_Source\PSoC4/capsense_Filter.c **** *
1175:.\Generated_Source\PSoC4/capsense_Filter.c **** *******************************************************************************/
1176:.\Generated_Source\PSoC4/capsense_Filter.c **** void capsense_FtRunEnabledFiltersInternal(capsense_PTR_FILTER_VARIANT ptrFilterHistObj, 
1177:.\Generated_Source\PSoC4/capsense_Filter.c ****                                                   capsense_RAM_SNS_STRUCT *ptrSensorObj, uint32 wdT
1178:.\Generated_Source\PSoC4/capsense_Filter.c **** {
1179:.\Generated_Source\PSoC4/capsense_Filter.c ****     #if (capsense_REGULAR_RC_MEDIAN_FILTER_EN || capsense_PROX_RC_MEDIAN_FILTER_EN)
1180:.\Generated_Source\PSoC4/capsense_Filter.c ****         capsense_RunMedianInternal(ptrFilterHistObj, ptrSensorObj, wdType);
1181:.\Generated_Source\PSoC4/capsense_Filter.c ****     #endif /* (capsense_REGULAR_RC_MEDIAN_FILTER_EN || capsense_PROX_RC_MEDIAN_FILTER_EN) */
1182:.\Generated_Source\PSoC4/capsense_Filter.c ****     
1183:.\Generated_Source\PSoC4/capsense_Filter.c ****     #if (capsense_REGULAR_RC_IIR_FILTER_EN || capsense_PROX_RC_IIR_FILTER_EN)    
1184:.\Generated_Source\PSoC4/capsense_Filter.c ****         capsense_RunIIRInternal(ptrFilterHistObj, ptrSensorObj, wdType);
1185:.\Generated_Source\PSoC4/capsense_Filter.c ****     #endif /* (capsense_REGULAR_RC_IIR_FILTER_EN || capsense_PROX_RC_IIR_FILTER_EN) */ 
ARM GAS  C:\Users\Alan\AppData\Local\Temp\cc5hLSmt.s 			page 29


1186:.\Generated_Source\PSoC4/capsense_Filter.c **** 
1187:.\Generated_Source\PSoC4/capsense_Filter.c ****     #if (capsense_REGULAR_RC_AVERAGE_FILTER_EN || capsense_PROX_RC_AVERAGE_FILTER_EN)
1188:.\Generated_Source\PSoC4/capsense_Filter.c ****         capsense_RunAverageInternal(ptrFilterHistObj, ptrSensorObj, wdType);
1189:.\Generated_Source\PSoC4/capsense_Filter.c ****     #endif /* (capsense_REGULAR_RC_AVERAGE_FILTER_EN || capsense_PROX_RC_AVERAGE_FILTER_EN) */     
1190:.\Generated_Source\PSoC4/capsense_Filter.c **** }
1191:.\Generated_Source\PSoC4/capsense_Filter.c **** #endif /* (capsense_REGULAR_RC_FILTER_EN || capsense_PROX_RC_FILTER_EN) */
1192:.\Generated_Source\PSoC4/capsense_Filter.c **** 
1193:.\Generated_Source\PSoC4/capsense_Filter.c **** 
1194:.\Generated_Source\PSoC4/capsense_Filter.c **** #if (capsense_CSD_AUTOTUNE & capsense_CSD_SS_TH_EN)
1195:.\Generated_Source\PSoC4/capsense_Filter.c **** /*******************************************************************************
1196:.\Generated_Source\PSoC4/capsense_Filter.c **** * Function Name: capsense_RunNoiseEnvelope
1197:.\Generated_Source\PSoC4/capsense_Filter.c **** ****************************************************************************//**
1198:.\Generated_Source\PSoC4/capsense_Filter.c **** *
1199:.\Generated_Source\PSoC4/capsense_Filter.c **** * \brief    Executes the noise envelope  filter algorithm on a sensor indicated by 
1200:.\Generated_Source\PSoC4/capsense_Filter.c **** *           an input parameter to measure the pk-to-pk noise in the sensor raw count.
1201:.\Generated_Source\PSoC4/capsense_Filter.c **** *
1202:.\Generated_Source\PSoC4/capsense_Filter.c **** * \details  Executes the noise envelope  filter algorithm on a sensor indicated by 
1203:.\Generated_Source\PSoC4/capsense_Filter.c **** *           an input parameter to measure the pk-to-pk noise in the sensor raw count.
1204:.\Generated_Source\PSoC4/capsense_Filter.c **** *
1205:.\Generated_Source\PSoC4/capsense_Filter.c **** * \param    widgetId Specifies the ID number of the widget.
1206:.\Generated_Source\PSoC4/capsense_Filter.c **** * \param    sensorId Specifies the ID number of the sensor in the widget.
1207:.\Generated_Source\PSoC4/capsense_Filter.c **** *
1208:.\Generated_Source\PSoC4/capsense_Filter.c **** *******************************************************************************/
1209:.\Generated_Source\PSoC4/capsense_Filter.c **** void capsense_RunNoiseEnvelope(uint32 widgetId, uint32 sensorId)
1210:.\Generated_Source\PSoC4/capsense_Filter.c **** {
 381              		.loc 1 1210 0
 382              		.cfi_startproc
 383              	.LVL57:
 384 0000 70B5     		push	{r4, r5, r6, lr}
 385              		.cfi_def_cfa_offset 16
 386              		.cfi_offset 4, -16
 387              		.cfi_offset 5, -12
 388              		.cfi_offset 6, -8
 389              		.cfi_offset 14, -4
 390              	.LVL58:
1211:.\Generated_Source\PSoC4/capsense_Filter.c ****     capsense_FLASH_WD_STRUCT const *ptrWidget = &capsense_dsFlash.wdgtArray[widgetId];
1212:.\Generated_Source\PSoC4/capsense_Filter.c ****     capsense_RAM_WD_BASE_STRUCT *ptrWidgetRam = ptrWidget->ptr2WdgtRam;
 391              		.loc 1 1212 0
 392 0002 0B4A     		ldr	r2, .L27
 393 0004 8400     		lsl	r4, r0, #2
 394 0006 2318     		add	r3, r4, r0
 395 0008 DB00     		lsl	r3, r3, #3
 396 000a D318     		add	r3, r2, r3
 397 000c 5D68     		ldr	r5, [r3, #4]
 398              	.LVL59:
1213:.\Generated_Source\PSoC4/capsense_Filter.c ****     capsense_RAM_SNS_STRUCT *ptrSensor = NULL;    
1214:.\Generated_Source\PSoC4/capsense_Filter.c ****     SMARTSENSE_CSD_NOISE_ENVELOPE_STRUCT *ptrNoiseEnvelope = NULL;
1215:.\Generated_Source\PSoC4/capsense_Filter.c **** 
1216:.\Generated_Source\PSoC4/capsense_Filter.c ****     /* Find pointer to specified sensor object */
1217:.\Generated_Source\PSoC4/capsense_Filter.c ****     ptrSensor = ptrWidget->ptr2SnsRam;
 399              		.loc 1 1217 0
 400 000e 9E68     		ldr	r6, [r3, #8]
 401              	.LVL60:
1218:.\Generated_Source\PSoC4/capsense_Filter.c ****     ptrSensor = &ptrSensor[sensorId];
 402              		.loc 1 1218 0
 403 0010 8B00     		lsl	r3, r1, #2
 404 0012 5B18     		add	r3, r3, r1
ARM GAS  C:\Users\Alan\AppData\Local\Temp\cc5hLSmt.s 			page 30


 405 0014 5B00     		lsl	r3, r3, #1
 406              	.LVL61:
1219:.\Generated_Source\PSoC4/capsense_Filter.c ****     
1220:.\Generated_Source\PSoC4/capsense_Filter.c ****     /* Find pointer to specified filter sensor object */
1221:.\Generated_Source\PSoC4/capsense_Filter.c ****     ptrNoiseEnvelope = ptrWidget->ptr2NoiseEnvlp;
 407              		.loc 1 1221 0
 408 0016 2018     		add	r0, r4, r0
 409              	.LVL62:
 410 0018 C000     		lsl	r0, r0, #3
 411 001a 1018     		add	r0, r2, r0
 412 001c 026A     		ldr	r2, [r0, #32]
 413              	.LVL63:
1222:.\Generated_Source\PSoC4/capsense_Filter.c ****     ptrNoiseEnvelope = &ptrNoiseEnvelope[sensorId];    
 414              		.loc 1 1222 0
 415 001e 4800     		lsl	r0, r1, #1
 416 0020 4118     		add	r1, r0, r1
 417              	.LVL64:
 418 0022 8900     		lsl	r1, r1, #2
 419 0024 5218     		add	r2, r2, r1
 420              	.LVL65:
1223:.\Generated_Source\PSoC4/capsense_Filter.c **** 
1224:.\Generated_Source\PSoC4/capsense_Filter.c ****     SmartSense_RunNoiseEnvelope(ptrSensor->raw[0u], ptrWidgetRam->sigPPf, ptrNoiseEnvelope);
 421              		.loc 1 1224 0
 422 0026 F05A     		ldrh	r0, [r6, r3]
 423 0028 E989     		ldrh	r1, [r5, #14]
 424 002a FFF7FEFF 		bl	SmartSense_RunNoiseEnvelope
 425              	.LVL66:
1225:.\Generated_Source\PSoC4/capsense_Filter.c **** }
 426              		.loc 1 1225 0
 427              		@ sp needed
 428              	.LVL67:
 429              	.LVL68:
 430              	.LVL69:
 431 002e 70BD     		pop	{r4, r5, r6, pc}
 432              	.L28:
 433              		.align	2
 434              	.L27:
 435 0030 00000000 		.word	capsense_dsFlash
 436              		.cfi_endproc
 437              	.LFE11:
 438              		.size	capsense_RunNoiseEnvelope, .-capsense_RunNoiseEnvelope
 439              		.section	.text.capsense_InitializeNoiseEnvelope,"ax",%progbits
 440              		.align	2
 441              		.global	capsense_InitializeNoiseEnvelope
 442              		.code	16
 443              		.thumb_func
 444              		.type	capsense_InitializeNoiseEnvelope, %function
 445              	capsense_InitializeNoiseEnvelope:
 446              	.LFB12:
1226:.\Generated_Source\PSoC4/capsense_Filter.c **** 
1227:.\Generated_Source\PSoC4/capsense_Filter.c **** 
1228:.\Generated_Source\PSoC4/capsense_Filter.c **** /*******************************************************************************
1229:.\Generated_Source\PSoC4/capsense_Filter.c **** * Function Name: capsense_InitializeNoiseEnvelope
1230:.\Generated_Source\PSoC4/capsense_Filter.c **** ****************************************************************************//**
1231:.\Generated_Source\PSoC4/capsense_Filter.c **** *
1232:.\Generated_Source\PSoC4/capsense_Filter.c **** * \brief    Initializes the noise-envelope filter
1233:.\Generated_Source\PSoC4/capsense_Filter.c **** *
ARM GAS  C:\Users\Alan\AppData\Local\Temp\cc5hLSmt.s 			page 31


1234:.\Generated_Source\PSoC4/capsense_Filter.c **** * \details  Initializes the noise-envelope filter
1235:.\Generated_Source\PSoC4/capsense_Filter.c **** *
1236:.\Generated_Source\PSoC4/capsense_Filter.c **** * \param    widgetId Specifies the ID number of the widget.
1237:.\Generated_Source\PSoC4/capsense_Filter.c **** * \param    sensorId Specifies the ID number of the sensor in the widget.
1238:.\Generated_Source\PSoC4/capsense_Filter.c **** *
1239:.\Generated_Source\PSoC4/capsense_Filter.c **** *******************************************************************************/
1240:.\Generated_Source\PSoC4/capsense_Filter.c **** void capsense_InitializeNoiseEnvelope(uint32 widgetId, uint32 sensorId)
1241:.\Generated_Source\PSoC4/capsense_Filter.c **** {
 447              		.loc 1 1241 0
 448              		.cfi_startproc
 449              	.LVL70:
 450 0000 70B5     		push	{r4, r5, r6, lr}
 451              		.cfi_def_cfa_offset 16
 452              		.cfi_offset 4, -16
 453              		.cfi_offset 5, -12
 454              		.cfi_offset 6, -8
 455              		.cfi_offset 14, -4
 456              	.LVL71:
1242:.\Generated_Source\PSoC4/capsense_Filter.c ****     capsense_FLASH_WD_STRUCT const *ptrWidget = &capsense_dsFlash.wdgtArray[widgetId];
1243:.\Generated_Source\PSoC4/capsense_Filter.c ****     capsense_RAM_WD_BASE_STRUCT *ptrWidgetRam = ptrWidget->ptr2WdgtRam;
 457              		.loc 1 1243 0
 458 0002 0B4A     		ldr	r2, .L30
 459 0004 8400     		lsl	r4, r0, #2
 460 0006 2318     		add	r3, r4, r0
 461 0008 DB00     		lsl	r3, r3, #3
 462 000a D318     		add	r3, r2, r3
 463 000c 5D68     		ldr	r5, [r3, #4]
 464              	.LVL72:
1244:.\Generated_Source\PSoC4/capsense_Filter.c ****     capsense_RAM_SNS_STRUCT *ptrSensor = NULL;    
1245:.\Generated_Source\PSoC4/capsense_Filter.c ****     SMARTSENSE_CSD_NOISE_ENVELOPE_STRUCT *ptrNoiseEnvelope = NULL;
1246:.\Generated_Source\PSoC4/capsense_Filter.c **** 
1247:.\Generated_Source\PSoC4/capsense_Filter.c ****     /* Find pointer to specified sensor object */
1248:.\Generated_Source\PSoC4/capsense_Filter.c ****     ptrSensor = ptrWidget->ptr2SnsRam;
 465              		.loc 1 1248 0
 466 000e 9E68     		ldr	r6, [r3, #8]
 467              	.LVL73:
1249:.\Generated_Source\PSoC4/capsense_Filter.c ****     ptrSensor = &ptrSensor[sensorId];
 468              		.loc 1 1249 0
 469 0010 8B00     		lsl	r3, r1, #2
 470 0012 5B18     		add	r3, r3, r1
 471 0014 5B00     		lsl	r3, r3, #1
 472              	.LVL74:
1250:.\Generated_Source\PSoC4/capsense_Filter.c ****     
1251:.\Generated_Source\PSoC4/capsense_Filter.c ****     /* Find pointer to specified filter sensor object */
1252:.\Generated_Source\PSoC4/capsense_Filter.c ****     ptrNoiseEnvelope = ptrWidget->ptr2NoiseEnvlp;
 473              		.loc 1 1252 0
 474 0016 2018     		add	r0, r4, r0
 475              	.LVL75:
 476 0018 C000     		lsl	r0, r0, #3
 477 001a 1018     		add	r0, r2, r0
 478 001c 026A     		ldr	r2, [r0, #32]
 479              	.LVL76:
1253:.\Generated_Source\PSoC4/capsense_Filter.c ****     ptrNoiseEnvelope = &ptrNoiseEnvelope[sensorId];    
 480              		.loc 1 1253 0
 481 001e 4800     		lsl	r0, r1, #1
 482 0020 4118     		add	r1, r0, r1
 483              	.LVL77:
ARM GAS  C:\Users\Alan\AppData\Local\Temp\cc5hLSmt.s 			page 32


 484 0022 8900     		lsl	r1, r1, #2
 485 0024 5218     		add	r2, r2, r1
 486              	.LVL78:
1254:.\Generated_Source\PSoC4/capsense_Filter.c **** 
1255:.\Generated_Source\PSoC4/capsense_Filter.c ****     SmartSense_InitializeNoiseEnvelope(ptrSensor->raw[0u], ptrWidgetRam->sigPPf, ptrNoiseEnvelope);
 487              		.loc 1 1255 0
 488 0026 F05A     		ldrh	r0, [r6, r3]
 489 0028 E989     		ldrh	r1, [r5, #14]
 490 002a FFF7FEFF 		bl	SmartSense_InitializeNoiseEnvelope
 491              	.LVL79:
1256:.\Generated_Source\PSoC4/capsense_Filter.c **** }
 492              		.loc 1 1256 0
 493              		@ sp needed
 494              	.LVL80:
 495              	.LVL81:
 496              	.LVL82:
 497 002e 70BD     		pop	{r4, r5, r6, pc}
 498              	.L31:
 499              		.align	2
 500              	.L30:
 501 0030 00000000 		.word	capsense_dsFlash
 502              		.cfi_endproc
 503              	.LFE12:
 504              		.size	capsense_InitializeNoiseEnvelope, .-capsense_InitializeNoiseEnvelope
 505              		.section	.text.capsense_FtIIR1stOrder,"ax",%progbits
 506              		.align	2
 507              		.global	capsense_FtIIR1stOrder
 508              		.code	16
 509              		.thumb_func
 510              		.type	capsense_FtIIR1stOrder, %function
 511              	capsense_FtIIR1stOrder:
 512              	.LFB13:
1257:.\Generated_Source\PSoC4/capsense_Filter.c **** #endif /* #if capsense_CSD_AUTOTUNE & capsense_CSD_SS_TH_EN */
1258:.\Generated_Source\PSoC4/capsense_Filter.c **** 
1259:.\Generated_Source\PSoC4/capsense_Filter.c **** 
1260:.\Generated_Source\PSoC4/capsense_Filter.c **** #if (capsense_POS_MEDIAN_FILTER_EN || capsense_REGULAR_RC_MEDIAN_FILTER_EN || capsense_PROX_RC_MEDI
1261:.\Generated_Source\PSoC4/capsense_Filter.c **** /*******************************************************************************
1262:.\Generated_Source\PSoC4/capsense_Filter.c **** * Function Name: capsense_FtMedian
1263:.\Generated_Source\PSoC4/capsense_Filter.c **** ****************************************************************************//**
1264:.\Generated_Source\PSoC4/capsense_Filter.c **** *
1265:.\Generated_Source\PSoC4/capsense_Filter.c **** * \brief    Return the median value from the three passed arguments.
1266:.\Generated_Source\PSoC4/capsense_Filter.c **** *
1267:.\Generated_Source\PSoC4/capsense_Filter.c **** * \details  Return the median value from the three passed arguments.
1268:.\Generated_Source\PSoC4/capsense_Filter.c **** *
1269:.\Generated_Source\PSoC4/capsense_Filter.c **** * \param    x1 The first value to be compared.
1270:.\Generated_Source\PSoC4/capsense_Filter.c **** * \param    x2 The second value to be compared.
1271:.\Generated_Source\PSoC4/capsense_Filter.c **** * \param    x3 The third value to be compared.
1272:.\Generated_Source\PSoC4/capsense_Filter.c **** *
1273:.\Generated_Source\PSoC4/capsense_Filter.c **** * \return   Returns the median value of input arguments.
1274:.\Generated_Source\PSoC4/capsense_Filter.c **** *
1275:.\Generated_Source\PSoC4/capsense_Filter.c **** *******************************************************************************/
1276:.\Generated_Source\PSoC4/capsense_Filter.c **** uint32 capsense_FtMedian(uint32 x1, uint32 x2, uint32 x3)
1277:.\Generated_Source\PSoC4/capsense_Filter.c **** {
1278:.\Generated_Source\PSoC4/capsense_Filter.c ****     uint32 tmp;
1279:.\Generated_Source\PSoC4/capsense_Filter.c **** 
1280:.\Generated_Source\PSoC4/capsense_Filter.c ****     if (x1 > x2)
1281:.\Generated_Source\PSoC4/capsense_Filter.c ****     {
ARM GAS  C:\Users\Alan\AppData\Local\Temp\cc5hLSmt.s 			page 33


1282:.\Generated_Source\PSoC4/capsense_Filter.c ****         tmp = x2;
1283:.\Generated_Source\PSoC4/capsense_Filter.c ****         x2 = x1;
1284:.\Generated_Source\PSoC4/capsense_Filter.c ****         x1 = tmp;
1285:.\Generated_Source\PSoC4/capsense_Filter.c ****     }
1286:.\Generated_Source\PSoC4/capsense_Filter.c **** 
1287:.\Generated_Source\PSoC4/capsense_Filter.c ****     if (x2 > x3)
1288:.\Generated_Source\PSoC4/capsense_Filter.c ****     {
1289:.\Generated_Source\PSoC4/capsense_Filter.c ****         x2 = x3;
1290:.\Generated_Source\PSoC4/capsense_Filter.c ****     }
1291:.\Generated_Source\PSoC4/capsense_Filter.c **** 
1292:.\Generated_Source\PSoC4/capsense_Filter.c ****     return ((x1 > x2) ? x1 : x2);
1293:.\Generated_Source\PSoC4/capsense_Filter.c **** }
1294:.\Generated_Source\PSoC4/capsense_Filter.c **** #endif /*capsense_POS_MEDIAN_FILTER_EN || capsense_REGULAR_RC_MEDIAN_FILTER_EN || capsense_PROX_RC_
1295:.\Generated_Source\PSoC4/capsense_Filter.c **** 
1296:.\Generated_Source\PSoC4/capsense_Filter.c **** 
1297:.\Generated_Source\PSoC4/capsense_Filter.c **** /*******************************************************************************
1298:.\Generated_Source\PSoC4/capsense_Filter.c **** * Function Name: capsense_FtIIR1stOrder
1299:.\Generated_Source\PSoC4/capsense_Filter.c **** ****************************************************************************//**
1300:.\Generated_Source\PSoC4/capsense_Filter.c **** *
1301:.\Generated_Source\PSoC4/capsense_Filter.c **** * \brief    Return the filtered data by the IIR 1-st order algorithm
1302:.\Generated_Source\PSoC4/capsense_Filter.c **** *
1303:.\Generated_Source\PSoC4/capsense_Filter.c **** * \details  Return the filtered data by the IIR 1-st order algorithm
1304:.\Generated_Source\PSoC4/capsense_Filter.c **** *
1305:.\Generated_Source\PSoC4/capsense_Filter.c **** * \param    input      The data to be filtered.
1306:.\Generated_Source\PSoC4/capsense_Filter.c **** * \param    prevOutput The previous filtered data.
1307:.\Generated_Source\PSoC4/capsense_Filter.c **** * \param    n          The IIR filter coefficient (n/256).
1308:.\Generated_Source\PSoC4/capsense_Filter.c **** * \param    shift      The parameter is used to shift input data to have free LSB 
1309:.\Generated_Source\PSoC4/capsense_Filter.c **** *                       bits for a fraction storage of the filter output calculation.
1310:.\Generated_Source\PSoC4/capsense_Filter.c **** *
1311:.\Generated_Source\PSoC4/capsense_Filter.c **** * \return   Returns the filtered data.
1312:.\Generated_Source\PSoC4/capsense_Filter.c **** *
1313:.\Generated_Source\PSoC4/capsense_Filter.c **** *******************************************************************************/
1314:.\Generated_Source\PSoC4/capsense_Filter.c **** uint32 capsense_FtIIR1stOrder(uint32 input, uint32 prevOutput, uint32 n, uint32 shift)
1315:.\Generated_Source\PSoC4/capsense_Filter.c **** {   
 513              		.loc 1 1315 0
 514              		.cfi_startproc
 515              	.LVL83:
1316:.\Generated_Source\PSoC4/capsense_Filter.c ****     uint32 output;
1317:.\Generated_Source\PSoC4/capsense_Filter.c ****    
1318:.\Generated_Source\PSoC4/capsense_Filter.c ****     /*
1319:.\Generated_Source\PSoC4/capsense_Filter.c ****     * n - IIR filter coefficient (n/256)
1320:.\Generated_Source\PSoC4/capsense_Filter.c ****     * shift - Used to shift input data to have free LSB bits
1321:.\Generated_Source\PSoC4/capsense_Filter.c ****     * for fraction starage of filter output calculation
1322:.\Generated_Source\PSoC4/capsense_Filter.c ****     */
1323:.\Generated_Source\PSoC4/capsense_Filter.c ****     output = ((n * (input << shift)) + ((capsense_IIR_COEFFICIENT_K - n) * prevOutput)) >> 8u;
 516              		.loc 1 1323 0
 517 0000 9840     		lsl	r0, r0, r3
 518              	.LVL84:
 519 0002 031C     		mov	r3, r0
 520              	.LVL85:
 521 0004 5343     		mul	r3, r2
 522 0006 8020     		mov	r0, #128
 523 0008 4000     		lsl	r0, r0, #1
 524 000a 801A     		sub	r0, r0, r2
 525 000c 4143     		mul	r1, r0
 526              	.LVL86:
 527 000e 5818     		add	r0, r3, r1
ARM GAS  C:\Users\Alan\AppData\Local\Temp\cc5hLSmt.s 			page 34


 528 0010 000A     		lsr	r0, r0, #8
 529              	.LVL87:
1324:.\Generated_Source\PSoC4/capsense_Filter.c ****     
1325:.\Generated_Source\PSoC4/capsense_Filter.c ****     /* Shift operation of output will be done in upper level API if needed */
1326:.\Generated_Source\PSoC4/capsense_Filter.c ****     return output;
1327:.\Generated_Source\PSoC4/capsense_Filter.c **** }
 530              		.loc 1 1327 0
 531              		@ sp needed
 532 0012 7047     		bx	lr
 533              		.cfi_endproc
 534              	.LFE13:
 535              		.size	capsense_FtIIR1stOrder, .-capsense_FtIIR1stOrder
 536              		.section	.text.capsense_FtUpdateBaseline,"ax",%progbits
 537              		.align	2
 538              		.global	capsense_FtUpdateBaseline
 539              		.code	16
 540              		.thumb_func
 541              		.type	capsense_FtUpdateBaseline, %function
 542              	capsense_FtUpdateBaseline:
 543              	.LFB5:
 266:.\Generated_Source\PSoC4/capsense_Filter.c ****     uint32 sign;
 544              		.loc 1 266 0
 545              		.cfi_startproc
 546              	.LVL88:
 547 0000 F0B5     		push	{r4, r5, r6, r7, lr}
 548              		.cfi_def_cfa_offset 20
 549              		.cfi_offset 4, -20
 550              		.cfi_offset 5, -16
 551              		.cfi_offset 6, -12
 552              		.cfi_offset 7, -8
 553              		.cfi_offset 14, -4
 554 0002 83B0     		sub	sp, sp, #12
 555              		.cfi_def_cfa_offset 32
 556 0004 071C     		mov	r7, r0
 557 0006 0E1C     		mov	r6, r1
 558 0008 0192     		str	r2, [sp, #4]
 559              	.LVL89:
 277:.\Generated_Source\PSoC4/capsense_Filter.c ****     {               
 560              		.loc 1 277 0
 561 000a 0123     		mov	r3, #1
 562 000c 3BE0     		b	.L34
 563              	.LVL90:
 564              	.L41:
 280:.\Generated_Source\PSoC4/capsense_Filter.c ****         {
 565              		.loc 1 280 0
 566 000e 6300     		lsl	r3, r4, #1
 567 0010 985B     		ldrh	r0, [r3, r6]
 568 0012 F318     		add	r3, r6, r3
 569 0014 5988     		ldrh	r1, [r3, #2]
 570 0016 8842     		cmp	r0, r1
 571 0018 05D3     		bcc	.L35
 282:.\Generated_Source\PSoC4/capsense_Filter.c ****             sign = 1u;
 572              		.loc 1 282 0
 573 001a 431A     		sub	r3, r0, r1
 574              	.LVL91:
 284:.\Generated_Source\PSoC4/capsense_Filter.c ****         }
 575              		.loc 1 284 0
ARM GAS  C:\Users\Alan\AppData\Local\Temp\cc5hLSmt.s 			page 35


 576 001c 3219     		add	r2, r6, r4
 577 001e 0025     		mov	r5, #0
 578 0020 1572     		strb	r5, [r2, #8]
 283:.\Generated_Source\PSoC4/capsense_Filter.c ****             ptrSensor->negBslnRstCnt[channel] = 0u;
 579              		.loc 1 283 0
 580 0022 0122     		mov	r2, #1
 581 0024 01E0     		b	.L36
 582              	.LVL92:
 583              	.L35:
 288:.\Generated_Source\PSoC4/capsense_Filter.c ****             sign = 0u;
 584              		.loc 1 288 0
 585 0026 0B1A     		sub	r3, r1, r0
 586              	.LVL93:
 289:.\Generated_Source\PSoC4/capsense_Filter.c ****         }     
 587              		.loc 1 289 0
 588 0028 0022     		mov	r2, #0
 589              	.LVL94:
 590              	.L36:
 293:.\Generated_Source\PSoC4/capsense_Filter.c ****         {
 591              		.loc 1 293 0
 592 002a 002A     		cmp	r2, #0
 593 002c 11D1     		bne	.L37
 293:.\Generated_Source\PSoC4/capsense_Filter.c ****         {
 594              		.loc 1 293 0 is_stmt 0 discriminator 1
 595 002e 7D79     		ldrb	r5, [r7, #5]
 596 0030 9D42     		cmp	r5, r3
 597 0032 0ED2     		bcs	.L37
 295:.\Generated_Source\PSoC4/capsense_Filter.c ****             {                
 598              		.loc 1 295 0 is_stmt 1
 599 0034 3319     		add	r3, r6, r4
 600              	.LVL95:
 601 0036 1B7A     		ldrb	r3, [r3, #8]
 602 0038 3A7A     		ldrb	r2, [r7, #8]
 603              	.LVL96:
 604 003a 9342     		cmp	r3, r2
 605 003c 05D3     		bcc	.L38
 297:.\Generated_Source\PSoC4/capsense_Filter.c ****             }
 606              		.loc 1 297 0
 607 003e 301C     		mov	r0, r6
 608 0040 0199     		ldr	r1, [sp, #4]
 609 0042 221C     		mov	r2, r4
 610 0044 FFF7FEFF 		bl	capsense_FtInitializeBaselineChannel
 611              	.LVL97:
 612 0048 1CE0     		b	.L39
 613              	.L38:
 301:.\Generated_Source\PSoC4/capsense_Filter.c ****             }
 614              		.loc 1 301 0
 615 004a 3219     		add	r2, r6, r4
 616 004c 0133     		add	r3, r3, #1
 617 004e 1372     		strb	r3, [r2, #8]
 618 0050 18E0     		b	.L39
 619              	.LVL98:
 620              	.L37:
 308:.\Generated_Source\PSoC4/capsense_Filter.c ****                     ((difference < (uint32) ptrWidgetRam->nNoiseTh) && (sign == 0u)))
 621              		.loc 1 308 0
 622 0052 3D79     		ldrb	r5, [r7, #4]
 623 0054 9D42     		cmp	r5, r3
ARM GAS  C:\Users\Alan\AppData\Local\Temp\cc5hLSmt.s 			page 36


 624 0056 04D2     		bcs	.L40
 309:.\Generated_Source\PSoC4/capsense_Filter.c ****                 {
 625              		.loc 1 309 0 discriminator 1
 626 0058 7D79     		ldrb	r5, [r7, #5]
 308:.\Generated_Source\PSoC4/capsense_Filter.c ****                     ((difference < (uint32) ptrWidgetRam->nNoiseTh) && (sign == 0u)))
 627              		.loc 1 308 0 discriminator 1
 628 005a 9D42     		cmp	r5, r3
 629 005c 12D9     		bls	.L39
 309:.\Generated_Source\PSoC4/capsense_Filter.c ****                 {
 630              		.loc 1 309 0
 631 005e 002A     		cmp	r2, #0
 632 0060 10D1     		bne	.L39
 633              	.L40:
 315:.\Generated_Source\PSoC4/capsense_Filter.c ****                         {
 634              		.loc 1 315 0
 635 0062 6B46     		mov	r3, sp
 636              	.LVL99:
 637 0064 1B79     		ldrb	r3, [r3, #4]
 638 0066 062B     		cmp	r3, #6
 639 0068 0CD0     		beq	.L39
 319:.\Generated_Source\PSoC4/capsense_Filter.c ****                                     history |= ptrSensor->bslnExt[channel];
 640              		.loc 1 319 0
 641 006a 0902     		lsl	r1, r1, #8
 642              	.LVL100:
 320:.\Generated_Source\PSoC4/capsense_Filter.c ****                                 #else
 643              		.loc 1 320 0
 644 006c 3519     		add	r5, r6, r4
 645 006e 2B79     		ldrb	r3, [r5, #4]
 646 0070 1943     		orr	r1, r3
 647              	.LVL101:
 325:.\Generated_Source\PSoC4/capsense_Filter.c ****                                                 (uint32)ptrSensor->raw[channel],
 648              		.loc 1 325 0
 649 0072 0122     		mov	r2, #1
 650              	.LVL102:
 651 0074 0823     		mov	r3, #8
 652 0076 FFF7FEFF 		bl	capsense_FtIIR1stOrder
 653              	.LVL103:
 332:.\Generated_Source\PSoC4/capsense_Filter.c ****                                     ptrSensor->bslnExt[channel] = LO8(history);
 654              		.loc 1 332 0
 655 007a 020A     		lsr	r2, r0, #8
 656 007c 6300     		lsl	r3, r4, #1
 657 007e F318     		add	r3, r6, r3
 658 0080 5A80     		strh	r2, [r3, #2]
 333:.\Generated_Source\PSoC4/capsense_Filter.c ****                                 #else
 659              		.loc 1 333 0
 660 0082 2871     		strb	r0, [r5, #4]
 661              	.LVL104:
 662              	.L39:
 663 0084 231C     		mov	r3, r4
 664              	.LVL105:
 665              	.L34:
 277:.\Generated_Source\PSoC4/capsense_Filter.c ****     {               
 666              		.loc 1 277 0 discriminator 1
 667 0086 5C1E     		sub	r4, r3, #1
 668              	.LVL106:
 669 0088 002B     		cmp	r3, #0
 670 008a C0D1     		bne	.L41
ARM GAS  C:\Users\Alan\AppData\Local\Temp\cc5hLSmt.s 			page 37


 375:.\Generated_Source\PSoC4/capsense_Filter.c **** 
 671              		.loc 1 375 0
 672 008c 0020     		mov	r0, #0
 673 008e 03B0     		add	sp, sp, #12
 674              		@ sp needed
 675              	.LVL107:
 676              	.LVL108:
 677              	.LVL109:
 678 0090 F0BD     		pop	{r4, r5, r6, r7, pc}
 679              		.cfi_endproc
 680              	.LFE5:
 681              		.size	capsense_FtUpdateBaseline, .-capsense_FtUpdateBaseline
 682 0092 C046     		.section	.text.capsense_UpdateSensorBaseline,"ax",%progbits
 683              		.align	2
 684              		.global	capsense_UpdateSensorBaseline
 685              		.code	16
 686              		.thumb_func
 687              		.type	capsense_UpdateSensorBaseline, %function
 688              	capsense_UpdateSensorBaseline:
 689              	.LFB4:
 227:.\Generated_Source\PSoC4/capsense_Filter.c ****     cystatus bslnStatus = CYRET_SUCCESS;  
 690              		.loc 1 227 0
 691              		.cfi_startproc
 692              	.LVL110:
 693 0000 70B5     		push	{r4, r5, r6, lr}
 694              		.cfi_def_cfa_offset 16
 695              		.cfi_offset 4, -16
 696              		.cfi_offset 5, -12
 697              		.cfi_offset 6, -8
 698              		.cfi_offset 14, -4
 699 0002 031C     		mov	r3, r0
 700              	.LVL111:
 232:.\Generated_Source\PSoC4/capsense_Filter.c ****           
 701              		.loc 1 232 0
 702 0004 084C     		ldr	r4, .L43
 703 0006 8500     		lsl	r5, r0, #2
 704 0008 2A18     		add	r2, r5, r0
 705 000a D200     		lsl	r2, r2, #3
 706 000c A218     		add	r2, r4, r2
 707 000e 5068     		ldr	r0, [r2, #4]
 708              	.LVL112:
 235:.\Generated_Source\PSoC4/capsense_Filter.c ****     ptrSensor = &ptrSensor[sensorId];
 709              		.loc 1 235 0
 710 0010 9268     		ldr	r2, [r2, #8]
 711              	.LVL113:
 236:.\Generated_Source\PSoC4/capsense_Filter.c ****     
 712              		.loc 1 236 0
 713 0012 8E00     		lsl	r6, r1, #2
 714 0014 7118     		add	r1, r6, r1
 715              	.LVL114:
 716 0016 4900     		lsl	r1, r1, #1
 717 0018 5118     		add	r1, r2, r1
 718              	.LVL115:
 239:.\Generated_Source\PSoC4/capsense_Filter.c ****    
 719              		.loc 1 239 0
 720 001a EB18     		add	r3, r5, r3
 721              	.LVL116:
ARM GAS  C:\Users\Alan\AppData\Local\Temp\cc5hLSmt.s 			page 38


 722 001c DB00     		lsl	r3, r3, #3
 723 001e E318     		add	r3, r4, r3
 724 0020 1A7E     		ldrb	r2, [r3, #24]
 238:.\Generated_Source\PSoC4/capsense_Filter.c ****                         ptrWidgetRam, ptrSensor, (uint32)ptrWidget->wdgtType);
 725              		.loc 1 238 0
 726 0022 FFF7FEFF 		bl	capsense_FtUpdateBaseline
 727              	.LVL117:
 242:.\Generated_Source\PSoC4/capsense_Filter.c ****  
 728              		.loc 1 242 0
 729              		@ sp needed
 730              	.LVL118:
 731              	.LVL119:
 732              	.LVL120:
 733 0026 70BD     		pop	{r4, r5, r6, pc}
 734              	.L44:
 735              		.align	2
 736              	.L43:
 737 0028 00000000 		.word	capsense_dsFlash
 738              		.cfi_endproc
 739              	.LFE4:
 740              		.size	capsense_UpdateSensorBaseline, .-capsense_UpdateSensorBaseline
 741              		.section	.text.capsense_UpdateWidgetBaseline,"ax",%progbits
 742              		.align	2
 743              		.global	capsense_UpdateWidgetBaseline
 744              		.code	16
 745              		.thumb_func
 746              		.type	capsense_UpdateWidgetBaseline, %function
 747              	capsense_UpdateWidgetBaseline:
 748              	.LFB3:
 192:.\Generated_Source\PSoC4/capsense_Filter.c ****     uint32 sensorId;       
 749              		.loc 1 192 0
 750              		.cfi_startproc
 751              	.LVL121:
 752 0000 70B5     		push	{r4, r5, r6, lr}
 753              		.cfi_def_cfa_offset 16
 754              		.cfi_offset 4, -16
 755              		.cfi_offset 5, -12
 756              		.cfi_offset 6, -8
 757              		.cfi_offset 14, -4
 758 0002 061C     		mov	r6, r0
 759              	.LVL122:
 200:.\Generated_Source\PSoC4/capsense_Filter.c ****     
 760              		.loc 1 200 0
 761 0004 8300     		lsl	r3, r0, #2
 762 0006 1B18     		add	r3, r3, r0
 763 0008 DB00     		lsl	r3, r3, #3
 764 000a 084A     		ldr	r2, .L48
 765 000c D318     		add	r3, r2, r3
 766 000e DB8A     		ldrh	r3, [r3, #22]
 767              	.LVL123:
 197:.\Generated_Source\PSoC4/capsense_Filter.c ****     
 768              		.loc 1 197 0
 769 0010 0025     		mov	r5, #0
 202:.\Generated_Source\PSoC4/capsense_Filter.c ****     {
 770              		.loc 1 202 0
 771 0012 05E0     		b	.L46
 772              	.LVL124:
ARM GAS  C:\Users\Alan\AppData\Local\Temp\cc5hLSmt.s 			page 39


 773              	.L47:
 204:.\Generated_Source\PSoC4/capsense_Filter.c ****     }
 774              		.loc 1 204 0
 775 0014 301C     		mov	r0, r6
 776 0016 211C     		mov	r1, r4
 777 0018 FFF7FEFF 		bl	capsense_UpdateSensorBaseline
 778              	.LVL125:
 779 001c 0543     		orr	r5, r0
 780              	.LVL126:
 202:.\Generated_Source\PSoC4/capsense_Filter.c ****     {
 781              		.loc 1 202 0
 782 001e 231C     		mov	r3, r4
 783              	.LVL127:
 784              	.L46:
 202:.\Generated_Source\PSoC4/capsense_Filter.c ****     {
 785              		.loc 1 202 0 is_stmt 0 discriminator 1
 786 0020 5C1E     		sub	r4, r3, #1
 787              	.LVL128:
 788 0022 002B     		cmp	r3, #0
 789 0024 F6D1     		bne	.L47
 208:.\Generated_Source\PSoC4/capsense_Filter.c **** 
 790              		.loc 1 208 0 is_stmt 1
 791 0026 281C     		mov	r0, r5
 792              		@ sp needed
 793              	.LVL129:
 794              	.LVL130:
 795              	.LVL131:
 796 0028 70BD     		pop	{r4, r5, r6, pc}
 797              	.L49:
 798 002a C046     		.align	2
 799              	.L48:
 800 002c 00000000 		.word	capsense_dsFlash
 801              		.cfi_endproc
 802              	.LFE3:
 803              		.size	capsense_UpdateWidgetBaseline, .-capsense_UpdateWidgetBaseline
 804              		.section	.text.capsense_UpdateAllBaselines,"ax",%progbits
 805              		.align	2
 806              		.global	capsense_UpdateAllBaselines
 807              		.code	16
 808              		.thumb_func
 809              		.type	capsense_UpdateAllBaselines, %function
 810              	capsense_UpdateAllBaselines:
 811              	.LFB2:
 161:.\Generated_Source\PSoC4/capsense_Filter.c ****     uint32 widgetId; 
 812              		.loc 1 161 0
 813              		.cfi_startproc
 814 0000 38B5     		push	{r3, r4, r5, lr}
 815              		.cfi_def_cfa_offset 16
 816              		.cfi_offset 3, -16
 817              		.cfi_offset 4, -12
 818              		.cfi_offset 5, -8
 819              		.cfi_offset 14, -4
 820              	.LVL132:
 163:.\Generated_Source\PSoC4/capsense_Filter.c ****     
 821              		.loc 1 163 0
 822 0002 0024     		mov	r4, #0
 165:.\Generated_Source\PSoC4/capsense_Filter.c ****     {            
ARM GAS  C:\Users\Alan\AppData\Local\Temp\cc5hLSmt.s 			page 40


 823              		.loc 1 165 0
 824 0004 0123     		mov	r3, #1
 825 0006 04E0     		b	.L51
 826              	.LVL133:
 827              	.L52:
 167:.\Generated_Source\PSoC4/capsense_Filter.c ****     }      
 828              		.loc 1 167 0
 829 0008 281C     		mov	r0, r5
 830 000a FFF7FEFF 		bl	capsense_UpdateWidgetBaseline
 831              	.LVL134:
 832 000e 0443     		orr	r4, r0
 833              	.LVL135:
 165:.\Generated_Source\PSoC4/capsense_Filter.c ****     {            
 834              		.loc 1 165 0
 835 0010 2B1C     		mov	r3, r5
 836              	.LVL136:
 837              	.L51:
 165:.\Generated_Source\PSoC4/capsense_Filter.c ****     {            
 838              		.loc 1 165 0 is_stmt 0 discriminator 1
 839 0012 5D1E     		sub	r5, r3, #1
 840              	.LVL137:
 841 0014 002B     		cmp	r3, #0
 842 0016 F7D1     		bne	.L52
 171:.\Generated_Source\PSoC4/capsense_Filter.c ****   
 843              		.loc 1 171 0 is_stmt 1
 844 0018 201C     		mov	r0, r4
 845              		@ sp needed
 846              	.LVL138:
 847              	.LVL139:
 848 001a 38BD     		pop	{r3, r4, r5, pc}
 849              		.cfi_endproc
 850              	.LFE2:
 851              		.size	capsense_UpdateAllBaselines, .-capsense_UpdateAllBaselines
 852              		.text
 853              	.Letext0:
 854              		.file 2 ".\\Generated_Source\\PSoC4\\cytypes.h"
 855              		.file 3 ".\\Generated_Source\\PSoC4\\capsense_Configuration.h"
 856              		.file 4 ".\\Generated_Source\\PSoC4\\capsense_SmartSense_LL.h"
 857              		.file 5 ".\\Generated_Source\\PSoC4\\capsense_Structure.h"