ARM GAS  C:\Users\Alan\AppData\Local\Temp\cckzbA72.s 			page 1


   1              		.cpu cortex-m0plus
   2              		.fpu softvfp
   3              		.eabi_attribute 20, 1
   4              		.eabi_attribute 21, 1
   5              		.eabi_attribute 23, 3
   6              		.eabi_attribute 24, 1
   7              		.eabi_attribute 25, 1
   8              		.eabi_attribute 26, 1
   9              		.eabi_attribute 30, 1
  10              		.eabi_attribute 34, 0
  11              		.eabi_attribute 18, 4
  12              		.code	16
  13              		.file	"capsense_Control.c"
  14              		.text
  15              	.Ltext0:
  16              		.cfi_sections	.debug_frame
  17              		.section	.text.capsense_Initialize,"ax",%progbits
  18              		.align	2
  19              		.global	capsense_Initialize
  20              		.code	16
  21              		.thumb_func
  22              		.type	capsense_Initialize, %function
  23              	capsense_Initialize:
  24              	.LFB2:
  25              		.file 1 ".\\Generated_Source\\PSoC4\\capsense_Control.c"
   1:.\Generated_Source\PSoC4/capsense_Control.c **** /***************************************************************************//**
   2:.\Generated_Source\PSoC4/capsense_Control.c **** * \file capsense_Control.c
   3:.\Generated_Source\PSoC4/capsense_Control.c **** * \version 3.0
   4:.\Generated_Source\PSoC4/capsense_Control.c **** *
   5:.\Generated_Source\PSoC4/capsense_Control.c **** * \brief
   6:.\Generated_Source\PSoC4/capsense_Control.c **** * This file provides the source code to the Control module API of the Component.
   7:.\Generated_Source\PSoC4/capsense_Control.c **** *
   8:.\Generated_Source\PSoC4/capsense_Control.c **** * \see CapSense P4 v3.0 Datasheet
   9:.\Generated_Source\PSoC4/capsense_Control.c **** *
  10:.\Generated_Source\PSoC4/capsense_Control.c **** *//*****************************************************************************
  11:.\Generated_Source\PSoC4/capsense_Control.c **** * Copyright (2016), Cypress Semiconductor Corporation.
  12:.\Generated_Source\PSoC4/capsense_Control.c **** ********************************************************************************
  13:.\Generated_Source\PSoC4/capsense_Control.c **** * This software is owned by Cypress Semiconductor Corporation (Cypress) and is
  14:.\Generated_Source\PSoC4/capsense_Control.c **** * protected by and subject to worldwide patent protection (United States and
  15:.\Generated_Source\PSoC4/capsense_Control.c **** * foreign), United States copyright laws and international treaty provisions.
  16:.\Generated_Source\PSoC4/capsense_Control.c **** * Cypress hereby grants to licensee a personal, non-exclusive, non-transferable
  17:.\Generated_Source\PSoC4/capsense_Control.c **** * license to copy, use, modify, create derivative works of, and compile the
  18:.\Generated_Source\PSoC4/capsense_Control.c **** * Cypress Source Code and derivative works for the sole purpose of creating
  19:.\Generated_Source\PSoC4/capsense_Control.c **** * custom software in support of licensee product to be used only in conjunction
  20:.\Generated_Source\PSoC4/capsense_Control.c **** * with a Cypress integrated circuit as specified in the applicable agreement.
  21:.\Generated_Source\PSoC4/capsense_Control.c **** * Any reproduction, modification, translation, compilation, or representation of
  22:.\Generated_Source\PSoC4/capsense_Control.c **** * this software except as specified above is prohibited without the express
  23:.\Generated_Source\PSoC4/capsense_Control.c **** * written permission of Cypress.
  24:.\Generated_Source\PSoC4/capsense_Control.c **** *
  25:.\Generated_Source\PSoC4/capsense_Control.c **** * Disclaimer: CYPRESS MAKES NO WARRANTY OF ANY KIND, EXPRESS OR IMPLIED, WITH
  26:.\Generated_Source\PSoC4/capsense_Control.c **** * REGARD TO THIS MATERIAL, INCLUDING, BUT NOT LIMITED TO, THE IMPLIED
  27:.\Generated_Source\PSoC4/capsense_Control.c **** * WARRANTIES OF MERCHANTABILITY AND FITNESS FOR A PARTICULAR PURPOSE.
  28:.\Generated_Source\PSoC4/capsense_Control.c **** * Cypress reserves the right to make changes without further notice to the
  29:.\Generated_Source\PSoC4/capsense_Control.c **** * materials described herein. Cypress does not assume any liability arising out
  30:.\Generated_Source\PSoC4/capsense_Control.c **** * of the application or use of any product or circuit described herein. Cypress
  31:.\Generated_Source\PSoC4/capsense_Control.c **** * does not authorize its products for use as critical components in life-support
  32:.\Generated_Source\PSoC4/capsense_Control.c **** * systems where a malfunction or failure may reasonably be expected to result in
ARM GAS  C:\Users\Alan\AppData\Local\Temp\cckzbA72.s 			page 2


  33:.\Generated_Source\PSoC4/capsense_Control.c **** * significant injury to the user. The inclusion of Cypress' product in a life-
  34:.\Generated_Source\PSoC4/capsense_Control.c **** * support systems application implies that the manufacturer assumes all risk of
  35:.\Generated_Source\PSoC4/capsense_Control.c **** * such use and in doing so indemnifies Cypress against all charges. Use may be
  36:.\Generated_Source\PSoC4/capsense_Control.c **** * limited by and subject to the applicable Cypress software license agreement.
  37:.\Generated_Source\PSoC4/capsense_Control.c **** *******************************************************************************/
  38:.\Generated_Source\PSoC4/capsense_Control.c **** 
  39:.\Generated_Source\PSoC4/capsense_Control.c **** #include "cytypes.h"
  40:.\Generated_Source\PSoC4/capsense_Control.c **** #include "CyLib.h"
  41:.\Generated_Source\PSoC4/capsense_Control.c **** #include "cyPm.h"
  42:.\Generated_Source\PSoC4/capsense_Control.c **** #include "capsense_Configuration.h"
  43:.\Generated_Source\PSoC4/capsense_Control.c **** #include "capsense_Structure.h"
  44:.\Generated_Source\PSoC4/capsense_Control.c **** #include "capsense_Control.h"
  45:.\Generated_Source\PSoC4/capsense_Control.c **** #include "capsense_Processing.h"
  46:.\Generated_Source\PSoC4/capsense_Control.c **** #include "capsense_Filter.h"
  47:.\Generated_Source\PSoC4/capsense_Control.c **** #include "capsense_Sensing.h"
  48:.\Generated_Source\PSoC4/capsense_Control.c **** #include "capsense_Tuner.h"
  49:.\Generated_Source\PSoC4/capsense_Control.c **** 
  50:.\Generated_Source\PSoC4/capsense_Control.c **** #if (0u != capsense_ADC_EN)
  51:.\Generated_Source\PSoC4/capsense_Control.c ****     #include "capsense_Adc.h"
  52:.\Generated_Source\PSoC4/capsense_Control.c **** #endif /* (0u != capsense_ADC_EN) */
  53:.\Generated_Source\PSoC4/capsense_Control.c **** /**************************************************************************************************
  54:.\Generated_Source\PSoC4/capsense_Control.c **** * Local definition
  55:.\Generated_Source\PSoC4/capsense_Control.c **** ***************************************************************************************************
  56:.\Generated_Source\PSoC4/capsense_Control.c **** #define capsense_INIT_DONE   (1u)
  57:.\Generated_Source\PSoC4/capsense_Control.c **** #define capsense_INIT_NEEDED (0u)
  58:.\Generated_Source\PSoC4/capsense_Control.c **** 
  59:.\Generated_Source\PSoC4/capsense_Control.c **** /**************************************************************************************************
  60:.\Generated_Source\PSoC4/capsense_Control.c **** * Local variables
  61:.\Generated_Source\PSoC4/capsense_Control.c **** ***************************************************************************************************
  62:.\Generated_Source\PSoC4/capsense_Control.c **** static uint8 capsense_InitVar = capsense_INIT_NEEDED;
  63:.\Generated_Source\PSoC4/capsense_Control.c **** 
  64:.\Generated_Source\PSoC4/capsense_Control.c **** /*******************************************************************************
  65:.\Generated_Source\PSoC4/capsense_Control.c **** * Function Name: capsense_Start
  66:.\Generated_Source\PSoC4/capsense_Control.c **** ****************************************************************************//**
  67:.\Generated_Source\PSoC4/capsense_Control.c **** *
  68:.\Generated_Source\PSoC4/capsense_Control.c **** * \brief
  69:.\Generated_Source\PSoC4/capsense_Control.c **** *  This function initialize component hardware and firmware modules. This API should be called
  70:.\Generated_Source\PSoC4/capsense_Control.c **** *   by application program prior to calling any other API of the component.
  71:.\Generated_Source\PSoC4/capsense_Control.c **** *
  72:.\Generated_Source\PSoC4/capsense_Control.c **** * \details
  73:.\Generated_Source\PSoC4/capsense_Control.c **** *   When called, following tasks are executed as part of initialization process:
  74:.\Generated_Source\PSoC4/capsense_Control.c **** *   - Initialize values of parameters in capsense_dsRam data structure based on user selection
  75:.\Generated_Source\PSoC4/capsense_Control.c **** *     in component configuration wizard.
  76:.\Generated_Source\PSoC4/capsense_Control.c **** *   - Configure the hardware to perform capacitive sensing.
  77:.\Generated_Source\PSoC4/capsense_Control.c **** *   - Calibrate the sensors and find optimal values for IDACs of each Widgets/sensors, if
  78:.\Generated_Source\PSoC4/capsense_Control.c **** *     Enable IDAC auto-calibration is enabled in the CSD Setting or CSX Setting tabs.
  79:.\Generated_Source\PSoC4/capsense_Control.c **** *   - If SmartSense Auto-tuning is selected for CSD Tuning mode in Basic tab, auto-tuning algorithm
  80:.\Generated_Source\PSoC4/capsense_Control.c **** *     is executed to set optimal values for hardware parameters of widgets/sensors.
  81:.\Generated_Source\PSoC4/capsense_Control.c **** *   - Perform a scan for all sensors and initialize the baseline history. During the scan CPU being
  82:.\Generated_Source\PSoC4/capsense_Control.c **** *     in the sleep mode to save power.
  83:.\Generated_Source\PSoC4/capsense_Control.c **** *   - If firmware filters are enabled in Advanced General tab, the filter histories are also initia
  84:.\Generated_Source\PSoC4/capsense_Control.c **** *
  85:.\Generated_Source\PSoC4/capsense_Control.c **** * \return
  86:.\Generated_Source\PSoC4/capsense_Control.c **** *  Returns the status of initialization process. If CYRET_SUCCESS is not received, some of the
  87:.\Generated_Source\PSoC4/capsense_Control.c **** *  initialized failed and component may not operate as expected.
  88:.\Generated_Source\PSoC4/capsense_Control.c **** *
  89:.\Generated_Source\PSoC4/capsense_Control.c **** *******************************************************************************/
ARM GAS  C:\Users\Alan\AppData\Local\Temp\cckzbA72.s 			page 3


  90:.\Generated_Source\PSoC4/capsense_Control.c **** cystatus capsense_Start(void)
  91:.\Generated_Source\PSoC4/capsense_Control.c **** {
  92:.\Generated_Source\PSoC4/capsense_Control.c ****     cystatus result;
  93:.\Generated_Source\PSoC4/capsense_Control.c ****     uint8 interruptState;
  94:.\Generated_Source\PSoC4/capsense_Control.c **** 
  95:.\Generated_Source\PSoC4/capsense_Control.c ****     /* Initialize CapSense modules */
  96:.\Generated_Source\PSoC4/capsense_Control.c ****     result = capsense_Initialize();
  97:.\Generated_Source\PSoC4/capsense_Control.c **** 
  98:.\Generated_Source\PSoC4/capsense_Control.c ****     #if (0u != capsense_SELF_TEST_EN)
  99:.\Generated_Source\PSoC4/capsense_Control.c ****         if (CYRET_SUCCESS == result)
 100:.\Generated_Source\PSoC4/capsense_Control.c ****         {
 101:.\Generated_Source\PSoC4/capsense_Control.c ****             result = capsense_RunSelfTest(capsense_TST_SHORTS);
 102:.\Generated_Source\PSoC4/capsense_Control.c **** 
 103:.\Generated_Source\PSoC4/capsense_Control.c ****             /* Verify if test succeed */
 104:.\Generated_Source\PSoC4/capsense_Control.c ****             if (0u != result)
 105:.\Generated_Source\PSoC4/capsense_Control.c ****             {
 106:.\Generated_Source\PSoC4/capsense_Control.c ****                 result = CYRET_UNKNOWN;
 107:.\Generated_Source\PSoC4/capsense_Control.c ****             }
 108:.\Generated_Source\PSoC4/capsense_Control.c ****         }
 109:.\Generated_Source\PSoC4/capsense_Control.c ****     #endif /* #if (0u != capsense_SELF_TEST_EN) */
 110:.\Generated_Source\PSoC4/capsense_Control.c **** 
 111:.\Generated_Source\PSoC4/capsense_Control.c ****     #if (capsense_CSD_AUTOTUNE != capsense_CSD_SS_DIS)
 112:.\Generated_Source\PSoC4/capsense_Control.c ****         if (CYRET_SUCCESS == result)
 113:.\Generated_Source\PSoC4/capsense_Control.c ****         {
 114:.\Generated_Source\PSoC4/capsense_Control.c ****             result = capsense_AutoTune();
 115:.\Generated_Source\PSoC4/capsense_Control.c ****         }
 116:.\Generated_Source\PSoC4/capsense_Control.c ****     #endif /* #if (capsense_CSD_AUTOTUNE != capsense_CSD_SS_DIS) */
 117:.\Generated_Source\PSoC4/capsense_Control.c **** 
 118:.\Generated_Source\PSoC4/capsense_Control.c ****     #if ((0u != capsense_CSX_IDAC_AUTOCAL_EN) || \
 119:.\Generated_Source\PSoC4/capsense_Control.c ****         ((capsense_CSD_AUTOTUNE == capsense_CSD_SS_DIS) && (0u != capsense_CSD_IDAC_AUTOCAL_EN)))
 120:.\Generated_Source\PSoC4/capsense_Control.c ****         if (CYRET_SUCCESS == result)
 121:.\Generated_Source\PSoC4/capsense_Control.c ****         {
 122:.\Generated_Source\PSoC4/capsense_Control.c ****             result = capsense_CalibrateAllWidgets();
 123:.\Generated_Source\PSoC4/capsense_Control.c ****         }
 124:.\Generated_Source\PSoC4/capsense_Control.c ****     #endif
 125:.\Generated_Source\PSoC4/capsense_Control.c **** 
 126:.\Generated_Source\PSoC4/capsense_Control.c ****     if (CYRET_SUCCESS == result)
 127:.\Generated_Source\PSoC4/capsense_Control.c ****     {
 128:.\Generated_Source\PSoC4/capsense_Control.c ****         result = capsense_ScanAllWidgets();
 129:.\Generated_Source\PSoC4/capsense_Control.c ****     }
 130:.\Generated_Source\PSoC4/capsense_Control.c **** 
 131:.\Generated_Source\PSoC4/capsense_Control.c ****     if (CYRET_SUCCESS == result)
 132:.\Generated_Source\PSoC4/capsense_Control.c ****     {
 133:.\Generated_Source\PSoC4/capsense_Control.c ****         /* Put CPU into sleep mode while scanning */
 134:.\Generated_Source\PSoC4/capsense_Control.c ****         interruptState = CyEnterCriticalSection();
 135:.\Generated_Source\PSoC4/capsense_Control.c ****         while(capsense_NOT_BUSY != capsense_IsBusy())
 136:.\Generated_Source\PSoC4/capsense_Control.c ****         {
 137:.\Generated_Source\PSoC4/capsense_Control.c ****             CySysPmSleep();
 138:.\Generated_Source\PSoC4/capsense_Control.c **** 
 139:.\Generated_Source\PSoC4/capsense_Control.c ****             /* Exit from the critical section to unblock processing pending interruprs. */
 140:.\Generated_Source\PSoC4/capsense_Control.c ****             CyExitCriticalSection(interruptState);
 141:.\Generated_Source\PSoC4/capsense_Control.c ****             interruptState = CyEnterCriticalSection();
 142:.\Generated_Source\PSoC4/capsense_Control.c ****         }
 143:.\Generated_Source\PSoC4/capsense_Control.c ****         CyExitCriticalSection(interruptState);
 144:.\Generated_Source\PSoC4/capsense_Control.c **** 
 145:.\Generated_Source\PSoC4/capsense_Control.c ****         capsense_FtInitialize();
 146:.\Generated_Source\PSoC4/capsense_Control.c ****         capsense_InitializeAllBaselines();
ARM GAS  C:\Users\Alan\AppData\Local\Temp\cckzbA72.s 			page 4


 147:.\Generated_Source\PSoC4/capsense_Control.c ****     }
 148:.\Generated_Source\PSoC4/capsense_Control.c **** 
 149:.\Generated_Source\PSoC4/capsense_Control.c ****     #if (0u != capsense_ADC_EN)
 150:.\Generated_Source\PSoC4/capsense_Control.c ****         capsense_AdcInitialize();
 151:.\Generated_Source\PSoC4/capsense_Control.c ****     #endif /* (0u != capsense_ADC_EN) */
 152:.\Generated_Source\PSoC4/capsense_Control.c **** 
 153:.\Generated_Source\PSoC4/capsense_Control.c ****     return result;
 154:.\Generated_Source\PSoC4/capsense_Control.c **** }
 155:.\Generated_Source\PSoC4/capsense_Control.c **** 
 156:.\Generated_Source\PSoC4/capsense_Control.c **** /*******************************************************************************
 157:.\Generated_Source\PSoC4/capsense_Control.c **** * Function Name: capsense_Initialize
 158:.\Generated_Source\PSoC4/capsense_Control.c **** ****************************************************************************//**
 159:.\Generated_Source\PSoC4/capsense_Control.c **** *
 160:.\Generated_Source\PSoC4/capsense_Control.c **** * \brief
 161:.\Generated_Source\PSoC4/capsense_Control.c **** *  This function initializes the capsense component.
 162:.\Generated_Source\PSoC4/capsense_Control.c **** *
 163:.\Generated_Source\PSoC4/capsense_Control.c **** * \details
 164:.\Generated_Source\PSoC4/capsense_Control.c **** *  This API initializes all sub-modules of the capsense component:
 165:.\Generated_Source\PSoC4/capsense_Control.c **** *   - Data Structure - set the default component parameters defined in the Customizer.
 166:.\Generated_Source\PSoC4/capsense_Control.c **** *   - Data Processing - resets all widget statuses.
 167:.\Generated_Source\PSoC4/capsense_Control.c **** *   - Tuner - resets tuning state.
 168:.\Generated_Source\PSoC4/capsense_Control.c **** *   - Sensing - prepares CSD HW for operation.
 169:.\Generated_Source\PSoC4/capsense_Control.c **** *
 170:.\Generated_Source\PSoC4/capsense_Control.c **** *  Note that Data Structure module is initialized only once after the reset or
 171:.\Generated_Source\PSoC4/capsense_Control.c **** *  capsense_Stop() API is called. The repeated calls of Initialize API
 172:.\Generated_Source\PSoC4/capsense_Control.c **** *  will not re-initialize Data Structure. This is done to preserve component
 173:.\Generated_Source\PSoC4/capsense_Control.c **** *  parameters that user may set in runtime.
 174:.\Generated_Source\PSoC4/capsense_Control.c **** *
 175:.\Generated_Source\PSoC4/capsense_Control.c **** *  If default component parameters are needed the capsense_DsInitialize()
 176:.\Generated_Source\PSoC4/capsense_Control.c **** *  API must be called directly from the application code.
 177:.\Generated_Source\PSoC4/capsense_Control.c **** *
 178:.\Generated_Source\PSoC4/capsense_Control.c **** * \return
 179:.\Generated_Source\PSoC4/capsense_Control.c **** *  Return CYRET_SUCCESS if the initialization was successful.
 180:.\Generated_Source\PSoC4/capsense_Control.c **** *
 181:.\Generated_Source\PSoC4/capsense_Control.c **** *******************************************************************************/
 182:.\Generated_Source\PSoC4/capsense_Control.c **** cystatus capsense_Initialize(void)
 183:.\Generated_Source\PSoC4/capsense_Control.c **** {
  26              		.loc 1 183 0
  27              		.cfi_startproc
  28 0000 08B5     		push	{r3, lr}
  29              		.cfi_def_cfa_offset 8
  30              		.cfi_offset 3, -8
  31              		.cfi_offset 14, -4
 184:.\Generated_Source\PSoC4/capsense_Control.c ****     cystatus result;
 185:.\Generated_Source\PSoC4/capsense_Control.c **** 
 186:.\Generated_Source\PSoC4/capsense_Control.c ****     /* The Data Structure and Tuner are initialized only once */
 187:.\Generated_Source\PSoC4/capsense_Control.c ****     if (capsense_INIT_NEEDED == capsense_InitVar)
  32              		.loc 1 187 0
  33 0002 084B     		ldr	r3, .L3
  34 0004 1B78     		ldrb	r3, [r3]
  35 0006 002B     		cmp	r3, #0
  36 0008 06D1     		bne	.L2
 188:.\Generated_Source\PSoC4/capsense_Control.c ****     {
 189:.\Generated_Source\PSoC4/capsense_Control.c ****         capsense_DsInitialize();
  37              		.loc 1 189 0
  38 000a FFF7FEFF 		bl	capsense_DsInitialize
  39              	.LVL0:
ARM GAS  C:\Users\Alan\AppData\Local\Temp\cckzbA72.s 			page 5


 190:.\Generated_Source\PSoC4/capsense_Control.c ****         capsense_TuInitialize();
  40              		.loc 1 190 0
  41 000e FFF7FEFF 		bl	capsense_TuInitialize
  42              	.LVL1:
 191:.\Generated_Source\PSoC4/capsense_Control.c ****         capsense_InitVar = capsense_INIT_DONE;
  43              		.loc 1 191 0
  44 0012 0122     		mov	r2, #1
  45 0014 034B     		ldr	r3, .L3
  46 0016 1A70     		strb	r2, [r3]
  47              	.L2:
 192:.\Generated_Source\PSoC4/capsense_Control.c ****     }
 193:.\Generated_Source\PSoC4/capsense_Control.c **** 
 194:.\Generated_Source\PSoC4/capsense_Control.c ****     capsense_DpInitialize();
  48              		.loc 1 194 0
  49 0018 FFF7FEFF 		bl	capsense_DpInitialize
  50              	.LVL2:
 195:.\Generated_Source\PSoC4/capsense_Control.c **** 
 196:.\Generated_Source\PSoC4/capsense_Control.c ****     result = capsense_SsInitialize();
  51              		.loc 1 196 0
  52 001c FFF7FEFF 		bl	capsense_SsInitialize
  53              	.LVL3:
 197:.\Generated_Source\PSoC4/capsense_Control.c **** 
 198:.\Generated_Source\PSoC4/capsense_Control.c ****     return result;
 199:.\Generated_Source\PSoC4/capsense_Control.c **** }
  54              		.loc 1 199 0
  55              		@ sp needed
  56 0020 08BD     		pop	{r3, pc}
  57              	.L4:
  58 0022 C046     		.align	2
  59              	.L3:
  60 0024 00000000 		.word	.LANCHOR0
  61              		.cfi_endproc
  62              	.LFE2:
  63              		.size	capsense_Initialize, .-capsense_Initialize
  64              		.section	.text.capsense_Start,"ax",%progbits
  65              		.align	2
  66              		.global	capsense_Start
  67              		.code	16
  68              		.thumb_func
  69              		.type	capsense_Start, %function
  70              	capsense_Start:
  71              	.LFB1:
  91:.\Generated_Source\PSoC4/capsense_Control.c ****     cystatus result;
  72              		.loc 1 91 0
  73              		.cfi_startproc
  74 0000 38B5     		push	{r3, r4, r5, lr}
  75              		.cfi_def_cfa_offset 16
  76              		.cfi_offset 3, -16
  77              		.cfi_offset 4, -12
  78              		.cfi_offset 5, -8
  79              		.cfi_offset 14, -4
  96:.\Generated_Source\PSoC4/capsense_Control.c **** 
  80              		.loc 1 96 0
  81 0002 FFF7FEFF 		bl	capsense_Initialize
  82              	.LVL4:
  83 0006 051E     		sub	r5, r0, #0
  84              	.LVL5:
ARM GAS  C:\Users\Alan\AppData\Local\Temp\cckzbA72.s 			page 6


 112:.\Generated_Source\PSoC4/capsense_Control.c ****         {
  85              		.loc 1 112 0
  86 0008 02D1     		bne	.L6
 114:.\Generated_Source\PSoC4/capsense_Control.c ****         }
  87              		.loc 1 114 0
  88 000a FFF7FEFF 		bl	capsense_AutoTune
  89              	.LVL6:
  90 000e 051C     		mov	r5, r0
  91              	.LVL7:
  92              	.L6:
 126:.\Generated_Source\PSoC4/capsense_Control.c ****     {
  93              		.loc 1 126 0
  94 0010 002D     		cmp	r5, #0
  95 0012 02D1     		bne	.L7
 128:.\Generated_Source\PSoC4/capsense_Control.c ****     }
  96              		.loc 1 128 0
  97 0014 FFF7FEFF 		bl	capsense_ScanAllWidgets
  98              	.LVL8:
  99 0018 051C     		mov	r5, r0
 100              	.LVL9:
 101              	.L7:
 131:.\Generated_Source\PSoC4/capsense_Control.c ****     {
 102              		.loc 1 131 0
 103 001a 002D     		cmp	r5, #0
 104 001c 16D1     		bne	.L8
 134:.\Generated_Source\PSoC4/capsense_Control.c ****         while(capsense_NOT_BUSY != capsense_IsBusy())
 105              		.loc 1 134 0
 106 001e FFF7FEFF 		bl	CyEnterCriticalSection
 107              	.LVL10:
 108 0022 041C     		mov	r4, r0
 109              	.LVL11:
 135:.\Generated_Source\PSoC4/capsense_Control.c ****         {
 110              		.loc 1 135 0
 111 0024 07E0     		b	.L9
 112              	.LVL12:
 113              	.L10:
 137:.\Generated_Source\PSoC4/capsense_Control.c **** 
 114              		.loc 1 137 0
 115 0026 FFF7FEFF 		bl	CySysPmSleep
 116              	.LVL13:
 140:.\Generated_Source\PSoC4/capsense_Control.c ****             interruptState = CyEnterCriticalSection();
 117              		.loc 1 140 0
 118 002a 201C     		mov	r0, r4
 119 002c FFF7FEFF 		bl	CyExitCriticalSection
 120              	.LVL14:
 141:.\Generated_Source\PSoC4/capsense_Control.c ****         }
 121              		.loc 1 141 0
 122 0030 FFF7FEFF 		bl	CyEnterCriticalSection
 123              	.LVL15:
 124 0034 041C     		mov	r4, r0
 125              	.LVL16:
 126              	.L9:
 135:.\Generated_Source\PSoC4/capsense_Control.c ****         {
 127              		.loc 1 135 0
 128 0036 FFF7FEFF 		bl	capsense_IsBusy
 129              	.LVL17:
 130 003a 0028     		cmp	r0, #0
ARM GAS  C:\Users\Alan\AppData\Local\Temp\cckzbA72.s 			page 7


 131 003c F3D1     		bne	.L10
 143:.\Generated_Source\PSoC4/capsense_Control.c **** 
 132              		.loc 1 143 0
 133 003e 201C     		mov	r0, r4
 134 0040 FFF7FEFF 		bl	CyExitCriticalSection
 135              	.LVL18:
 145:.\Generated_Source\PSoC4/capsense_Control.c ****         capsense_InitializeAllBaselines();
 136              		.loc 1 145 0
 137 0044 FFF7FEFF 		bl	capsense_FtInitialize
 138              	.LVL19:
 146:.\Generated_Source\PSoC4/capsense_Control.c ****     }
 139              		.loc 1 146 0
 140 0048 FFF7FEFF 		bl	capsense_InitializeAllBaselines
 141              	.LVL20:
 142              	.L8:
 154:.\Generated_Source\PSoC4/capsense_Control.c **** 
 143              		.loc 1 154 0
 144 004c 281C     		mov	r0, r5
 145              		@ sp needed
 146              	.LVL21:
 147 004e 38BD     		pop	{r3, r4, r5, pc}
 148              		.cfi_endproc
 149              	.LFE1:
 150              		.size	capsense_Start, .-capsense_Start
 151              		.section	.text.capsense_Stop,"ax",%progbits
 152              		.align	2
 153              		.global	capsense_Stop
 154              		.code	16
 155              		.thumb_func
 156              		.type	capsense_Stop, %function
 157              	capsense_Stop:
 158              	.LFB3:
 200:.\Generated_Source\PSoC4/capsense_Control.c **** 
 201:.\Generated_Source\PSoC4/capsense_Control.c **** /*******************************************************************************
 202:.\Generated_Source\PSoC4/capsense_Control.c **** * Function Name: capsense_Stop
 203:.\Generated_Source\PSoC4/capsense_Control.c **** ****************************************************************************//**
 204:.\Generated_Source\PSoC4/capsense_Control.c **** *
 205:.\Generated_Source\PSoC4/capsense_Control.c **** * \brief
 206:.\Generated_Source\PSoC4/capsense_Control.c **** *  This function stops the component operation.
 207:.\Generated_Source\PSoC4/capsense_Control.c **** *
 208:.\Generated_Source\PSoC4/capsense_Control.c **** * \details
 209:.\Generated_Source\PSoC4/capsense_Control.c **** *  The hardware block reconfigured by application
 210:.\Generated_Source\PSoC4/capsense_Control.c **** *  program for any special usage. Once the component is stopped, the operation can be resumed
 211:.\Generated_Source\PSoC4/capsense_Control.c **** *  by calling capsense_Resume() function or component can be reset by calling
 212:.\Generated_Source\PSoC4/capsense_Control.c **** *  capsense_Start() function. No sensor scanning or self-tests can be executed
 213:.\Generated_Source\PSoC4/capsense_Control.c **** *  when component is stopped.
 214:.\Generated_Source\PSoC4/capsense_Control.c **** *
 215:.\Generated_Source\PSoC4/capsense_Control.c **** * \return
 216:.\Generated_Source\PSoC4/capsense_Control.c **** *  Returns if CYRET_SUCCESS stop process is successfully executed.
 217:.\Generated_Source\PSoC4/capsense_Control.c **** *
 218:.\Generated_Source\PSoC4/capsense_Control.c **** *******************************************************************************/
 219:.\Generated_Source\PSoC4/capsense_Control.c **** cystatus capsense_Stop(void)
 220:.\Generated_Source\PSoC4/capsense_Control.c **** {
 159              		.loc 1 220 0
 160              		.cfi_startproc
 161              	.LVL22:
 221:.\Generated_Source\PSoC4/capsense_Control.c ****     cystatus result = CYRET_SUCCESS;
ARM GAS  C:\Users\Alan\AppData\Local\Temp\cckzbA72.s 			page 8


 222:.\Generated_Source\PSoC4/capsense_Control.c **** 
 223:.\Generated_Source\PSoC4/capsense_Control.c ****     #if (capsense_ENABLE == capsense_ADC_EN)
 224:.\Generated_Source\PSoC4/capsense_Control.c ****         /* Release CSD resources */
 225:.\Generated_Source\PSoC4/capsense_Control.c ****         result = capsense_SsReleaseResources();
 226:.\Generated_Source\PSoC4/capsense_Control.c **** 
 227:.\Generated_Source\PSoC4/capsense_Control.c ****         /* Release ADC resources */
 228:.\Generated_Source\PSoC4/capsense_Control.c ****         capsense_AdcStop();
 229:.\Generated_Source\PSoC4/capsense_Control.c ****     #endif /* (capsense_ENABLE == capsense_ADC_EN) */
 230:.\Generated_Source\PSoC4/capsense_Control.c **** 
 231:.\Generated_Source\PSoC4/capsense_Control.c ****     capsense_InitVar = capsense_INIT_NEEDED;
 162              		.loc 1 231 0
 163 0000 0022     		mov	r2, #0
 164 0002 024B     		ldr	r3, .L12
 165 0004 1A70     		strb	r2, [r3]
 232:.\Generated_Source\PSoC4/capsense_Control.c **** 
 233:.\Generated_Source\PSoC4/capsense_Control.c ****     return result;
 234:.\Generated_Source\PSoC4/capsense_Control.c **** }
 166              		.loc 1 234 0
 167 0006 0020     		mov	r0, #0
 168              		@ sp needed
 169 0008 7047     		bx	lr
 170              	.L13:
 171 000a C046     		.align	2
 172              	.L12:
 173 000c 00000000 		.word	.LANCHOR0
 174              		.cfi_endproc
 175              	.LFE3:
 176              		.size	capsense_Stop, .-capsense_Stop
 177              		.section	.text.capsense_Resume,"ax",%progbits
 178              		.align	2
 179              		.global	capsense_Resume
 180              		.code	16
 181              		.thumb_func
 182              		.type	capsense_Resume, %function
 183              	capsense_Resume:
 184              	.LFB4:
 235:.\Generated_Source\PSoC4/capsense_Control.c **** 
 236:.\Generated_Source\PSoC4/capsense_Control.c **** /*******************************************************************************
 237:.\Generated_Source\PSoC4/capsense_Control.c **** * Function Name: capsense_Resume
 238:.\Generated_Source\PSoC4/capsense_Control.c **** ****************************************************************************//**
 239:.\Generated_Source\PSoC4/capsense_Control.c **** *
 240:.\Generated_Source\PSoC4/capsense_Control.c **** * \brief
 241:.\Generated_Source\PSoC4/capsense_Control.c **** *  This function resumes the component operation if capsense_Stop()
 242:.\Generated_Source\PSoC4/capsense_Control.c **** *  function was called previously.
 243:.\Generated_Source\PSoC4/capsense_Control.c **** *
 244:.\Generated_Source\PSoC4/capsense_Control.c **** * \details
 245:.\Generated_Source\PSoC4/capsense_Control.c **** *   Following tasks are executed as part of operation resume process:
 246:.\Generated_Source\PSoC4/capsense_Control.c **** *   - Configure the hardware to perform capacitive sensing.
 247:.\Generated_Source\PSoC4/capsense_Control.c **** *   - Reset all Widgets/Sensors status.
 248:.\Generated_Source\PSoC4/capsense_Control.c **** *
 249:.\Generated_Source\PSoC4/capsense_Control.c **** * \return
 250:.\Generated_Source\PSoC4/capsense_Control.c **** *  Returns the status of resume process. If CYRET_SUCCESS is not received,
 251:.\Generated_Source\PSoC4/capsense_Control.c **** *  resume process failed and component may not operate as expected.
 252:.\Generated_Source\PSoC4/capsense_Control.c **** *
 253:.\Generated_Source\PSoC4/capsense_Control.c **** *******************************************************************************/
 254:.\Generated_Source\PSoC4/capsense_Control.c **** cystatus capsense_Resume(void)
 255:.\Generated_Source\PSoC4/capsense_Control.c **** {
ARM GAS  C:\Users\Alan\AppData\Local\Temp\cckzbA72.s 			page 9


 185              		.loc 1 255 0
 186              		.cfi_startproc
 187 0000 08B5     		push	{r3, lr}
 188              		.cfi_def_cfa_offset 8
 189              		.cfi_offset 3, -8
 190              		.cfi_offset 14, -4
 256:.\Generated_Source\PSoC4/capsense_Control.c ****     cystatus result;
 257:.\Generated_Source\PSoC4/capsense_Control.c **** 
 258:.\Generated_Source\PSoC4/capsense_Control.c ****     capsense_DpInitialize();
 191              		.loc 1 258 0
 192 0002 FFF7FEFF 		bl	capsense_DpInitialize
 193              	.LVL23:
 259:.\Generated_Source\PSoC4/capsense_Control.c ****     capsense_TuInitialize();
 194              		.loc 1 259 0
 195 0006 FFF7FEFF 		bl	capsense_TuInitialize
 196              	.LVL24:
 260:.\Generated_Source\PSoC4/capsense_Control.c **** 
 261:.\Generated_Source\PSoC4/capsense_Control.c ****     result = capsense_SsInitialize();
 197              		.loc 1 261 0
 198 000a FFF7FEFF 		bl	capsense_SsInitialize
 199              	.LVL25:
 262:.\Generated_Source\PSoC4/capsense_Control.c **** 
 263:.\Generated_Source\PSoC4/capsense_Control.c ****     capsense_InitVar = capsense_INIT_DONE;
 200              		.loc 1 263 0
 201 000e 0122     		mov	r2, #1
 202 0010 014B     		ldr	r3, .L15
 203 0012 1A70     		strb	r2, [r3]
 264:.\Generated_Source\PSoC4/capsense_Control.c **** 
 265:.\Generated_Source\PSoC4/capsense_Control.c ****     return result;
 266:.\Generated_Source\PSoC4/capsense_Control.c **** }
 204              		.loc 1 266 0
 205              		@ sp needed
 206 0014 08BD     		pop	{r3, pc}
 207              	.L16:
 208 0016 C046     		.align	2
 209              	.L15:
 210 0018 00000000 		.word	.LANCHOR0
 211              		.cfi_endproc
 212              	.LFE4:
 213              		.size	capsense_Resume, .-capsense_Resume
 214              		.section	.text.capsense_ProcessAllWidgets,"ax",%progbits
 215              		.align	2
 216              		.global	capsense_ProcessAllWidgets
 217              		.code	16
 218              		.thumb_func
 219              		.type	capsense_ProcessAllWidgets, %function
 220              	capsense_ProcessAllWidgets:
 221              	.LFB5:
 267:.\Generated_Source\PSoC4/capsense_Control.c **** 
 268:.\Generated_Source\PSoC4/capsense_Control.c **** 
 269:.\Generated_Source\PSoC4/capsense_Control.c **** /*******************************************************************************
 270:.\Generated_Source\PSoC4/capsense_Control.c **** * Function Name: capsense_ProcessAllWidgets
 271:.\Generated_Source\PSoC4/capsense_Control.c **** ****************************************************************************//**
 272:.\Generated_Source\PSoC4/capsense_Control.c **** *
 273:.\Generated_Source\PSoC4/capsense_Control.c **** * \brief
 274:.\Generated_Source\PSoC4/capsense_Control.c **** *   Performs full data processing on all enabled widgets.
 275:.\Generated_Source\PSoC4/capsense_Control.c **** *
ARM GAS  C:\Users\Alan\AppData\Local\Temp\cckzbA72.s 			page 10


 276:.\Generated_Source\PSoC4/capsense_Control.c **** * \details
 277:.\Generated_Source\PSoC4/capsense_Control.c **** *   The following tasks are executed as part of processing all widgets:
 278:.\Generated_Source\PSoC4/capsense_Control.c **** *   1. Apply filter to Raw Signal
 279:.\Generated_Source\PSoC4/capsense_Control.c **** *   2. Update thresholds if FW Auto Tuning is enabled
 280:.\Generated_Source\PSoC4/capsense_Control.c **** *   3. Update Baselines and differences
 281:.\Generated_Source\PSoC4/capsense_Control.c **** *   4. Update Status (on/off, centroid, X/Y position)
 282:.\Generated_Source\PSoC4/capsense_Control.c **** *
 283:.\Generated_Source\PSoC4/capsense_Control.c **** * \return
 284:.\Generated_Source\PSoC4/capsense_Control.c **** *   Returns CYRET_SUCCESS.
 285:.\Generated_Source\PSoC4/capsense_Control.c **** *
 286:.\Generated_Source\PSoC4/capsense_Control.c **** *******************************************************************************/
 287:.\Generated_Source\PSoC4/capsense_Control.c **** cystatus capsense_ProcessAllWidgets(void)
 288:.\Generated_Source\PSoC4/capsense_Control.c **** {
 222              		.loc 1 288 0
 223              		.cfi_startproc
 224 0000 38B5     		push	{r3, r4, r5, lr}
 225              		.cfi_def_cfa_offset 16
 226              		.cfi_offset 3, -16
 227              		.cfi_offset 4, -12
 228              		.cfi_offset 5, -8
 229              		.cfi_offset 14, -4
 230              	.LVL26:
 289:.\Generated_Source\PSoC4/capsense_Control.c ****     uint32 wdgtId;
 290:.\Generated_Source\PSoC4/capsense_Control.c ****     cystatus result = CYRET_SUCCESS;
 291:.\Generated_Source\PSoC4/capsense_Control.c ****     capsense_FLASH_WD_STRUCT const *ptrFlashWdgt;
 292:.\Generated_Source\PSoC4/capsense_Control.c **** 
 293:.\Generated_Source\PSoC4/capsense_Control.c ****     ptrFlashWdgt = capsense_dsFlash.wdgtArray;
 231              		.loc 1 293 0
 232 0002 0E4D     		ldr	r5, .L21
 294:.\Generated_Source\PSoC4/capsense_Control.c **** 
 295:.\Generated_Source\PSoC4/capsense_Control.c ****     for (wdgtId = 0u; wdgtId < capsense_TOTAL_WIDGETS; wdgtId++)
 233              		.loc 1 295 0
 234 0004 0024     		mov	r4, #0
 235 0006 14E0     		b	.L18
 236              	.LVL27:
 237              	.L20:
 296:.\Generated_Source\PSoC4/capsense_Control.c ****     {
 297:.\Generated_Source\PSoC4/capsense_Control.c ****         if (0u != capsense_GET_WIDGET_EN_STATUS(wdgtId))
 238              		.loc 1 297 0
 239 0008 6309     		lsr	r3, r4, #5
 240 000a 0233     		add	r3, r3, #2
 241 000c 9B00     		lsl	r3, r3, #2
 242 000e 0C4A     		ldr	r2, .L21+4
 243 0010 D318     		add	r3, r2, r3
 244 0012 5A68     		ldr	r2, [r3, #4]
 245 0014 1F23     		mov	r3, #31
 246 0016 2340     		and	r3, r4
 247 0018 DA40     		lsr	r2, r2, r3
 248 001a 131C     		mov	r3, r2
 249 001c DB07     		lsl	r3, r3, #31
 250 001e 06D5     		bpl	.L19
 298:.\Generated_Source\PSoC4/capsense_Control.c ****         {
 299:.\Generated_Source\PSoC4/capsense_Control.c ****             switch(capsense_GET_SENSE_METHOD(ptrFlashWdgt))
 300:.\Generated_Source\PSoC4/capsense_Control.c ****             {
 301:.\Generated_Source\PSoC4/capsense_Control.c ****             #if (0u != capsense_TOTAL_CSD_WIDGETS)
 302:.\Generated_Source\PSoC4/capsense_Control.c ****                 case capsense_SENSE_METHOD_CSD_E:
 303:.\Generated_Source\PSoC4/capsense_Control.c ****                     capsense_DpProcessCsdWidgetRawCounts(ptrFlashWdgt);
ARM GAS  C:\Users\Alan\AppData\Local\Temp\cckzbA72.s 			page 11


 251              		.loc 1 303 0
 252 0020 281C     		mov	r0, r5
 253 0022 FFF7FEFF 		bl	capsense_DpProcessCsdWidgetRawCounts
 254              	.LVL28:
 304:.\Generated_Source\PSoC4/capsense_Control.c ****                     capsense_DpProcessCsdWidgetStatus(wdgtId, ptrFlashWdgt);
 255              		.loc 1 304 0
 256 0026 201C     		mov	r0, r4
 257 0028 291C     		mov	r1, r5
 258 002a FFF7FEFF 		bl	capsense_DpProcessCsdWidgetStatus
 259              	.LVL29:
 260              	.L19:
 305:.\Generated_Source\PSoC4/capsense_Control.c ****                     break;
 306:.\Generated_Source\PSoC4/capsense_Control.c ****             #endif /* #if (0u != capsense_TOTAL_CSD_WIDGETS) */
 307:.\Generated_Source\PSoC4/capsense_Control.c **** 
 308:.\Generated_Source\PSoC4/capsense_Control.c ****             #if (0u != capsense_TOTAL_CSX_WIDGETS)
 309:.\Generated_Source\PSoC4/capsense_Control.c ****                 case capsense_SENSE_METHOD_CSX_E:
 310:.\Generated_Source\PSoC4/capsense_Control.c ****                     capsense_DpProcessCsxWidgetRawCounts(ptrFlashWdgt);
 311:.\Generated_Source\PSoC4/capsense_Control.c ****                     capsense_DpProcessCsxWidgetStatus(wdgtId, ptrFlashWdgt);
 312:.\Generated_Source\PSoC4/capsense_Control.c ****                     break;
 313:.\Generated_Source\PSoC4/capsense_Control.c ****             #endif /* #if (0u != capsense_TOTAL_CSX_WIDGETS) */
 314:.\Generated_Source\PSoC4/capsense_Control.c **** 
 315:.\Generated_Source\PSoC4/capsense_Control.c ****             default:
 316:.\Generated_Source\PSoC4/capsense_Control.c ****                 CYASSERT(0u);
 317:.\Generated_Source\PSoC4/capsense_Control.c ****                 break;
 318:.\Generated_Source\PSoC4/capsense_Control.c ****             }
 319:.\Generated_Source\PSoC4/capsense_Control.c ****         }
 320:.\Generated_Source\PSoC4/capsense_Control.c **** 
 321:.\Generated_Source\PSoC4/capsense_Control.c ****         ptrFlashWdgt++;
 261              		.loc 1 321 0 discriminator 2
 262 002e 2835     		add	r5, r5, #40
 263              	.LVL30:
 295:.\Generated_Source\PSoC4/capsense_Control.c ****     {
 264              		.loc 1 295 0 discriminator 2
 265 0030 0134     		add	r4, r4, #1
 266              	.LVL31:
 267              	.L18:
 295:.\Generated_Source\PSoC4/capsense_Control.c ****     {
 268              		.loc 1 295 0 is_stmt 0 discriminator 1
 269 0032 002C     		cmp	r4, #0
 270 0034 E8D0     		beq	.L20
 322:.\Generated_Source\PSoC4/capsense_Control.c ****     }
 323:.\Generated_Source\PSoC4/capsense_Control.c **** 
 324:.\Generated_Source\PSoC4/capsense_Control.c ****     return result;
 325:.\Generated_Source\PSoC4/capsense_Control.c **** }
 271              		.loc 1 325 0 is_stmt 1
 272 0036 0020     		mov	r0, #0
 273              		@ sp needed
 274              	.LVL32:
 275              	.LVL33:
 276 0038 38BD     		pop	{r3, r4, r5, pc}
 277              	.L22:
 278 003a C046     		.align	2
 279              	.L21:
 280 003c 00000000 		.word	capsense_dsFlash
 281 0040 00000000 		.word	capsense_dsRam
 282              		.cfi_endproc
 283              	.LFE5:
ARM GAS  C:\Users\Alan\AppData\Local\Temp\cckzbA72.s 			page 12


 284              		.size	capsense_ProcessAllWidgets, .-capsense_ProcessAllWidgets
 285              		.section	.text.capsense_ProcessWidget,"ax",%progbits
 286              		.align	2
 287              		.global	capsense_ProcessWidget
 288              		.code	16
 289              		.thumb_func
 290              		.type	capsense_ProcessWidget, %function
 291              	capsense_ProcessWidget:
 292              	.LFB6:
 326:.\Generated_Source\PSoC4/capsense_Control.c **** 
 327:.\Generated_Source\PSoC4/capsense_Control.c **** 
 328:.\Generated_Source\PSoC4/capsense_Control.c **** /*******************************************************************************
 329:.\Generated_Source\PSoC4/capsense_Control.c **** * Function Name: capsense_ProcessWidget
 330:.\Generated_Source\PSoC4/capsense_Control.c **** ****************************************************************************//**
 331:.\Generated_Source\PSoC4/capsense_Control.c **** *
 332:.\Generated_Source\PSoC4/capsense_Control.c **** * \brief
 333:.\Generated_Source\PSoC4/capsense_Control.c **** *   Performs full data processing of the selected widget if it is enabled.
 334:.\Generated_Source\PSoC4/capsense_Control.c **** *
 335:.\Generated_Source\PSoC4/capsense_Control.c **** * \details
 336:.\Generated_Source\PSoC4/capsense_Control.c **** *   The following tasks are executed as part of process a widget:
 337:.\Generated_Source\PSoC4/capsense_Control.c **** *   1. Apply filter to Raw signal
 338:.\Generated_Source\PSoC4/capsense_Control.c **** *   2. Update thresholds if FW Auto Tuning is enabled
 339:.\Generated_Source\PSoC4/capsense_Control.c **** *   3. Update Baselines and differences
 340:.\Generated_Source\PSoC4/capsense_Control.c **** *   4. Update Status (on/off, centroid, X/Y position)
 341:.\Generated_Source\PSoC4/capsense_Control.c **** *
 342:.\Generated_Source\PSoC4/capsense_Control.c **** * \param widgetId The widget index number.
 343:.\Generated_Source\PSoC4/capsense_Control.c **** *
 344:.\Generated_Source\PSoC4/capsense_Control.c **** * \return
 345:.\Generated_Source\PSoC4/capsense_Control.c **** *   Returns CYRET_SUCCESS if operation was successfully completed.
 346:.\Generated_Source\PSoC4/capsense_Control.c **** *   Returns CYRET_BAD_PARAM if the widgetId index is wrong.
 347:.\Generated_Source\PSoC4/capsense_Control.c **** *   Returns CYRET_INVALID_STATE if the specified widget is disabled or
 348:.\Generated_Source\PSoC4/capsense_Control.c **** *   if the Self Test has detected some issues with the selected widget.
 349:.\Generated_Source\PSoC4/capsense_Control.c **** *
 350:.\Generated_Source\PSoC4/capsense_Control.c **** *******************************************************************************/
 351:.\Generated_Source\PSoC4/capsense_Control.c **** cystatus capsense_ProcessWidget(uint32 widgetId)
 352:.\Generated_Source\PSoC4/capsense_Control.c **** {
 293              		.loc 1 352 0
 294              		.cfi_startproc
 295              	.LVL34:
 296 0000 70B5     		push	{r4, r5, r6, lr}
 297              		.cfi_def_cfa_offset 16
 298              		.cfi_offset 4, -16
 299              		.cfi_offset 5, -12
 300              		.cfi_offset 6, -8
 301              		.cfi_offset 14, -4
 302              	.LVL35:
 353:.\Generated_Source\PSoC4/capsense_Control.c ****     cystatus result = CYRET_SUCCESS;
 354:.\Generated_Source\PSoC4/capsense_Control.c ****     capsense_FLASH_WD_STRUCT const *ptrFlashWdgt;
 355:.\Generated_Source\PSoC4/capsense_Control.c **** 
 356:.\Generated_Source\PSoC4/capsense_Control.c ****     if (widgetId >= capsense_TOTAL_WIDGETS)
 303              		.loc 1 356 0
 304 0002 0028     		cmp	r0, #0
 305 0004 01D1     		bne	.L27
 353:.\Generated_Source\PSoC4/capsense_Control.c ****     cystatus result = CYRET_SUCCESS;
 306              		.loc 1 353 0
 307 0006 0025     		mov	r5, #0
 308 0008 00E0     		b	.L24
ARM GAS  C:\Users\Alan\AppData\Local\Temp\cckzbA72.s 			page 13


 309              	.L27:
 357:.\Generated_Source\PSoC4/capsense_Control.c ****     {
 358:.\Generated_Source\PSoC4/capsense_Control.c ****         result = CYRET_BAD_PARAM;
 310              		.loc 1 358 0
 311 000a 0125     		mov	r5, #1
 312              	.L24:
 313              	.LVL36:
 359:.\Generated_Source\PSoC4/capsense_Control.c ****     }
 360:.\Generated_Source\PSoC4/capsense_Control.c **** 
 361:.\Generated_Source\PSoC4/capsense_Control.c ****     if ((CYRET_SUCCESS == result) && (0u == capsense_GET_WIDGET_EN_STATUS(widgetId)))
 314              		.loc 1 361 0
 315 000c 002D     		cmp	r5, #0
 316 000e 0CD1     		bne	.L25
 317              		.loc 1 361 0 is_stmt 0 discriminator 1
 318 0010 4309     		lsr	r3, r0, #5
 319 0012 0233     		add	r3, r3, #2
 320 0014 9B00     		lsl	r3, r3, #2
 321 0016 0D4A     		ldr	r2, .L29
 322 0018 D318     		add	r3, r2, r3
 323 001a 5A68     		ldr	r2, [r3, #4]
 324 001c 1F23     		mov	r3, #31
 325 001e 0340     		and	r3, r0
 326 0020 DA40     		lsr	r2, r2, r3
 327 0022 131C     		mov	r3, r2
 328 0024 DB07     		lsl	r3, r3, #31
 329 0026 00D4     		bmi	.L25
 362:.\Generated_Source\PSoC4/capsense_Control.c ****     {
 363:.\Generated_Source\PSoC4/capsense_Control.c ****         result = CYRET_INVALID_STATE;
 330              		.loc 1 363 0 is_stmt 1
 331 0028 1135     		add	r5, r5, #17
 332              	.LVL37:
 333              	.L25:
 364:.\Generated_Source\PSoC4/capsense_Control.c ****     }
 365:.\Generated_Source\PSoC4/capsense_Control.c **** 
 366:.\Generated_Source\PSoC4/capsense_Control.c ****     if (CYRET_SUCCESS == result)
 334              		.loc 1 366 0
 335 002a 002D     		cmp	r5, #0
 336 002c 0CD1     		bne	.L26
 337 002e 041C     		mov	r4, r0
 367:.\Generated_Source\PSoC4/capsense_Control.c ****     {
 368:.\Generated_Source\PSoC4/capsense_Control.c ****         ptrFlashWdgt = &capsense_dsFlash.wdgtArray[widgetId];
 338              		.loc 1 368 0
 339 0030 8300     		lsl	r3, r0, #2
 340 0032 1B18     		add	r3, r3, r0
 341 0034 DB00     		lsl	r3, r3, #3
 342 0036 064E     		ldr	r6, .L29+4
 343 0038 9E19     		add	r6, r3, r6
 344              	.LVL38:
 369:.\Generated_Source\PSoC4/capsense_Control.c **** 
 370:.\Generated_Source\PSoC4/capsense_Control.c ****         switch(capsense_GET_SENSE_METHOD(ptrFlashWdgt))
 371:.\Generated_Source\PSoC4/capsense_Control.c ****         {
 372:.\Generated_Source\PSoC4/capsense_Control.c ****         #if (0u != capsense_TOTAL_CSD_WIDGETS)
 373:.\Generated_Source\PSoC4/capsense_Control.c ****             case capsense_SENSE_METHOD_CSD_E:
 374:.\Generated_Source\PSoC4/capsense_Control.c ****                 capsense_DpProcessCsdWidgetRawCounts(ptrFlashWdgt);
 345              		.loc 1 374 0
 346 003a 301C     		mov	r0, r6
 347              	.LVL39:
ARM GAS  C:\Users\Alan\AppData\Local\Temp\cckzbA72.s 			page 14


 348 003c FFF7FEFF 		bl	capsense_DpProcessCsdWidgetRawCounts
 349              	.LVL40:
 375:.\Generated_Source\PSoC4/capsense_Control.c ****                 capsense_DpProcessCsdWidgetStatus(widgetId, ptrFlashWdgt);
 350              		.loc 1 375 0
 351 0040 201C     		mov	r0, r4
 352 0042 311C     		mov	r1, r6
 353 0044 FFF7FEFF 		bl	capsense_DpProcessCsdWidgetStatus
 354              	.LVL41:
 355              	.L26:
 376:.\Generated_Source\PSoC4/capsense_Control.c ****                 break;
 377:.\Generated_Source\PSoC4/capsense_Control.c ****         #endif /* #if (0u != capsense_TOTAL_CSD_WIDGETS) */
 378:.\Generated_Source\PSoC4/capsense_Control.c **** 
 379:.\Generated_Source\PSoC4/capsense_Control.c ****         #if (0u != capsense_TOTAL_CSX_WIDGETS)
 380:.\Generated_Source\PSoC4/capsense_Control.c ****             case capsense_SENSE_METHOD_CSX_E:
 381:.\Generated_Source\PSoC4/capsense_Control.c ****                 capsense_DpProcessCsxWidgetRawCounts(ptrFlashWdgt);
 382:.\Generated_Source\PSoC4/capsense_Control.c ****                 capsense_DpProcessCsxWidgetStatus(widgetId, ptrFlashWdgt);
 383:.\Generated_Source\PSoC4/capsense_Control.c ****                 break;
 384:.\Generated_Source\PSoC4/capsense_Control.c ****         #endif /* #if (0u != capsense_TOTAL_CSX_WIDGETS) */
 385:.\Generated_Source\PSoC4/capsense_Control.c **** 
 386:.\Generated_Source\PSoC4/capsense_Control.c ****         default:
 387:.\Generated_Source\PSoC4/capsense_Control.c ****             CYASSERT(0u);
 388:.\Generated_Source\PSoC4/capsense_Control.c ****             break;
 389:.\Generated_Source\PSoC4/capsense_Control.c ****         }
 390:.\Generated_Source\PSoC4/capsense_Control.c ****     }
 391:.\Generated_Source\PSoC4/capsense_Control.c **** 
 392:.\Generated_Source\PSoC4/capsense_Control.c ****     return result;
 393:.\Generated_Source\PSoC4/capsense_Control.c **** }
 356              		.loc 1 393 0
 357 0048 281C     		mov	r0, r5
 358              		@ sp needed
 359              	.LVL42:
 360 004a 70BD     		pop	{r4, r5, r6, pc}
 361              	.L30:
 362              		.align	2
 363              	.L29:
 364 004c 00000000 		.word	capsense_dsRam
 365 0050 00000000 		.word	capsense_dsFlash
 366              		.cfi_endproc
 367              	.LFE6:
 368              		.size	capsense_ProcessWidget, .-capsense_ProcessWidget
 369              		.section	.text.capsense_ProcessWidgetExt,"ax",%progbits
 370              		.align	2
 371              		.global	capsense_ProcessWidgetExt
 372              		.code	16
 373              		.thumb_func
 374              		.type	capsense_ProcessWidgetExt, %function
 375              	capsense_ProcessWidgetExt:
 376              	.LFB7:
 394:.\Generated_Source\PSoC4/capsense_Control.c **** 
 395:.\Generated_Source\PSoC4/capsense_Control.c **** 
 396:.\Generated_Source\PSoC4/capsense_Control.c **** /*******************************************************************************
 397:.\Generated_Source\PSoC4/capsense_Control.c **** * Function Name: capsense_ProcessWidgetExt
 398:.\Generated_Source\PSoC4/capsense_Control.c **** ****************************************************************************//**
 399:.\Generated_Source\PSoC4/capsense_Control.c **** *
 400:.\Generated_Source\PSoC4/capsense_Control.c **** * \brief
 401:.\Generated_Source\PSoC4/capsense_Control.c **** *   Performs customized data processing on the selected widget.
 402:.\Generated_Source\PSoC4/capsense_Control.c **** *
ARM GAS  C:\Users\Alan\AppData\Local\Temp\cckzbA72.s 			page 15


 403:.\Generated_Source\PSoC4/capsense_Control.c **** * \details
 404:.\Generated_Source\PSoC4/capsense_Control.c **** *   The execution order of the requested operations is from LSB to MSB.
 405:.\Generated_Source\PSoC4/capsense_Control.c **** *   If a different order is needed, this API can be called multiple
 406:.\Generated_Source\PSoC4/capsense_Control.c **** *   times with the required mode parameter.
 407:.\Generated_Source\PSoC4/capsense_Control.c **** *
 408:.\Generated_Source\PSoC4/capsense_Control.c **** *   The capsense_PROCESS_CALC_NOISE and capsense_PROCESS_THRESHOLDS
 409:.\Generated_Source\PSoC4/capsense_Control.c **** *   flags are not supported by the CSX widgets.
 410:.\Generated_Source\PSoC4/capsense_Control.c **** *
 411:.\Generated_Source\PSoC4/capsense_Control.c **** *   The capsense_PROCESS_DECONVOLUTION flag is supported only by the CSX widgets
 412:.\Generated_Source\PSoC4/capsense_Control.c **** *   with the multiphase TX scan mode. For such widgets it is mandatory to execute this task
 413:.\Generated_Source\PSoC4/capsense_Control.c **** *   as the first processing step to get the correct raw counts. Otherwise any further processing
 414:.\Generated_Source\PSoC4/capsense_Control.c **** *   will make no sense.
 415:.\Generated_Source\PSoC4/capsense_Control.c **** *
 416:.\Generated_Source\PSoC4/capsense_Control.c **** *   Note that this API ignores values of the wdgtEnable and wdgtWorking registers.
 417:.\Generated_Source\PSoC4/capsense_Control.c **** *
 418:.\Generated_Source\PSoC4/capsense_Control.c **** * \param widgetId The widget index number.
 419:.\Generated_Source\PSoC4/capsense_Control.c **** * \param mode Specify the type of process that needs to be executed for the widget:
 420:.\Generated_Source\PSoC4/capsense_Control.c **** *    - Bits [31..7] - Reserved
 421:.\Generated_Source\PSoC4/capsense_Control.c **** *    - Bits [6..0] - capsense_PROCESS_ALL - Execute all tasks
 422:.\Generated_Source\PSoC4/capsense_Control.c **** *    - Bit [6] - capsense_PROCESS_DECONVOLUTION - Runs the deconvolution algorithm
 423:.\Generated_Source\PSoC4/capsense_Control.c **** *               if widget supports this task
 424:.\Generated_Source\PSoC4/capsense_Control.c **** *    - Bit [5] - capsense_PROCESS_STATUS - Update Status (on/off, position)
 425:.\Generated_Source\PSoC4/capsense_Control.c **** *    - Bit [4] - capsense_PROCESS_THRESHOLDS - Update Thresholds (only in auto-tuning mode)
 426:.\Generated_Source\PSoC4/capsense_Control.c **** *    - Bit [3] - capsense_PROCESS_CALC_NOISE - Calculate Noise (only in auto-tuning mode)
 427:.\Generated_Source\PSoC4/capsense_Control.c **** *    - Bit [2] - capsense_PROCESS_DIFFCOUNTS - Update Difference Counts
 428:.\Generated_Source\PSoC4/capsense_Control.c **** *    - Bit [1] - capsense_PROCESS_BASELINE - Update Baselines
 429:.\Generated_Source\PSoC4/capsense_Control.c **** *    - Bit [0] - capsense_PROCESS_FILTER - Run Firmware Filter
 430:.\Generated_Source\PSoC4/capsense_Control.c **** *
 431:.\Generated_Source\PSoC4/capsense_Control.c **** * \return
 432:.\Generated_Source\PSoC4/capsense_Control.c **** *   Returns CYRET_SUCCESS in case of success or CYRET_BAD_PARAM in case of wrong
 433:.\Generated_Source\PSoC4/capsense_Control.c **** *   widgetId parameter.
 434:.\Generated_Source\PSoC4/capsense_Control.c **** *
 435:.\Generated_Source\PSoC4/capsense_Control.c **** *******************************************************************************/
 436:.\Generated_Source\PSoC4/capsense_Control.c **** cystatus capsense_ProcessWidgetExt(uint32 widgetId, uint32 mode)
 437:.\Generated_Source\PSoC4/capsense_Control.c **** {
 377              		.loc 1 437 0
 378              		.cfi_startproc
 379              	.LVL43:
 380 0000 F0B5     		push	{r4, r5, r6, r7, lr}
 381              		.cfi_def_cfa_offset 20
 382              		.cfi_offset 4, -20
 383              		.cfi_offset 5, -16
 384              		.cfi_offset 6, -12
 385              		.cfi_offset 7, -8
 386              		.cfi_offset 14, -4
 387 0002 4F46     		mov	r7, r9
 388 0004 80B4     		push	{r7}
 389              		.cfi_def_cfa_offset 24
 390              		.cfi_offset 9, -24
 391 0006 82B0     		sub	sp, sp, #8
 392              		.cfi_def_cfa_offset 32
 393              	.LVL44:
 438:.\Generated_Source\PSoC4/capsense_Control.c ****     uint32 snsCount;
 439:.\Generated_Source\PSoC4/capsense_Control.c ****     cystatus result = CYRET_BAD_PARAM;
 440:.\Generated_Source\PSoC4/capsense_Control.c ****     capsense_FLASH_WD_STRUCT const *ptrFlashWdgt;
 441:.\Generated_Source\PSoC4/capsense_Control.c ****     capsense_PTR_FILTER_VARIANT fltrHistV;
 442:.\Generated_Source\PSoC4/capsense_Control.c ****     capsense_RAM_SNS_STRUCT *ptrSns;
ARM GAS  C:\Users\Alan\AppData\Local\Temp\cckzbA72.s 			page 16


 443:.\Generated_Source\PSoC4/capsense_Control.c **** 
 444:.\Generated_Source\PSoC4/capsense_Control.c ****     #if (0u != capsense_TOTAL_CSD_WIDGETS)
 445:.\Generated_Source\PSoC4/capsense_Control.c ****         uint32 isProxWdgt;
 446:.\Generated_Source\PSoC4/capsense_Control.c ****     #endif
 447:.\Generated_Source\PSoC4/capsense_Control.c **** 
 448:.\Generated_Source\PSoC4/capsense_Control.c ****     if (widgetId < capsense_TOTAL_WIDGETS)
 394              		.loc 1 448 0
 395 0008 0028     		cmp	r0, #0
 396 000a 1ED1     		bne	.L35
 397 000c 0D1C     		mov	r5, r1
 398 000e 8146     		mov	r9, r0
 449:.\Generated_Source\PSoC4/capsense_Control.c ****     {
 450:.\Generated_Source\PSoC4/capsense_Control.c ****         ptrFlashWdgt = &capsense_dsFlash.wdgtArray[widgetId];
 399              		.loc 1 450 0
 400 0010 8200     		lsl	r2, r0, #2
 401 0012 4A44     		add	r2, r2, r9
 402 0014 D200     		lsl	r2, r2, #3
 403 0016 104B     		ldr	r3, .L37
 404 0018 D618     		add	r6, r2, r3
 405              	.LVL45:
 451:.\Generated_Source\PSoC4/capsense_Control.c ****         snsCount = capsense_GET_SNS_CNT_BY_PTR(ptrFlashWdgt);
 406              		.loc 1 451 0
 407 001a F38A     		ldrh	r3, [r6, #22]
 408              	.LVL46:
 452:.\Generated_Source\PSoC4/capsense_Control.c ****         ptrSns = ptrFlashWdgt->ptr2SnsRam;
 409              		.loc 1 452 0
 410 001c B468     		ldr	r4, [r6, #8]
 411              	.LVL47:
 453:.\Generated_Source\PSoC4/capsense_Control.c ****         fltrHistV.ptr = ptrFlashWdgt->ptr2FltrHistory;
 412              		.loc 1 453 0
 413 001e F268     		ldr	r2, [r6, #12]
 414              	.LVL48:
 415 0020 0192     		str	r2, [sp, #4]
 416 0022 07E0     		b	.L33
 417              	.LVL49:
 418              	.L34:
 454:.\Generated_Source\PSoC4/capsense_Control.c **** 
 455:.\Generated_Source\PSoC4/capsense_Control.c ****         switch(capsense_GET_SENSE_METHOD(ptrFlashWdgt))
 456:.\Generated_Source\PSoC4/capsense_Control.c ****         {
 457:.\Generated_Source\PSoC4/capsense_Control.c ****         #if (0u != capsense_TOTAL_CSD_WIDGETS)
 458:.\Generated_Source\PSoC4/capsense_Control.c ****             case capsense_SENSE_METHOD_CSD_E:
 459:.\Generated_Source\PSoC4/capsense_Control.c ****             {
 460:.\Generated_Source\PSoC4/capsense_Control.c ****                 /* Determine if widget is type of proximity.
 461:.\Generated_Source\PSoC4/capsense_Control.c ****                  * The Proximity widgets use different filters and
 462:.\Generated_Source\PSoC4/capsense_Control.c ****                  * therefore have different filter history object structure */
 463:.\Generated_Source\PSoC4/capsense_Control.c ****                 isProxWdgt =
 464:.\Generated_Source\PSoC4/capsense_Control.c ****                     (capsense_GET_WIDGET_TYPE(ptrFlashWdgt) == capsense_WD_PROXIMITY_E) ? 1Lu : 0Lu
 465:.\Generated_Source\PSoC4/capsense_Control.c **** 
 466:.\Generated_Source\PSoC4/capsense_Control.c ****                 /* Run the desired processing for the all CSD widget sensors */
 467:.\Generated_Source\PSoC4/capsense_Control.c ****                 for (;snsCount-- > 0u;)
 468:.\Generated_Source\PSoC4/capsense_Control.c ****                 {
 469:.\Generated_Source\PSoC4/capsense_Control.c ****                     capsense_DpProcessCsdSensorRawCountsExt(ptrFlashWdgt, ptrSns, fltrHistV, mode);
 419              		.loc 1 469 0
 420 0024 301C     		mov	r0, r6
 421 0026 211C     		mov	r1, r4
 422 0028 019A     		ldr	r2, [sp, #4]
 423              	.LVL50:
ARM GAS  C:\Users\Alan\AppData\Local\Temp\cckzbA72.s 			page 17


 424 002a 2B1C     		mov	r3, r5
 425 002c FFF7FEFF 		bl	capsense_DpProcessCsdSensorRawCountsExt
 426              	.LVL51:
 470:.\Generated_Source\PSoC4/capsense_Control.c **** 
 471:.\Generated_Source\PSoC4/capsense_Control.c ****                     /* Move to the next sensor and filter history objects */
 472:.\Generated_Source\PSoC4/capsense_Control.c ****                     ptrSns++;
 427              		.loc 1 472 0
 428 0030 0A34     		add	r4, r4, #10
 429              	.LVL52:
 467:.\Generated_Source\PSoC4/capsense_Control.c ****                 {
 430              		.loc 1 467 0
 431 0032 3B1C     		mov	r3, r7
 432              	.LVL53:
 433              	.L33:
 434 0034 5F1E     		sub	r7, r3, #1
 435              	.LVL54:
 436 0036 002B     		cmp	r3, #0
 437 0038 F4D1     		bne	.L34
 473:.\Generated_Source\PSoC4/capsense_Control.c ****                     capsense_INC_FLTR_OBJ_VARIANT(isProxWdgt, fltrHistV);
 474:.\Generated_Source\PSoC4/capsense_Control.c ****                 }
 475:.\Generated_Source\PSoC4/capsense_Control.c **** 
 476:.\Generated_Source\PSoC4/capsense_Control.c ****                 if (0u != (mode & capsense_PROCESS_STATUS))
 438              		.loc 1 476 0
 439 003a AB06     		lsl	r3, r5, #26
 440 003c 07D5     		bpl	.L36
 477:.\Generated_Source\PSoC4/capsense_Control.c ****                 {
 478:.\Generated_Source\PSoC4/capsense_Control.c ****                     capsense_DpProcessCsdWidgetStatus(widgetId, ptrFlashWdgt);
 441              		.loc 1 478 0
 442 003e 4846     		mov	r0, r9
 443 0040 311C     		mov	r1, r6
 444 0042 FFF7FEFF 		bl	capsense_DpProcessCsdWidgetStatus
 445              	.LVL55:
 479:.\Generated_Source\PSoC4/capsense_Control.c ****                 }
 480:.\Generated_Source\PSoC4/capsense_Control.c ****                 break;
 481:.\Generated_Source\PSoC4/capsense_Control.c ****             }
 482:.\Generated_Source\PSoC4/capsense_Control.c ****         #endif /* #if (0u != capsense_TOTAL_CSD_WIDGETS) */
 483:.\Generated_Source\PSoC4/capsense_Control.c **** 
 484:.\Generated_Source\PSoC4/capsense_Control.c ****         #if (0u != capsense_TOTAL_CSX_WIDGETS)
 485:.\Generated_Source\PSoC4/capsense_Control.c ****             case capsense_SENSE_METHOD_CSX_E:
 486:.\Generated_Source\PSoC4/capsense_Control.c **** 
 487:.\Generated_Source\PSoC4/capsense_Control.c ****                 #if (0u != capsense_CSX_MULTIPHASE_TX_EN)
 488:.\Generated_Source\PSoC4/capsense_Control.c ****                     if ((0u != (mode & capsense_PROCESS_DECONVOLUTION)) &&
 489:.\Generated_Source\PSoC4/capsense_Control.c ****                         (0u != (ptrFlashWdgt->staticConfig & capsense_MULTIPHASE_TX_MASK)))
 490:.\Generated_Source\PSoC4/capsense_Control.c ****                     {
 491:.\Generated_Source\PSoC4/capsense_Control.c ****                         capsense_DpDeconvolution(ptrFlashWdgt);
 492:.\Generated_Source\PSoC4/capsense_Control.c ****                     }
 493:.\Generated_Source\PSoC4/capsense_Control.c ****                 #endif /* #if (0u != capsense_CSX_MULTIPHASE_TX_EN) */
 494:.\Generated_Source\PSoC4/capsense_Control.c **** 
 495:.\Generated_Source\PSoC4/capsense_Control.c ****                 /* Run the desired processing for the all CSX widget sensors */
 496:.\Generated_Source\PSoC4/capsense_Control.c ****                 for (;snsCount-- > 0u;)
 497:.\Generated_Source\PSoC4/capsense_Control.c ****                 {
 498:.\Generated_Source\PSoC4/capsense_Control.c ****                     capsense_DpProcessCsxSensorRawCountsExt(ptrFlashWdgt, ptrSns, fltrHistV, mode);
 499:.\Generated_Source\PSoC4/capsense_Control.c **** 
 500:.\Generated_Source\PSoC4/capsense_Control.c ****                     /* Move to the next sensor and filter history objects */
 501:.\Generated_Source\PSoC4/capsense_Control.c ****                     ptrSns++;
 502:.\Generated_Source\PSoC4/capsense_Control.c ****                     capsense_INC_FLTR_OBJ_VARIANT(0u, fltrHistV);
 503:.\Generated_Source\PSoC4/capsense_Control.c ****                 }
ARM GAS  C:\Users\Alan\AppData\Local\Temp\cckzbA72.s 			page 18


 504:.\Generated_Source\PSoC4/capsense_Control.c **** 
 505:.\Generated_Source\PSoC4/capsense_Control.c ****                 if (0u != (mode & capsense_PROCESS_STATUS))
 506:.\Generated_Source\PSoC4/capsense_Control.c ****                 {
 507:.\Generated_Source\PSoC4/capsense_Control.c ****                     capsense_DpProcessCsxWidgetStatus(widgetId, ptrFlashWdgt);
 508:.\Generated_Source\PSoC4/capsense_Control.c ****                 }
 509:.\Generated_Source\PSoC4/capsense_Control.c ****                 break;
 510:.\Generated_Source\PSoC4/capsense_Control.c ****         #endif /* #if (0u != capsense_TOTAL_CSX_WIDGETS) */
 511:.\Generated_Source\PSoC4/capsense_Control.c **** 
 512:.\Generated_Source\PSoC4/capsense_Control.c ****         default:
 513:.\Generated_Source\PSoC4/capsense_Control.c ****             CYASSERT(0u);
 514:.\Generated_Source\PSoC4/capsense_Control.c ****             break;
 515:.\Generated_Source\PSoC4/capsense_Control.c ****         }
 516:.\Generated_Source\PSoC4/capsense_Control.c **** 
 517:.\Generated_Source\PSoC4/capsense_Control.c ****         result = CYRET_SUCCESS;
 446              		.loc 1 517 0
 447 0046 0020     		mov	r0, #0
 448 0048 02E0     		b	.L32
 449              	.LVL56:
 450              	.L35:
 439:.\Generated_Source\PSoC4/capsense_Control.c ****     capsense_FLASH_WD_STRUCT const *ptrFlashWdgt;
 451              		.loc 1 439 0
 452 004a 0120     		mov	r0, #1
 453              	.LVL57:
 454 004c 00E0     		b	.L32
 455              	.LVL58:
 456              	.L36:
 457              		.loc 1 517 0
 458 004e 0020     		mov	r0, #0
 459              	.LVL59:
 460              	.L32:
 518:.\Generated_Source\PSoC4/capsense_Control.c ****     }
 519:.\Generated_Source\PSoC4/capsense_Control.c **** 
 520:.\Generated_Source\PSoC4/capsense_Control.c ****     return result;
 521:.\Generated_Source\PSoC4/capsense_Control.c **** }
 461              		.loc 1 521 0
 462 0050 02B0     		add	sp, sp, #8
 463              		@ sp needed
 464 0052 04BC     		pop	{r2}
 465 0054 9146     		mov	r9, r2
 466 0056 F0BD     		pop	{r4, r5, r6, r7, pc}
 467              	.L38:
 468              		.align	2
 469              	.L37:
 470 0058 00000000 		.word	capsense_dsFlash
 471              		.cfi_endproc
 472              	.LFE7:
 473              		.size	capsense_ProcessWidgetExt, .-capsense_ProcessWidgetExt
 474              		.section	.text.capsense_ProcessSensorExt,"ax",%progbits
 475              		.align	2
 476              		.global	capsense_ProcessSensorExt
 477              		.code	16
 478              		.thumb_func
 479              		.type	capsense_ProcessSensorExt, %function
 480              	capsense_ProcessSensorExt:
 481              	.LFB8:
 522:.\Generated_Source\PSoC4/capsense_Control.c **** 
 523:.\Generated_Source\PSoC4/capsense_Control.c **** /*******************************************************************************
ARM GAS  C:\Users\Alan\AppData\Local\Temp\cckzbA72.s 			page 19


 524:.\Generated_Source\PSoC4/capsense_Control.c **** * Function Name: capsense_ProcessSensorExt
 525:.\Generated_Source\PSoC4/capsense_Control.c **** ****************************************************************************//**
 526:.\Generated_Source\PSoC4/capsense_Control.c **** *
 527:.\Generated_Source\PSoC4/capsense_Control.c **** * \brief
 528:.\Generated_Source\PSoC4/capsense_Control.c **** *   Performs customized data processing on the selected widget's sensor
 529:.\Generated_Source\PSoC4/capsense_Control.c **** *   after scanning.
 530:.\Generated_Source\PSoC4/capsense_Control.c **** *
 531:.\Generated_Source\PSoC4/capsense_Control.c **** * \details
 532:.\Generated_Source\PSoC4/capsense_Control.c **** *   The execution order of the requested operations is the same as in the
 533:.\Generated_Source\PSoC4/capsense_Control.c **** *   provided list. If a different order is needed, this API can be called multiple
 534:.\Generated_Source\PSoC4/capsense_Control.c **** *   times with the required mode parameter.
 535:.\Generated_Source\PSoC4/capsense_Control.c **** *
 536:.\Generated_Source\PSoC4/capsense_Control.c **** *   The capsense_PROCESS_CALC_NOISE and capsense_PROCESS_THRESHOLDS
 537:.\Generated_Source\PSoC4/capsense_Control.c **** *   flags are not supported by the CSX widgets.
 538:.\Generated_Source\PSoC4/capsense_Control.c **** *
 539:.\Generated_Source\PSoC4/capsense_Control.c **** *   Note that this API ignores values of the wdgtEnable and wdgtWorking registers.
 540:.\Generated_Source\PSoC4/capsense_Control.c **** *
 541:.\Generated_Source\PSoC4/capsense_Control.c **** * \param widgetId  The widget index number.
 542:.\Generated_Source\PSoC4/capsense_Control.c **** * \param sensorId  The sensor index number within the widget.
 543:.\Generated_Source\PSoC4/capsense_Control.c **** * \param mode      The bit-mask with data processing tasks to be executed.
 544:.\Generated_Source\PSoC4/capsense_Control.c **** *   The mode parameter can take the following values:
 545:.\Generated_Source\PSoC4/capsense_Control.c **** *    - capsense_PROCESS_FILTER     Run Firmware Filter
 546:.\Generated_Source\PSoC4/capsense_Control.c **** *    - capsense_PROCESS_BASELINE   Update Baselines
 547:.\Generated_Source\PSoC4/capsense_Control.c **** *    - capsense_PROCESS_DIFFCOUNTS Update Difference Counts
 548:.\Generated_Source\PSoC4/capsense_Control.c **** *    - capsense_PROCESS_CALC_NOISE Calculate Noise (only in auto-tuning mode)
 549:.\Generated_Source\PSoC4/capsense_Control.c **** *    - capsense_PROCESS_THRESHOLDS Update Thresholds (only in auto-tuning mode)
 550:.\Generated_Source\PSoC4/capsense_Control.c **** *    - capsense_PROCESS_ALL        Execute all tasks
 551:.\Generated_Source\PSoC4/capsense_Control.c **** *
 552:.\Generated_Source\PSoC4/capsense_Control.c **** * \return
 553:.\Generated_Source\PSoC4/capsense_Control.c **** *   Returns CYRET_SUCCESS in case of success or CYRET_BAD_PARAM in case of wrong
 554:.\Generated_Source\PSoC4/capsense_Control.c **** *   widgetId or sensorId parameters.
 555:.\Generated_Source\PSoC4/capsense_Control.c **** *
 556:.\Generated_Source\PSoC4/capsense_Control.c **** *******************************************************************************/
 557:.\Generated_Source\PSoC4/capsense_Control.c **** cystatus capsense_ProcessSensorExt(uint32 widgetId, uint32 sensorId, uint32 mode)
 558:.\Generated_Source\PSoC4/capsense_Control.c **** {
 482              		.loc 1 558 0
 483              		.cfi_startproc
 484              	.LVL60:
 485 0000 70B5     		push	{r4, r5, r6, lr}
 486              		.cfi_def_cfa_offset 16
 487              		.cfi_offset 4, -16
 488              		.cfi_offset 5, -12
 489              		.cfi_offset 6, -8
 490              		.cfi_offset 14, -4
 491              	.LVL61:
 559:.\Generated_Source\PSoC4/capsense_Control.c ****     cystatus result = CYRET_BAD_PARAM;
 560:.\Generated_Source\PSoC4/capsense_Control.c ****     capsense_FLASH_WD_STRUCT const *ptrFlashWdgt;
 561:.\Generated_Source\PSoC4/capsense_Control.c ****     capsense_PTR_FILTER_VARIANT fltrHistV;
 562:.\Generated_Source\PSoC4/capsense_Control.c ****     capsense_RAM_SNS_STRUCT *ptrSns;
 563:.\Generated_Source\PSoC4/capsense_Control.c **** 
 564:.\Generated_Source\PSoC4/capsense_Control.c ****     if ((widgetId < capsense_TOTAL_WIDGETS) && (sensorId < capsense_GET_SENSOR_COUNT(widgetId)))
 492              		.loc 1 564 0
 493 0002 0028     		cmp	r0, #0
 494 0004 17D1     		bne	.L41
 495              		.loc 1 564 0 is_stmt 0 discriminator 1
 496 0006 8400     		lsl	r4, r0, #2
 497 0008 2418     		add	r4, r4, r0
ARM GAS  C:\Users\Alan\AppData\Local\Temp\cckzbA72.s 			page 20


 498 000a E400     		lsl	r4, r4, #3
 499 000c 0C4B     		ldr	r3, .L43
 500 000e 1C19     		add	r4, r3, r4
 501 0010 E38A     		ldrh	r3, [r4, #22]
 502 0012 8B42     		cmp	r3, r1
 503 0014 11D9     		bls	.L42
 504 0016 131C     		mov	r3, r2
 565:.\Generated_Source\PSoC4/capsense_Control.c ****     {
 566:.\Generated_Source\PSoC4/capsense_Control.c ****         ptrFlashWdgt = &capsense_dsFlash.wdgtArray[widgetId];
 505              		.loc 1 566 0 is_stmt 1
 506 0018 8400     		lsl	r4, r0, #2
 507 001a 2218     		add	r2, r4, r0
 508              	.LVL62:
 509 001c D200     		lsl	r2, r2, #3
 510 001e 084E     		ldr	r6, .L43
 511 0020 9019     		add	r0, r2, r6
 512              	.LVL63:
 567:.\Generated_Source\PSoC4/capsense_Control.c ****         fltrHistV.ptr = ptrFlashWdgt->ptr2FltrHistory;
 513              		.loc 1 567 0
 514 0022 C268     		ldr	r2, [r0, #12]
 568:.\Generated_Source\PSoC4/capsense_Control.c ****         ptrSns = ptrFlashWdgt->ptr2SnsRam;
 515              		.loc 1 568 0
 516 0024 8468     		ldr	r4, [r0, #8]
 517              	.LVL64:
 569:.\Generated_Source\PSoC4/capsense_Control.c ****         ptrSns += sensorId;
 518              		.loc 1 569 0
 519 0026 8D00     		lsl	r5, r1, #2
 520 0028 6918     		add	r1, r5, r1
 521              	.LVL65:
 522 002a 4900     		lsl	r1, r1, #1
 523 002c 6118     		add	r1, r4, r1
 524              	.LVL66:
 570:.\Generated_Source\PSoC4/capsense_Control.c **** 
 571:.\Generated_Source\PSoC4/capsense_Control.c ****         switch(capsense_GET_SENSE_METHOD(ptrFlashWdgt))
 572:.\Generated_Source\PSoC4/capsense_Control.c ****         {
 573:.\Generated_Source\PSoC4/capsense_Control.c ****         #if (0u != capsense_TOTAL_CSD_WIDGETS)
 574:.\Generated_Source\PSoC4/capsense_Control.c ****             case capsense_SENSE_METHOD_CSD_E:
 575:.\Generated_Source\PSoC4/capsense_Control.c ****                 if (capsense_WD_PROXIMITY_E == (capsense_WD_TYPE_ENUM)ptrFlashWdgt->wdgtType)
 576:.\Generated_Source\PSoC4/capsense_Control.c ****                 {
 577:.\Generated_Source\PSoC4/capsense_Control.c ****                     #if (0u != capsense_PROX_RC_FILTER_EN)
 578:.\Generated_Source\PSoC4/capsense_Control.c ****                         fltrHistV.ptr = &fltrHistV.ptrProx[sensorId];
 579:.\Generated_Source\PSoC4/capsense_Control.c ****                     #endif /* #if (0u != capsense_PROX_RC_FILTER_EN) */
 580:.\Generated_Source\PSoC4/capsense_Control.c ****                 }
 581:.\Generated_Source\PSoC4/capsense_Control.c ****                 else
 582:.\Generated_Source\PSoC4/capsense_Control.c ****                 {
 583:.\Generated_Source\PSoC4/capsense_Control.c ****                     #if (0u != capsense_REGULAR_RC_FILTER_EN)
 584:.\Generated_Source\PSoC4/capsense_Control.c ****                         fltrHistV.ptr = &fltrHistV.ptrRegular[sensorId];
 585:.\Generated_Source\PSoC4/capsense_Control.c ****                     #endif /* #if (0u != capsense_REGULAR_RC_FILTER_EN) */
 586:.\Generated_Source\PSoC4/capsense_Control.c ****                 }
 587:.\Generated_Source\PSoC4/capsense_Control.c **** 
 588:.\Generated_Source\PSoC4/capsense_Control.c ****                 capsense_DpProcessCsdSensorRawCountsExt(ptrFlashWdgt, ptrSns, fltrHistV, mode);
 525              		.loc 1 588 0
 526 002e FFF7FEFF 		bl	capsense_DpProcessCsdSensorRawCountsExt
 527              	.LVL67:
 589:.\Generated_Source\PSoC4/capsense_Control.c ****                 break;
 590:.\Generated_Source\PSoC4/capsense_Control.c ****         #endif /* #if (0u != capsense_TOTAL_CSD_WIDGETS) */
 591:.\Generated_Source\PSoC4/capsense_Control.c **** 
ARM GAS  C:\Users\Alan\AppData\Local\Temp\cckzbA72.s 			page 21


 592:.\Generated_Source\PSoC4/capsense_Control.c ****         #if (0u != capsense_TOTAL_CSX_WIDGETS)
 593:.\Generated_Source\PSoC4/capsense_Control.c ****             case capsense_SENSE_METHOD_CSX_E:
 594:.\Generated_Source\PSoC4/capsense_Control.c ****                 #if (0u != capsense_REGULAR_RC_FILTER_EN)
 595:.\Generated_Source\PSoC4/capsense_Control.c ****                     fltrHistV.ptr = &fltrHistV.ptrRegular[sensorId];
 596:.\Generated_Source\PSoC4/capsense_Control.c ****                 #endif /* #if (0u != capsense_REGULAR_RC_FILTER_EN) */
 597:.\Generated_Source\PSoC4/capsense_Control.c **** 
 598:.\Generated_Source\PSoC4/capsense_Control.c ****                 capsense_DpProcessCsxSensorRawCountsExt(ptrFlashWdgt, ptrSns, fltrHistV, mode);
 599:.\Generated_Source\PSoC4/capsense_Control.c ****                 break;
 600:.\Generated_Source\PSoC4/capsense_Control.c ****         #endif /* #if (0u != capsense_TOTAL_CSX_WIDGETS) */
 601:.\Generated_Source\PSoC4/capsense_Control.c **** 
 602:.\Generated_Source\PSoC4/capsense_Control.c ****         default:
 603:.\Generated_Source\PSoC4/capsense_Control.c ****             CYASSERT(0u);
 604:.\Generated_Source\PSoC4/capsense_Control.c ****             break;
 605:.\Generated_Source\PSoC4/capsense_Control.c ****         }
 606:.\Generated_Source\PSoC4/capsense_Control.c **** 
 607:.\Generated_Source\PSoC4/capsense_Control.c ****         result = CYRET_SUCCESS;
 528              		.loc 1 607 0
 529 0032 0020     		mov	r0, #0
 530 0034 02E0     		b	.L40
 531              	.LVL68:
 532              	.L41:
 559:.\Generated_Source\PSoC4/capsense_Control.c ****     capsense_FLASH_WD_STRUCT const *ptrFlashWdgt;
 533              		.loc 1 559 0
 534 0036 0120     		mov	r0, #1
 535              	.LVL69:
 536 0038 00E0     		b	.L40
 537              	.LVL70:
 538              	.L42:
 539 003a 0120     		mov	r0, #1
 540              	.LVL71:
 541              	.L40:
 608:.\Generated_Source\PSoC4/capsense_Control.c ****     }
 609:.\Generated_Source\PSoC4/capsense_Control.c **** 
 610:.\Generated_Source\PSoC4/capsense_Control.c ****     return result;
 611:.\Generated_Source\PSoC4/capsense_Control.c **** }
 542              		.loc 1 611 0
 543              		@ sp needed
 544 003c 70BD     		pop	{r4, r5, r6, pc}
 545              	.L44:
 546 003e C046     		.align	2
 547              	.L43:
 548 0040 00000000 		.word	capsense_dsFlash
 549              		.cfi_endproc
 550              	.LFE8:
 551              		.size	capsense_ProcessSensorExt, .-capsense_ProcessSensorExt
 552              		.section	.text.capsense_Sleep,"ax",%progbits
 553              		.align	2
 554              		.global	capsense_Sleep
 555              		.code	16
 556              		.thumb_func
 557              		.type	capsense_Sleep, %function
 558              	capsense_Sleep:
 559              	.LFB9:
 612:.\Generated_Source\PSoC4/capsense_Control.c **** 
 613:.\Generated_Source\PSoC4/capsense_Control.c **** #if (0u != capsense_SELF_TEST_EN)
 614:.\Generated_Source\PSoC4/capsense_Control.c **** /*******************************************************************************
 615:.\Generated_Source\PSoC4/capsense_Control.c **** * Function Name: capsense_RunSelfTest
ARM GAS  C:\Users\Alan\AppData\Local\Temp\cckzbA72.s 			page 22


 616:.\Generated_Source\PSoC4/capsense_Control.c **** ****************************************************************************//**
 617:.\Generated_Source\PSoC4/capsense_Control.c **** *
 618:.\Generated_Source\PSoC4/capsense_Control.c **** * \brief
 619:.\Generated_Source\PSoC4/capsense_Control.c **** *  Run-self tests based on the test-enable mask.
 620:.\Generated_Source\PSoC4/capsense_Control.c **** *
 621:.\Generated_Source\PSoC4/capsense_Control.c **** * \details
 622:.\Generated_Source\PSoC4/capsense_Control.c **** *  The test bit-mask can take the following values:
 623:.\Generated_Source\PSoC4/capsense_Control.c **** *   - capsense_TST_SHORTS        - A test for the sensor shorts.
 624:.\Generated_Source\PSoC4/capsense_Control.c **** *   - capsense_TST_GLOBAL_CRC    - Verify CRC of RAM and FLASH global parameters.
 625:.\Generated_Source\PSoC4/capsense_Control.c **** *   - capsense_TST_BSL_RAW_LIMTS - Verify Baseline and Raw Counts limits.
 626:.\Generated_Source\PSoC4/capsense_Control.c **** *   - capsense_TST_WIDGET_CRC    - Verify CRC of the widget's configuration in RAM.
 627:.\Generated_Source\PSoC4/capsense_Control.c **** *   - capsense_TST_CSD_CAPS      - Measure the Cmod and Ctank capacitance.
 628:.\Generated_Source\PSoC4/capsense_Control.c **** *   - capsense_TST_CSX_CAPS      - Measure the Cint1 and Cint2 capacitance.
 629:.\Generated_Source\PSoC4/capsense_Control.c **** *   - capsense_TST_BASELINES     - Verify the baselines consistency (inverse copy).
 630:.\Generated_Source\PSoC4/capsense_Control.c **** *
 631:.\Generated_Source\PSoC4/capsense_Control.c **** *  The results of the capacitance measurements are stored into the corresponding
 632:.\Generated_Source\PSoC4/capsense_Control.c **** *  registers of the data structure.
 633:.\Generated_Source\PSoC4/capsense_Control.c **** *
 634:.\Generated_Source\PSoC4/capsense_Control.c **** * \param testEnMask The bit-mask with the requested tests to be executed.
 635:.\Generated_Source\PSoC4/capsense_Control.c **** *
 636:.\Generated_Source\PSoC4/capsense_Control.c **** * \return
 637:.\Generated_Source\PSoC4/capsense_Control.c **** *  Bitmask that contains 0 for passed tests (or not selected with the testEnMask)
 638:.\Generated_Source\PSoC4/capsense_Control.c **** *  and 1 for the failed tests.
 639:.\Generated_Source\PSoC4/capsense_Control.c **** *
 640:.\Generated_Source\PSoC4/capsense_Control.c **** *******************************************************************************/
 641:.\Generated_Source\PSoC4/capsense_Control.c **** uint32 capsense_RunSelfTest(uint32 testEnMask)
 642:.\Generated_Source\PSoC4/capsense_Control.c **** {
 643:.\Generated_Source\PSoC4/capsense_Control.c ****     /* The implementation of this API will be
 644:.\Generated_Source\PSoC4/capsense_Control.c ****      * provided in the FUTURE version of the
 645:.\Generated_Source\PSoC4/capsense_Control.c ****      * CapSense component */
 646:.\Generated_Source\PSoC4/capsense_Control.c ****     (void)testEnMask;
 647:.\Generated_Source\PSoC4/capsense_Control.c ****     return 0Lu;
 648:.\Generated_Source\PSoC4/capsense_Control.c **** }
 649:.\Generated_Source\PSoC4/capsense_Control.c **** #endif /* #if capsense_SELF_TEST_EN */
 650:.\Generated_Source\PSoC4/capsense_Control.c **** 
 651:.\Generated_Source\PSoC4/capsense_Control.c **** 
 652:.\Generated_Source\PSoC4/capsense_Control.c **** /*******************************************************************************
 653:.\Generated_Source\PSoC4/capsense_Control.c **** * Function Name: capsense_Sleep
 654:.\Generated_Source\PSoC4/capsense_Control.c **** ****************************************************************************//**
 655:.\Generated_Source\PSoC4/capsense_Control.c **** *
 656:.\Generated_Source\PSoC4/capsense_Control.c **** * \brief
 657:.\Generated_Source\PSoC4/capsense_Control.c **** *  This function sets the component to sleep.
 658:.\Generated_Source\PSoC4/capsense_Control.c **** *
 659:.\Generated_Source\PSoC4/capsense_Control.c **** * \details
 660:.\Generated_Source\PSoC4/capsense_Control.c **** *  This function sets the component to sleep.
 661:.\Generated_Source\PSoC4/capsense_Control.c **** *
 662:.\Generated_Source\PSoC4/capsense_Control.c **** *******************************************************************************/
 663:.\Generated_Source\PSoC4/capsense_Control.c **** void capsense_Sleep(void)
 664:.\Generated_Source\PSoC4/capsense_Control.c **** {
 560              		.loc 1 664 0
 561              		.cfi_startproc
 665:.\Generated_Source\PSoC4/capsense_Control.c **** }
 562              		.loc 1 665 0
 563              		@ sp needed
 564 0000 7047     		bx	lr
 565              		.cfi_endproc
 566              	.LFE9:
ARM GAS  C:\Users\Alan\AppData\Local\Temp\cckzbA72.s 			page 23


 567              		.size	capsense_Sleep, .-capsense_Sleep
 568 0002 C046     		.section	.text.capsense_Wakeup,"ax",%progbits
 569              		.align	2
 570              		.global	capsense_Wakeup
 571              		.code	16
 572              		.thumb_func
 573              		.type	capsense_Wakeup, %function
 574              	capsense_Wakeup:
 575              	.LFB10:
 666:.\Generated_Source\PSoC4/capsense_Control.c **** 
 667:.\Generated_Source\PSoC4/capsense_Control.c **** 
 668:.\Generated_Source\PSoC4/capsense_Control.c **** /*******************************************************************************
 669:.\Generated_Source\PSoC4/capsense_Control.c **** * Function Name: capsense_Wakeup
 670:.\Generated_Source\PSoC4/capsense_Control.c **** ****************************************************************************//**
 671:.\Generated_Source\PSoC4/capsense_Control.c **** *
 672:.\Generated_Source\PSoC4/capsense_Control.c **** * \brief
 673:.\Generated_Source\PSoC4/capsense_Control.c **** *  This function resumes the component after sleep.
 674:.\Generated_Source\PSoC4/capsense_Control.c **** *
 675:.\Generated_Source\PSoC4/capsense_Control.c **** * \details
 676:.\Generated_Source\PSoC4/capsense_Control.c **** *  This function resumes the component after sleep.
 677:.\Generated_Source\PSoC4/capsense_Control.c **** *
 678:.\Generated_Source\PSoC4/capsense_Control.c **** *******************************************************************************/
 679:.\Generated_Source\PSoC4/capsense_Control.c **** void capsense_Wakeup(void)
 680:.\Generated_Source\PSoC4/capsense_Control.c **** {
 576              		.loc 1 680 0
 577              		.cfi_startproc
 681:.\Generated_Source\PSoC4/capsense_Control.c **** }
 578              		.loc 1 681 0
 579              		@ sp needed
 580 0000 7047     		bx	lr
 581              		.cfi_endproc
 582              	.LFE10:
 583              		.size	capsense_Wakeup, .-capsense_Wakeup
 584 0002 C046     		.section	.text.capsense_SaveConfig,"ax",%progbits
 585              		.align	2
 586              		.global	capsense_SaveConfig
 587              		.code	16
 588              		.thumb_func
 589              		.type	capsense_SaveConfig, %function
 590              	capsense_SaveConfig:
 591              	.LFB11:
 682:.\Generated_Source\PSoC4/capsense_Control.c **** 
 683:.\Generated_Source\PSoC4/capsense_Control.c **** 
 684:.\Generated_Source\PSoC4/capsense_Control.c **** /*******************************************************************************
 685:.\Generated_Source\PSoC4/capsense_Control.c **** * Function Name: capsense_SaveConfig
 686:.\Generated_Source\PSoC4/capsense_Control.c **** ****************************************************************************//**
 687:.\Generated_Source\PSoC4/capsense_Control.c **** *
 688:.\Generated_Source\PSoC4/capsense_Control.c **** * \brief
 689:.\Generated_Source\PSoC4/capsense_Control.c **** *   This is a dummy API for the consistency reason with the component PM architecture.
 690:.\Generated_Source\PSoC4/capsense_Control.c **** *
 691:.\Generated_Source\PSoC4/capsense_Control.c **** * \details
 692:.\Generated_Source\PSoC4/capsense_Control.c **** *   This is a dummy API for the consistency reason with the component PM architecture.
 693:.\Generated_Source\PSoC4/capsense_Control.c **** *
 694:.\Generated_Source\PSoC4/capsense_Control.c **** *******************************************************************************/
 695:.\Generated_Source\PSoC4/capsense_Control.c **** void capsense_SaveConfig(void)
 696:.\Generated_Source\PSoC4/capsense_Control.c **** {
 592              		.loc 1 696 0
ARM GAS  C:\Users\Alan\AppData\Local\Temp\cckzbA72.s 			page 24


 593              		.cfi_startproc
 697:.\Generated_Source\PSoC4/capsense_Control.c **** }
 594              		.loc 1 697 0
 595              		@ sp needed
 596 0000 7047     		bx	lr
 597              		.cfi_endproc
 598              	.LFE11:
 599              		.size	capsense_SaveConfig, .-capsense_SaveConfig
 600 0002 C046     		.section	.text.capsense_RestoreConfig,"ax",%progbits
 601              		.align	2
 602              		.global	capsense_RestoreConfig
 603              		.code	16
 604              		.thumb_func
 605              		.type	capsense_RestoreConfig, %function
 606              	capsense_RestoreConfig:
 607              	.LFB12:
 698:.\Generated_Source\PSoC4/capsense_Control.c **** 
 699:.\Generated_Source\PSoC4/capsense_Control.c **** 
 700:.\Generated_Source\PSoC4/capsense_Control.c **** /*******************************************************************************
 701:.\Generated_Source\PSoC4/capsense_Control.c **** * Function Name: capsense_RestoreConfig
 702:.\Generated_Source\PSoC4/capsense_Control.c **** ****************************************************************************//**
 703:.\Generated_Source\PSoC4/capsense_Control.c **** *
 704:.\Generated_Source\PSoC4/capsense_Control.c **** * \brief
 705:.\Generated_Source\PSoC4/capsense_Control.c **** *   This is a dummy API for the consistency reason with the component PM architecture.
 706:.\Generated_Source\PSoC4/capsense_Control.c **** *
 707:.\Generated_Source\PSoC4/capsense_Control.c **** * \details
 708:.\Generated_Source\PSoC4/capsense_Control.c **** *   This is a dummy API for the consistency reason with the component PM architecture.
 709:.\Generated_Source\PSoC4/capsense_Control.c **** *
 710:.\Generated_Source\PSoC4/capsense_Control.c **** *******************************************************************************/
 711:.\Generated_Source\PSoC4/capsense_Control.c **** void capsense_RestoreConfig(void)
 712:.\Generated_Source\PSoC4/capsense_Control.c **** {
 608              		.loc 1 712 0
 609              		.cfi_startproc
 713:.\Generated_Source\PSoC4/capsense_Control.c **** }
 610              		.loc 1 713 0
 611              		@ sp needed
 612 0000 7047     		bx	lr
 613              		.cfi_endproc
 614              	.LFE12:
 615              		.size	capsense_RestoreConfig, .-capsense_RestoreConfig
 616 0002 C046     		.bss
 617              		.set	.LANCHOR0,. + 0
 618              		.type	capsense_InitVar, %object
 619              		.size	capsense_InitVar, 1
 620              	capsense_InitVar:
 621 0000 00       		.space	1
 622              		.text
 623              	.Letext0:
 624              		.file 2 ".\\Generated_Source\\PSoC4\\cytypes.h"
 625              		.file 3 ".\\Generated_Source\\PSoC4\\capsense_Configuration.h"
 626              		.file 4 ".\\Generated_Source\\PSoC4\\capsense_SmartSense_LL.h"
 627              		.file 5 ".\\Generated_Source\\PSoC4\\capsense_Structure.h"
 628              		.file 6 ".\\Generated_Source\\PSoC4\\capsense_Tuner.h"
 629              		.file 7 ".\\Generated_Source\\PSoC4\\capsense_Processing.h"
 630              		.file 8 ".\\Generated_Source\\PSoC4\\capsense_Sensing.h"
 631              		.file 9 ".\\Generated_Source\\PSoC4\\CyLib.h"
 632              		.file 10 ".\\Generated_Source\\PSoC4\\cyPm.h"
ARM GAS  C:\Users\Alan\AppData\Local\Temp\cckzbA72.s 			page 25


 633              		.file 11 ".\\Generated_Source\\PSoC4\\capsense_Filter.h"