ARM GAS  C:\Users\Alan\AppData\Local\Temp\cc9ctX2J.s 			page 1


   1              		.cpu cortex-m0plus
   2              		.fpu softvfp
   3              		.eabi_attribute 20, 1
   4              		.eabi_attribute 21, 1
   5              		.eabi_attribute 23, 3
   6              		.eabi_attribute 24, 1
   7              		.eabi_attribute 25, 1
   8              		.eabi_attribute 26, 1
   9              		.eabi_attribute 30, 1
  10              		.eabi_attribute 34, 0
  11              		.eabi_attribute 18, 4
  12              		.code	16
  13              		.file	"capsense_Centroid_LL.c"
  14              		.text
  15              	.Ltext0:
  16              		.cfi_sections	.debug_frame
  17              		.section	.text.capsense_DpFindLocalMaxSd,"ax",%progbits
  18              		.align	2
  19              		.global	capsense_DpFindLocalMaxSd
  20              		.code	16
  21              		.thumb_func
  22              		.type	capsense_DpFindLocalMaxSd, %function
  23              	capsense_DpFindLocalMaxSd:
  24              	.LFB1:
  25              		.file 1 ".\\Generated_Source\\PSoC4\\capsense_Centroid_LL.c"
   1:.\Generated_Source\PSoC4/capsense_Centroid_LL.c **** /***************************************************************************//**
   2:.\Generated_Source\PSoC4/capsense_Centroid_LL.c **** * \file capsense_Centroid_LL.c
   3:.\Generated_Source\PSoC4/capsense_Centroid_LL.c **** * \version 3.0
   4:.\Generated_Source\PSoC4/capsense_Centroid_LL.c **** *
   5:.\Generated_Source\PSoC4/capsense_Centroid_LL.c **** * \brief
   6:.\Generated_Source\PSoC4/capsense_Centroid_LL.c **** * This file provides the source code for the centroid calculation methods
   7:.\Generated_Source\PSoC4/capsense_Centroid_LL.c **** * of the Component.
   8:.\Generated_Source\PSoC4/capsense_Centroid_LL.c **** *
   9:.\Generated_Source\PSoC4/capsense_Centroid_LL.c **** * \see CapSense P4 v3.0 Datasheet
  10:.\Generated_Source\PSoC4/capsense_Centroid_LL.c **** * 
  11:.\Generated_Source\PSoC4/capsense_Centroid_LL.c **** *//*****************************************************************************
  12:.\Generated_Source\PSoC4/capsense_Centroid_LL.c **** * Copyright (2016), Cypress Semiconductor Corporation.
  13:.\Generated_Source\PSoC4/capsense_Centroid_LL.c **** ********************************************************************************
  14:.\Generated_Source\PSoC4/capsense_Centroid_LL.c **** * This software is owned by Cypress Semiconductor Corporation (Cypress) and is
  15:.\Generated_Source\PSoC4/capsense_Centroid_LL.c **** * protected by and subject to worldwide patent protection (United States and
  16:.\Generated_Source\PSoC4/capsense_Centroid_LL.c **** * foreign), United States copyright laws and international treaty provisions.
  17:.\Generated_Source\PSoC4/capsense_Centroid_LL.c **** * Cypress hereby grants to licensee a personal, non-exclusive, non-transferable
  18:.\Generated_Source\PSoC4/capsense_Centroid_LL.c **** * license to copy, use, modify, create derivative works of, and compile the
  19:.\Generated_Source\PSoC4/capsense_Centroid_LL.c **** * Cypress Source Code and derivative works for the sole purpose of creating
  20:.\Generated_Source\PSoC4/capsense_Centroid_LL.c **** * custom software in support of licensee product to be used only in conjunction
  21:.\Generated_Source\PSoC4/capsense_Centroid_LL.c **** * with a Cypress integrated circuit as specified in the applicable agreement.
  22:.\Generated_Source\PSoC4/capsense_Centroid_LL.c **** * Any reproduction, modification, translation, compilation, or representation of
  23:.\Generated_Source\PSoC4/capsense_Centroid_LL.c **** * this software except as specified above is prohibited without the express
  24:.\Generated_Source\PSoC4/capsense_Centroid_LL.c **** * written permission of Cypress.
  25:.\Generated_Source\PSoC4/capsense_Centroid_LL.c **** *
  26:.\Generated_Source\PSoC4/capsense_Centroid_LL.c **** * Disclaimer: CYPRESS MAKES NO WARRANTY OF ANY KIND, EXPRESS OR IMPLIED, WITH
  27:.\Generated_Source\PSoC4/capsense_Centroid_LL.c **** * REGARD TO THIS MATERIAL, INCLUDING, BUT NOT LIMITED TO, THE IMPLIED
  28:.\Generated_Source\PSoC4/capsense_Centroid_LL.c **** * WARRANTIES OF MERCHANTABILITY AND FITNESS FOR A PARTICULAR PURPOSE.
  29:.\Generated_Source\PSoC4/capsense_Centroid_LL.c **** * Cypress reserves the right to make changes without further notice to the
  30:.\Generated_Source\PSoC4/capsense_Centroid_LL.c **** * materials described herein. Cypress does not assume any liability arising out
  31:.\Generated_Source\PSoC4/capsense_Centroid_LL.c **** * of the application or use of any product or circuit described herein. Cypress
  32:.\Generated_Source\PSoC4/capsense_Centroid_LL.c **** * does not authorize its products for use as critical components in life-support
ARM GAS  C:\Users\Alan\AppData\Local\Temp\cc9ctX2J.s 			page 2


  33:.\Generated_Source\PSoC4/capsense_Centroid_LL.c **** * systems where a malfunction or failure may reasonably be expected to result in
  34:.\Generated_Source\PSoC4/capsense_Centroid_LL.c **** * significant injury to the user. The inclusion of Cypress' product in a life-
  35:.\Generated_Source\PSoC4/capsense_Centroid_LL.c **** * support systems application implies that the manufacturer assumes all risk of
  36:.\Generated_Source\PSoC4/capsense_Centroid_LL.c **** * such use and in doing so indemnifies Cypress against all charges. Use may be
  37:.\Generated_Source\PSoC4/capsense_Centroid_LL.c **** * limited by and subject to the applicable Cypress software license agreement.
  38:.\Generated_Source\PSoC4/capsense_Centroid_LL.c **** *******************************************************************************/
  39:.\Generated_Source\PSoC4/capsense_Centroid_LL.c **** 
  40:.\Generated_Source\PSoC4/capsense_Centroid_LL.c **** #include "cytypes.h"
  41:.\Generated_Source\PSoC4/capsense_Centroid_LL.c **** #include "CyLib.h"
  42:.\Generated_Source\PSoC4/capsense_Centroid_LL.c **** #include "capsense_Centroid_LL.h"
  43:.\Generated_Source\PSoC4/capsense_Centroid_LL.c **** #include "capsense_Configuration.h"
  44:.\Generated_Source\PSoC4/capsense_Centroid_LL.c **** #include "capsense_Structure.h"
  45:.\Generated_Source\PSoC4/capsense_Centroid_LL.c **** #include "capsense_Filter.h"
  46:.\Generated_Source\PSoC4/capsense_Centroid_LL.c **** 
  47:.\Generated_Source\PSoC4/capsense_Centroid_LL.c **** /*******************************************************************************
  48:.\Generated_Source\PSoC4/capsense_Centroid_LL.c **** * Local definition
  49:.\Generated_Source\PSoC4/capsense_Centroid_LL.c **** *******************************************************************************/
  50:.\Generated_Source\PSoC4/capsense_Centroid_LL.c **** #define capsense_CENTROID_LEGACY_MODE                (0x01u)
  51:.\Generated_Source\PSoC4/capsense_Centroid_LL.c **** #define capsense_CENTROID_MULTI_TOUCH_MODE           (0x02u)
  52:.\Generated_Source\PSoC4/capsense_Centroid_LL.c **** 
  53:.\Generated_Source\PSoC4/capsense_Centroid_LL.c **** #if (capsense_NUM_CENTROIDS == 0x01u)
  54:.\Generated_Source\PSoC4/capsense_Centroid_LL.c ****     #define capsense_CENTROID_MODE  capsense_CENTROID_LEGACY_MODE
  55:.\Generated_Source\PSoC4/capsense_Centroid_LL.c **** #else   
  56:.\Generated_Source\PSoC4/capsense_Centroid_LL.c ****     #define capsense_CENTROID_MODE  capsense_CENTROID_MULTI_TOUCH_MODE
  57:.\Generated_Source\PSoC4/capsense_Centroid_LL.c **** #endif /* #if capsense_NUM_CENTROIDS == 0x01u */
  58:.\Generated_Source\PSoC4/capsense_Centroid_LL.c **** 
  59:.\Generated_Source\PSoC4/capsense_Centroid_LL.c **** #if capsense_CSX_TOUCHPAD_WIDGET_EN
  60:.\Generated_Source\PSoC4/capsense_Centroid_LL.c ****     #define capsense_CSX_TOUCHPAD_BUFFER_SIZE \
  61:.\Generated_Source\PSoC4/capsense_Centroid_LL.c ****             (((capsense_CSX_MAX_LOCAL_PEAKS + 3u) * sizeof(int8)) +                                
  62:.\Generated_Source\PSoC4/capsense_Centroid_LL.c ****             (capsense_CSX_MAX_LOCAL_PEAKS * capsense_CSX_MAX_LOCAL_PEAKS * sizeof(int32)) + /* dist
  63:.\Generated_Source\PSoC4/capsense_Centroid_LL.c ****             (capsense_CSX_MAX_LOCAL_PEAKS * sizeof(int32)) +                                       
  64:.\Generated_Source\PSoC4/capsense_Centroid_LL.c ****             (capsense_CSX_MAX_LOCAL_PEAKS * sizeof(int8)) +                                        
  65:.\Generated_Source\PSoC4/capsense_Centroid_LL.c ****             (capsense_CSX_MAX_LOCAL_PEAKS * sizeof(int8)) +                                        
  66:.\Generated_Source\PSoC4/capsense_Centroid_LL.c ****             (capsense_CSX_MAX_LOCAL_PEAKS * sizeof(int8)))                                         
  67:.\Generated_Source\PSoC4/capsense_Centroid_LL.c **** 
  68:.\Generated_Source\PSoC4/capsense_Centroid_LL.c ****     #define capsense_CSX_TOUCHPAD_UNDEFINED                 (40u)
  69:.\Generated_Source\PSoC4/capsense_Centroid_LL.c ****     #define capsense_CSX_TOUCHPAD_FT_ON_FAIL                (41u)
  70:.\Generated_Source\PSoC4/capsense_Centroid_LL.c ****     #define capsense_CSX_TOUCHPAD_DEBOUNCE_ENABLE           (0u)
  71:.\Generated_Source\PSoC4/capsense_Centroid_LL.c ****     #define capsense_CSX_TOUCHPAD_TOUCH_MIN_ID              (0u)
  72:.\Generated_Source\PSoC4/capsense_Centroid_LL.c ****     #define capsense_CSX_TOUCHPAD_TOUCH_MAX_ID              (5u)
  73:.\Generated_Source\PSoC4/capsense_Centroid_LL.c ****     #define capsense_CSX_TOUCHPAD_TOUCH_ABSENT_ID           (capsense_CSX_TOUCHPAD_TOUCH_MAX_ID + 1
  74:.\Generated_Source\PSoC4/capsense_Centroid_LL.c ****     #define capsense_CSX_TOUCHPAD_INT32                     (0x7FFFFFFFu)
  75:.\Generated_Source\PSoC4/capsense_Centroid_LL.c ****     #define capsense_CSX_TOUCHPAD_TOUCH_DOWN                (0x80u)
  76:.\Generated_Source\PSoC4/capsense_Centroid_LL.c ****     #define capsense_CSX_TOUCHPAD_LIFT_OFF                  (0x40u)
  77:.\Generated_Source\PSoC4/capsense_Centroid_LL.c ****     #define capsense_CSX_TOUCHPAD_DEBOUNCE_MASK             (0x3Fu)
  78:.\Generated_Source\PSoC4/capsense_Centroid_LL.c ****     #define capsense_CSX_TOUCHPAD_POSITION_FILTER_EN        \
  79:.\Generated_Source\PSoC4/capsense_Centroid_LL.c ****                 (capsense_POS_IIR_FILTER_EN                     || \
  80:.\Generated_Source\PSoC4/capsense_Centroid_LL.c ****                  capsense_CSX_TOUCHPAD_POS_MEDIAN_FILTER_EN     || \
  81:.\Generated_Source\PSoC4/capsense_Centroid_LL.c ****                  capsense_POS_AVERAGE_FILTER_EN                 || \
  82:.\Generated_Source\PSoC4/capsense_Centroid_LL.c ****                  capsense_POS_JITTER_FILTER_EN)
  83:.\Generated_Source\PSoC4/capsense_Centroid_LL.c ****     #define capsense_CSX_TOUCHPAD_POSITION_NONE             (0xFFFFu)
  84:.\Generated_Source\PSoC4/capsense_Centroid_LL.c ****     #define capsense_CSX_TOUCHPAD_Z_SHIFT                   (0x04u)
  85:.\Generated_Source\PSoC4/capsense_Centroid_LL.c ****     #define capsense_CSX_TOUCHPAD_PADDING                   (3Lu)
  86:.\Generated_Source\PSoC4/capsense_Centroid_LL.c ****     #define capsense_CSX_TOUCHPAD_CENTROID_LENGTH           (3u)
  87:.\Generated_Source\PSoC4/capsense_Centroid_LL.c ****     #define capsense_CSX_TOUCHPAD_CENTROID_PREVIOUS         (0u)
  88:.\Generated_Source\PSoC4/capsense_Centroid_LL.c ****     #define capsense_CSX_TOUCHPAD_CENTROID_CENTER           (1u)
  89:.\Generated_Source\PSoC4/capsense_Centroid_LL.c ****     #define capsense_CSX_TOUCHPAD_CENTROID_NEXT             (2u)
ARM GAS  C:\Users\Alan\AppData\Local\Temp\cc9ctX2J.s 			page 3


  90:.\Generated_Source\PSoC4/capsense_Centroid_LL.c **** 
  91:.\Generated_Source\PSoC4/capsense_Centroid_LL.c **** #endif /* capsense_CSX_TOUCHPAD_WIDGET_EN */
  92:.\Generated_Source\PSoC4/capsense_Centroid_LL.c **** 
  93:.\Generated_Source\PSoC4/capsense_Centroid_LL.c **** /*******************************************************************************
  94:.\Generated_Source\PSoC4/capsense_Centroid_LL.c **** * Static variables definition
  95:.\Generated_Source\PSoC4/capsense_Centroid_LL.c **** *******************************************************************************/
  96:.\Generated_Source\PSoC4/capsense_Centroid_LL.c **** static uint8 localMax[capsense_NUM_CENTROIDS];
  97:.\Generated_Source\PSoC4/capsense_Centroid_LL.c **** static capsense_THRESHOLD_TYPE localDiffArray[capsense_NUM_CENTROIDS][3u];
  98:.\Generated_Source\PSoC4/capsense_Centroid_LL.c **** static uint8 localMaxIndex;
  99:.\Generated_Source\PSoC4/capsense_Centroid_LL.c **** 
 100:.\Generated_Source\PSoC4/capsense_Centroid_LL.c **** #if ( 0u !=capsense_CSX_TOUCHPAD_WIDGET_EN)    
 101:.\Generated_Source\PSoC4/capsense_Centroid_LL.c ****     static capsense_CSX_TOUCHPAD_DATA_STRUCT newTouches;
 102:.\Generated_Source\PSoC4/capsense_Centroid_LL.c ****     static capsense_CSX_TOUCHPAD_DATA_STRUCT *ptrNewTouches = &newTouches;
 103:.\Generated_Source\PSoC4/capsense_Centroid_LL.c ****     static uint8 newActiveIDs = 0u;
 104:.\Generated_Source\PSoC4/capsense_Centroid_LL.c ****     static uint8 oldActiveIDs = 0u;
 105:.\Generated_Source\PSoC4/capsense_Centroid_LL.c **** 
 106:.\Generated_Source\PSoC4/capsense_Centroid_LL.c ****     typedef int32 capsense_CSX_TOUCHPAD_DISTANCE_MAP[capsense_CSX_MAX_LOCAL_PEAKS];
 107:.\Generated_Source\PSoC4/capsense_Centroid_LL.c **** #endif /* ( 0u !=capsense_CSX_TOUCHPAD_WIDGET_EN) */
 108:.\Generated_Source\PSoC4/capsense_Centroid_LL.c **** 
 109:.\Generated_Source\PSoC4/capsense_Centroid_LL.c **** /*******************************************************************************
 110:.\Generated_Source\PSoC4/capsense_Centroid_LL.c **** * API Protoypes
 111:.\Generated_Source\PSoC4/capsense_Centroid_LL.c **** *******************************************************************************/
 112:.\Generated_Source\PSoC4/capsense_Centroid_LL.c **** #if (0u !=capsense_CSX_TOUCHPAD_WIDGET_EN)
 113:.\Generated_Source\PSoC4/capsense_Centroid_LL.c ****     CY_INLINE static void capsense_TransferTouch(uint32 newIndex, uint32 oldIndex, capsense_CSX_TOU
 114:.\Generated_Source\PSoC4/capsense_Centroid_LL.c ****     static void capsense_NewTouch(uint32 newIndex, uint8 onDebounce, uint16 fingerOnThreshold);
 115:.\Generated_Source\PSoC4/capsense_Centroid_LL.c ****     CY_INLINE static uint8 capsense_GetLowestId(uint16 idMask);
 116:.\Generated_Source\PSoC4/capsense_Centroid_LL.c ****     CY_INLINE static uint32 capsense_CalcDistance(uint32 newIndex, uint32 oldIndex, capsense_CSX_TO
 117:.\Generated_Source\PSoC4/capsense_Centroid_LL.c ****     static void capsense_Hungarian(uint8 rowCount, uint8 colCount, int8 *fingerPosIndex,
 118:.\Generated_Source\PSoC4/capsense_Centroid_LL.c ****                                            capsense_CSX_TOUCHPAD_DISTANCE_MAP *distanceMap);
 119:.\Generated_Source\PSoC4/capsense_Centroid_LL.c ****     static void capsense_FillDistanceMap(capsense_CSX_TOUCHPAD_DISTANCE_MAP *distanceMap, 
 120:.\Generated_Source\PSoC4/capsense_Centroid_LL.c ****                                                  capsense_CSX_TOUCHPAD_DATA_STRUCT *ptrOldTouches);
 121:.\Generated_Source\PSoC4/capsense_Centroid_LL.c ****     CY_INLINE static void capsense_TouchDownDebounce(void);
 122:.\Generated_Source\PSoC4/capsense_Centroid_LL.c ****     CY_INLINE static void capsense_SortByAge(void);
 123:.\Generated_Source\PSoC4/capsense_Centroid_LL.c ****     CY_INLINE static void capsense_CopyTouchRecord(capsense_CSX_TOUCHPAD_PEAK_STRUCT *destination, 
 124:.\Generated_Source\PSoC4/capsense_Centroid_LL.c ****                                                            capsense_CSX_TOUCHPAD_PEAK_STRUCT *sourc
 125:.\Generated_Source\PSoC4/capsense_Centroid_LL.c ****     #if (0u != capsense_OFF_DEBOUNCE_EN)
 126:.\Generated_Source\PSoC4/capsense_Centroid_LL.c ****     CY_INLINE static void capsense_LiftOffDebounce(uint8 offDebounce, 
 127:.\Generated_Source\PSoC4/capsense_Centroid_LL.c ****                                                            capsense_CSX_TOUCHPAD_DATA_STRUCT *ptrOl
 128:.\Generated_Source\PSoC4/capsense_Centroid_LL.c ****     #endif /* (0u != capsense_OFF_DEBOUNCE_EN) */     
 129:.\Generated_Source\PSoC4/capsense_Centroid_LL.c **** #endif /* (0u !=capsense_CSX_TOUCHPAD_WIDGET_EN) */
 130:.\Generated_Source\PSoC4/capsense_Centroid_LL.c **** 
 131:.\Generated_Source\PSoC4/capsense_Centroid_LL.c **** 
 132:.\Generated_Source\PSoC4/capsense_Centroid_LL.c **** /*******************************************************************************
 133:.\Generated_Source\PSoC4/capsense_Centroid_LL.c **** * Function Name: capsense_DpFindLocalMaxSd
 134:.\Generated_Source\PSoC4/capsense_Centroid_LL.c **** ****************************************************************************//**
 135:.\Generated_Source\PSoC4/capsense_Centroid_LL.c **** *
 136:.\Generated_Source\PSoC4/capsense_Centroid_LL.c **** * \brief
 137:.\Generated_Source\PSoC4/capsense_Centroid_LL.c **** *   Finds the maximum in the widget differences and prepares array with maximum difference 
 138:.\Generated_Source\PSoC4/capsense_Centroid_LL.c **** *   and it's neighbour differences in Legacy mode (only one touch can be found).
 139:.\Generated_Source\PSoC4/capsense_Centroid_LL.c **** *   Finds the maxima in the widget differences and prepares arrays with maxima difference 
 140:.\Generated_Source\PSoC4/capsense_Centroid_LL.c **** *   and theirs neighbour differences in Multi-Touch mode (maximum three touches can be found).
 141:.\Generated_Source\PSoC4/capsense_Centroid_LL.c **** *   This API is used in conjunction with capsense_DpCalcLinearCentroid or 
 142:.\Generated_Source\PSoC4/capsense_Centroid_LL.c **** *   capsense__DpCalcRadialCentroid, because they use shared static data: localMax[], 
 143:.\Generated_Source\PSoC4/capsense_Centroid_LL.c **** *   localDiffArray[][3u], localMaxIndex.
 144:.\Generated_Source\PSoC4/capsense_Centroid_LL.c **** *
 145:.\Generated_Source\PSoC4/capsense_Centroid_LL.c **** * \details
 146:.\Generated_Source\PSoC4/capsense_Centroid_LL.c **** *   The localMax[] is used to store the index of the maximum/maxima.
ARM GAS  C:\Users\Alan\AppData\Local\Temp\cc9ctX2J.s 			page 4


 147:.\Generated_Source\PSoC4/capsense_Centroid_LL.c **** *   The localDiffArray[][] is used to store values of the maximum/maxima and neighbour differences.
 148:.\Generated_Source\PSoC4/capsense_Centroid_LL.c **** *   The localMaxIndex is used to store the number of maxima have been actually found.
 149:.\Generated_Source\PSoC4/capsense_Centroid_LL.c **** *
 150:.\Generated_Source\PSoC4/capsense_Centroid_LL.c **** * \param ptrSns The pointer to the the first sensor.
 151:.\Generated_Source\PSoC4/capsense_Centroid_LL.c **** * \param snsCount The total sensor number in the widget.
 152:.\Generated_Source\PSoC4/capsense_Centroid_LL.c **** * \param fingerThreshold The finger threshold in the widget.
 153:.\Generated_Source\PSoC4/capsense_Centroid_LL.c **** *
 154:.\Generated_Source\PSoC4/capsense_Centroid_LL.c **** * \return Returns the number of maxima found.
 155:.\Generated_Source\PSoC4/capsense_Centroid_LL.c **** *
 156:.\Generated_Source\PSoC4/capsense_Centroid_LL.c **** *******************************************************************************/    
 157:.\Generated_Source\PSoC4/capsense_Centroid_LL.c **** #if (capsense_NUM_CENTROIDS == 0x01u)
 158:.\Generated_Source\PSoC4/capsense_Centroid_LL.c **** 
 159:.\Generated_Source\PSoC4/capsense_Centroid_LL.c **** uint32 capsense_DpFindLocalMaxSd(
 160:.\Generated_Source\PSoC4/capsense_Centroid_LL.c ****                         capsense_RAM_SNS_STRUCT ptrSns[],
 161:.\Generated_Source\PSoC4/capsense_Centroid_LL.c ****                         uint32 snsCount, 
 162:.\Generated_Source\PSoC4/capsense_Centroid_LL.c ****                         uint32 fingerThreshold)
 163:.\Generated_Source\PSoC4/capsense_Centroid_LL.c **** {
  26              		.loc 1 163 0
  27              		.cfi_startproc
  28              	.LVL0:
  29 0000 F0B5     		push	{r4, r5, r6, r7, lr}
  30              		.cfi_def_cfa_offset 20
  31              		.cfi_offset 4, -20
  32              		.cfi_offset 5, -16
  33              		.cfi_offset 6, -12
  34              		.cfi_offset 7, -8
  35              		.cfi_offset 14, -4
  36              	.LVL1:
 164:.\Generated_Source\PSoC4/capsense_Centroid_LL.c ****     uint32 sensorId;        
 165:.\Generated_Source\PSoC4/capsense_Centroid_LL.c ****     capsense_RAM_SNS_STRUCT *localPtrSns = ptrSns;   
 166:.\Generated_Source\PSoC4/capsense_Centroid_LL.c ****     capsense_THRESHOLD_TYPE temp = 0u;
 167:.\Generated_Source\PSoC4/capsense_Centroid_LL.c ****     localMaxIndex = 0u;
  37              		.loc 1 167 0
  38 0002 0024     		mov	r4, #0
  39 0004 244B     		ldr	r3, .L8
  40 0006 1C70     		strb	r4, [r3]
  41              	.LVL2:
 165:.\Generated_Source\PSoC4/capsense_Centroid_LL.c ****     capsense_THRESHOLD_TYPE temp = 0u;
  42              		.loc 1 165 0
  43 0008 041C     		mov	r4, r0
 166:.\Generated_Source\PSoC4/capsense_Centroid_LL.c ****     localMaxIndex = 0u;
  44              		.loc 1 166 0
  45 000a 0026     		mov	r6, #0
 168:.\Generated_Source\PSoC4/capsense_Centroid_LL.c ****     
 169:.\Generated_Source\PSoC4/capsense_Centroid_LL.c ****     for (sensorId = 0u; sensorId < snsCount; sensorId++)
  46              		.loc 1 169 0
  47 000c 0023     		mov	r3, #0
  48 000e 0BE0     		b	.L2
  49              	.LVL3:
  50              	.L4:
 170:.\Generated_Source\PSoC4/capsense_Centroid_LL.c ****     {                      
 171:.\Generated_Source\PSoC4/capsense_Centroid_LL.c ****         if ((localPtrSns->diff > fingerThreshold) && (localPtrSns->diff > temp))
  51              		.loc 1 171 0
  52 0010 E588     		ldrh	r5, [r4, #6]
  53 0012 9542     		cmp	r5, r2
  54 0014 06D9     		bls	.L3
  55              		.loc 1 171 0 is_stmt 0 discriminator 1
ARM GAS  C:\Users\Alan\AppData\Local\Temp\cc9ctX2J.s 			page 5


  56 0016 AE42     		cmp	r6, r5
  57 0018 04D2     		bcs	.L3
 172:.\Generated_Source\PSoC4/capsense_Centroid_LL.c ****         {
 173:.\Generated_Source\PSoC4/capsense_Centroid_LL.c ****             localMax[0u] = LO8(sensorId);
  58              		.loc 1 173 0 is_stmt 1
  59 001a 1F4E     		ldr	r6, .L8
  60              	.LVL4:
  61 001c 3371     		strb	r3, [r6, #4]
  62              	.LVL5:
 174:.\Generated_Source\PSoC4/capsense_Centroid_LL.c ****             temp = localPtrSns->diff;
 175:.\Generated_Source\PSoC4/capsense_Centroid_LL.c ****             localMaxIndex = 1u;
  63              		.loc 1 175 0
  64 001e 0127     		mov	r7, #1
  65 0020 3770     		strb	r7, [r6]
 174:.\Generated_Source\PSoC4/capsense_Centroid_LL.c ****             temp = localPtrSns->diff;
  66              		.loc 1 174 0
  67 0022 2E1C     		mov	r6, r5
  68              	.LVL6:
  69              	.L3:
 176:.\Generated_Source\PSoC4/capsense_Centroid_LL.c ****         }
 177:.\Generated_Source\PSoC4/capsense_Centroid_LL.c ****         localPtrSns++;
  70              		.loc 1 177 0 discriminator 2
  71 0024 0A34     		add	r4, r4, #10
  72              	.LVL7:
 169:.\Generated_Source\PSoC4/capsense_Centroid_LL.c ****     {                      
  73              		.loc 1 169 0 discriminator 2
  74 0026 0133     		add	r3, r3, #1
  75              	.LVL8:
  76              	.L2:
 169:.\Generated_Source\PSoC4/capsense_Centroid_LL.c ****     {                      
  77              		.loc 1 169 0 is_stmt 0 discriminator 1
  78 0028 8B42     		cmp	r3, r1
  79 002a F1D3     		bcc	.L4
 178:.\Generated_Source\PSoC4/capsense_Centroid_LL.c ****     }
 179:.\Generated_Source\PSoC4/capsense_Centroid_LL.c **** 
 180:.\Generated_Source\PSoC4/capsense_Centroid_LL.c ****     /* Prepare single-dimension centroid calculation array */
 181:.\Generated_Source\PSoC4/capsense_Centroid_LL.c ****     if (localMaxIndex != 0u)
  80              		.loc 1 181 0 is_stmt 1
  81 002c 1A4B     		ldr	r3, .L8
  82              	.LVL9:
  83 002e 1C78     		ldrb	r4, [r3]
  84              	.LVL10:
  85 0030 002C     		cmp	r4, #0
  86 0032 2FD0     		beq	.L5
 182:.\Generated_Source\PSoC4/capsense_Centroid_LL.c ****     {
 183:.\Generated_Source\PSoC4/capsense_Centroid_LL.c ****         localDiffArray[0u][capsense_CENTROID_POS] = ptrSns[localMax[0u]].diff;
  87              		.loc 1 183 0
  88 0034 1D1C     		mov	r5, r3
  89 0036 1B79     		ldrb	r3, [r3, #4]
  90 0038 9A00     		lsl	r2, r3, #2
  91              	.LVL11:
  92 003a D218     		add	r2, r2, r3
  93 003c 5200     		lsl	r2, r2, #1
  94 003e 8618     		add	r6, r0, r2
  95              	.LVL12:
  96 0040 F688     		ldrh	r6, [r6, #6]
  97 0042 6E81     		strh	r6, [r5, #10]
ARM GAS  C:\Users\Alan\AppData\Local\Temp\cc9ctX2J.s 			page 6


 184:.\Generated_Source\PSoC4/capsense_Centroid_LL.c **** 
 185:.\Generated_Source\PSoC4/capsense_Centroid_LL.c ****         if (localMax[0u] == 0u)
  98              		.loc 1 185 0
  99 0044 002B     		cmp	r3, #0
 100 0046 0ED1     		bne	.L6
 186:.\Generated_Source\PSoC4/capsense_Centroid_LL.c ****         {
 187:.\Generated_Source\PSoC4/capsense_Centroid_LL.c ****             localDiffArray[0u][capsense_CENTROID_POS_PREV] = ptrSns[snsCount - 1u].diff;
 101              		.loc 1 187 0
 102 0048 8A00     		lsl	r2, r1, #2
 103 004a 5118     		add	r1, r2, r1
 104              	.LVL13:
 105 004c 4900     		lsl	r1, r1, #1
 106 004e 0A39     		sub	r1, r1, #10
 107 0050 4118     		add	r1, r0, r1
 108 0052 C988     		ldrh	r1, [r1, #6]
 109 0054 2981     		strh	r1, [r5, #8]
 188:.\Generated_Source\PSoC4/capsense_Centroid_LL.c ****             localDiffArray[0u][capsense_CENTROID_POS_NEXT] = ptrSns[localMax[0u] + 1u].diff;
 110              		.loc 1 188 0
 111 0056 0133     		add	r3, r3, #1
 112 0058 9900     		lsl	r1, r3, #2
 113 005a CB18     		add	r3, r1, r3
 114 005c 5B00     		lsl	r3, r3, #1
 115 005e C318     		add	r3, r0, r3
 116 0060 DB88     		ldrh	r3, [r3, #6]
 117 0062 AB81     		strh	r3, [r5, #12]
 118 0064 16E0     		b	.L5
 119              	.LVL14:
 120              	.L6:
 189:.\Generated_Source\PSoC4/capsense_Centroid_LL.c ****         }    
 190:.\Generated_Source\PSoC4/capsense_Centroid_LL.c ****         else if (localMax[0u] == (snsCount - 1u))
 121              		.loc 1 190 0
 122 0066 0139     		sub	r1, r1, #1
 123              	.LVL15:
 124 0068 8B42     		cmp	r3, r1
 125 006a 07D1     		bne	.L7
 191:.\Generated_Source\PSoC4/capsense_Centroid_LL.c ****         {
 192:.\Generated_Source\PSoC4/capsense_Centroid_LL.c ****             localDiffArray[0u][capsense_CENTROID_POS_PREV] = ptrSns[localMax[0u] - 1u].diff;
 126              		.loc 1 192 0
 127 006c 0A3A     		sub	r2, r2, #10
 128 006e 8218     		add	r2, r0, r2
 129 0070 D288     		ldrh	r2, [r2, #6]
 130 0072 094B     		ldr	r3, .L8
 131 0074 1A81     		strh	r2, [r3, #8]
 193:.\Generated_Source\PSoC4/capsense_Centroid_LL.c ****             localDiffArray[0u][capsense_CENTROID_POS_NEXT] = ptrSns[0u].diff;
 132              		.loc 1 193 0
 133 0076 C288     		ldrh	r2, [r0, #6]
 134 0078 9A81     		strh	r2, [r3, #12]
 135 007a 0BE0     		b	.L5
 136              	.L7:
 194:.\Generated_Source\PSoC4/capsense_Centroid_LL.c ****         }
 195:.\Generated_Source\PSoC4/capsense_Centroid_LL.c ****         else 
 196:.\Generated_Source\PSoC4/capsense_Centroid_LL.c ****         {
 197:.\Generated_Source\PSoC4/capsense_Centroid_LL.c ****             localDiffArray[0u][capsense_CENTROID_POS_PREV] = ptrSns[localMax[0u] - 1u].diff;
 137              		.loc 1 197 0
 138 007c 0A3A     		sub	r2, r2, #10
 139 007e 8218     		add	r2, r0, r2
 140 0080 D188     		ldrh	r1, [r2, #6]
ARM GAS  C:\Users\Alan\AppData\Local\Temp\cc9ctX2J.s 			page 7


 141              	.LVL16:
 142 0082 054A     		ldr	r2, .L8
 143 0084 1181     		strh	r1, [r2, #8]
 198:.\Generated_Source\PSoC4/capsense_Centroid_LL.c ****             localDiffArray[0u][capsense_CENTROID_POS_NEXT] = ptrSns[localMax[0u] + 1u].diff;
 144              		.loc 1 198 0
 145 0086 0133     		add	r3, r3, #1
 146 0088 9900     		lsl	r1, r3, #2
 147 008a CB18     		add	r3, r1, r3
 148 008c 5B00     		lsl	r3, r3, #1
 149 008e C318     		add	r3, r0, r3
 150 0090 DB88     		ldrh	r3, [r3, #6]
 151 0092 9381     		strh	r3, [r2, #12]
 152              	.L5:
 199:.\Generated_Source\PSoC4/capsense_Centroid_LL.c ****         }
 200:.\Generated_Source\PSoC4/capsense_Centroid_LL.c ****     }    
 201:.\Generated_Source\PSoC4/capsense_Centroid_LL.c ****     /* Return status to check if at least one maximum has been found */
 202:.\Generated_Source\PSoC4/capsense_Centroid_LL.c ****     return (uint32)(localMaxIndex);
 203:.\Generated_Source\PSoC4/capsense_Centroid_LL.c **** }
 153              		.loc 1 203 0
 154 0094 201C     		mov	r0, r4
 155              	.LVL17:
 156              		@ sp needed
 157 0096 F0BD     		pop	{r4, r5, r6, r7, pc}
 158              	.L9:
 159              		.align	2
 160              	.L8:
 161 0098 00000000 		.word	.LANCHOR0
 162              		.cfi_endproc
 163              	.LFE1:
 164              		.size	capsense_DpFindLocalMaxSd, .-capsense_DpFindLocalMaxSd
 165              		.global	__aeabi_idiv
 166              		.section	.text.capsense_DpCalcLinearCentroid,"ax",%progbits
 167              		.align	2
 168              		.global	capsense_DpCalcLinearCentroid
 169              		.code	16
 170              		.thumb_func
 171              		.type	capsense_DpCalcLinearCentroid, %function
 172              	capsense_DpCalcLinearCentroid:
 173              	.LFB2:
 204:.\Generated_Source\PSoC4/capsense_Centroid_LL.c **** 
 205:.\Generated_Source\PSoC4/capsense_Centroid_LL.c **** #else /* (capsense_NUM_CENTROIDS == 0x01u) */
 206:.\Generated_Source\PSoC4/capsense_Centroid_LL.c ****     
 207:.\Generated_Source\PSoC4/capsense_Centroid_LL.c **** uint32 capsense_DpFindLocalMaxSd(
 208:.\Generated_Source\PSoC4/capsense_Centroid_LL.c ****                         capsense_RAM_SNS_STRUCT ptrSns[],
 209:.\Generated_Source\PSoC4/capsense_Centroid_LL.c ****                         uint32 snsCount, 
 210:.\Generated_Source\PSoC4/capsense_Centroid_LL.c ****                         uint32 fingerThreshold)
 211:.\Generated_Source\PSoC4/capsense_Centroid_LL.c **** {
 212:.\Generated_Source\PSoC4/capsense_Centroid_LL.c ****     uint32 sensorId;
 213:.\Generated_Source\PSoC4/capsense_Centroid_LL.c ****     uint32 i;
 214:.\Generated_Source\PSoC4/capsense_Centroid_LL.c ****     uint32 proceed = 0u;
 215:.\Generated_Source\PSoC4/capsense_Centroid_LL.c ****     localMaxIndex = 0u;
 216:.\Generated_Source\PSoC4/capsense_Centroid_LL.c **** 
 217:.\Generated_Source\PSoC4/capsense_Centroid_LL.c ****    
 218:.\Generated_Source\PSoC4/capsense_Centroid_LL.c ****     if ((ptrSns[0u].diff > fingerThreshold) && (ptrSns[0u].diff > ptrSns[1u].diff))
 219:.\Generated_Source\PSoC4/capsense_Centroid_LL.c ****     {
 220:.\Generated_Source\PSoC4/capsense_Centroid_LL.c ****         localMax[localMaxIndex] = 0u;
 221:.\Generated_Source\PSoC4/capsense_Centroid_LL.c ****         localMaxIndex++;
ARM GAS  C:\Users\Alan\AppData\Local\Temp\cc9ctX2J.s 			page 8


 222:.\Generated_Source\PSoC4/capsense_Centroid_LL.c **** 
 223:.\Generated_Source\PSoC4/capsense_Centroid_LL.c ****         if (localMaxIndex >= capsense_NUM_CENTROIDS)
 224:.\Generated_Source\PSoC4/capsense_Centroid_LL.c ****         {
 225:.\Generated_Source\PSoC4/capsense_Centroid_LL.c ****             proceed = 1u;
 226:.\Generated_Source\PSoC4/capsense_Centroid_LL.c ****         }
 227:.\Generated_Source\PSoC4/capsense_Centroid_LL.c ****     }
 228:.\Generated_Source\PSoC4/capsense_Centroid_LL.c **** 
 229:.\Generated_Source\PSoC4/capsense_Centroid_LL.c ****     if ((proceed == 0u) && (ptrSns[snsCount - 1u].diff > fingerThreshold) && (ptrSns[snsCount - 1u]
 230:.\Generated_Source\PSoC4/capsense_Centroid_LL.c ****     {
 231:.\Generated_Source\PSoC4/capsense_Centroid_LL.c ****         localMax[localMaxIndex] = snsCount - 1u;
 232:.\Generated_Source\PSoC4/capsense_Centroid_LL.c ****         localMaxIndex++;
 233:.\Generated_Source\PSoC4/capsense_Centroid_LL.c **** 
 234:.\Generated_Source\PSoC4/capsense_Centroid_LL.c ****         if (localMaxIndex >= capsense_NUM_CENTROIDS)
 235:.\Generated_Source\PSoC4/capsense_Centroid_LL.c ****         {
 236:.\Generated_Source\PSoC4/capsense_Centroid_LL.c ****             proceed = 1u;
 237:.\Generated_Source\PSoC4/capsense_Centroid_LL.c ****         }
 238:.\Generated_Source\PSoC4/capsense_Centroid_LL.c ****     }
 239:.\Generated_Source\PSoC4/capsense_Centroid_LL.c **** 
 240:.\Generated_Source\PSoC4/capsense_Centroid_LL.c ****     for (sensorId = 1u; sensorId < (snsCount - 2u); sensorId++)
 241:.\Generated_Source\PSoC4/capsense_Centroid_LL.c ****     {                      
 242:.\Generated_Source\PSoC4/capsense_Centroid_LL.c ****         if ((proceed == 0u) && (ptrSns[sensorId].diff > fingerThreshold) && (ptrSns[sensorId].diff 
 243:.\Generated_Source\PSoC4/capsense_Centroid_LL.c ****         {
 244:.\Generated_Source\PSoC4/capsense_Centroid_LL.c ****             if (ptrSns[sensorId].diff > ptrSns[sensorId - 1u].diff)
 245:.\Generated_Source\PSoC4/capsense_Centroid_LL.c ****             {   
 246:.\Generated_Source\PSoC4/capsense_Centroid_LL.c ****                 localMax[localMaxIndex] = sensorId;
 247:.\Generated_Source\PSoC4/capsense_Centroid_LL.c ****                 localMaxIndex++;
 248:.\Generated_Source\PSoC4/capsense_Centroid_LL.c **** 
 249:.\Generated_Source\PSoC4/capsense_Centroid_LL.c ****                 if (localMaxIndex >= capsense_NUM_CENTROIDS)
 250:.\Generated_Source\PSoC4/capsense_Centroid_LL.c ****                 {
 251:.\Generated_Source\PSoC4/capsense_Centroid_LL.c ****                     proceed = 1u;
 252:.\Generated_Source\PSoC4/capsense_Centroid_LL.c ****                 }
 253:.\Generated_Source\PSoC4/capsense_Centroid_LL.c ****             }
 254:.\Generated_Source\PSoC4/capsense_Centroid_LL.c ****             /* Jump through next index */
 255:.\Generated_Source\PSoC4/capsense_Centroid_LL.c ****             sensorId++;
 256:.\Generated_Source\PSoC4/capsense_Centroid_LL.c ****         }
 257:.\Generated_Source\PSoC4/capsense_Centroid_LL.c ****     }   
 258:.\Generated_Source\PSoC4/capsense_Centroid_LL.c ****     
 259:.\Generated_Source\PSoC4/capsense_Centroid_LL.c ****     for (i = 0u; i < localMaxIndex; i++)
 260:.\Generated_Source\PSoC4/capsense_Centroid_LL.c ****     {
 261:.\Generated_Source\PSoC4/capsense_Centroid_LL.c ****          localDiffArray[i][capsense_CENTROID_POS] = ptrSns[localMax[i]].diff;
 262:.\Generated_Source\PSoC4/capsense_Centroid_LL.c **** 
 263:.\Generated_Source\PSoC4/capsense_Centroid_LL.c ****         if (localMax[i] == 0u)
 264:.\Generated_Source\PSoC4/capsense_Centroid_LL.c ****         {
 265:.\Generated_Source\PSoC4/capsense_Centroid_LL.c ****             localDiffArray[i][capsense_CENTROID_POS_PREV] = ptrSns[snsCount - 1u].diff;
 266:.\Generated_Source\PSoC4/capsense_Centroid_LL.c ****             localDiffArray[i][capsense_CENTROID_POS_NEXT] = ptrSns[localMax[i] + 1u].diff;
 267:.\Generated_Source\PSoC4/capsense_Centroid_LL.c ****         }
 268:.\Generated_Source\PSoC4/capsense_Centroid_LL.c ****         else if (localMax[i] == snsCount - 1u)
 269:.\Generated_Source\PSoC4/capsense_Centroid_LL.c ****         {
 270:.\Generated_Source\PSoC4/capsense_Centroid_LL.c ****             localDiffArray[i][capsense_CENTROID_POS_PREV] = ptrSns[localMax[i] - 1u].diff;
 271:.\Generated_Source\PSoC4/capsense_Centroid_LL.c ****             localDiffArray[i][capsense_CENTROID_POS_NEXT] = ptrSns[0u].diff;
 272:.\Generated_Source\PSoC4/capsense_Centroid_LL.c ****         }
 273:.\Generated_Source\PSoC4/capsense_Centroid_LL.c ****         else
 274:.\Generated_Source\PSoC4/capsense_Centroid_LL.c ****         {
 275:.\Generated_Source\PSoC4/capsense_Centroid_LL.c ****             localDiffArray[i][capsense_CENTROID_POS_PREV] = ptrSns[localMax[i] - 1u].diff;
 276:.\Generated_Source\PSoC4/capsense_Centroid_LL.c ****             localDiffArray[i][capsense_CENTROID_POS_NEXT] = ptrSns[localMax[i] + 1u].diff;
 277:.\Generated_Source\PSoC4/capsense_Centroid_LL.c ****         }
 278:.\Generated_Source\PSoC4/capsense_Centroid_LL.c ****     }
ARM GAS  C:\Users\Alan\AppData\Local\Temp\cc9ctX2J.s 			page 9


 279:.\Generated_Source\PSoC4/capsense_Centroid_LL.c ****    
 280:.\Generated_Source\PSoC4/capsense_Centroid_LL.c ****     return (uint32)(localMaxIndex);
 281:.\Generated_Source\PSoC4/capsense_Centroid_LL.c **** }
 282:.\Generated_Source\PSoC4/capsense_Centroid_LL.c **** #endif /* #if (capsense_NUM_CENTROIDS == 0x01u) */
 283:.\Generated_Source\PSoC4/capsense_Centroid_LL.c **** 
 284:.\Generated_Source\PSoC4/capsense_Centroid_LL.c **** 
 285:.\Generated_Source\PSoC4/capsense_Centroid_LL.c **** #if capsense_TOTAL_DIPLEXED_SLIDERS
 286:.\Generated_Source\PSoC4/capsense_Centroid_LL.c **** /*******************************************************************************
 287:.\Generated_Source\PSoC4/capsense_Centroid_LL.c **** * Function Name: capsense_DpFindLocalMaxDiplex
 288:.\Generated_Source\PSoC4/capsense_Centroid_LL.c **** ****************************************************************************//**
 289:.\Generated_Source\PSoC4/capsense_Centroid_LL.c **** *
 290:.\Generated_Source\PSoC4/capsense_Centroid_LL.c **** * \brief
 291:.\Generated_Source\PSoC4/capsense_Centroid_LL.c **** *   Finds the maximum in the widget differences. Used only for diplexed linear slider. 
 292:.\Generated_Source\PSoC4/capsense_Centroid_LL.c **** *
 293:.\Generated_Source\PSoC4/capsense_Centroid_LL.c **** * \details
 294:.\Generated_Source\PSoC4/capsense_Centroid_LL.c **** *   The localMax[] is used to store the index of the maximum/maxima.
 295:.\Generated_Source\PSoC4/capsense_Centroid_LL.c **** *   The localDiffArray[][] is used to store values of the maximum/maxima and neighbour differences.
 296:.\Generated_Source\PSoC4/capsense_Centroid_LL.c **** *   The localMaxIndex is used to store the number of maxima have been actually found.
 297:.\Generated_Source\PSoC4/capsense_Centroid_LL.c **** *
 298:.\Generated_Source\PSoC4/capsense_Centroid_LL.c **** * \param ptrSns The pointer to the the first sensor.
 299:.\Generated_Source\PSoC4/capsense_Centroid_LL.c **** * \param snsCount The total sensor number in the widget.
 300:.\Generated_Source\PSoC4/capsense_Centroid_LL.c **** * \param diplexTable The pointer to the diplex table.
 301:.\Generated_Source\PSoC4/capsense_Centroid_LL.c **** * \param fingerThreshold The finger threshold in the widget.
 302:.\Generated_Source\PSoC4/capsense_Centroid_LL.c **** *
 303:.\Generated_Source\PSoC4/capsense_Centroid_LL.c **** * \return Returns the number of maxima found.
 304:.\Generated_Source\PSoC4/capsense_Centroid_LL.c **** *
 305:.\Generated_Source\PSoC4/capsense_Centroid_LL.c **** *******************************************************************************/
 306:.\Generated_Source\PSoC4/capsense_Centroid_LL.c **** uint32 capsense_DpFindLocalMaxDiplex(
 307:.\Generated_Source\PSoC4/capsense_Centroid_LL.c ****                         capsense_RAM_SNS_STRUCT ptrSns[],
 308:.\Generated_Source\PSoC4/capsense_Centroid_LL.c ****                         uint32 snsCount,
 309:.\Generated_Source\PSoC4/capsense_Centroid_LL.c ****                         uint8 const diplexTable[],
 310:.\Generated_Source\PSoC4/capsense_Centroid_LL.c ****                         uint32 fingerThreshold)
 311:.\Generated_Source\PSoC4/capsense_Centroid_LL.c **** {
 312:.\Generated_Source\PSoC4/capsense_Centroid_LL.c ****     uint32 sensorId;
 313:.\Generated_Source\PSoC4/capsense_Centroid_LL.c ****     uint32 diplexSensorId;
 314:.\Generated_Source\PSoC4/capsense_Centroid_LL.c **** 
 315:.\Generated_Source\PSoC4/capsense_Centroid_LL.c ****     uint32 biggestStartPos = 0u;
 316:.\Generated_Source\PSoC4/capsense_Centroid_LL.c ****     uint32 biggestSize = 0u;
 317:.\Generated_Source\PSoC4/capsense_Centroid_LL.c ****     uint32 curStartPos = 0u;
 318:.\Generated_Source\PSoC4/capsense_Centroid_LL.c ****     uint32 curSize = 0u;
 319:.\Generated_Source\PSoC4/capsense_Centroid_LL.c ****     capsense_THRESHOLD_TYPE temp = 0u;
 320:.\Generated_Source\PSoC4/capsense_Centroid_LL.c ****     
 321:.\Generated_Source\PSoC4/capsense_Centroid_LL.c ****     localMaxIndex = 0u;
 322:.\Generated_Source\PSoC4/capsense_Centroid_LL.c ****     
 323:.\Generated_Source\PSoC4/capsense_Centroid_LL.c ****     for (sensorId = 0u; sensorId < (snsCount << 1u); sensorId++)
 324:.\Generated_Source\PSoC4/capsense_Centroid_LL.c ****     {                      
 325:.\Generated_Source\PSoC4/capsense_Centroid_LL.c ****         diplexSensorId = diplexTable[sensorId];
 326:.\Generated_Source\PSoC4/capsense_Centroid_LL.c ****         
 327:.\Generated_Source\PSoC4/capsense_Centroid_LL.c ****         if (ptrSns[diplexSensorId].diff > fingerThreshold) 
 328:.\Generated_Source\PSoC4/capsense_Centroid_LL.c ****         {
 329:.\Generated_Source\PSoC4/capsense_Centroid_LL.c ****             if (0u == curSize)
 330:.\Generated_Source\PSoC4/capsense_Centroid_LL.c ****             {
 331:.\Generated_Source\PSoC4/capsense_Centroid_LL.c ****                 curStartPos = sensorId;
 332:.\Generated_Source\PSoC4/capsense_Centroid_LL.c ****             }
 333:.\Generated_Source\PSoC4/capsense_Centroid_LL.c **** 
 334:.\Generated_Source\PSoC4/capsense_Centroid_LL.c ****             curSize++;
 335:.\Generated_Source\PSoC4/capsense_Centroid_LL.c ****         }
ARM GAS  C:\Users\Alan\AppData\Local\Temp\cc9ctX2J.s 			page 10


 336:.\Generated_Source\PSoC4/capsense_Centroid_LL.c ****         else
 337:.\Generated_Source\PSoC4/capsense_Centroid_LL.c ****         {
 338:.\Generated_Source\PSoC4/capsense_Centroid_LL.c ****             if (curSize > biggestSize)
 339:.\Generated_Source\PSoC4/capsense_Centroid_LL.c ****             {
 340:.\Generated_Source\PSoC4/capsense_Centroid_LL.c ****                 biggestSize = curSize;
 341:.\Generated_Source\PSoC4/capsense_Centroid_LL.c ****                 biggestStartPos = curStartPos;
 342:.\Generated_Source\PSoC4/capsense_Centroid_LL.c ****             }
 343:.\Generated_Source\PSoC4/capsense_Centroid_LL.c ****             curSize = 0u;
 344:.\Generated_Source\PSoC4/capsense_Centroid_LL.c ****         }
 345:.\Generated_Source\PSoC4/capsense_Centroid_LL.c ****     }
 346:.\Generated_Source\PSoC4/capsense_Centroid_LL.c ****     
 347:.\Generated_Source\PSoC4/capsense_Centroid_LL.c ****     if (curSize > biggestSize)
 348:.\Generated_Source\PSoC4/capsense_Centroid_LL.c ****     {
 349:.\Generated_Source\PSoC4/capsense_Centroid_LL.c ****         biggestSize = curSize;
 350:.\Generated_Source\PSoC4/capsense_Centroid_LL.c ****         biggestStartPos = curStartPos;
 351:.\Generated_Source\PSoC4/capsense_Centroid_LL.c ****     }
 352:.\Generated_Source\PSoC4/capsense_Centroid_LL.c **** 
 353:.\Generated_Source\PSoC4/capsense_Centroid_LL.c ****     if (biggestSize >= capsense_CENTROID_DIPLEX_SECTION_LENGTH)
 354:.\Generated_Source\PSoC4/capsense_Centroid_LL.c ****     {
 355:.\Generated_Source\PSoC4/capsense_Centroid_LL.c ****         for (sensorId = biggestStartPos; sensorId < (biggestStartPos + biggestSize); sensorId++)
 356:.\Generated_Source\PSoC4/capsense_Centroid_LL.c ****         {
 357:.\Generated_Source\PSoC4/capsense_Centroid_LL.c ****             diplexSensorId = diplexTable[sensorId];
 358:.\Generated_Source\PSoC4/capsense_Centroid_LL.c **** 
 359:.\Generated_Source\PSoC4/capsense_Centroid_LL.c ****             if (ptrSns[diplexSensorId].diff > temp)
 360:.\Generated_Source\PSoC4/capsense_Centroid_LL.c ****             {
 361:.\Generated_Source\PSoC4/capsense_Centroid_LL.c ****                 localMax[0u] = LO8(sensorId);
 362:.\Generated_Source\PSoC4/capsense_Centroid_LL.c ****                 temp = ptrSns[diplexSensorId].diff;
 363:.\Generated_Source\PSoC4/capsense_Centroid_LL.c ****                 localMaxIndex = 1u;
 364:.\Generated_Source\PSoC4/capsense_Centroid_LL.c ****             }
 365:.\Generated_Source\PSoC4/capsense_Centroid_LL.c ****         }
 366:.\Generated_Source\PSoC4/capsense_Centroid_LL.c **** 
 367:.\Generated_Source\PSoC4/capsense_Centroid_LL.c ****         /* Prepare single-dimension centroid calculation array */
 368:.\Generated_Source\PSoC4/capsense_Centroid_LL.c ****         if (localMax[0u] == 0u)
 369:.\Generated_Source\PSoC4/capsense_Centroid_LL.c ****         {
 370:.\Generated_Source\PSoC4/capsense_Centroid_LL.c ****             localDiffArray[0u][capsense_CENTROID_POS_PREV] = 0u;
 371:.\Generated_Source\PSoC4/capsense_Centroid_LL.c ****             localDiffArray[0u][capsense_CENTROID_POS] = ptrSns[localMax[0u]].diff;
 372:.\Generated_Source\PSoC4/capsense_Centroid_LL.c ****             localDiffArray[0u][capsense_CENTROID_POS_NEXT] = ptrSns[localMax[0u] + 1u].diff;
 373:.\Generated_Source\PSoC4/capsense_Centroid_LL.c ****             
 374:.\Generated_Source\PSoC4/capsense_Centroid_LL.c ****         }    
 375:.\Generated_Source\PSoC4/capsense_Centroid_LL.c ****         else if (localMax[0u] == ((snsCount << 1u) - 1u))
 376:.\Generated_Source\PSoC4/capsense_Centroid_LL.c ****         {
 377:.\Generated_Source\PSoC4/capsense_Centroid_LL.c ****             diplexSensorId = diplexTable[localMax[0u] - 1u];
 378:.\Generated_Source\PSoC4/capsense_Centroid_LL.c ****             localDiffArray[0u][capsense_CENTROID_POS_PREV] = ptrSns[diplexSensorId].diff;
 379:.\Generated_Source\PSoC4/capsense_Centroid_LL.c ****             diplexSensorId = diplexTable[localMax[0u]];
 380:.\Generated_Source\PSoC4/capsense_Centroid_LL.c ****             localDiffArray[0u][capsense_CENTROID_POS] = ptrSns[diplexSensorId].diff;
 381:.\Generated_Source\PSoC4/capsense_Centroid_LL.c ****             localDiffArray[0u][capsense_CENTROID_POS_NEXT] = 0u;
 382:.\Generated_Source\PSoC4/capsense_Centroid_LL.c ****         }
 383:.\Generated_Source\PSoC4/capsense_Centroid_LL.c ****         else
 384:.\Generated_Source\PSoC4/capsense_Centroid_LL.c ****         {
 385:.\Generated_Source\PSoC4/capsense_Centroid_LL.c ****             diplexSensorId = diplexTable[localMax[0u] - 1u];
 386:.\Generated_Source\PSoC4/capsense_Centroid_LL.c ****             localDiffArray[0u][capsense_CENTROID_POS_PREV] = ptrSns[diplexSensorId].diff;
 387:.\Generated_Source\PSoC4/capsense_Centroid_LL.c ****             diplexSensorId = diplexTable[localMax[0u]];
 388:.\Generated_Source\PSoC4/capsense_Centroid_LL.c ****             localDiffArray[0u][capsense_CENTROID_POS] = ptrSns[diplexSensorId].diff;
 389:.\Generated_Source\PSoC4/capsense_Centroid_LL.c ****             diplexSensorId = diplexTable[localMax[0u] + 1u];
 390:.\Generated_Source\PSoC4/capsense_Centroid_LL.c ****             localDiffArray[0u][capsense_CENTROID_POS_NEXT] = ptrSns[diplexSensorId].diff;
 391:.\Generated_Source\PSoC4/capsense_Centroid_LL.c ****         }
 392:.\Generated_Source\PSoC4/capsense_Centroid_LL.c ****     } 
ARM GAS  C:\Users\Alan\AppData\Local\Temp\cc9ctX2J.s 			page 11


 393:.\Generated_Source\PSoC4/capsense_Centroid_LL.c **** 
 394:.\Generated_Source\PSoC4/capsense_Centroid_LL.c ****     return (uint32)(localMaxIndex);
 395:.\Generated_Source\PSoC4/capsense_Centroid_LL.c **** }
 396:.\Generated_Source\PSoC4/capsense_Centroid_LL.c **** #endif /* #if capsense_TOTAL_DIPLEXED_SLIDERS */
 397:.\Generated_Source\PSoC4/capsense_Centroid_LL.c **** 
 398:.\Generated_Source\PSoC4/capsense_Centroid_LL.c **** 
 399:.\Generated_Source\PSoC4/capsense_Centroid_LL.c **** /*******************************************************************************
 400:.\Generated_Source\PSoC4/capsense_Centroid_LL.c **** * Function Name: capsense_DpCalcLinearCentroid
 401:.\Generated_Source\PSoC4/capsense_Centroid_LL.c **** ****************************************************************************//**
 402:.\Generated_Source\PSoC4/capsense_Centroid_LL.c **** *
 403:.\Generated_Source\PSoC4/capsense_Centroid_LL.c **** * \brief
 404:.\Generated_Source\PSoC4/capsense_Centroid_LL.c **** *   Calculates the position of the linear slider. 
 405:.\Generated_Source\PSoC4/capsense_Centroid_LL.c **** *
 406:.\Generated_Source\PSoC4/capsense_Centroid_LL.c **** * \details
 407:.\Generated_Source\PSoC4/capsense_Centroid_LL.c **** *   The localMax[] is used to store the index of the maximum/maxima.
 408:.\Generated_Source\PSoC4/capsense_Centroid_LL.c **** *   The localDiffArray[][] is used to store values of the maximum/maxima and neighbour differences.
 409:.\Generated_Source\PSoC4/capsense_Centroid_LL.c **** *   The localMaxIndex is used to store the number of maxima have been actually found.
 410:.\Generated_Source\PSoC4/capsense_Centroid_LL.c **** *
 411:.\Generated_Source\PSoC4/capsense_Centroid_LL.c **** * \param  *position The pointer to the position array for temporal position storage.
 412:.\Generated_Source\PSoC4/capsense_Centroid_LL.c **** * \param multiplier The multiplier used for position calculation. 
 413:.\Generated_Source\PSoC4/capsense_Centroid_LL.c **** *                       Contains the widget resolution and total sensor information. It is generate
 414:.\Generated_Source\PSoC4/capsense_Centroid_LL.c **** * \param snsCount The number of sensors in the linear slider. The doubled snsCount has to be passed
 415:.\Generated_Source\PSoC4/capsense_Centroid_LL.c **** *                       if this API is called for diplexed slider.                       
 416:.\Generated_Source\PSoC4/capsense_Centroid_LL.c **** *
 417:.\Generated_Source\PSoC4/capsense_Centroid_LL.c **** * \return Returns the number of positions calculated.
 418:.\Generated_Source\PSoC4/capsense_Centroid_LL.c **** *
 419:.\Generated_Source\PSoC4/capsense_Centroid_LL.c **** *******************************************************************************/
 420:.\Generated_Source\PSoC4/capsense_Centroid_LL.c **** uint32 capsense_DpCalcLinearCentroid(uint16 position[], uint32 multiplier, uint32 snsCount)
 421:.\Generated_Source\PSoC4/capsense_Centroid_LL.c **** {    
 174              		.loc 1 421 0
 175              		.cfi_startproc
 176              	.LVL18:
 177 0000 F0B5     		push	{r4, r5, r6, r7, lr}
 178              		.cfi_def_cfa_offset 20
 179              		.cfi_offset 4, -20
 180              		.cfi_offset 5, -16
 181              		.cfi_offset 6, -12
 182              		.cfi_offset 7, -8
 183              		.cfi_offset 14, -4
 184 0002 4746     		mov	r7, r8
 185 0004 80B4     		push	{r7}
 186              		.cfi_def_cfa_offset 24
 187              		.cfi_offset 8, -24
 188 0006 82B0     		sub	sp, sp, #8
 189              		.cfi_def_cfa_offset 32
 190 0008 8046     		mov	r8, r0
 191 000a 0F1C     		mov	r7, r1
 192 000c 0192     		str	r2, [sp, #4]
 193              	.LVL19:
 422:.\Generated_Source\PSoC4/capsense_Centroid_LL.c ****     int32 numerator;
 423:.\Generated_Source\PSoC4/capsense_Centroid_LL.c ****     int32 denominator;
 424:.\Generated_Source\PSoC4/capsense_Centroid_LL.c ****     uint32 i;
 425:.\Generated_Source\PSoC4/capsense_Centroid_LL.c **** 
 426:.\Generated_Source\PSoC4/capsense_Centroid_LL.c ****     for (i = 0u; i < localMaxIndex; i++)
 194              		.loc 1 426 0
 195 000e 0026     		mov	r6, #0
 196 0010 2CE0     		b	.L11
ARM GAS  C:\Users\Alan\AppData\Local\Temp\cc9ctX2J.s 			page 12


 197              	.LVL20:
 198              	.L14:
 427:.\Generated_Source\PSoC4/capsense_Centroid_LL.c ****     {
 428:.\Generated_Source\PSoC4/capsense_Centroid_LL.c ****         /* 
 429:.\Generated_Source\PSoC4/capsense_Centroid_LL.c ****          * The capsense_DpFindLocalMaxSd API prepares the unified localDiffArray[][] for linear and
 430:.\Generated_Source\PSoC4/capsense_Centroid_LL.c ****          *  Therefore, the difference of the first and the last elements of linear slider are clear
 431:.\Generated_Source\PSoC4/capsense_Centroid_LL.c ****          */
 432:.\Generated_Source\PSoC4/capsense_Centroid_LL.c ****         
 433:.\Generated_Source\PSoC4/capsense_Centroid_LL.c ****         if (localMax[i] == 0u)
 199              		.loc 1 433 0
 200 0012 1A4B     		ldr	r3, .L15
 201 0014 9B19     		add	r3, r3, r6
 202 0016 1C79     		ldrb	r4, [r3, #4]
 203 0018 002C     		cmp	r4, #0
 204 001a 07D1     		bne	.L12
 434:.\Generated_Source\PSoC4/capsense_Centroid_LL.c ****         {
 435:.\Generated_Source\PSoC4/capsense_Centroid_LL.c ****             localDiffArray[i][capsense_CENTROID_POS_PREV] = 0u;
 205              		.loc 1 435 0
 206 001c 7300     		lsl	r3, r6, #1
 207 001e 9B19     		add	r3, r3, r6
 208 0020 5B00     		lsl	r3, r3, #1
 209 0022 164A     		ldr	r2, .L15
 210 0024 D318     		add	r3, r2, r3
 211 0026 0022     		mov	r2, #0
 212 0028 1A81     		strh	r2, [r3, #8]
 213 002a 0AE0     		b	.L13
 214              	.L12:
 436:.\Generated_Source\PSoC4/capsense_Centroid_LL.c ****         }
 437:.\Generated_Source\PSoC4/capsense_Centroid_LL.c ****         else
 438:.\Generated_Source\PSoC4/capsense_Centroid_LL.c ****         {
 439:.\Generated_Source\PSoC4/capsense_Centroid_LL.c ****             if (localMax[i] == (snsCount - 1u))
 215              		.loc 1 439 0
 216 002c 019B     		ldr	r3, [sp, #4]
 217 002e 013B     		sub	r3, r3, #1
 218 0030 9C42     		cmp	r4, r3
 219 0032 06D1     		bne	.L13
 440:.\Generated_Source\PSoC4/capsense_Centroid_LL.c ****             {
 441:.\Generated_Source\PSoC4/capsense_Centroid_LL.c ****                 localDiffArray[i][capsense_CENTROID_POS_NEXT] = 0u;
 220              		.loc 1 441 0
 221 0034 7300     		lsl	r3, r6, #1
 222 0036 9B19     		add	r3, r3, r6
 223 0038 5B00     		lsl	r3, r3, #1
 224 003a 104A     		ldr	r2, .L15
 225 003c D318     		add	r3, r2, r3
 226 003e 0022     		mov	r2, #0
 227 0040 9A81     		strh	r2, [r3, #12]
 228              	.L13:
 442:.\Generated_Source\PSoC4/capsense_Centroid_LL.c ****             }
 443:.\Generated_Source\PSoC4/capsense_Centroid_LL.c ****         }
 444:.\Generated_Source\PSoC4/capsense_Centroid_LL.c ****         
 445:.\Generated_Source\PSoC4/capsense_Centroid_LL.c ****         /* Si+1 - Si-1 */
 446:.\Generated_Source\PSoC4/capsense_Centroid_LL.c ****         numerator = (int32) localDiffArray[i][capsense_CENTROID_POS_NEXT] -
 229              		.loc 1 446 0 discriminator 2
 230 0042 7500     		lsl	r5, r6, #1
 231 0044 AB19     		add	r3, r5, r6
 232 0046 5B00     		lsl	r3, r3, #1
 233 0048 0C4A     		ldr	r2, .L15
ARM GAS  C:\Users\Alan\AppData\Local\Temp\cc9ctX2J.s 			page 13


 234 004a D318     		add	r3, r2, r3
 235 004c 9A89     		ldrh	r2, [r3, #12]
 447:.\Generated_Source\PSoC4/capsense_Centroid_LL.c ****                     (int32) localDiffArray[i][capsense_CENTROID_POS_PREV];
 236              		.loc 1 447 0 discriminator 2
 237 004e 1989     		ldrh	r1, [r3, #8]
 446:.\Generated_Source\PSoC4/capsense_Centroid_LL.c ****                     (int32) localDiffArray[i][capsense_CENTROID_POS_PREV];
 238              		.loc 1 446 0 discriminator 2
 239 0050 501A     		sub	r0, r2, r1
 240              	.LVL21:
 448:.\Generated_Source\PSoC4/capsense_Centroid_LL.c **** 
 449:.\Generated_Source\PSoC4/capsense_Centroid_LL.c ****         /* Si+1 + Si + Si-1 */
 450:.\Generated_Source\PSoC4/capsense_Centroid_LL.c ****         denominator = (int32) localDiffArray[i][capsense_CENTROID_POS_PREV] + 
 451:.\Generated_Source\PSoC4/capsense_Centroid_LL.c ****                       (int32) localDiffArray[i][capsense_CENTROID_POS] + 
 241              		.loc 1 451 0 discriminator 2
 242 0052 5B89     		ldrh	r3, [r3, #10]
 450:.\Generated_Source\PSoC4/capsense_Centroid_LL.c ****                       (int32) localDiffArray[i][capsense_CENTROID_POS] + 
 243              		.loc 1 450 0 discriminator 2
 244 0054 C918     		add	r1, r1, r3
 245 0056 5118     		add	r1, r2, r1
 246              	.LVL22:
 452:.\Generated_Source\PSoC4/capsense_Centroid_LL.c ****                       (int32) localDiffArray[i][capsense_CENTROID_POS_NEXT];    
 453:.\Generated_Source\PSoC4/capsense_Centroid_LL.c ****         
 454:.\Generated_Source\PSoC4/capsense_Centroid_LL.c ****         /* TODO: Need to analyze for overflow */
 455:.\Generated_Source\PSoC4/capsense_Centroid_LL.c ****         denominator = ((numerator * (int32)multiplier) / denominator) + 
 247              		.loc 1 455 0 discriminator 2
 248 0058 7843     		mul	r0, r7
 249              	.LVL23:
 250 005a FFF7FEFF 		bl	__aeabi_idiv
 251              	.LVL24:
 456:.\Generated_Source\PSoC4/capsense_Centroid_LL.c ****                       ((int32)localMax[i] * (int32)multiplier);
 252              		.loc 1 456 0 discriminator 2
 253 005e 7C43     		mul	r4, r7
 455:.\Generated_Source\PSoC4/capsense_Centroid_LL.c ****                       ((int32)localMax[i] * (int32)multiplier);
 254              		.loc 1 455 0 discriminator 2
 255 0060 0019     		add	r0, r0, r4
 256              	.LVL25:
 457:.\Generated_Source\PSoC4/capsense_Centroid_LL.c ****         
 458:.\Generated_Source\PSoC4/capsense_Centroid_LL.c ****         /* Round result and shift 8bits left */
 459:.\Generated_Source\PSoC4/capsense_Centroid_LL.c ****         position[i] = LO16(((uint32)denominator + capsense_CENTROID_ROUND_VALUE) >> 8u);
 257              		.loc 1 459 0 discriminator 2
 258 0062 7F30     		add	r0, r0, #127
 259              	.LVL26:
 260 0064 000A     		lsr	r0, r0, #8
 261              	.LVL27:
 262 0066 4346     		mov	r3, r8
 263 0068 5853     		strh	r0, [r3, r5]
 426:.\Generated_Source\PSoC4/capsense_Centroid_LL.c ****     {
 264              		.loc 1 426 0 discriminator 2
 265 006a 0136     		add	r6, r6, #1
 266              	.LVL28:
 267              	.L11:
 426:.\Generated_Source\PSoC4/capsense_Centroid_LL.c ****     {
 268              		.loc 1 426 0 is_stmt 0 discriminator 1
 269 006c 034B     		ldr	r3, .L15
 270 006e 1878     		ldrb	r0, [r3]
 271 0070 B042     		cmp	r0, r6
 272 0072 CED8     		bhi	.L14
ARM GAS  C:\Users\Alan\AppData\Local\Temp\cc9ctX2J.s 			page 14


 460:.\Generated_Source\PSoC4/capsense_Centroid_LL.c ****     }
 461:.\Generated_Source\PSoC4/capsense_Centroid_LL.c ****     return (uint32)(localMaxIndex);
 462:.\Generated_Source\PSoC4/capsense_Centroid_LL.c **** }
 273              		.loc 1 462 0 is_stmt 1
 274 0074 02B0     		add	sp, sp, #8
 275              		@ sp needed
 276              	.LVL29:
 277              	.LVL30:
 278              	.LVL31:
 279 0076 04BC     		pop	{r2}
 280 0078 9046     		mov	r8, r2
 281 007a F0BD     		pop	{r4, r5, r6, r7, pc}
 282              	.L16:
 283              		.align	2
 284              	.L15:
 285 007c 00000000 		.word	.LANCHOR0
 286              		.cfi_endproc
 287              	.LFE2:
 288              		.size	capsense_DpCalcLinearCentroid, .-capsense_DpCalcLinearCentroid
 289              		.bss
 290              		.align	2
 291              		.set	.LANCHOR0,. + 0
 292              		.type	localMaxIndex, %object
 293              		.size	localMaxIndex, 1
 294              	localMaxIndex:
 295 0000 00       		.space	1
 296 0001 000000   		.space	3
 297              		.type	localMax, %object
 298              		.size	localMax, 1
 299              	localMax:
 300 0004 00       		.space	1
 301 0005 000000   		.space	3
 302              		.type	localDiffArray, %object
 303              		.size	localDiffArray, 6
 304              	localDiffArray:
 305 0008 00000000 		.space	6
 305      0000
 306 000e 0000     		.text
 307              	.Letext0:
 308              		.file 2 ".\\Generated_Source\\PSoC4\\cytypes.h"
 309              		.file 3 ".\\Generated_Source\\PSoC4\\capsense_Configuration.h"
 310              		.file 4 ".\\Generated_Source\\PSoC4\\capsense_Structure.h"