ARM GAS  C:\Users\Alan\AppData\Local\Temp\ccdSf0Pi.s 			page 1


   1              		.cpu cortex-m0plus
   2              		.fpu softvfp
   3              		.eabi_attribute 20, 1
   4              		.eabi_attribute 21, 1
   5              		.eabi_attribute 23, 3
   6              		.eabi_attribute 24, 1
   7              		.eabi_attribute 25, 1
   8              		.eabi_attribute 26, 1
   9              		.eabi_attribute 30, 1
  10              		.eabi_attribute 34, 0
  11              		.eabi_attribute 18, 4
  12              		.code	16
  13              		.file	"capsense_Tuner.c"
  14              		.text
  15              	.Ltext0:
  16              		.cfi_sections	.debug_frame
  17              		.section	.text.capsense_TuInitialize,"ax",%progbits
  18              		.align	2
  19              		.global	capsense_TuInitialize
  20              		.code	16
  21              		.thumb_func
  22              		.type	capsense_TuInitialize, %function
  23              	capsense_TuInitialize:
  24              	.LFB1:
  25              		.file 1 ".\\Generated_Source\\PSoC4\\capsense_Tuner.c"
   1:.\Generated_Source\PSoC4/capsense_Tuner.c **** /***************************************************************************//**
   2:.\Generated_Source\PSoC4/capsense_Tuner.c **** * \file capsense_Tuner.c
   3:.\Generated_Source\PSoC4/capsense_Tuner.c **** * \version 3.0
   4:.\Generated_Source\PSoC4/capsense_Tuner.c **** *
   5:.\Generated_Source\PSoC4/capsense_Tuner.c **** * \brief
   6:.\Generated_Source\PSoC4/capsense_Tuner.c **** * This file provides the source code for the Tuner module API of the Component.
   7:.\Generated_Source\PSoC4/capsense_Tuner.c **** *
   8:.\Generated_Source\PSoC4/capsense_Tuner.c **** * \see CapSense P4 v3.0 Datasheet
   9:.\Generated_Source\PSoC4/capsense_Tuner.c **** * 
  10:.\Generated_Source\PSoC4/capsense_Tuner.c **** *//*****************************************************************************
  11:.\Generated_Source\PSoC4/capsense_Tuner.c **** * Copyright (2016), Cypress Semiconductor Corporation.
  12:.\Generated_Source\PSoC4/capsense_Tuner.c **** ********************************************************************************
  13:.\Generated_Source\PSoC4/capsense_Tuner.c **** * This software is owned by Cypress Semiconductor Corporation (Cypress) and is
  14:.\Generated_Source\PSoC4/capsense_Tuner.c **** * protected by and subject to worldwide patent protection (United States and
  15:.\Generated_Source\PSoC4/capsense_Tuner.c **** * foreign), United States copyright laws and international treaty provisions.
  16:.\Generated_Source\PSoC4/capsense_Tuner.c **** * Cypress hereby grants to licensee a personal, non-exclusive, non-transferable
  17:.\Generated_Source\PSoC4/capsense_Tuner.c **** * license to copy, use, modify, create derivative works of, and compile the
  18:.\Generated_Source\PSoC4/capsense_Tuner.c **** * Cypress Source Code and derivative works for the sole purpose of creating
  19:.\Generated_Source\PSoC4/capsense_Tuner.c **** * custom software in support of licensee product to be used only in conjunction
  20:.\Generated_Source\PSoC4/capsense_Tuner.c **** * with a Cypress integrated circuit as specified in the applicable agreement.
  21:.\Generated_Source\PSoC4/capsense_Tuner.c **** * Any reproduction, modification, translation, compilation, or representation of
  22:.\Generated_Source\PSoC4/capsense_Tuner.c **** * this software except as specified above is prohibited without the express
  23:.\Generated_Source\PSoC4/capsense_Tuner.c **** * written permission of Cypress.
  24:.\Generated_Source\PSoC4/capsense_Tuner.c **** *
  25:.\Generated_Source\PSoC4/capsense_Tuner.c **** * Disclaimer: CYPRESS MAKES NO WARRANTY OF ANY KIND, EXPRESS OR IMPLIED, WITH
  26:.\Generated_Source\PSoC4/capsense_Tuner.c **** * REGARD TO THIS MATERIAL, INCLUDING, BUT NOT LIMITED TO, THE IMPLIED
  27:.\Generated_Source\PSoC4/capsense_Tuner.c **** * WARRANTIES OF MERCHANTABILITY AND FITNESS FOR A PARTICULAR PURPOSE.
  28:.\Generated_Source\PSoC4/capsense_Tuner.c **** * Cypress reserves the right to make changes without further notice to the
  29:.\Generated_Source\PSoC4/capsense_Tuner.c **** * materials described herein. Cypress does not assume any liability arising out
  30:.\Generated_Source\PSoC4/capsense_Tuner.c **** * of the application or use of any product or circuit described herein. Cypress
  31:.\Generated_Source\PSoC4/capsense_Tuner.c **** * does not authorize its products for use as critical components in life-support
  32:.\Generated_Source\PSoC4/capsense_Tuner.c **** * systems where a malfunction or failure may reasonably be expected to result in
ARM GAS  C:\Users\Alan\AppData\Local\Temp\ccdSf0Pi.s 			page 2


  33:.\Generated_Source\PSoC4/capsense_Tuner.c **** * significant injury to the user. The inclusion of Cypress' product in a life-
  34:.\Generated_Source\PSoC4/capsense_Tuner.c **** * support systems application implies that the manufacturer assumes all risk of
  35:.\Generated_Source\PSoC4/capsense_Tuner.c **** * such use and in doing so indemnifies Cypress against all charges. Use may be
  36:.\Generated_Source\PSoC4/capsense_Tuner.c **** * limited by and subject to the applicable Cypress software license agreement.
  37:.\Generated_Source\PSoC4/capsense_Tuner.c **** *******************************************************************************/
  38:.\Generated_Source\PSoC4/capsense_Tuner.c **** 
  39:.\Generated_Source\PSoC4/capsense_Tuner.c **** #include "cytypes.h"
  40:.\Generated_Source\PSoC4/capsense_Tuner.c **** #include "CyLib.h"
  41:.\Generated_Source\PSoC4/capsense_Tuner.c **** #include "capsense_Structure.h"
  42:.\Generated_Source\PSoC4/capsense_Tuner.c **** #include "capsense_Tuner.h"
  43:.\Generated_Source\PSoC4/capsense_Tuner.c **** #include "capsense_Control.h"
  44:.\Generated_Source\PSoC4/capsense_Tuner.c **** 
  45:.\Generated_Source\PSoC4/capsense_Tuner.c **** /* Tuner states definition */
  46:.\Generated_Source\PSoC4/capsense_Tuner.c **** #define TU_FSM_RUNNING      (0u)
  47:.\Generated_Source\PSoC4/capsense_Tuner.c **** #define TU_FSM_SUSPENDED    (1u)
  48:.\Generated_Source\PSoC4/capsense_Tuner.c **** #define TU_FSM_SNR_TEST     (2u)
  49:.\Generated_Source\PSoC4/capsense_Tuner.c **** 
  50:.\Generated_Source\PSoC4/capsense_Tuner.c **** /* Tuner state variable */
  51:.\Generated_Source\PSoC4/capsense_Tuner.c **** static uint32 tunerFsm = TU_FSM_RUNNING;
  52:.\Generated_Source\PSoC4/capsense_Tuner.c **** 
  53:.\Generated_Source\PSoC4/capsense_Tuner.c **** 
  54:.\Generated_Source\PSoC4/capsense_Tuner.c **** /*******************************************************************************
  55:.\Generated_Source\PSoC4/capsense_Tuner.c **** * Function Name: capsense_TuInitialize
  56:.\Generated_Source\PSoC4/capsense_Tuner.c **** ****************************************************************************//**
  57:.\Generated_Source\PSoC4/capsense_Tuner.c **** *
  58:.\Generated_Source\PSoC4/capsense_Tuner.c **** * \brief
  59:.\Generated_Source\PSoC4/capsense_Tuner.c **** *   This function initializes the communication interface with the Tuner GUI.
  60:.\Generated_Source\PSoC4/capsense_Tuner.c **** *
  61:.\Generated_Source\PSoC4/capsense_Tuner.c **** * \details
  62:.\Generated_Source\PSoC4/capsense_Tuner.c **** *   This API sets the tuner state machine to the default state. It is called by
  63:.\Generated_Source\PSoC4/capsense_Tuner.c **** *   the capsense_Start() API.
  64:.\Generated_Source\PSoC4/capsense_Tuner.c **** *
  65:.\Generated_Source\PSoC4/capsense_Tuner.c **** *******************************************************************************/
  66:.\Generated_Source\PSoC4/capsense_Tuner.c **** void capsense_TuInitialize(void)
  67:.\Generated_Source\PSoC4/capsense_Tuner.c **** {
  26              		.loc 1 67 0
  27              		.cfi_startproc
  28              	.LVL0:
  68:.\Generated_Source\PSoC4/capsense_Tuner.c ****     volatile capsense_RAM_STRUCT *ptrDsRam = &capsense_dsRam;
  69:.\Generated_Source\PSoC4/capsense_Tuner.c ****     
  70:.\Generated_Source\PSoC4/capsense_Tuner.c ****     ptrDsRam->tunerCmd = (uint16)capsense_TU_CMD_NONE_E;
  29              		.loc 1 70 0
  30 0000 0023     		mov	r3, #0
  31 0002 024A     		ldr	r2, .L2
  32 0004 9380     		strh	r3, [r2, #4]
  71:.\Generated_Source\PSoC4/capsense_Tuner.c ****     tunerFsm = TU_FSM_RUNNING;
  33              		.loc 1 71 0
  34 0006 024A     		ldr	r2, .L2+4
  35 0008 1360     		str	r3, [r2]
  72:.\Generated_Source\PSoC4/capsense_Tuner.c **** }
  36              		.loc 1 72 0
  37              		@ sp needed
  38 000a 7047     		bx	lr
  39              	.L3:
  40              		.align	2
  41              	.L2:
  42 000c 00000000 		.word	capsense_dsRam
ARM GAS  C:\Users\Alan\AppData\Local\Temp\ccdSf0Pi.s 			page 3


  43 0010 00000000 		.word	.LANCHOR0
  44              		.cfi_endproc
  45              	.LFE1:
  46              		.size	capsense_TuInitialize, .-capsense_TuInitialize
  47              		.section	.text.capsense_RunTuner,"ax",%progbits
  48              		.align	2
  49              		.global	capsense_RunTuner
  50              		.code	16
  51              		.thumb_func
  52              		.type	capsense_RunTuner, %function
  53              	capsense_RunTuner:
  54              	.LFB2:
  73:.\Generated_Source\PSoC4/capsense_Tuner.c **** 
  74:.\Generated_Source\PSoC4/capsense_Tuner.c **** /*******************************************************************************
  75:.\Generated_Source\PSoC4/capsense_Tuner.c **** * Function Name: capsense_RunTuner
  76:.\Generated_Source\PSoC4/capsense_Tuner.c **** ****************************************************************************//**
  77:.\Generated_Source\PSoC4/capsense_Tuner.c **** *
  78:.\Generated_Source\PSoC4/capsense_Tuner.c **** * \brief
  79:.\Generated_Source\PSoC4/capsense_Tuner.c **** *   This function should be called to establish synchronized communication
  80:.\Generated_Source\PSoC4/capsense_Tuner.c **** *   with the Tuner application.
  81:.\Generated_Source\PSoC4/capsense_Tuner.c **** *
  82:.\Generated_Source\PSoC4/capsense_Tuner.c **** * \details
  83:.\Generated_Source\PSoC4/capsense_Tuner.c **** *   This API should be periodically called by the application layer to service
  84:.\Generated_Source\PSoC4/capsense_Tuner.c **** *   the host requests in the command register.
  85:.\Generated_Source\PSoC4/capsense_Tuner.c **** *
  86:.\Generated_Source\PSoC4/capsense_Tuner.c **** *   This API blocks the CPU if the host sends the "Suspend" command. The 
  87:.\Generated_Source\PSoC4/capsense_Tuner.c **** *   execution is suspended until any different command is sent by the host.
  88:.\Generated_Source\PSoC4/capsense_Tuner.c **** *
  89:.\Generated_Source\PSoC4/capsense_Tuner.c **** *   If the SNR TEST mode is initiated by the host, this API copies the
  90:.\Generated_Source\PSoC4/capsense_Tuner.c **** *   raw count data of the widget indicated in the snrTestWidgetId and
  91:.\Generated_Source\PSoC4/capsense_Tuner.c **** *   snrTestSensorId registers into the snrTestRawCount register.
  92:.\Generated_Source\PSoC4/capsense_Tuner.c **** *
  93:.\Generated_Source\PSoC4/capsense_Tuner.c **** *   This API calls the capsense_Start() function every  if restart
  94:.\Generated_Source\PSoC4/capsense_Tuner.c **** *   command is received from a host.
  95:.\Generated_Source\PSoC4/capsense_Tuner.c **** *
  96:.\Generated_Source\PSoC4/capsense_Tuner.c **** * \return
  97:.\Generated_Source\PSoC4/capsense_Tuner.c **** *   Indicates if restart command was executed or not: \n
  98:.\Generated_Source\PSoC4/capsense_Tuner.c **** *   capsense_TU_STS_NONE restart was no performed \n
  99:.\Generated_Source\PSoC4/capsense_Tuner.c **** *   capsense_TU_STS_RESTART_DONE restart was done by calling 
 100:.\Generated_Source\PSoC4/capsense_Tuner.c **** *   capsense_Start() API
 101:.\Generated_Source\PSoC4/capsense_Tuner.c **** *
 102:.\Generated_Source\PSoC4/capsense_Tuner.c **** *******************************************************************************/
 103:.\Generated_Source\PSoC4/capsense_Tuner.c **** uint32 capsense_RunTuner(void)
 104:.\Generated_Source\PSoC4/capsense_Tuner.c **** {
  55              		.loc 1 104 0
  56              		.cfi_startproc
  57 0000 38B5     		push	{r3, r4, r5, lr}
  58              		.cfi_def_cfa_offset 16
  59              		.cfi_offset 3, -16
  60              		.cfi_offset 4, -12
  61              		.cfi_offset 5, -8
  62              		.cfi_offset 14, -4
  63              	.LVL1:
 105:.\Generated_Source\PSoC4/capsense_Tuner.c ****     uint8  critSect;
 106:.\Generated_Source\PSoC4/capsense_Tuner.c ****     uint32 widgetId;
 107:.\Generated_Source\PSoC4/capsense_Tuner.c ****     uint32 sensorId;
 108:.\Generated_Source\PSoC4/capsense_Tuner.c ****     uint32 updateFlag = 0Lu;
ARM GAS  C:\Users\Alan\AppData\Local\Temp\ccdSf0Pi.s 			page 4


 109:.\Generated_Source\PSoC4/capsense_Tuner.c ****     capsense_TU_CMD_ENUM command;
 110:.\Generated_Source\PSoC4/capsense_Tuner.c ****     uint32 status = capsense_TU_STS_NONE;
  64              		.loc 1 110 0
  65 0002 0025     		mov	r5, #0
 108:.\Generated_Source\PSoC4/capsense_Tuner.c ****     capsense_TU_CMD_ENUM command;
  66              		.loc 1 108 0
  67 0004 0022     		mov	r2, #0
  68              	.LVL2:
  69              	.L14:
 111:.\Generated_Source\PSoC4/capsense_Tuner.c ****     
 112:.\Generated_Source\PSoC4/capsense_Tuner.c ****     volatile capsense_RAM_STRUCT *ptrDsRam;
 113:.\Generated_Source\PSoC4/capsense_Tuner.c ****     volatile capsense_RAM_SNS_STRUCT *ptrSns;
 114:.\Generated_Source\PSoC4/capsense_Tuner.c ****     
 115:.\Generated_Source\PSoC4/capsense_Tuner.c ****     ptrDsRam = &capsense_dsRam;
 116:.\Generated_Source\PSoC4/capsense_Tuner.c ****     
 117:.\Generated_Source\PSoC4/capsense_Tuner.c ****     do 
 118:.\Generated_Source\PSoC4/capsense_Tuner.c ****     {
 119:.\Generated_Source\PSoC4/capsense_Tuner.c ****         command = (capsense_TU_CMD_ENUM)ptrDsRam->tunerCmd;
  70              		.loc 1 119 0
  71 0006 344B     		ldr	r3, .L17
  72 0008 9C88     		ldrh	r4, [r3, #4]
  73 000a E4B2     		uxtb	r4, r4
  74              	.LVL3:
 120:.\Generated_Source\PSoC4/capsense_Tuner.c ****         
 121:.\Generated_Source\PSoC4/capsense_Tuner.c ****         /* Check command register */
 122:.\Generated_Source\PSoC4/capsense_Tuner.c ****         switch (command)
  75              		.loc 1 122 0
  76 000c 052C     		cmp	r4, #5
  77 000e 1AD8     		bhi	.L11
  78 0010 A300     		lsl	r3, r4, #2
  79 0012 3249     		ldr	r1, .L17+4
  80 0014 CB58     		ldr	r3, [r1, r3]
  81 0016 9F46     		mov	pc, r3
  82              		.section	.rodata
  83              		.align	2
  84              	.L7:
  85 0000 46000000 		.word	.L11
  86 0004 18000000 		.word	.L6
  87 0008 20000000 		.word	.L8
  88 000c 2A000000 		.word	.L9
  89 0010 3A000000 		.word	.L10
  90 0014 44000000 		.word	.L16
  91              		.section	.text.capsense_RunTuner
  92              	.L6:
 123:.\Generated_Source\PSoC4/capsense_Tuner.c ****         {
 124:.\Generated_Source\PSoC4/capsense_Tuner.c ****         case capsense_TU_CMD_SUSPEND_E:
 125:.\Generated_Source\PSoC4/capsense_Tuner.c ****             tunerFsm = TU_FSM_SUSPENDED;
  93              		.loc 1 125 0
  94 0018 0122     		mov	r2, #1
  95              	.LVL4:
  96 001a 314B     		ldr	r3, .L17+8
  97 001c 1A60     		str	r2, [r3]
  98              	.LVL5:
 126:.\Generated_Source\PSoC4/capsense_Tuner.c ****             updateFlag = 1Lu;
 127:.\Generated_Source\PSoC4/capsense_Tuner.c ****             break;
  99              		.loc 1 127 0
 100 001e 12E0     		b	.L11
ARM GAS  C:\Users\Alan\AppData\Local\Temp\ccdSf0Pi.s 			page 5


 101              	.LVL6:
 102              	.L8:
 128:.\Generated_Source\PSoC4/capsense_Tuner.c ****             
 129:.\Generated_Source\PSoC4/capsense_Tuner.c ****         case capsense_TU_CMD_RESUME_E:    
 130:.\Generated_Source\PSoC4/capsense_Tuner.c ****             tunerFsm = TU_FSM_RUNNING;
 103              		.loc 1 130 0
 104 0020 0022     		mov	r2, #0
 105              	.LVL7:
 106 0022 2F4B     		ldr	r3, .L17+8
 107 0024 1A60     		str	r2, [r3]
 108              	.LVL8:
 131:.\Generated_Source\PSoC4/capsense_Tuner.c ****             updateFlag = 1Lu;
 109              		.loc 1 131 0
 110 0026 0132     		add	r2, r2, #1
 132:.\Generated_Source\PSoC4/capsense_Tuner.c ****             break;
 111              		.loc 1 132 0
 112 0028 0DE0     		b	.L11
 113              	.LVL9:
 114              	.L9:
 133:.\Generated_Source\PSoC4/capsense_Tuner.c ****             
 134:.\Generated_Source\PSoC4/capsense_Tuner.c ****         case capsense_TU_CMD_RESTART_E:
 135:.\Generated_Source\PSoC4/capsense_Tuner.c ****             (void)capsense_Start();
 115              		.loc 1 135 0
 116 002a FFF7FEFF 		bl	capsense_Start
 117              	.LVL10:
 136:.\Generated_Source\PSoC4/capsense_Tuner.c ****             status = capsense_TU_STS_RESTART_DONE;
 137:.\Generated_Source\PSoC4/capsense_Tuner.c ****             tunerFsm = TU_FSM_RUNNING;
 118              		.loc 1 137 0
 119 002e 0022     		mov	r2, #0
 120 0030 2B4B     		ldr	r3, .L17+8
 121 0032 1A60     		str	r2, [r3]
 122              	.LVL11:
 136:.\Generated_Source\PSoC4/capsense_Tuner.c ****             status = capsense_TU_STS_RESTART_DONE;
 123              		.loc 1 136 0
 124 0034 0125     		mov	r5, #1
 138:.\Generated_Source\PSoC4/capsense_Tuner.c ****             updateFlag = 1Lu;
 125              		.loc 1 138 0
 126 0036 0132     		add	r2, r2, #1
 139:.\Generated_Source\PSoC4/capsense_Tuner.c ****             break;
 127              		.loc 1 139 0
 128 0038 05E0     		b	.L11
 129              	.LVL12:
 130              	.L10:
 140:.\Generated_Source\PSoC4/capsense_Tuner.c ****             
 141:.\Generated_Source\PSoC4/capsense_Tuner.c ****         case capsense_TU_CMD_RUN_SNR_TEST_E:
 142:.\Generated_Source\PSoC4/capsense_Tuner.c ****             tunerFsm = TU_FSM_SNR_TEST;
 131              		.loc 1 142 0
 132 003a 0222     		mov	r2, #2
 133              	.LVL13:
 134 003c 284B     		ldr	r3, .L17+8
 135 003e 1A60     		str	r2, [r3]
 136              	.LVL14:
 143:.\Generated_Source\PSoC4/capsense_Tuner.c ****             updateFlag = 1Lu;
 137              		.loc 1 143 0
 138 0040 013A     		sub	r2, r2, #1
 144:.\Generated_Source\PSoC4/capsense_Tuner.c ****             break;
 139              		.loc 1 144 0
ARM GAS  C:\Users\Alan\AppData\Local\Temp\ccdSf0Pi.s 			page 6


 140 0042 00E0     		b	.L11
 141              	.LVL15:
 142              	.L16:
 145:.\Generated_Source\PSoC4/capsense_Tuner.c ****             
 146:.\Generated_Source\PSoC4/capsense_Tuner.c ****         case capsense_TU_CMD_PING_E:
 147:.\Generated_Source\PSoC4/capsense_Tuner.c ****             updateFlag = 1Lu;
 143              		.loc 1 147 0
 144 0044 0122     		mov	r2, #1
 145              	.LVL16:
 146              	.L11:
 148:.\Generated_Source\PSoC4/capsense_Tuner.c ****             break;
 149:.\Generated_Source\PSoC4/capsense_Tuner.c ****             
 150:.\Generated_Source\PSoC4/capsense_Tuner.c ****         default:
 151:.\Generated_Source\PSoC4/capsense_Tuner.c ****             break;
 152:.\Generated_Source\PSoC4/capsense_Tuner.c ****         }
 153:.\Generated_Source\PSoC4/capsense_Tuner.c ****         
 154:.\Generated_Source\PSoC4/capsense_Tuner.c ****         /* Set Complete flag in command register if needed */
 155:.\Generated_Source\PSoC4/capsense_Tuner.c ****         if (0Lu != updateFlag)
 147              		.loc 1 155 0
 148 0046 002A     		cmp	r2, #0
 149 0048 0FD0     		beq	.L12
 156:.\Generated_Source\PSoC4/capsense_Tuner.c ****         {
 157:.\Generated_Source\PSoC4/capsense_Tuner.c ****             critSect = CyEnterCriticalSection();
 150              		.loc 1 157 0
 151 004a FFF7FEFF 		bl	CyEnterCriticalSection
 152              	.LVL17:
 158:.\Generated_Source\PSoC4/capsense_Tuner.c ****             
 159:.\Generated_Source\PSoC4/capsense_Tuner.c ****             /* Check if command wasn't overwritten with new command */
 160:.\Generated_Source\PSoC4/capsense_Tuner.c ****             if (command == (capsense_TU_CMD_ENUM)ptrDsRam->tunerCmd)
 153              		.loc 1 160 0
 154 004e 224B     		ldr	r3, .L17
 155 0050 9B88     		ldrh	r3, [r3, #4]
 156 0052 DBB2     		uxtb	r3, r3
 157 0054 A342     		cmp	r3, r4
 158 0056 05D1     		bne	.L13
 161:.\Generated_Source\PSoC4/capsense_Tuner.c ****             {
 162:.\Generated_Source\PSoC4/capsense_Tuner.c ****                 ptrDsRam->tunerCmd |= capsense_TU_CMD_COMPLETE_BIT;
 159              		.loc 1 162 0
 160 0058 1F4A     		ldr	r2, .L17
 161 005a 9188     		ldrh	r1, [r2, #4]
 162 005c 8023     		mov	r3, #128
 163 005e 1B02     		lsl	r3, r3, #8
 164 0060 0B43     		orr	r3, r1
 165 0062 9380     		strh	r3, [r2, #4]
 166              	.L13:
 163:.\Generated_Source\PSoC4/capsense_Tuner.c ****             }
 164:.\Generated_Source\PSoC4/capsense_Tuner.c ****             CyExitCriticalSection(critSect);
 167              		.loc 1 164 0
 168 0064 FFF7FEFF 		bl	CyExitCriticalSection
 169              	.LVL18:
 165:.\Generated_Source\PSoC4/capsense_Tuner.c ****             
 166:.\Generated_Source\PSoC4/capsense_Tuner.c ****             updateFlag = 0Lu;
 170              		.loc 1 166 0
 171 0068 0022     		mov	r2, #0
 172              	.LVL19:
 173              	.L12:
 167:.\Generated_Source\PSoC4/capsense_Tuner.c ****         }
ARM GAS  C:\Users\Alan\AppData\Local\Temp\ccdSf0Pi.s 			page 7


 168:.\Generated_Source\PSoC4/capsense_Tuner.c ****     } while (TU_FSM_SUSPENDED == tunerFsm);
 174              		.loc 1 168 0
 175 006a 1D4B     		ldr	r3, .L17+8
 176 006c 1B68     		ldr	r3, [r3]
 177 006e 012B     		cmp	r3, #1
 178 0070 C9D0     		beq	.L14
 169:.\Generated_Source\PSoC4/capsense_Tuner.c **** 
 170:.\Generated_Source\PSoC4/capsense_Tuner.c ****     /* Check for SNR Test mode and do appropriate actions */
 171:.\Generated_Source\PSoC4/capsense_Tuner.c ****     if (TU_FSM_SNR_TEST == tunerFsm)
 179              		.loc 1 171 0
 180 0072 022B     		cmp	r3, #2
 181 0074 2ED1     		bne	.L15
 172:.\Generated_Source\PSoC4/capsense_Tuner.c ****     {
 173:.\Generated_Source\PSoC4/capsense_Tuner.c ****         widgetId = ptrDsRam->snrTestWidgetId;
 182              		.loc 1 173 0
 183 0076 184A     		ldr	r2, .L17
 184              	.LVL20:
 185 0078 5C33     		add	r3, r3, #92
 186 007a D35C     		ldrb	r3, [r2, r3]
 187 007c DBB2     		uxtb	r3, r3
 188              	.LVL21:
 174:.\Generated_Source\PSoC4/capsense_Tuner.c ****         sensorId = ptrDsRam->snrTestSensorId;
 189              		.loc 1 174 0
 190 007e 5F21     		mov	r1, #95
 191 0080 525C     		ldrb	r2, [r2, r1]
 192 0082 D2B2     		uxtb	r2, r2
 193              	.LVL22:
 175:.\Generated_Source\PSoC4/capsense_Tuner.c ****         
 176:.\Generated_Source\PSoC4/capsense_Tuner.c ****         /* Check if widgetId and sensorId are in range, 
 177:.\Generated_Source\PSoC4/capsense_Tuner.c ****          * and data was updated in RAM (scan counter changed) 
 178:.\Generated_Source\PSoC4/capsense_Tuner.c ****          */
 179:.\Generated_Source\PSoC4/capsense_Tuner.c ****         if ((widgetId < capsense_TOTAL_WIDGETS)              && 
 194              		.loc 1 179 0
 195 0084 002B     		cmp	r3, #0
 196 0086 25D1     		bne	.L15
 180:.\Generated_Source\PSoC4/capsense_Tuner.c ****             (sensorId < capsense_GET_SENSOR_COUNT(widgetId)) &&
 197              		.loc 1 180 0 discriminator 1
 198 0088 9900     		lsl	r1, r3, #2
 199 008a C918     		add	r1, r1, r3
 200 008c C900     		lsl	r1, r1, #3
 201 008e 1548     		ldr	r0, .L17+12
 202 0090 4118     		add	r1, r0, r1
 203 0092 C98A     		ldrh	r1, [r1, #22]
 179:.\Generated_Source\PSoC4/capsense_Tuner.c ****             (sensorId < capsense_GET_SENSOR_COUNT(widgetId)) &&
 204              		.loc 1 179 0 discriminator 1
 205 0094 9142     		cmp	r1, r2
 206 0096 1DD9     		bls	.L15
 181:.\Generated_Source\PSoC4/capsense_Tuner.c ****             (ptrDsRam->scanCounter != ptrDsRam->snrTestScanCounter))
 207              		.loc 1 181 0
 208 0098 0F48     		ldr	r0, .L17
 209 009a C188     		ldrh	r1, [r0, #6]
 210 009c 6024     		mov	r4, #96
 211              	.LVL23:
 212 009e 005B     		ldrh	r0, [r0, r4]
 213 00a0 89B2     		uxth	r1, r1
 180:.\Generated_Source\PSoC4/capsense_Tuner.c ****             (sensorId < capsense_GET_SENSOR_COUNT(widgetId)) &&
 214              		.loc 1 180 0
ARM GAS  C:\Users\Alan\AppData\Local\Temp\ccdSf0Pi.s 			page 8


 215 00a2 8142     		cmp	r1, r0
 216 00a4 16D0     		beq	.L15
 182:.\Generated_Source\PSoC4/capsense_Tuner.c ****         {
 183:.\Generated_Source\PSoC4/capsense_Tuner.c ****             /* Get access to the Sensor Object */
 184:.\Generated_Source\PSoC4/capsense_Tuner.c ****             ptrSns = capsense_dsFlash.wdgtArray[widgetId].ptr2SnsRam;
 217              		.loc 1 184 0
 218 00a6 9900     		lsl	r1, r3, #2
 219 00a8 CB18     		add	r3, r1, r3
 220              	.LVL24:
 221 00aa DB00     		lsl	r3, r3, #3
 222 00ac 0D49     		ldr	r1, .L17+12
 223 00ae CB18     		add	r3, r1, r3
 224 00b0 9C68     		ldr	r4, [r3, #8]
 225              	.LVL25:
 185:.\Generated_Source\PSoC4/capsense_Tuner.c ****             ptrSns += sensorId;
 226              		.loc 1 185 0
 227 00b2 9300     		lsl	r3, r2, #2
 228 00b4 9A18     		add	r2, r3, r2
 229              	.LVL26:
 230 00b6 5200     		lsl	r2, r2, #1
 231 00b8 A418     		add	r4, r4, r2
 232              	.LVL27:
 186:.\Generated_Source\PSoC4/capsense_Tuner.c ****             
 187:.\Generated_Source\PSoC4/capsense_Tuner.c ****             /* Update data in SNR Test Object */
 188:.\Generated_Source\PSoC4/capsense_Tuner.c ****             critSect = CyEnterCriticalSection();
 233              		.loc 1 188 0
 234 00ba FFF7FEFF 		bl	CyEnterCriticalSection
 235              	.LVL28:
 189:.\Generated_Source\PSoC4/capsense_Tuner.c ****             ptrDsRam->snrTestScanCounter = ptrDsRam->scanCounter;
 236              		.loc 1 189 0
 237 00be 064B     		ldr	r3, .L17
 238 00c0 DA88     		ldrh	r2, [r3, #6]
 239 00c2 92B2     		uxth	r2, r2
 240 00c4 6021     		mov	r1, #96
 241 00c6 5A52     		strh	r2, [r3, r1]
 190:.\Generated_Source\PSoC4/capsense_Tuner.c ****             ptrDsRam->snrTestRawCount[0u] = ptrSns->raw[0u];
 242              		.loc 1 190 0
 243 00c8 2288     		ldrh	r2, [r4]
 244 00ca 92B2     		uxth	r2, r2
 245 00cc 0231     		add	r1, r1, #2
 246 00ce 5A52     		strh	r2, [r3, r1]
 191:.\Generated_Source\PSoC4/capsense_Tuner.c ****             
 192:.\Generated_Source\PSoC4/capsense_Tuner.c ****             #if (0u != capsense_MULTI_FREQ_SCAN_EN)
 193:.\Generated_Source\PSoC4/capsense_Tuner.c ****                 ptrDsRam->snrTestRawCount[1u] = ptrSns->raw[1u];
 194:.\Generated_Source\PSoC4/capsense_Tuner.c ****                 ptrDsRam->snrTestRawCount[2u] = ptrSns->raw[2u];
 195:.\Generated_Source\PSoC4/capsense_Tuner.c ****             #endif
 196:.\Generated_Source\PSoC4/capsense_Tuner.c ****             
 197:.\Generated_Source\PSoC4/capsense_Tuner.c ****             CyExitCriticalSection(critSect);
 247              		.loc 1 197 0
 248 00d0 FFF7FEFF 		bl	CyExitCriticalSection
 249              	.LVL29:
 250              	.L15:
 198:.\Generated_Source\PSoC4/capsense_Tuner.c ****         } 
 199:.\Generated_Source\PSoC4/capsense_Tuner.c ****     }
 200:.\Generated_Source\PSoC4/capsense_Tuner.c ****     return status;
 201:.\Generated_Source\PSoC4/capsense_Tuner.c **** }
 251              		.loc 1 201 0
ARM GAS  C:\Users\Alan\AppData\Local\Temp\ccdSf0Pi.s 			page 9


 252 00d4 281C     		mov	r0, r5
 253              		@ sp needed
 254              	.LVL30:
 255 00d6 38BD     		pop	{r3, r4, r5, pc}
 256              	.L18:
 257              		.align	2
 258              	.L17:
 259 00d8 00000000 		.word	capsense_dsRam
 260 00dc 00000000 		.word	.L7
 261 00e0 00000000 		.word	.LANCHOR0
 262 00e4 00000000 		.word	capsense_dsFlash
 263              		.cfi_endproc
 264              	.LFE2:
 265              		.size	capsense_RunTuner, .-capsense_RunTuner
 266              		.bss
 267              		.align	2
 268              		.set	.LANCHOR0,. + 0
 269              		.type	tunerFsm, %object
 270              		.size	tunerFsm, 4
 271              	tunerFsm:
 272 0000 00000000 		.space	4
 273              		.text
 274              	.Letext0:
 275              		.file 2 ".\\Generated_Source\\PSoC4\\cytypes.h"
 276              		.file 3 ".\\Generated_Source\\PSoC4\\capsense_Configuration.h"
 277              		.file 4 ".\\Generated_Source\\PSoC4\\capsense_SmartSense_LL.h"
 278              		.file 5 ".\\Generated_Source\\PSoC4\\capsense_Structure.h"
 279              		.file 6 ".\\Generated_Source\\PSoC4\\capsense_Tuner.h"
 280              		.file 7 ".\\Generated_Source\\PSoC4\\capsense_Control.h"
 281              		.file 8 ".\\Generated_Source\\PSoC4\\CyLib.h"