ARM GAS  C:\Users\Alan\AppData\Local\Temp\cckMaArW.s 			page 1


   1              		.cpu cortex-m0plus
   2              		.fpu softvfp
   3              		.eabi_attribute 20, 1
   4              		.eabi_attribute 21, 1
   5              		.eabi_attribute 23, 3
   6              		.eabi_attribute 24, 1
   7              		.eabi_attribute 25, 1
   8              		.eabi_attribute 26, 1
   9              		.eabi_attribute 30, 1
  10              		.eabi_attribute 34, 0
  11              		.eabi_attribute 18, 4
  12              		.code	16
  13              		.file	"capsense_Structure.c"
  14              		.text
  15              	.Ltext0:
  16              		.cfi_sections	.debug_frame
  17              		.section	.text.DsParseParamId,"ax",%progbits
  18              		.align	2
  19              		.code	16
  20              		.thumb_func
  21              		.type	DsParseParamId, %function
  22              	DsParseParamId:
  23              	.LFB2:
  24              		.file 1 ".\\Generated_Source\\PSoC4\\capsense_Structure.c"
   1:.\Generated_Source\PSoC4/capsense_Structure.c **** /***************************************************************************//**
   2:.\Generated_Source\PSoC4/capsense_Structure.c **** * \file capsense_Structure.c
   3:.\Generated_Source\PSoC4/capsense_Structure.c **** * \version 3.0
   4:.\Generated_Source\PSoC4/capsense_Structure.c **** *
   5:.\Generated_Source\PSoC4/capsense_Structure.c **** * \brief
   6:.\Generated_Source\PSoC4/capsense_Structure.c **** *   This file defines the data structure global variables and provides implementation
   7:.\Generated_Source\PSoC4/capsense_Structure.c **** *   for the high-level and low-level APIs of the Data Structure module.
   8:.\Generated_Source\PSoC4/capsense_Structure.c **** *
   9:.\Generated_Source\PSoC4/capsense_Structure.c **** * \see CapSense P4 v3.0 Datasheet
  10:.\Generated_Source\PSoC4/capsense_Structure.c **** *
  11:.\Generated_Source\PSoC4/capsense_Structure.c **** *//*****************************************************************************
  12:.\Generated_Source\PSoC4/capsense_Structure.c **** * Copyright (2016), Cypress Semiconductor Corporation.
  13:.\Generated_Source\PSoC4/capsense_Structure.c **** ********************************************************************************
  14:.\Generated_Source\PSoC4/capsense_Structure.c **** * This software is owned by Cypress Semiconductor Corporation (Cypress) and is
  15:.\Generated_Source\PSoC4/capsense_Structure.c **** * protected by and subject to worldwide patent protection (United States and
  16:.\Generated_Source\PSoC4/capsense_Structure.c **** * foreign), United States copyright laws and international treaty provisions.
  17:.\Generated_Source\PSoC4/capsense_Structure.c **** * Cypress hereby grants to licensee a personal, non-exclusive, non-transferable
  18:.\Generated_Source\PSoC4/capsense_Structure.c **** * license to copy, use, modify, create derivative works of, and compile the
  19:.\Generated_Source\PSoC4/capsense_Structure.c **** * Cypress Source Code and derivative works for the sole purpose of creating
  20:.\Generated_Source\PSoC4/capsense_Structure.c **** * custom software in support of licensee product to be used only in conjunction
  21:.\Generated_Source\PSoC4/capsense_Structure.c **** * with a Cypress integrated circuit as specified in the applicable agreement.
  22:.\Generated_Source\PSoC4/capsense_Structure.c **** * Any reproduction, modification, translation, compilation, or representation of
  23:.\Generated_Source\PSoC4/capsense_Structure.c **** * this software except as specified above is prohibited without the express
  24:.\Generated_Source\PSoC4/capsense_Structure.c **** * written permission of Cypress.
  25:.\Generated_Source\PSoC4/capsense_Structure.c **** *
  26:.\Generated_Source\PSoC4/capsense_Structure.c **** * Disclaimer: CYPRESS MAKES NO WARRANTY OF ANY KIND, EXPRESS OR IMPLIED, WITH
  27:.\Generated_Source\PSoC4/capsense_Structure.c **** * REGARD TO THIS MATERIAL, INCLUDING, BUT NOT LIMITED TO, THE IMPLIED
  28:.\Generated_Source\PSoC4/capsense_Structure.c **** * WARRANTIES OF MERCHANTABILITY AND FITNESS FOR A PARTICULAR PURPOSE.
  29:.\Generated_Source\PSoC4/capsense_Structure.c **** * Cypress reserves the right to make changes without further notice to the
  30:.\Generated_Source\PSoC4/capsense_Structure.c **** * materials described herein. Cypress does not assume any liability arising out
  31:.\Generated_Source\PSoC4/capsense_Structure.c **** * of the application or use of any product or circuit described herein. Cypress
  32:.\Generated_Source\PSoC4/capsense_Structure.c **** * does not authorize its products for use as critical components in life-support
  33:.\Generated_Source\PSoC4/capsense_Structure.c **** * systems where a malfunction or failure may reasonably be expected to result in
ARM GAS  C:\Users\Alan\AppData\Local\Temp\cckMaArW.s 			page 2


  34:.\Generated_Source\PSoC4/capsense_Structure.c **** * significant injury to the user. The inclusion of Cypress' product in a life-
  35:.\Generated_Source\PSoC4/capsense_Structure.c **** * support systems application implies that the manufacturer assumes all risk of
  36:.\Generated_Source\PSoC4/capsense_Structure.c **** * such use and in doing so indemnifies Cypress against all charges. Use may be
  37:.\Generated_Source\PSoC4/capsense_Structure.c **** * limited by and subject to the applicable Cypress software license agreement.
  38:.\Generated_Source\PSoC4/capsense_Structure.c **** *******************************************************************************/
  39:.\Generated_Source\PSoC4/capsense_Structure.c **** 
  40:.\Generated_Source\PSoC4/capsense_Structure.c **** #include <cytypes.h>
  41:.\Generated_Source\PSoC4/capsense_Structure.c **** #include "CyLib.h"
  42:.\Generated_Source\PSoC4/capsense_Structure.c **** #include "capsense_Structure.h"
  43:.\Generated_Source\PSoC4/capsense_Structure.c **** 
  44:.\Generated_Source\PSoC4/capsense_Structure.c **** #if (0u != capsense_ADC_EN)
  45:.\Generated_Source\PSoC4/capsense_Structure.c ****     #include "capsense_Adc.h"
  46:.\Generated_Source\PSoC4/capsense_Structure.c **** #endif /* (0u != capsense_ADC_EN) */
  47:.\Generated_Source\PSoC4/capsense_Structure.c **** 
  48:.\Generated_Source\PSoC4/capsense_Structure.c **** /*******************************************************************************
  49:.\Generated_Source\PSoC4/capsense_Structure.c **** * Define the RAM Data Structure variables and their init data in flash
  50:.\Generated_Source\PSoC4/capsense_Structure.c **** *******************************************************************************/
  51:.\Generated_Source\PSoC4/capsense_Structure.c **** /**
  52:.\Generated_Source\PSoC4/capsense_Structure.c **** * \if SECTION_GLOBAL_VARIABLES
  53:.\Generated_Source\PSoC4/capsense_Structure.c **** * \addtogroup group_global_variables
  54:.\Generated_Source\PSoC4/capsense_Structure.c **** * \{
  55:.\Generated_Source\PSoC4/capsense_Structure.c **** */
  56:.\Generated_Source\PSoC4/capsense_Structure.c **** 
  57:.\Generated_Source\PSoC4/capsense_Structure.c **** /**
  58:.\Generated_Source\PSoC4/capsense_Structure.c **** * Variable that contains CapSense configuration, settings and scanning results.
  59:.\Generated_Source\PSoC4/capsense_Structure.c **** * capsense_dsRam represents RAM Data Structure.
  60:.\Generated_Source\PSoC4/capsense_Structure.c **** */
  61:.\Generated_Source\PSoC4/capsense_Structure.c **** capsense_RAM_STRUCT capsense_dsRam;
  62:.\Generated_Source\PSoC4/capsense_Structure.c **** /** \}
  63:.\Generated_Source\PSoC4/capsense_Structure.c **** * \endif */
  64:.\Generated_Source\PSoC4/capsense_Structure.c **** 
  65:.\Generated_Source\PSoC4/capsense_Structure.c **** /*******************************************************************************
  66:.\Generated_Source\PSoC4/capsense_Structure.c **** * Declare Widget's De-bounce Counters
  67:.\Generated_Source\PSoC4/capsense_Structure.c **** *******************************************************************************/
  68:.\Generated_Source\PSoC4/capsense_Structure.c **** static uint8 capsense_debounceLinearSlider0[1u];
  69:.\Generated_Source\PSoC4/capsense_Structure.c **** 
  70:.\Generated_Source\PSoC4/capsense_Structure.c **** 
  71:.\Generated_Source\PSoC4/capsense_Structure.c **** /***************************************************************************//**
  72:.\Generated_Source\PSoC4/capsense_Structure.c **** * Declare Noise Envelope data structures
  73:.\Generated_Source\PSoC4/capsense_Structure.c **** *******************************************************************************/
  74:.\Generated_Source\PSoC4/capsense_Structure.c **** static SMARTSENSE_CSD_NOISE_ENVELOPE_STRUCT capsense_noiseEnvlpLinearSlider0[capsense_LINEARSLIDER0
  75:.\Generated_Source\PSoC4/capsense_Structure.c **** 
  76:.\Generated_Source\PSoC4/capsense_Structure.c **** /***************************************************************************//**
  77:.\Generated_Source\PSoC4/capsense_Structure.c **** * Centroid positions history
  78:.\Generated_Source\PSoC4/capsense_Structure.c **** *******************************************************************************/
  79:.\Generated_Source\PSoC4/capsense_Structure.c **** static capsense_SLIDER_POS_HISTORY_STRUCT capsense_posHistoryLinearSlider0[capsense_NUM_CENTROIDS];
  80:.\Generated_Source\PSoC4/capsense_Structure.c **** 
  81:.\Generated_Source\PSoC4/capsense_Structure.c **** /*******************************************************************************
  82:.\Generated_Source\PSoC4/capsense_Structure.c **** * Define and initialize the Flash Data Structure
  83:.\Generated_Source\PSoC4/capsense_Structure.c **** *******************************************************************************/
  84:.\Generated_Source\PSoC4/capsense_Structure.c **** 
  85:.\Generated_Source\PSoC4/capsense_Structure.c **** /**
  86:.\Generated_Source\PSoC4/capsense_Structure.c **** * \if SECTION_API_CONSTANTS
  87:.\Generated_Source\PSoC4/capsense_Structure.c **** * \addtogroup group_api_constants
  88:.\Generated_Source\PSoC4/capsense_Structure.c **** * \{
  89:.\Generated_Source\PSoC4/capsense_Structure.c **** */
  90:.\Generated_Source\PSoC4/capsense_Structure.c **** 
ARM GAS  C:\Users\Alan\AppData\Local\Temp\cckMaArW.s 			page 3


  91:.\Generated_Source\PSoC4/capsense_Structure.c **** /**
  92:.\Generated_Source\PSoC4/capsense_Structure.c **** * Constant for the FLASH Data Structure
  93:.\Generated_Source\PSoC4/capsense_Structure.c **** */
  94:.\Generated_Source\PSoC4/capsense_Structure.c **** const capsense_FLASH_STRUCT capsense_dsFlash =
  95:.\Generated_Source\PSoC4/capsense_Structure.c **** {
  96:.\Generated_Source\PSoC4/capsense_Structure.c ****     /* Flash Widget Initialization Data */
  97:.\Generated_Source\PSoC4/capsense_Structure.c ****     {
  98:.\Generated_Source\PSoC4/capsense_Structure.c ****         { /* LinearSlider0 */
  99:.\Generated_Source\PSoC4/capsense_Structure.c ****             &capsense_ioList[0u],
 100:.\Generated_Source\PSoC4/capsense_Structure.c ****             (void *)&capsense_dsRam.wdgtList.linearslider0,
 101:.\Generated_Source\PSoC4/capsense_Structure.c ****             capsense_dsRam.snsList.linearslider0,
 102:.\Generated_Source\PSoC4/capsense_Structure.c ****             (void *)0u,
 103:.\Generated_Source\PSoC4/capsense_Structure.c ****             capsense_debounceLinearSlider0,
 104:.\Generated_Source\PSoC4/capsense_Structure.c ****             capsense_LINEARSLIDER0_STATIC_CONFIG,
 105:.\Generated_Source\PSoC4/capsense_Structure.c ****             capsense_LINEARSLIDER0_NUM_SENSORS,
 106:.\Generated_Source\PSoC4/capsense_Structure.c ****             (uint8)capsense_WD_LINEAR_SLIDER_E,
 107:.\Generated_Source\PSoC4/capsense_Structure.c ****             capsense_LINEARSLIDER0_NUM_SENSORS,
 108:.\Generated_Source\PSoC4/capsense_Structure.c ****             capsense_LINEARSLIDER0_X_RESOLUTION,
 109:.\Generated_Source\PSoC4/capsense_Structure.c ****             capsense_LINEARSLIDER0_X_CENT_MULT,
 110:.\Generated_Source\PSoC4/capsense_Structure.c ****             capsense_noiseEnvlpLinearSlider0,
 111:.\Generated_Source\PSoC4/capsense_Structure.c ****             (void *)&capsense_posHistoryLinearSlider0,
 112:.\Generated_Source\PSoC4/capsense_Structure.c ****         },
 113:.\Generated_Source\PSoC4/capsense_Structure.c ****     },
 114:.\Generated_Source\PSoC4/capsense_Structure.c **** };
 115:.\Generated_Source\PSoC4/capsense_Structure.c **** 
 116:.\Generated_Source\PSoC4/capsense_Structure.c **** 
 117:.\Generated_Source\PSoC4/capsense_Structure.c **** /**
 118:.\Generated_Source\PSoC4/capsense_Structure.c **** * Array of pointers to the electrode specific register
 119:.\Generated_Source\PSoC4/capsense_Structure.c **** */
 120:.\Generated_Source\PSoC4/capsense_Structure.c **** const capsense_FLASH_IO_STRUCT capsense_ioList[capsense_TOTAL_ELECTRODES] =
 121:.\Generated_Source\PSoC4/capsense_Structure.c **** {
 122:.\Generated_Source\PSoC4/capsense_Structure.c ****     { /* 0: LinearSlider0_Sns0 */
 123:.\Generated_Source\PSoC4/capsense_Structure.c ****         (reg32 *)capsense_Sns__0__HSIOM,
 124:.\Generated_Source\PSoC4/capsense_Structure.c ****         (reg32 *)capsense_Sns__0__PC,
 125:.\Generated_Source\PSoC4/capsense_Structure.c ****         (reg32 *)capsense_Sns__0__DR,
 126:.\Generated_Source\PSoC4/capsense_Structure.c ****         (reg32 *)capsense_Sns__0__PS,
 127:.\Generated_Source\PSoC4/capsense_Structure.c ****         capsense_Sns__0__HSIOM_MASK,
 128:.\Generated_Source\PSoC4/capsense_Structure.c ****         capsense_Sns__0__MASK,
 129:.\Generated_Source\PSoC4/capsense_Structure.c ****         capsense_Sns__0__HSIOM_SHIFT,
 130:.\Generated_Source\PSoC4/capsense_Structure.c ****         (uint8)capsense_Sns__0__SHIFT,
 131:.\Generated_Source\PSoC4/capsense_Structure.c ****         (uint8)capsense_Sns__0__SHIFT * 3u,
 132:.\Generated_Source\PSoC4/capsense_Structure.c ****     },
 133:.\Generated_Source\PSoC4/capsense_Structure.c ****     { /* 1: LinearSlider0_Sns1 */
 134:.\Generated_Source\PSoC4/capsense_Structure.c ****         (reg32 *)capsense_Sns__1__HSIOM,
 135:.\Generated_Source\PSoC4/capsense_Structure.c ****         (reg32 *)capsense_Sns__1__PC,
 136:.\Generated_Source\PSoC4/capsense_Structure.c ****         (reg32 *)capsense_Sns__1__DR,
 137:.\Generated_Source\PSoC4/capsense_Structure.c ****         (reg32 *)capsense_Sns__1__PS,
 138:.\Generated_Source\PSoC4/capsense_Structure.c ****         capsense_Sns__1__HSIOM_MASK,
 139:.\Generated_Source\PSoC4/capsense_Structure.c ****         capsense_Sns__1__MASK,
 140:.\Generated_Source\PSoC4/capsense_Structure.c ****         capsense_Sns__1__HSIOM_SHIFT,
 141:.\Generated_Source\PSoC4/capsense_Structure.c ****         (uint8)capsense_Sns__1__SHIFT,
 142:.\Generated_Source\PSoC4/capsense_Structure.c ****         (uint8)capsense_Sns__1__SHIFT * 3u,
 143:.\Generated_Source\PSoC4/capsense_Structure.c ****     },
 144:.\Generated_Source\PSoC4/capsense_Structure.c ****     { /* 2: LinearSlider0_Sns2 */
 145:.\Generated_Source\PSoC4/capsense_Structure.c ****         (reg32 *)capsense_Sns__2__HSIOM,
 146:.\Generated_Source\PSoC4/capsense_Structure.c ****         (reg32 *)capsense_Sns__2__PC,
 147:.\Generated_Source\PSoC4/capsense_Structure.c ****         (reg32 *)capsense_Sns__2__DR,
ARM GAS  C:\Users\Alan\AppData\Local\Temp\cckMaArW.s 			page 4


 148:.\Generated_Source\PSoC4/capsense_Structure.c ****         (reg32 *)capsense_Sns__2__PS,
 149:.\Generated_Source\PSoC4/capsense_Structure.c ****         capsense_Sns__2__HSIOM_MASK,
 150:.\Generated_Source\PSoC4/capsense_Structure.c ****         capsense_Sns__2__MASK,
 151:.\Generated_Source\PSoC4/capsense_Structure.c ****         capsense_Sns__2__HSIOM_SHIFT,
 152:.\Generated_Source\PSoC4/capsense_Structure.c ****         (uint8)capsense_Sns__2__SHIFT,
 153:.\Generated_Source\PSoC4/capsense_Structure.c ****         (uint8)capsense_Sns__2__SHIFT * 3u,
 154:.\Generated_Source\PSoC4/capsense_Structure.c ****     },
 155:.\Generated_Source\PSoC4/capsense_Structure.c ****     { /* 3: LinearSlider0_Sns3 */
 156:.\Generated_Source\PSoC4/capsense_Structure.c ****         (reg32 *)capsense_Sns__3__HSIOM,
 157:.\Generated_Source\PSoC4/capsense_Structure.c ****         (reg32 *)capsense_Sns__3__PC,
 158:.\Generated_Source\PSoC4/capsense_Structure.c ****         (reg32 *)capsense_Sns__3__DR,
 159:.\Generated_Source\PSoC4/capsense_Structure.c ****         (reg32 *)capsense_Sns__3__PS,
 160:.\Generated_Source\PSoC4/capsense_Structure.c ****         capsense_Sns__3__HSIOM_MASK,
 161:.\Generated_Source\PSoC4/capsense_Structure.c ****         capsense_Sns__3__MASK,
 162:.\Generated_Source\PSoC4/capsense_Structure.c ****         capsense_Sns__3__HSIOM_SHIFT,
 163:.\Generated_Source\PSoC4/capsense_Structure.c ****         (uint8)capsense_Sns__3__SHIFT,
 164:.\Generated_Source\PSoC4/capsense_Structure.c ****         (uint8)capsense_Sns__3__SHIFT * 3u,
 165:.\Generated_Source\PSoC4/capsense_Structure.c ****     },
 166:.\Generated_Source\PSoC4/capsense_Structure.c ****     { /* 4: LinearSlider0_Sns4 */
 167:.\Generated_Source\PSoC4/capsense_Structure.c ****         (reg32 *)capsense_Sns__4__HSIOM,
 168:.\Generated_Source\PSoC4/capsense_Structure.c ****         (reg32 *)capsense_Sns__4__PC,
 169:.\Generated_Source\PSoC4/capsense_Structure.c ****         (reg32 *)capsense_Sns__4__DR,
 170:.\Generated_Source\PSoC4/capsense_Structure.c ****         (reg32 *)capsense_Sns__4__PS,
 171:.\Generated_Source\PSoC4/capsense_Structure.c ****         capsense_Sns__4__HSIOM_MASK,
 172:.\Generated_Source\PSoC4/capsense_Structure.c ****         capsense_Sns__4__MASK,
 173:.\Generated_Source\PSoC4/capsense_Structure.c ****         capsense_Sns__4__HSIOM_SHIFT,
 174:.\Generated_Source\PSoC4/capsense_Structure.c ****         (uint8)capsense_Sns__4__SHIFT,
 175:.\Generated_Source\PSoC4/capsense_Structure.c ****         (uint8)capsense_Sns__4__SHIFT * 3u,
 176:.\Generated_Source\PSoC4/capsense_Structure.c ****     },
 177:.\Generated_Source\PSoC4/capsense_Structure.c **** };
 178:.\Generated_Source\PSoC4/capsense_Structure.c **** 
 179:.\Generated_Source\PSoC4/capsense_Structure.c **** 
 180:.\Generated_Source\PSoC4/capsense_Structure.c **** /** \}
 181:.\Generated_Source\PSoC4/capsense_Structure.c **** * \endif */
 182:.\Generated_Source\PSoC4/capsense_Structure.c **** 
 183:.\Generated_Source\PSoC4/capsense_Structure.c **** /* Initialization data for RAM widget list */
 184:.\Generated_Source\PSoC4/capsense_Structure.c **** static const capsense_RAM_WD_LIST_STRUCT capsense_ramWidgetInit =
 185:.\Generated_Source\PSoC4/capsense_Structure.c **** {
 186:.\Generated_Source\PSoC4/capsense_Structure.c ****     { /* LinearSlider0 */
 187:.\Generated_Source\PSoC4/capsense_Structure.c ****         capsense_LINEARSLIDER0_RESOLUTION,
 188:.\Generated_Source\PSoC4/capsense_Structure.c ****         capsense_LINEARSLIDER0_FINGER_TH,
 189:.\Generated_Source\PSoC4/capsense_Structure.c ****         capsense_LINEARSLIDER0_NOISE_TH,
 190:.\Generated_Source\PSoC4/capsense_Structure.c ****         capsense_LINEARSLIDER0_NNOISE_TH,
 191:.\Generated_Source\PSoC4/capsense_Structure.c ****         capsense_LINEARSLIDER0_HYSTERESIS,
 192:.\Generated_Source\PSoC4/capsense_Structure.c ****         capsense_LINEARSLIDER0_ON_DEBOUNCE,
 193:.\Generated_Source\PSoC4/capsense_Structure.c ****         capsense_LINEARSLIDER0_LOW_BSLN_RST,
 194:.\Generated_Source\PSoC4/capsense_Structure.c ****         capsense_LINEARSLIDER0_BSLN_COEFF,
 195:.\Generated_Source\PSoC4/capsense_Structure.c ****         {
 196:.\Generated_Source\PSoC4/capsense_Structure.c ****             capsense_LINEARSLIDER0_IDAC_MOD0,
 197:.\Generated_Source\PSoC4/capsense_Structure.c ****         },
 198:.\Generated_Source\PSoC4/capsense_Structure.c ****         capsense_LINEARSLIDER0_SNS_CLK,
 199:.\Generated_Source\PSoC4/capsense_Structure.c ****         capsense_LINEARSLIDER0_SENSITIVITY,
 200:.\Generated_Source\PSoC4/capsense_Structure.c ****         capsense_LINEARSLIDER0_SIGPPF,
 201:.\Generated_Source\PSoC4/capsense_Structure.c ****         {
 202:.\Generated_Source\PSoC4/capsense_Structure.c ****             capsense_LINEARSLIDER0_POSITION,
 203:.\Generated_Source\PSoC4/capsense_Structure.c ****         },
 204:.\Generated_Source\PSoC4/capsense_Structure.c ****     },
ARM GAS  C:\Users\Alan\AppData\Local\Temp\cckMaArW.s 			page 5


 205:.\Generated_Source\PSoC4/capsense_Structure.c **** };
 206:.\Generated_Source\PSoC4/capsense_Structure.c **** 
 207:.\Generated_Source\PSoC4/capsense_Structure.c **** 
 208:.\Generated_Source\PSoC4/capsense_Structure.c **** /* IDAC Initialization Data */
 209:.\Generated_Source\PSoC4/capsense_Structure.c **** static const uint8 capsense_ramIdacInit[capsense_TOTAL_SENSORS] =
 210:.\Generated_Source\PSoC4/capsense_Structure.c **** {
 211:.\Generated_Source\PSoC4/capsense_Structure.c ****     /* LinearSlider0 */
 212:.\Generated_Source\PSoC4/capsense_Structure.c ****     capsense_LINEARSLIDER0_SNS0_IDAC_COMP0,
 213:.\Generated_Source\PSoC4/capsense_Structure.c ****     capsense_LINEARSLIDER0_SNS1_IDAC_COMP0,
 214:.\Generated_Source\PSoC4/capsense_Structure.c ****     capsense_LINEARSLIDER0_SNS2_IDAC_COMP0,
 215:.\Generated_Source\PSoC4/capsense_Structure.c ****     capsense_LINEARSLIDER0_SNS3_IDAC_COMP0,
 216:.\Generated_Source\PSoC4/capsense_Structure.c ****     capsense_LINEARSLIDER0_SNS4_IDAC_COMP0,
 217:.\Generated_Source\PSoC4/capsense_Structure.c **** };
 218:.\Generated_Source\PSoC4/capsense_Structure.c **** 
 219:.\Generated_Source\PSoC4/capsense_Structure.c **** 
 220:.\Generated_Source\PSoC4/capsense_Structure.c **** /*******************************************************************************
 221:.\Generated_Source\PSoC4/capsense_Structure.c **** * Define internal data types and statements
 222:.\Generated_Source\PSoC4/capsense_Structure.c **** *******************************************************************************/
 223:.\Generated_Source\PSoC4/capsense_Structure.c **** #define PARAM_TYPE_OFFSET       (30u)
 224:.\Generated_Source\PSoC4/capsense_Structure.c **** #define PARAM_TYPE_MASK         (3Lu << PARAM_TYPE_OFFSET)
 225:.\Generated_Source\PSoC4/capsense_Structure.c **** #define PARAM_RWBIT_OFFSET      (29u)
 226:.\Generated_Source\PSoC4/capsense_Structure.c **** #define PARAM_RWBIT_MASK        (1Lu << PARAM_RWBIT_OFFSET)
 227:.\Generated_Source\PSoC4/capsense_Structure.c **** #define PARAM_FBIT_OFFSET       (28u)
 228:.\Generated_Source\PSoC4/capsense_Structure.c **** #define PARAM_FBIT_MASK         (1Lu << PARAM_FBIT_OFFSET)
 229:.\Generated_Source\PSoC4/capsense_Structure.c **** #define PARAM_UBIT_OFFSET       (23u)
 230:.\Generated_Source\PSoC4/capsense_Structure.c **** #define PARAM_UBIT_MASK         (1Lu << PARAM_UBIT_OFFSET)
 231:.\Generated_Source\PSoC4/capsense_Structure.c **** #define PARAM_WDID_OFFSET       (16u)
 232:.\Generated_Source\PSoC4/capsense_Structure.c **** #define PARAM_WDID_MASK         (0x7FLu << PARAM_WDID_OFFSET)
 233:.\Generated_Source\PSoC4/capsense_Structure.c **** #define PARAM_CRC_OFFSET        (24u)
 234:.\Generated_Source\PSoC4/capsense_Structure.c **** #define PARAM_CRC_MASK          (0x0FLu << PARAM_CRC_OFFSET)
 235:.\Generated_Source\PSoC4/capsense_Structure.c **** 
 236:.\Generated_Source\PSoC4/capsense_Structure.c **** /* Define align masks for uint16 and uint32 */
 237:.\Generated_Source\PSoC4/capsense_Structure.c **** #define UINT16_ALIGN_MASK       (1Lu)
 238:.\Generated_Source\PSoC4/capsense_Structure.c **** #define UINT32_ALIGN_MASK       (3Lu)
 239:.\Generated_Source\PSoC4/capsense_Structure.c **** 
 240:.\Generated_Source\PSoC4/capsense_Structure.c **** /* Define supported parameter types */
 241:.\Generated_Source\PSoC4/capsense_Structure.c **** #define DS_PARAM_TYPE_UINT8     (0x01u)
 242:.\Generated_Source\PSoC4/capsense_Structure.c **** #define DS_PARAM_TYPE_UINT16    (0x02u)
 243:.\Generated_Source\PSoC4/capsense_Structure.c **** #define DS_PARAM_TYPE_UINT32    (0x03u)
 244:.\Generated_Source\PSoC4/capsense_Structure.c **** 
 245:.\Generated_Source\PSoC4/capsense_Structure.c **** 
 246:.\Generated_Source\PSoC4/capsense_Structure.c **** /* Define PARAM_ID structure */
 247:.\Generated_Source\PSoC4/capsense_Structure.c **** typedef struct
 248:.\Generated_Source\PSoC4/capsense_Structure.c **** {
 249:.\Generated_Source\PSoC4/capsense_Structure.c ****     uint16 offset;      /* parameter offset                     */
 250:.\Generated_Source\PSoC4/capsense_Structure.c ****     uint8  widgetId;    /* widget Id parameter belongs to       */
 251:.\Generated_Source\PSoC4/capsense_Structure.c ****     uint8  affectsCrc;  /* parameter affects widget CRC         */
 252:.\Generated_Source\PSoC4/capsense_Structure.c ****     uint8  crc;         /* parameter CRC                        */
 253:.\Generated_Source\PSoC4/capsense_Structure.c ****     uint8  flash;       /* parameter located in FLASH flag      */
 254:.\Generated_Source\PSoC4/capsense_Structure.c ****     uint8  rw;          /* parameter is read/write flag         */
 255:.\Generated_Source\PSoC4/capsense_Structure.c ****     uint8  type;        /* parameter type: uint8/uint16/uint32  */
 256:.\Generated_Source\PSoC4/capsense_Structure.c **** } PARAM_ID_STRUCT;
 257:.\Generated_Source\PSoC4/capsense_Structure.c **** 
 258:.\Generated_Source\PSoC4/capsense_Structure.c **** 
 259:.\Generated_Source\PSoC4/capsense_Structure.c **** /*******************************************************************************
 260:.\Generated_Source\PSoC4/capsense_Structure.c **** * Static Function Prototypes
 261:.\Generated_Source\PSoC4/capsense_Structure.c **** *******************************************************************************/
ARM GAS  C:\Users\Alan\AppData\Local\Temp\cckMaArW.s 			page 6


 262:.\Generated_Source\PSoC4/capsense_Structure.c **** /**
 263:.\Generated_Source\PSoC4/capsense_Structure.c **** * \if SECTION_CAPSENSE_INTERNAL
 264:.\Generated_Source\PSoC4/capsense_Structure.c **** * \addtogroup group_capsense_internal
 265:.\Generated_Source\PSoC4/capsense_Structure.c **** * \{
 266:.\Generated_Source\PSoC4/capsense_Structure.c **** */
 267:.\Generated_Source\PSoC4/capsense_Structure.c **** 
 268:.\Generated_Source\PSoC4/capsense_Structure.c **** static cystatus DsParseParamId(uint32 paramId, PARAM_ID_STRUCT *pData);
 269:.\Generated_Source\PSoC4/capsense_Structure.c **** 
 270:.\Generated_Source\PSoC4/capsense_Structure.c **** /** \}
 271:.\Generated_Source\PSoC4/capsense_Structure.c **** * \endif */
 272:.\Generated_Source\PSoC4/capsense_Structure.c **** 
 273:.\Generated_Source\PSoC4/capsense_Structure.c **** 
 274:.\Generated_Source\PSoC4/capsense_Structure.c **** /*******************************************************************************
 275:.\Generated_Source\PSoC4/capsense_Structure.c **** * Function Name: capsense_DsInitialize
 276:.\Generated_Source\PSoC4/capsense_Structure.c **** ****************************************************************************//**
 277:.\Generated_Source\PSoC4/capsense_Structure.c **** *
 278:.\Generated_Source\PSoC4/capsense_Structure.c **** * \brief
 279:.\Generated_Source\PSoC4/capsense_Structure.c **** *   This function initializes the Data Structure storage.
 280:.\Generated_Source\PSoC4/capsense_Structure.c **** *
 281:.\Generated_Source\PSoC4/capsense_Structure.c **** * \details
 282:.\Generated_Source\PSoC4/capsense_Structure.c **** *   This function copies the default widget configuration parameters 
 283:.\Generated_Source\PSoC4/capsense_Structure.c **** *   from the Flash storage into the RAM Data Structure.
 284:.\Generated_Source\PSoC4/capsense_Structure.c **** *
 285:.\Generated_Source\PSoC4/capsense_Structure.c **** *******************************************************************************/
 286:.\Generated_Source\PSoC4/capsense_Structure.c **** void capsense_DsInitialize(void)
 287:.\Generated_Source\PSoC4/capsense_Structure.c **** {
 288:.\Generated_Source\PSoC4/capsense_Structure.c ****     #if (0u != capsense_CSX_EN) || (0 != capsense_CSD_IDAC_COMP_EN)
 289:.\Generated_Source\PSoC4/capsense_Structure.c ****         uint32 snsId;
 290:.\Generated_Source\PSoC4/capsense_Structure.c ****         uint32 wdgtId;
 291:.\Generated_Source\PSoC4/capsense_Structure.c ****     
 292:.\Generated_Source\PSoC4/capsense_Structure.c ****         capsense_RAM_SNS_STRUCT * ptrSns;
 293:.\Generated_Source\PSoC4/capsense_Structure.c ****         capsense_FLASH_WD_STRUCT const * ptrFlashWdgt;
 294:.\Generated_Source\PSoC4/capsense_Structure.c ****         uint8 const * ptrIdacInit = capsense_ramIdacInit;
 295:.\Generated_Source\PSoC4/capsense_Structure.c ****     #endif        
 296:.\Generated_Source\PSoC4/capsense_Structure.c ****     
 297:.\Generated_Source\PSoC4/capsense_Structure.c ****     /* Reset RAM data structure content */
 298:.\Generated_Source\PSoC4/capsense_Structure.c ****     (void)memset(&capsense_dsRam, 0, sizeof(capsense_dsRam));
 299:.\Generated_Source\PSoC4/capsense_Structure.c ****     
 300:.\Generated_Source\PSoC4/capsense_Structure.c ****     /* Initialize configId and deviceId registers */
 301:.\Generated_Source\PSoC4/capsense_Structure.c ****     capsense_dsRam.configId = capsense_CONFIG_ID;
 302:.\Generated_Source\PSoC4/capsense_Structure.c ****     capsense_dsRam.deviceId = capsense_DEVICE_ID;
 303:.\Generated_Source\PSoC4/capsense_Structure.c ****     
 304:.\Generated_Source\PSoC4/capsense_Structure.c ****     /* Initialize global RAM data */
 305:.\Generated_Source\PSoC4/capsense_Structure.c ****     capsense_dsRam.csd0Config = capsense_CSD0_CONFIG;
 306:.\Generated_Source\PSoC4/capsense_Structure.c **** 
 307:.\Generated_Source\PSoC4/capsense_Structure.c ****     #if ((0u != capsense_CSD2X_EN) || (0u != capsense_CSX2X_EN))
 308:.\Generated_Source\PSoC4/capsense_Structure.c ****         capsense_dsRam.csd1Config = capsense_CSD1_CONFIG;
 309:.\Generated_Source\PSoC4/capsense_Structure.c ****     #endif /* #if ((0u != capsense_CSD2X_EN) || (0u != capsense_CSX2X_EN)) */
 310:.\Generated_Source\PSoC4/capsense_Structure.c ****     
 311:.\Generated_Source\PSoC4/capsense_Structure.c ****     #if (0u != capsense_CSD_EN)
 312:.\Generated_Source\PSoC4/capsense_Structure.c ****         capsense_dsRam.modCsdClk = capsense_CSD_SCANSPEED_DIVIDER;
 313:.\Generated_Source\PSoC4/capsense_Structure.c ****         
 314:.\Generated_Source\PSoC4/capsense_Structure.c ****         #if (0u != capsense_CSD_COMMON_SNS_CLK_EN)
 315:.\Generated_Source\PSoC4/capsense_Structure.c ****             capsense_dsRam.snsCsdClk = capsense_CSD_SNS_CLK_DIVIDER;
 316:.\Generated_Source\PSoC4/capsense_Structure.c ****         #endif /* #if (0u != capsense_CSD_COMMON_SNS_CLK_EN) */
 317:.\Generated_Source\PSoC4/capsense_Structure.c ****     #endif /* #if (0u != capsense_CSD_EN) */
 318:.\Generated_Source\PSoC4/capsense_Structure.c ****     
ARM GAS  C:\Users\Alan\AppData\Local\Temp\cckMaArW.s 			page 7


 319:.\Generated_Source\PSoC4/capsense_Structure.c ****     #if (0u != capsense_CSX_EN)
 320:.\Generated_Source\PSoC4/capsense_Structure.c ****         capsense_dsRam.modCsxClk = capsense_CSX_SCANSPEED_DIVIDER;
 321:.\Generated_Source\PSoC4/capsense_Structure.c ****         
 322:.\Generated_Source\PSoC4/capsense_Structure.c ****         #if (0u != capsense_CSX_COMMON_TX_CLK_EN)
 323:.\Generated_Source\PSoC4/capsense_Structure.c ****             capsense_dsRam.snsCsxClk = capsense_CSX_TX_CLK_DIVIDER;
 324:.\Generated_Source\PSoC4/capsense_Structure.c ****         #endif /* #if (0u != capsense_CSX_COMMON_TX_CLK_EN) */
 325:.\Generated_Source\PSoC4/capsense_Structure.c ****     #endif /* #if (0u != capsense_CSX_EN) */
 326:.\Generated_Source\PSoC4/capsense_Structure.c ****     
 327:.\Generated_Source\PSoC4/capsense_Structure.c ****     #if (0u != capsense_SELF_TEST_EN)
 328:.\Generated_Source\PSoC4/capsense_Structure.c ****         capsense_dsRam.glbCrc = capsense_GLB_CRC;
 329:.\Generated_Source\PSoC4/capsense_Structure.c ****     #endif /* #if (0u != capsense_SELF_TEST_EN) */
 330:.\Generated_Source\PSoC4/capsense_Structure.c ****    
 331:.\Generated_Source\PSoC4/capsense_Structure.c ****     /* Initialize RAM widget data */
 332:.\Generated_Source\PSoC4/capsense_Structure.c ****     capsense_dsRam.wdgtList = capsense_ramWidgetInit;
 333:.\Generated_Source\PSoC4/capsense_Structure.c ****     
 334:.\Generated_Source\PSoC4/capsense_Structure.c ****     #if (0u != capsense_CSX_EN) || (0 != capsense_CSD_IDAC_COMP_EN)
 335:.\Generated_Source\PSoC4/capsense_Structure.c ****         /* Initialize IDAC data */
 336:.\Generated_Source\PSoC4/capsense_Structure.c ****         ptrFlashWdgt = capsense_dsFlash.wdgtArray;
 337:.\Generated_Source\PSoC4/capsense_Structure.c ****         
 338:.\Generated_Source\PSoC4/capsense_Structure.c ****         for (wdgtId = capsense_TOTAL_WIDGETS; wdgtId-- > 0u; )
 339:.\Generated_Source\PSoC4/capsense_Structure.c ****         {
 340:.\Generated_Source\PSoC4/capsense_Structure.c ****             ptrSns = ptrFlashWdgt->ptr2SnsRam;
 341:.\Generated_Source\PSoC4/capsense_Structure.c ****                 
 342:.\Generated_Source\PSoC4/capsense_Structure.c ****             for (snsId = capsense_GET_SNS_CNT_BY_PTR(ptrFlashWdgt); snsId-- > 0u;)
 343:.\Generated_Source\PSoC4/capsense_Structure.c ****             {
 344:.\Generated_Source\PSoC4/capsense_Structure.c ****                 ptrSns->idacComp[0u] = *ptrIdacInit;
 345:.\Generated_Source\PSoC4/capsense_Structure.c ****                 ptrIdacInit++;
 346:.\Generated_Source\PSoC4/capsense_Structure.c ****                 
 347:.\Generated_Source\PSoC4/capsense_Structure.c ****                 #if (0u != capsense_MULTI_FREQ_SCAN_EN)
 348:.\Generated_Source\PSoC4/capsense_Structure.c ****                     ptrSns->idacComp[1u] = *ptrIdacInit;
 349:.\Generated_Source\PSoC4/capsense_Structure.c ****                     ptrIdacInit++;
 350:.\Generated_Source\PSoC4/capsense_Structure.c ****                     
 351:.\Generated_Source\PSoC4/capsense_Structure.c ****                     ptrSns->idacComp[2u] = *ptrIdacInit;
 352:.\Generated_Source\PSoC4/capsense_Structure.c ****                     ptrIdacInit++;
 353:.\Generated_Source\PSoC4/capsense_Structure.c ****                 #endif /* #if (0u != capsense_MULTI_FREQ_SCAN_EN) */
 354:.\Generated_Source\PSoC4/capsense_Structure.c ****                 
 355:.\Generated_Source\PSoC4/capsense_Structure.c ****                 ptrSns++;
 356:.\Generated_Source\PSoC4/capsense_Structure.c ****             }
 357:.\Generated_Source\PSoC4/capsense_Structure.c ****             
 358:.\Generated_Source\PSoC4/capsense_Structure.c ****             ptrFlashWdgt++; /* Move to next widget */
 359:.\Generated_Source\PSoC4/capsense_Structure.c ****         }
 360:.\Generated_Source\PSoC4/capsense_Structure.c ****     #endif /*(0u != capsense_CSX_EN) || (0 != capsense_CSD_IDAC_COMP_EN)*/
 361:.\Generated_Source\PSoC4/capsense_Structure.c ****     
 362:.\Generated_Source\PSoC4/capsense_Structure.c ****     #if (0u != capsense_ADC_EN)
 363:.\Generated_Source\PSoC4/capsense_Structure.c ****         capsense_AdcDsInitialize();
 364:.\Generated_Source\PSoC4/capsense_Structure.c ****     #endif /* (0u != capsense_ADC_EN) */
 365:.\Generated_Source\PSoC4/capsense_Structure.c **** }
 366:.\Generated_Source\PSoC4/capsense_Structure.c **** 
 367:.\Generated_Source\PSoC4/capsense_Structure.c **** 
 368:.\Generated_Source\PSoC4/capsense_Structure.c **** #if (0u != capsense_ADC_EN)
 369:.\Generated_Source\PSoC4/capsense_Structure.c ****     /*******************************************************************************
 370:.\Generated_Source\PSoC4/capsense_Structure.c ****     * Function Name: capsense_AdcDsInitialize
 371:.\Generated_Source\PSoC4/capsense_Structure.c ****     ****************************************************************************//**
 372:.\Generated_Source\PSoC4/capsense_Structure.c ****     *
 373:.\Generated_Source\PSoC4/capsense_Structure.c ****     * \brief
 374:.\Generated_Source\PSoC4/capsense_Structure.c ****     *   Configures the initial Adc datastructure members.
 375:.\Generated_Source\PSoC4/capsense_Structure.c ****     *
ARM GAS  C:\Users\Alan\AppData\Local\Temp\cckMaArW.s 			page 8


 376:.\Generated_Source\PSoC4/capsense_Structure.c ****     *******************************************************************************/
 377:.\Generated_Source\PSoC4/capsense_Structure.c ****     void capsense_AdcDsInitialize(void)
 378:.\Generated_Source\PSoC4/capsense_Structure.c ****     {
 379:.\Generated_Source\PSoC4/capsense_Structure.c ****         capsense_dsRam.adcResolution = capsense_ADC_RESOLUTION;
 380:.\Generated_Source\PSoC4/capsense_Structure.c ****         capsense_dsRam.adcIdac = capsense_ADC_IDACVAL;
 381:.\Generated_Source\PSoC4/capsense_Structure.c ****     }
 382:.\Generated_Source\PSoC4/capsense_Structure.c **** #endif /* (0u != capsense_ADC_EN) */
 383:.\Generated_Source\PSoC4/capsense_Structure.c **** 
 384:.\Generated_Source\PSoC4/capsense_Structure.c **** 
 385:.\Generated_Source\PSoC4/capsense_Structure.c **** /*******************************************************************************
 386:.\Generated_Source\PSoC4/capsense_Structure.c **** * Function Name: DsParseParamId
 387:.\Generated_Source\PSoC4/capsense_Structure.c **** ****************************************************************************//**
 388:.\Generated_Source\PSoC4/capsense_Structure.c **** *
 389:.\Generated_Source\PSoC4/capsense_Structure.c **** * \brief
 390:.\Generated_Source\PSoC4/capsense_Structure.c **** *   This function parses the parameter ID and checks its correctness.
 391:.\Generated_Source\PSoC4/capsense_Structure.c **** *
 392:.\Generated_Source\PSoC4/capsense_Structure.c **** * \details
 393:.\Generated_Source\PSoC4/capsense_Structure.c **** *   This function checks the parameter CRC if the self-test is enabled, 
 394:.\Generated_Source\PSoC4/capsense_Structure.c **** *   validates the offset value and parameter type.
 395:.\Generated_Source\PSoC4/capsense_Structure.c **** *
 396:.\Generated_Source\PSoC4/capsense_Structure.c **** * \param paramId The parameter to parse.
 397:.\Generated_Source\PSoC4/capsense_Structure.c **** * \param pData   The pointer to the structure that will hold parsed data.
 398:.\Generated_Source\PSoC4/capsense_Structure.c **** *
 399:.\Generated_Source\PSoC4/capsense_Structure.c **** * \return CYRET_SUCCESS     If the parameter is valid
 400:.\Generated_Source\PSoC4/capsense_Structure.c **** *         CYRET_BAD_PARAM   If  the parameter is invalid
 401:.\Generated_Source\PSoC4/capsense_Structure.c **** *
 402:.\Generated_Source\PSoC4/capsense_Structure.c **** *******************************************************************************/
 403:.\Generated_Source\PSoC4/capsense_Structure.c **** static cystatus DsParseParamId(uint32 paramId, PARAM_ID_STRUCT *pData)
 404:.\Generated_Source\PSoC4/capsense_Structure.c **** {
  25              		.loc 1 404 0
  26              		.cfi_startproc
  27              	.LVL0:
  28 0000 30B5     		push	{r4, r5, lr}
  29              		.cfi_def_cfa_offset 12
  30              		.cfi_offset 4, -12
  31              		.cfi_offset 5, -8
  32              		.cfi_offset 14, -4
  33              	.LVL1:
 405:.\Generated_Source\PSoC4/capsense_Structure.c ****     cystatus result = CYRET_SUCCESS;
 406:.\Generated_Source\PSoC4/capsense_Structure.c ****     
 407:.\Generated_Source\PSoC4/capsense_Structure.c ****     #if (0u != capsense_SELF_TEST_EN)
 408:.\Generated_Source\PSoC4/capsense_Structure.c ****         const uint8 crcTable[] =
 409:.\Generated_Source\PSoC4/capsense_Structure.c ****         {
 410:.\Generated_Source\PSoC4/capsense_Structure.c ****             0x00u, 0x09u, 0x0Bu, 0x02u, 0x0Fu, 0x06u, 0x04u, 0x0Du,
 411:.\Generated_Source\PSoC4/capsense_Structure.c ****             0x07u, 0x0Eu, 0x0Cu, 0x05u, 0x08u, 0x01u, 0x03u, 0x0Au
 412:.\Generated_Source\PSoC4/capsense_Structure.c ****         };
 413:.\Generated_Source\PSoC4/capsense_Structure.c ****         
 414:.\Generated_Source\PSoC4/capsense_Structure.c ****         uint32 i;
 415:.\Generated_Source\PSoC4/capsense_Structure.c ****         uint32 actualCrc = 0u;
 416:.\Generated_Source\PSoC4/capsense_Structure.c ****         uint32 crcIndex;
 417:.\Generated_Source\PSoC4/capsense_Structure.c ****     #endif /* #if (0u != capsense_SELF_TEST_EN) */
 418:.\Generated_Source\PSoC4/capsense_Structure.c ****             
 419:.\Generated_Source\PSoC4/capsense_Structure.c ****     /* Extract parameter data */
 420:.\Generated_Source\PSoC4/capsense_Structure.c ****     pData->offset     = LO16(paramId);
  34              		.loc 1 420 0
  35 0002 84B2     		uxth	r4, r0
  36 0004 0C80     		strh	r4, [r1]
ARM GAS  C:\Users\Alan\AppData\Local\Temp\cckMaArW.s 			page 9


 421:.\Generated_Source\PSoC4/capsense_Structure.c ****     pData->affectsCrc = LO8((paramId & PARAM_UBIT_MASK)  >> PARAM_UBIT_OFFSET);
  37              		.loc 1 421 0
  38 0006 0302     		lsl	r3, r0, #8
  39 0008 DB0F     		lsr	r3, r3, #31
  40 000a CB70     		strb	r3, [r1, #3]
 422:.\Generated_Source\PSoC4/capsense_Structure.c ****     pData->widgetId   = LO8((paramId & PARAM_WDID_MASK)  >> PARAM_WDID_OFFSET);
  41              		.loc 1 422 0
  42 000c 4302     		lsl	r3, r0, #9
  43 000e 5B0E     		lsr	r3, r3, #25
  44 0010 8B70     		strb	r3, [r1, #2]
 423:.\Generated_Source\PSoC4/capsense_Structure.c ****     pData->type       = LO8((paramId & PARAM_TYPE_MASK)  >> PARAM_TYPE_OFFSET);
  45              		.loc 1 423 0
  46 0012 850F     		lsr	r5, r0, #30
  47 0014 CD71     		strb	r5, [r1, #7]
 424:.\Generated_Source\PSoC4/capsense_Structure.c ****     pData->flash      = LO8((paramId & PARAM_FBIT_MASK)  >> PARAM_FBIT_OFFSET);
  48              		.loc 1 424 0
  49 0016 C300     		lsl	r3, r0, #3
  50 0018 DB0F     		lsr	r3, r3, #31
  51 001a 4B71     		strb	r3, [r1, #5]
 425:.\Generated_Source\PSoC4/capsense_Structure.c ****     pData->rw         = LO8((paramId & PARAM_RWBIT_MASK) >> PARAM_RWBIT_OFFSET);
  52              		.loc 1 425 0
  53 001c 8200     		lsl	r2, r0, #2
  54 001e D20F     		lsr	r2, r2, #31
  55 0020 8A71     		strb	r2, [r1, #6]
 426:.\Generated_Source\PSoC4/capsense_Structure.c ****     pData->crc        = LO8((paramId & PARAM_CRC_MASK)   >> PARAM_CRC_OFFSET);
  56              		.loc 1 426 0
  57 0022 0001     		lsl	r0, r0, #4
  58              	.LVL2:
  59 0024 000F     		lsr	r0, r0, #28
  60 0026 0871     		strb	r0, [r1, #4]
 427:.\Generated_Source\PSoC4/capsense_Structure.c ****     
 428:.\Generated_Source\PSoC4/capsense_Structure.c ****     /* Check parameter CRC if self-test is enabled */
 429:.\Generated_Source\PSoC4/capsense_Structure.c ****     #if (0u != capsense_SELF_TEST_EN)
 430:.\Generated_Source\PSoC4/capsense_Structure.c ****  
 431:.\Generated_Source\PSoC4/capsense_Structure.c ****         /* Calculate CRC for bits 0..24.
 432:.\Generated_Source\PSoC4/capsense_Structure.c ****          * The CRC is calculated using nibbles (4-bits). 
 433:.\Generated_Source\PSoC4/capsense_Structure.c ****          * So for 0..24 bits there are in total 6 nibbles. */
 434:.\Generated_Source\PSoC4/capsense_Structure.c ****         for (i = 6u; i > 0u; i--)
 435:.\Generated_Source\PSoC4/capsense_Structure.c ****         {
 436:.\Generated_Source\PSoC4/capsense_Structure.c ****             crcIndex = actualCrc ^ (paramId & 0x0Fu);
 437:.\Generated_Source\PSoC4/capsense_Structure.c ****             actualCrc = crcTable[crcIndex];
 438:.\Generated_Source\PSoC4/capsense_Structure.c ****             paramId >>= 4u;
 439:.\Generated_Source\PSoC4/capsense_Structure.c ****         }
 440:.\Generated_Source\PSoC4/capsense_Structure.c **** 
 441:.\Generated_Source\PSoC4/capsense_Structure.c ****         /* Add bits 28..32 */
 442:.\Generated_Source\PSoC4/capsense_Structure.c ****         crcIndex = actualCrc ^ ((paramId >> 4u) & 0x0Fu);
 443:.\Generated_Source\PSoC4/capsense_Structure.c ****         actualCrc = crcTable[crcIndex];
 444:.\Generated_Source\PSoC4/capsense_Structure.c **** 
 445:.\Generated_Source\PSoC4/capsense_Structure.c ****         /* Add bits 24..28 (CRC) */
 446:.\Generated_Source\PSoC4/capsense_Structure.c ****         crcIndex = actualCrc ^ (paramId & 0x0Fu);
 447:.\Generated_Source\PSoC4/capsense_Structure.c ****         actualCrc = crcTable[crcIndex];
 448:.\Generated_Source\PSoC4/capsense_Structure.c ****         
 449:.\Generated_Source\PSoC4/capsense_Structure.c ****         if (0u != actualCrc)
 450:.\Generated_Source\PSoC4/capsense_Structure.c ****         {
 451:.\Generated_Source\PSoC4/capsense_Structure.c ****             /* CRC mismatch */
 452:.\Generated_Source\PSoC4/capsense_Structure.c ****             result = CYRET_BAD_PARAM;
 453:.\Generated_Source\PSoC4/capsense_Structure.c ****         }
ARM GAS  C:\Users\Alan\AppData\Local\Temp\cckMaArW.s 			page 10


 454:.\Generated_Source\PSoC4/capsense_Structure.c ****         
 455:.\Generated_Source\PSoC4/capsense_Structure.c ****         if ((CYRET_SUCCESS == result) && 
 456:.\Generated_Source\PSoC4/capsense_Structure.c ****             (0u != pData->affectsCrc) && (pData->widgetId >= capsense_TOTAL_WIDGETS ))
 457:.\Generated_Source\PSoC4/capsense_Structure.c ****         {
 458:.\Generated_Source\PSoC4/capsense_Structure.c ****             /* Wrong widgetId for protected parameter */
 459:.\Generated_Source\PSoC4/capsense_Structure.c ****             result = CYRET_BAD_PARAM;
 460:.\Generated_Source\PSoC4/capsense_Structure.c ****         }
 461:.\Generated_Source\PSoC4/capsense_Structure.c ****         
 462:.\Generated_Source\PSoC4/capsense_Structure.c ****         /* Check offset value range */
 463:.\Generated_Source\PSoC4/capsense_Structure.c ****         if (CYRET_SUCCESS == result)
 464:.\Generated_Source\PSoC4/capsense_Structure.c ****         {
 465:.\Generated_Source\PSoC4/capsense_Structure.c ****             if (0u == pData->flash)
 466:.\Generated_Source\PSoC4/capsense_Structure.c ****             {
 467:.\Generated_Source\PSoC4/capsense_Structure.c ****                 /* Check offset for RAM Data Structure range */
 468:.\Generated_Source\PSoC4/capsense_Structure.c ****                 if (pData->offset >= sizeof(capsense_dsRam))
 469:.\Generated_Source\PSoC4/capsense_Structure.c ****                 {
 470:.\Generated_Source\PSoC4/capsense_Structure.c ****                     result = CYRET_BAD_PARAM;
 471:.\Generated_Source\PSoC4/capsense_Structure.c ****                 }
 472:.\Generated_Source\PSoC4/capsense_Structure.c ****             }
 473:.\Generated_Source\PSoC4/capsense_Structure.c ****             else
 474:.\Generated_Source\PSoC4/capsense_Structure.c ****             {
 475:.\Generated_Source\PSoC4/capsense_Structure.c ****                 /* Check offset for Flash Data Structure range */
 476:.\Generated_Source\PSoC4/capsense_Structure.c ****                 if (pData->offset >= sizeof(capsense_dsFlash))
 477:.\Generated_Source\PSoC4/capsense_Structure.c ****                 {
 478:.\Generated_Source\PSoC4/capsense_Structure.c ****                     result = CYRET_BAD_PARAM;
 479:.\Generated_Source\PSoC4/capsense_Structure.c ****                 }
 480:.\Generated_Source\PSoC4/capsense_Structure.c ****                 
 481:.\Generated_Source\PSoC4/capsense_Structure.c ****                 /* Check if it is marked as Read Only */
 482:.\Generated_Source\PSoC4/capsense_Structure.c ****                 if (0u != pData->rw)
 483:.\Generated_Source\PSoC4/capsense_Structure.c ****                 {
 484:.\Generated_Source\PSoC4/capsense_Structure.c ****                     result = CYRET_BAD_PARAM;
 485:.\Generated_Source\PSoC4/capsense_Structure.c ****                 }
 486:.\Generated_Source\PSoC4/capsense_Structure.c ****             }
 487:.\Generated_Source\PSoC4/capsense_Structure.c ****         }
 488:.\Generated_Source\PSoC4/capsense_Structure.c ****         
 489:.\Generated_Source\PSoC4/capsense_Structure.c ****         if (CYRET_SUCCESS == result)
 490:.\Generated_Source\PSoC4/capsense_Structure.c ****         {
 491:.\Generated_Source\PSoC4/capsense_Structure.c ****             /* Check parameter type, offset alignment */
 492:.\Generated_Source\PSoC4/capsense_Structure.c ****             switch (pData->type)
 493:.\Generated_Source\PSoC4/capsense_Structure.c ****             {
 494:.\Generated_Source\PSoC4/capsense_Structure.c ****             case DS_PARAM_TYPE_UINT16:
 495:.\Generated_Source\PSoC4/capsense_Structure.c ****                 if (0u != (pData->offset & UINT16_ALIGN_MASK))
 496:.\Generated_Source\PSoC4/capsense_Structure.c ****                 {
 497:.\Generated_Source\PSoC4/capsense_Structure.c ****                     result = CYRET_BAD_PARAM;
 498:.\Generated_Source\PSoC4/capsense_Structure.c ****                 }
 499:.\Generated_Source\PSoC4/capsense_Structure.c ****                 break;
 500:.\Generated_Source\PSoC4/capsense_Structure.c ****                 
 501:.\Generated_Source\PSoC4/capsense_Structure.c ****             case DS_PARAM_TYPE_UINT32:
 502:.\Generated_Source\PSoC4/capsense_Structure.c ****                 if (0u != (pData->offset & UINT32_ALIGN_MASK))
 503:.\Generated_Source\PSoC4/capsense_Structure.c ****                 {
 504:.\Generated_Source\PSoC4/capsense_Structure.c ****                     result = CYRET_BAD_PARAM;
 505:.\Generated_Source\PSoC4/capsense_Structure.c ****                 }
 506:.\Generated_Source\PSoC4/capsense_Structure.c ****                 break;
 507:.\Generated_Source\PSoC4/capsense_Structure.c ****                 
 508:.\Generated_Source\PSoC4/capsense_Structure.c ****             case DS_PARAM_TYPE_UINT8:
 509:.\Generated_Source\PSoC4/capsense_Structure.c ****                 break;
 510:.\Generated_Source\PSoC4/capsense_Structure.c ****                 
ARM GAS  C:\Users\Alan\AppData\Local\Temp\cckMaArW.s 			page 11


 511:.\Generated_Source\PSoC4/capsense_Structure.c ****             default:
 512:.\Generated_Source\PSoC4/capsense_Structure.c ****                 result = CYRET_BAD_PARAM;
 513:.\Generated_Source\PSoC4/capsense_Structure.c ****                 break;
 514:.\Generated_Source\PSoC4/capsense_Structure.c ****             }
 515:.\Generated_Source\PSoC4/capsense_Structure.c ****         }
 516:.\Generated_Source\PSoC4/capsense_Structure.c ****     #else
 517:.\Generated_Source\PSoC4/capsense_Structure.c ****         /* Check offset value range */
 518:.\Generated_Source\PSoC4/capsense_Structure.c ****         if (0u == pData->flash)
  61              		.loc 1 518 0
  62 0028 002B     		cmp	r3, #0
  63 002a 03D1     		bne	.L2
 519:.\Generated_Source\PSoC4/capsense_Structure.c ****         {
 520:.\Generated_Source\PSoC4/capsense_Structure.c ****             /* Check offset for RAM Data Structure range */
 521:.\Generated_Source\PSoC4/capsense_Structure.c ****             if (pData->offset >= sizeof(capsense_dsRam))
  64              		.loc 1 521 0
  65 002c 632C     		cmp	r4, #99
  66 002e 09D8     		bhi	.L9
 405:.\Generated_Source\PSoC4/capsense_Structure.c ****     
  67              		.loc 1 405 0
  68 0030 0020     		mov	r0, #0
  69 0032 0AE0     		b	.L3
  70              	.L2:
 522:.\Generated_Source\PSoC4/capsense_Structure.c ****             {
 523:.\Generated_Source\PSoC4/capsense_Structure.c ****                 result = CYRET_BAD_PARAM;
 524:.\Generated_Source\PSoC4/capsense_Structure.c ****             }
 525:.\Generated_Source\PSoC4/capsense_Structure.c ****         }
 526:.\Generated_Source\PSoC4/capsense_Structure.c ****         else
 527:.\Generated_Source\PSoC4/capsense_Structure.c ****         {
 528:.\Generated_Source\PSoC4/capsense_Structure.c ****             /* Check offset for Flash Data Structure range */
 529:.\Generated_Source\PSoC4/capsense_Structure.c ****             if (pData->offset >= sizeof(capsense_dsFlash))
  71              		.loc 1 529 0
  72 0034 272C     		cmp	r4, #39
  73 0036 01D8     		bhi	.L10
 405:.\Generated_Source\PSoC4/capsense_Structure.c ****     
  74              		.loc 1 405 0
  75 0038 0020     		mov	r0, #0
  76 003a 00E0     		b	.L4
  77              	.L10:
 530:.\Generated_Source\PSoC4/capsense_Structure.c ****             {
 531:.\Generated_Source\PSoC4/capsense_Structure.c ****                 result = CYRET_BAD_PARAM;
  78              		.loc 1 531 0
  79 003c 0120     		mov	r0, #1
  80              	.L4:
  81              	.LVL3:
 532:.\Generated_Source\PSoC4/capsense_Structure.c ****             }
 533:.\Generated_Source\PSoC4/capsense_Structure.c ****             
 534:.\Generated_Source\PSoC4/capsense_Structure.c ****             /* Check if it is marked as Read Only */
 535:.\Generated_Source\PSoC4/capsense_Structure.c ****             if (0u != pData->rw)
  82              		.loc 1 535 0
  83 003e 002A     		cmp	r2, #0
  84 0040 02D1     		bne	.L11
  85 0042 02E0     		b	.L3
  86              	.LVL4:
  87              	.L9:
 523:.\Generated_Source\PSoC4/capsense_Structure.c ****             }
  88              		.loc 1 523 0
  89 0044 0120     		mov	r0, #1
ARM GAS  C:\Users\Alan\AppData\Local\Temp\cckMaArW.s 			page 12


  90 0046 00E0     		b	.L3
  91              	.LVL5:
  92              	.L11:
 536:.\Generated_Source\PSoC4/capsense_Structure.c ****             {
 537:.\Generated_Source\PSoC4/capsense_Structure.c ****                 result = CYRET_BAD_PARAM;
  93              		.loc 1 537 0
  94 0048 0120     		mov	r0, #1
  95              	.LVL6:
  96              	.L3:
 538:.\Generated_Source\PSoC4/capsense_Structure.c ****             }
 539:.\Generated_Source\PSoC4/capsense_Structure.c ****         }
 540:.\Generated_Source\PSoC4/capsense_Structure.c ****     
 541:.\Generated_Source\PSoC4/capsense_Structure.c ****         if (CYRET_SUCCESS == result)
  97              		.loc 1 541 0
  98 004a 0028     		cmp	r0, #0
  99 004c 11D1     		bne	.L5
 542:.\Generated_Source\PSoC4/capsense_Structure.c ****         {
 543:.\Generated_Source\PSoC4/capsense_Structure.c ****             /* Check parameter type, offset alignment */
 544:.\Generated_Source\PSoC4/capsense_Structure.c ****             switch (pData->type)
 100              		.loc 1 544 0
 101 004e 022D     		cmp	r5, #2
 102 0050 04D0     		beq	.L6
 103 0052 032D     		cmp	r5, #3
 104 0054 05D0     		beq	.L7
 105 0056 012D     		cmp	r5, #1
 106 0058 06D1     		bne	.L15
 107 005a 0AE0     		b	.L5
 108              	.L6:
 545:.\Generated_Source\PSoC4/capsense_Structure.c ****             {
 546:.\Generated_Source\PSoC4/capsense_Structure.c ****             case DS_PARAM_TYPE_UINT16:
 547:.\Generated_Source\PSoC4/capsense_Structure.c ****                 if (0u != (pData->offset & UINT16_ALIGN_MASK))
 109              		.loc 1 547 0
 110 005c E307     		lsl	r3, r4, #31
 111 005e 05D4     		bmi	.L13
 112 0060 07E0     		b	.L5
 113              	.L7:
 548:.\Generated_Source\PSoC4/capsense_Structure.c ****                 {
 549:.\Generated_Source\PSoC4/capsense_Structure.c ****                     result = CYRET_BAD_PARAM;
 550:.\Generated_Source\PSoC4/capsense_Structure.c ****                 }
 551:.\Generated_Source\PSoC4/capsense_Structure.c ****                 break;
 552:.\Generated_Source\PSoC4/capsense_Structure.c ****                 
 553:.\Generated_Source\PSoC4/capsense_Structure.c ****             case DS_PARAM_TYPE_UINT32:
 554:.\Generated_Source\PSoC4/capsense_Structure.c ****                 if (0u != (pData->offset & UINT32_ALIGN_MASK))
 114              		.loc 1 554 0
 115 0062 A307     		lsl	r3, r4, #30
 116 0064 04D1     		bne	.L14
 117 0066 04E0     		b	.L5
 118              	.L15:
 555:.\Generated_Source\PSoC4/capsense_Structure.c ****                 {
 556:.\Generated_Source\PSoC4/capsense_Structure.c ****                     result = CYRET_BAD_PARAM;
 557:.\Generated_Source\PSoC4/capsense_Structure.c ****                 }
 558:.\Generated_Source\PSoC4/capsense_Structure.c ****                 break;
 559:.\Generated_Source\PSoC4/capsense_Structure.c ****                 
 560:.\Generated_Source\PSoC4/capsense_Structure.c ****             case DS_PARAM_TYPE_UINT8:
 561:.\Generated_Source\PSoC4/capsense_Structure.c ****                 break;
 562:.\Generated_Source\PSoC4/capsense_Structure.c ****                 
 563:.\Generated_Source\PSoC4/capsense_Structure.c ****             default:
ARM GAS  C:\Users\Alan\AppData\Local\Temp\cckMaArW.s 			page 13


 564:.\Generated_Source\PSoC4/capsense_Structure.c ****                 result = CYRET_BAD_PARAM;
 119              		.loc 1 564 0
 120 0068 0120     		mov	r0, #1
 121              	.LVL7:
 122 006a 02E0     		b	.L5
 123              	.LVL8:
 124              	.L13:
 549:.\Generated_Source\PSoC4/capsense_Structure.c ****                 }
 125              		.loc 1 549 0
 126 006c 0120     		mov	r0, #1
 127              	.LVL9:
 128 006e 00E0     		b	.L5
 129              	.LVL10:
 130              	.L14:
 556:.\Generated_Source\PSoC4/capsense_Structure.c ****                 }
 131              		.loc 1 556 0
 132 0070 0120     		mov	r0, #1
 133              	.LVL11:
 134              	.L5:
 565:.\Generated_Source\PSoC4/capsense_Structure.c ****                 break;
 566:.\Generated_Source\PSoC4/capsense_Structure.c ****             }
 567:.\Generated_Source\PSoC4/capsense_Structure.c ****         }  
 568:.\Generated_Source\PSoC4/capsense_Structure.c ****     #endif /* #if (0u != capsense_SELF_TEST_EN) */
 569:.\Generated_Source\PSoC4/capsense_Structure.c **** 
 570:.\Generated_Source\PSoC4/capsense_Structure.c ****     return result;
 571:.\Generated_Source\PSoC4/capsense_Structure.c **** }
 135              		.loc 1 571 0
 136              		@ sp needed
 137 0072 30BD     		pop	{r4, r5, pc}
 138              		.cfi_endproc
 139              	.LFE2:
 140              		.size	DsParseParamId, .-DsParseParamId
 141              		.section	.text.capsense_DsInitialize,"ax",%progbits
 142              		.align	2
 143              		.global	capsense_DsInitialize
 144              		.code	16
 145              		.thumb_func
 146              		.type	capsense_DsInitialize, %function
 147              	capsense_DsInitialize:
 148              	.LFB1:
 287:.\Generated_Source\PSoC4/capsense_Structure.c ****     #if (0u != capsense_CSX_EN) || (0 != capsense_CSD_IDAC_COMP_EN)
 149              		.loc 1 287 0
 150              		.cfi_startproc
 151 0000 38B5     		push	{r3, r4, r5, lr}
 152              		.cfi_def_cfa_offset 16
 153              		.cfi_offset 3, -16
 154              		.cfi_offset 4, -12
 155              		.cfi_offset 5, -8
 156              		.cfi_offset 14, -4
 157              	.LVL12:
 298:.\Generated_Source\PSoC4/capsense_Structure.c ****     
 158              		.loc 1 298 0
 159 0002 154D     		ldr	r5, .L21
 160 0004 281C     		mov	r0, r5
 161 0006 0021     		mov	r1, #0
 162 0008 6422     		mov	r2, #100
 163 000a FFF7FEFF 		bl	memset
ARM GAS  C:\Users\Alan\AppData\Local\Temp\cckMaArW.s 			page 14


 164              	.LVL13:
 301:.\Generated_Source\PSoC4/capsense_Structure.c ****     capsense_dsRam.deviceId = capsense_DEVICE_ID;
 165              		.loc 1 301 0
 166 000e 134B     		ldr	r3, .L21+4
 167 0010 2B80     		strh	r3, [r5]
 302:.\Generated_Source\PSoC4/capsense_Structure.c ****     
 168              		.loc 1 302 0
 169 0012 B023     		mov	r3, #176
 170 0014 5B00     		lsl	r3, r3, #1
 171 0016 6B80     		strh	r3, [r5, #2]
 312:.\Generated_Source\PSoC4/capsense_Structure.c ****         
 172              		.loc 1 312 0
 173 0018 603B     		sub	r3, r3, #96
 174 001a FF3B     		sub	r3, r3, #255
 175 001c 2B76     		strb	r3, [r5, #24]
 332:.\Generated_Source\PSoC4/capsense_Structure.c ****     
 176              		.loc 1 332 0
 177 001e 104C     		ldr	r4, .L21+8
 178 0020 281C     		mov	r0, r5
 179 0022 1A30     		add	r0, r0, #26
 180 0024 211C     		mov	r1, r4
 181 0026 3031     		add	r1, r1, #48
 182 0028 1222     		mov	r2, #18
 183 002a FFF7FEFF 		bl	memcpy
 184              	.LVL14:
 294:.\Generated_Source\PSoC4/capsense_Structure.c ****     #endif        
 185              		.loc 1 294 0
 186 002e 221C     		mov	r2, r4
 336:.\Generated_Source\PSoC4/capsense_Structure.c ****         
 187              		.loc 1 336 0
 188 0030 0834     		add	r4, r4, #8
 338:.\Generated_Source\PSoC4/capsense_Structure.c ****         {
 189              		.loc 1 338 0
 190 0032 0123     		mov	r3, #1
 191 0034 0CE0     		b	.L17
 192              	.LVL15:
 193              	.L20:
 340:.\Generated_Source\PSoC4/capsense_Structure.c ****                 
 194              		.loc 1 340 0
 195 0036 A168     		ldr	r1, [r4, #8]
 196              	.LVL16:
 342:.\Generated_Source\PSoC4/capsense_Structure.c ****             {
 197              		.loc 1 342 0
 198 0038 E38A     		ldrh	r3, [r4, #22]
 199              	.LVL17:
 200 003a 04E0     		b	.L18
 201              	.LVL18:
 202              	.L19:
 344:.\Generated_Source\PSoC4/capsense_Structure.c ****                 ptrIdacInit++;
 203              		.loc 1 344 0
 204 003c 1378     		ldrb	r3, [r2]
 205 003e 4B71     		strb	r3, [r1, #5]
 345:.\Generated_Source\PSoC4/capsense_Structure.c ****                 
 206              		.loc 1 345 0
 207 0040 0132     		add	r2, r2, #1
 208              	.LVL19:
 355:.\Generated_Source\PSoC4/capsense_Structure.c ****             }
ARM GAS  C:\Users\Alan\AppData\Local\Temp\cckMaArW.s 			page 15


 209              		.loc 1 355 0
 210 0042 0A31     		add	r1, r1, #10
 211              	.LVL20:
 342:.\Generated_Source\PSoC4/capsense_Structure.c ****             {
 212              		.loc 1 342 0
 213 0044 031C     		mov	r3, r0
 214              	.LVL21:
 215              	.L18:
 342:.\Generated_Source\PSoC4/capsense_Structure.c ****             {
 216              		.loc 1 342 0 is_stmt 0 discriminator 1
 217 0046 581E     		sub	r0, r3, #1
 218              	.LVL22:
 219 0048 002B     		cmp	r3, #0
 220 004a F7D1     		bne	.L19
 358:.\Generated_Source\PSoC4/capsense_Structure.c ****         }
 221              		.loc 1 358 0 is_stmt 1
 222 004c 2834     		add	r4, r4, #40
 223              	.LVL23:
 338:.\Generated_Source\PSoC4/capsense_Structure.c ****         {
 224              		.loc 1 338 0
 225 004e 2B1C     		mov	r3, r5
 226              	.LVL24:
 227              	.L17:
 338:.\Generated_Source\PSoC4/capsense_Structure.c ****         {
 228              		.loc 1 338 0 is_stmt 0 discriminator 1
 229 0050 5D1E     		sub	r5, r3, #1
 230              	.LVL25:
 231 0052 002B     		cmp	r3, #0
 232 0054 EFD1     		bne	.L20
 365:.\Generated_Source\PSoC4/capsense_Structure.c **** 
 233              		.loc 1 365 0 is_stmt 1
 234              		@ sp needed
 235              	.LVL26:
 236              	.LVL27:
 237 0056 38BD     		pop	{r3, r4, r5, pc}
 238              	.L22:
 239              		.align	2
 240              	.L21:
 241 0058 00000000 		.word	capsense_dsRam
 242 005c E2760000 		.word	30434
 243 0060 00000000 		.word	.LANCHOR0
 244              		.cfi_endproc
 245              	.LFE1:
 246              		.size	capsense_DsInitialize, .-capsense_DsInitialize
 247              		.section	.text.capsense_GetParam,"ax",%progbits
 248              		.align	2
 249              		.global	capsense_GetParam
 250              		.code	16
 251              		.thumb_func
 252              		.type	capsense_GetParam, %function
 253              	capsense_GetParam:
 254              	.LFB3:
 572:.\Generated_Source\PSoC4/capsense_Structure.c **** 
 573:.\Generated_Source\PSoC4/capsense_Structure.c **** /*******************************************************************************
 574:.\Generated_Source\PSoC4/capsense_Structure.c **** * Function Name: capsense_GetParam
 575:.\Generated_Source\PSoC4/capsense_Structure.c **** ****************************************************************************//**
 576:.\Generated_Source\PSoC4/capsense_Structure.c **** *
ARM GAS  C:\Users\Alan\AppData\Local\Temp\cckMaArW.s 			page 16


 577:.\Generated_Source\PSoC4/capsense_Structure.c **** * \brief
 578:.\Generated_Source\PSoC4/capsense_Structure.c **** *   Gets the specified parameter value from the data structure.
 579:.\Generated_Source\PSoC4/capsense_Structure.c **** *
 580:.\Generated_Source\PSoC4/capsense_Structure.c **** * \details
 581:.\Generated_Source\PSoC4/capsense_Structure.c **** *   The paramId for each register is available in capsense_RegisterMap header file.
 582:.\Generated_Source\PSoC4/capsense_Structure.c **** *   The paramId is a special enumerated value generated by the customizer.  
 583:.\Generated_Source\PSoC4/capsense_Structure.c **** *   The format of paramId is as follows:       
 584:.\Generated_Source\PSoC4/capsense_Structure.c **** *   -   [  byte 3   byte 2   byte 1   byte 0 ]  
 585:.\Generated_Source\PSoC4/capsense_Structure.c **** *   -   [ TTWFCCCC UIIIIIII MMMMMMMM LLLLLLLL ] 
 586:.\Generated_Source\PSoC4/capsense_Structure.c **** *   -   T - encodes the parameter type:
 587:.\Generated_Source\PSoC4/capsense_Structure.c **** *          - 01b - uint8
 588:.\Generated_Source\PSoC4/capsense_Structure.c **** *          - 10b - uint16
 589:.\Generated_Source\PSoC4/capsense_Structure.c **** *          - 11b uint32    
 590:.\Generated_Source\PSoC4/capsense_Structure.c **** *   -   W - indicates whether the parameter is writeable:
 591:.\Generated_Source\PSoC4/capsense_Structure.c **** *          - 0 - ReadOnly
 592:.\Generated_Source\PSoC4/capsense_Structure.c **** *          - 1 - Read/Write
 593:.\Generated_Source\PSoC4/capsense_Structure.c **** *   -   C - 4 bit CRC (X^3 + 1) of the whole paramId word,
 594:.\Generated_Source\PSoC4/capsense_Structure.c **** *          the C bits are filled with 0s when the CRC is calculated.
 595:.\Generated_Source\PSoC4/capsense_Structure.c **** *   -   U - indicates if the parameter affects the RAM Widget Object CRC.
 596:.\Generated_Source\PSoC4/capsense_Structure.c **** *   -   I - specifies that the widgetID parameter belongs to
 597:.\Generated_Source\PSoC4/capsense_Structure.c **** *   - M,L - the parameter offset MSB and LSB accordingly in:  
 598:.\Generated_Source\PSoC4/capsense_Structure.c **** *             - Flash Data Structure if W bit is 0.
 599:.\Generated_Source\PSoC4/capsense_Structure.c **** *             - RAM Data Structure if W bit is 1.
 600:.\Generated_Source\PSoC4/capsense_Structure.c **** *
 601:.\Generated_Source\PSoC4/capsense_Structure.c **** * \param  paramId The identifier of the Data Structure parameter.
 602:.\Generated_Source\PSoC4/capsense_Structure.c **** * \param  value   The pointer to a variable that should be updated with the value.
 603:.\Generated_Source\PSoC4/capsense_Structure.c **** *
 604:.\Generated_Source\PSoC4/capsense_Structure.c **** * \return
 605:.\Generated_Source\PSoC4/capsense_Structure.c **** *   Returns the status of operation:
 606:.\Generated_Source\PSoC4/capsense_Structure.c **** *     - CYRET_SUCCESS    The operation is successful
 607:.\Generated_Source\PSoC4/capsense_Structure.c **** *     - CYRET_BAD_PARAM  The parameter ID is wrong.
 608:.\Generated_Source\PSoC4/capsense_Structure.c **** *
 609:.\Generated_Source\PSoC4/capsense_Structure.c **** *******************************************************************************/
 610:.\Generated_Source\PSoC4/capsense_Structure.c **** cystatus capsense_GetParam(uint32 paramId, uint32 *value)
 611:.\Generated_Source\PSoC4/capsense_Structure.c **** {
 255              		.loc 1 611 0
 256              		.cfi_startproc
 257              	.LVL28:
 258 0000 30B5     		push	{r4, r5, lr}
 259              		.cfi_def_cfa_offset 12
 260              		.cfi_offset 4, -12
 261              		.cfi_offset 5, -8
 262              		.cfi_offset 14, -4
 263 0002 83B0     		sub	sp, sp, #12
 264              		.cfi_def_cfa_offset 24
 265 0004 0D1C     		mov	r5, r1
 612:.\Generated_Source\PSoC4/capsense_Structure.c ****     PARAM_ID_STRUCT pData;
 613:.\Generated_Source\PSoC4/capsense_Structure.c ****     cystatus result;
 614:.\Generated_Source\PSoC4/capsense_Structure.c ****     
 615:.\Generated_Source\PSoC4/capsense_Structure.c ****     union
 616:.\Generated_Source\PSoC4/capsense_Structure.c ****     {
 617:.\Generated_Source\PSoC4/capsense_Structure.c ****         volatile void   const * ptr;
 618:.\Generated_Source\PSoC4/capsense_Structure.c ****         volatile uint8  const * ptrUint8;
 619:.\Generated_Source\PSoC4/capsense_Structure.c ****         volatile uint16 const * ptrUint16;
 620:.\Generated_Source\PSoC4/capsense_Structure.c ****         volatile uint32 const * ptrUint32;
 621:.\Generated_Source\PSoC4/capsense_Structure.c ****     } ptrData;
 622:.\Generated_Source\PSoC4/capsense_Structure.c ****     
ARM GAS  C:\Users\Alan\AppData\Local\Temp\cckMaArW.s 			page 17


 623:.\Generated_Source\PSoC4/capsense_Structure.c ****     result = DsParseParamId(paramId, &pData);
 266              		.loc 1 623 0
 267 0006 6946     		mov	r1, sp
 268              	.LVL29:
 269 0008 FFF7FEFF 		bl	DsParseParamId
 270              	.LVL30:
 271 000c 041E     		sub	r4, r0, #0
 272              	.LVL31:
 624:.\Generated_Source\PSoC4/capsense_Structure.c ****     
 625:.\Generated_Source\PSoC4/capsense_Structure.c ****     /* Parse and validate paramId */
 626:.\Generated_Source\PSoC4/capsense_Structure.c ****     if (CYRET_SUCCESS == result)
 273              		.loc 1 626 0
 274 000e 1FD1     		bne	.L24
 627:.\Generated_Source\PSoC4/capsense_Structure.c ****     {
 628:.\Generated_Source\PSoC4/capsense_Structure.c ****         /* Get base address of parameter */
 629:.\Generated_Source\PSoC4/capsense_Structure.c ****         if (0u == pData.flash)
 275              		.loc 1 629 0
 276 0010 6B46     		mov	r3, sp
 277 0012 5B79     		ldrb	r3, [r3, #5]
 278 0014 002B     		cmp	r3, #0
 279 0016 01D1     		bne	.L25
 630:.\Generated_Source\PSoC4/capsense_Structure.c ****         {
 631:.\Generated_Source\PSoC4/capsense_Structure.c ****             ptrData.ptr = &capsense_dsRam;
 280              		.loc 1 631 0
 281 0018 0F4A     		ldr	r2, .L30
 282              	.LVL32:
 283 001a 02E0     		b	.L26
 284              	.L25:
 632:.\Generated_Source\PSoC4/capsense_Structure.c ****         }
 633:.\Generated_Source\PSoC4/capsense_Structure.c ****         else
 634:.\Generated_Source\PSoC4/capsense_Structure.c ****         {
 635:.\Generated_Source\PSoC4/capsense_Structure.c ****             ptrData.ptr = &capsense_dsFlash;
 285              		.loc 1 635 0
 286 001c 0F4B     		ldr	r3, .L30+4
 287              	.LVL33:
 288 001e 0833     		add	r3, r3, #8
 289              	.LVL34:
 290 0020 1A1C     		mov	r2, r3
 291              	.L26:
 636:.\Generated_Source\PSoC4/capsense_Structure.c ****         }
 637:.\Generated_Source\PSoC4/capsense_Structure.c ****         
 638:.\Generated_Source\PSoC4/capsense_Structure.c ****         /* Add offset to base address */
 639:.\Generated_Source\PSoC4/capsense_Structure.c ****         ptrData.ptrUint8 += pData.offset;
 292              		.loc 1 639 0
 293 0022 6B46     		mov	r3, sp
 294              	.LVL35:
 295 0024 1B88     		ldrh	r3, [r3]
 296              	.LVL36:
 297 0026 D318     		add	r3, r2, r3
 640:.\Generated_Source\PSoC4/capsense_Structure.c ****         
 641:.\Generated_Source\PSoC4/capsense_Structure.c ****         /* Read data */
 642:.\Generated_Source\PSoC4/capsense_Structure.c ****         if (DS_PARAM_TYPE_UINT8 == pData.type)
 298              		.loc 1 642 0
 299 0028 6A46     		mov	r2, sp
 300              	.LVL37:
 301 002a D279     		ldrb	r2, [r2, #7]
 302 002c 012A     		cmp	r2, #1
ARM GAS  C:\Users\Alan\AppData\Local\Temp\cckMaArW.s 			page 18


 303 002e 02D1     		bne	.L27
 643:.\Generated_Source\PSoC4/capsense_Structure.c ****         {
 644:.\Generated_Source\PSoC4/capsense_Structure.c ****             *value = (uint32) (*ptrData.ptrUint8);
 304              		.loc 1 644 0
 305 0030 1B78     		ldrb	r3, [r3]
 306 0032 2B60     		str	r3, [r5]
 307 0034 0CE0     		b	.L24
 308              	.L27:
 645:.\Generated_Source\PSoC4/capsense_Structure.c ****         }
 646:.\Generated_Source\PSoC4/capsense_Structure.c ****         else if (DS_PARAM_TYPE_UINT16 == pData.type)
 309              		.loc 1 646 0
 310 0036 022A     		cmp	r2, #2
 311 0038 02D1     		bne	.L28
 647:.\Generated_Source\PSoC4/capsense_Structure.c ****         {
 648:.\Generated_Source\PSoC4/capsense_Structure.c ****             *value = (uint32) (*ptrData.ptrUint16);
 312              		.loc 1 648 0
 313 003a 1B88     		ldrh	r3, [r3]
 314 003c 2B60     		str	r3, [r5]
 315 003e 07E0     		b	.L24
 316              	.L28:
 649:.\Generated_Source\PSoC4/capsense_Structure.c ****         }
 650:.\Generated_Source\PSoC4/capsense_Structure.c ****         else if (DS_PARAM_TYPE_UINT32 == pData.type)
 317              		.loc 1 650 0
 318 0040 032A     		cmp	r2, #3
 319 0042 02D1     		bne	.L29
 651:.\Generated_Source\PSoC4/capsense_Structure.c ****         {
 652:.\Generated_Source\PSoC4/capsense_Structure.c ****             *value = *ptrData.ptrUint32;
 320              		.loc 1 652 0
 321 0044 1B68     		ldr	r3, [r3]
 322 0046 2B60     		str	r3, [r5]
 323 0048 02E0     		b	.L24
 324              	.L29:
 653:.\Generated_Source\PSoC4/capsense_Structure.c ****         }
 654:.\Generated_Source\PSoC4/capsense_Structure.c ****         else
 655:.\Generated_Source\PSoC4/capsense_Structure.c ****         {
 656:.\Generated_Source\PSoC4/capsense_Structure.c ****             /* Parameter comes here already validated. */
 657:.\Generated_Source\PSoC4/capsense_Structure.c ****             CYASSERT(0u);
 325              		.loc 1 657 0 discriminator 1
 326 004a 0020     		mov	r0, #0
 327              	.LVL38:
 328 004c FFF7FEFF 		bl	CyHalt
 329              	.LVL39:
 330              	.L24:
 658:.\Generated_Source\PSoC4/capsense_Structure.c ****         }
 659:.\Generated_Source\PSoC4/capsense_Structure.c ****     }
 660:.\Generated_Source\PSoC4/capsense_Structure.c ****     
 661:.\Generated_Source\PSoC4/capsense_Structure.c ****     return result;
 662:.\Generated_Source\PSoC4/capsense_Structure.c **** }
 331              		.loc 1 662 0
 332 0050 201C     		mov	r0, r4
 333 0052 03B0     		add	sp, sp, #12
 334              		@ sp needed
 335              	.LVL40:
 336              	.LVL41:
 337 0054 30BD     		pop	{r4, r5, pc}
 338              	.L31:
 339 0056 C046     		.align	2
ARM GAS  C:\Users\Alan\AppData\Local\Temp\cckMaArW.s 			page 19


 340              	.L30:
 341 0058 00000000 		.word	capsense_dsRam
 342 005c 00000000 		.word	.LANCHOR0
 343              		.cfi_endproc
 344              	.LFE3:
 345              		.size	capsense_GetParam, .-capsense_GetParam
 346              		.section	.text.capsense_SetParam,"ax",%progbits
 347              		.align	2
 348              		.global	capsense_SetParam
 349              		.code	16
 350              		.thumb_func
 351              		.type	capsense_SetParam, %function
 352              	capsense_SetParam:
 353              	.LFB4:
 663:.\Generated_Source\PSoC4/capsense_Structure.c **** 
 664:.\Generated_Source\PSoC4/capsense_Structure.c **** 
 665:.\Generated_Source\PSoC4/capsense_Structure.c **** /*******************************************************************************
 666:.\Generated_Source\PSoC4/capsense_Structure.c **** * Function Name: capsense_SetParam
 667:.\Generated_Source\PSoC4/capsense_Structure.c **** ****************************************************************************//**
 668:.\Generated_Source\PSoC4/capsense_Structure.c **** *
 669:.\Generated_Source\PSoC4/capsense_Structure.c **** * \brief
 670:.\Generated_Source\PSoC4/capsense_Structure.c **** *   Sets the new value for the specified parameter in the data structure.
 671:.\Generated_Source\PSoC4/capsense_Structure.c **** *
 672:.\Generated_Source\PSoC4/capsense_Structure.c **** * \details
 673:.\Generated_Source\PSoC4/capsense_Structure.c **** *   The paramId for each register is available in capsense_RegisterMap header file.
 674:.\Generated_Source\PSoC4/capsense_Structure.c **** *   The paramId is a special enumerated value generated by the customizer.
 675:.\Generated_Source\PSoC4/capsense_Structure.c **** *   The format of paramId is as follows:       
 676:.\Generated_Source\PSoC4/capsense_Structure.c **** *    -  [  byte 3   byte 2   byte 1   byte 0  ]
 677:.\Generated_Source\PSoC4/capsense_Structure.c **** *    -  [ TTWFCCCC UIIIIIII MMMMMMMM LLLLLLLL ]
 678:.\Generated_Source\PSoC4/capsense_Structure.c **** *    -  T - encodes the parameter type:
 679:.\Generated_Source\PSoC4/capsense_Structure.c **** *           - 01b - uint8
 680:.\Generated_Source\PSoC4/capsense_Structure.c **** *           - 10b - uint16
 681:.\Generated_Source\PSoC4/capsense_Structure.c **** *           - 11b - uint32
 682:.\Generated_Source\PSoC4/capsense_Structure.c **** *    -  W - indicates whether the parameter is writeable:
 683:.\Generated_Source\PSoC4/capsense_Structure.c **** *           - 0 - ReadOnly
 684:.\Generated_Source\PSoC4/capsense_Structure.c **** *           - 1 - Read/Write              
 685:.\Generated_Source\PSoC4/capsense_Structure.c **** *    -   C - 4 bit CRC (X^3 + 1) of the whole paramId word,
 686:.\Generated_Source\PSoC4/capsense_Structure.c **** *            the C bits are filled with 0s when the CRC is calculated.
 687:.\Generated_Source\PSoC4/capsense_Structure.c **** *    -   U - indicates if parameter affects RAM Widget Object CRC.
 688:.\Generated_Source\PSoC4/capsense_Structure.c **** *    -   I - specifies the widgetID parameter belongs to
 689:.\Generated_Source\PSoC4/capsense_Structure.c **** *    - M,L - the parameter offset MSB and LSB accordingly in:
 690:.\Generated_Source\PSoC4/capsense_Structure.c **** *             - Flash Data Structure if W bit is 0.
 691:.\Generated_Source\PSoC4/capsense_Structure.c **** *             - RAM Data Structure if W bit is 1.
 692:.\Generated_Source\PSoC4/capsense_Structure.c **** *
 693:.\Generated_Source\PSoC4/capsense_Structure.c **** * \param paramId  The identifier of the Data Structure parameter.
 694:.\Generated_Source\PSoC4/capsense_Structure.c **** * \param value    The new parameter's value.
 695:.\Generated_Source\PSoC4/capsense_Structure.c **** *
 696:.\Generated_Source\PSoC4/capsense_Structure.c **** * \return
 697:.\Generated_Source\PSoC4/capsense_Structure.c **** *   Returns the status of operation:
 698:.\Generated_Source\PSoC4/capsense_Structure.c **** *       - CYRET_SUCCESS    The operation is successful.
 699:.\Generated_Source\PSoC4/capsense_Structure.c **** *       - CYRET_BAD_PARAM  The parameter ID is wrong.
 700:.\Generated_Source\PSoC4/capsense_Structure.c **** *
 701:.\Generated_Source\PSoC4/capsense_Structure.c **** *******************************************************************************/
 702:.\Generated_Source\PSoC4/capsense_Structure.c **** cystatus capsense_SetParam(uint32 paramId, uint32 value)
 703:.\Generated_Source\PSoC4/capsense_Structure.c **** {
 354              		.loc 1 703 0
 355              		.cfi_startproc
ARM GAS  C:\Users\Alan\AppData\Local\Temp\cckMaArW.s 			page 20


 356              	.LVL42:
 357 0000 30B5     		push	{r4, r5, lr}
 358              		.cfi_def_cfa_offset 12
 359              		.cfi_offset 4, -12
 360              		.cfi_offset 5, -8
 361              		.cfi_offset 14, -4
 362 0002 83B0     		sub	sp, sp, #12
 363              		.cfi_def_cfa_offset 24
 364 0004 0D1C     		mov	r5, r1
 704:.\Generated_Source\PSoC4/capsense_Structure.c ****     cystatus result;
 705:.\Generated_Source\PSoC4/capsense_Structure.c ****     PARAM_ID_STRUCT pData;
 706:.\Generated_Source\PSoC4/capsense_Structure.c ****     
 707:.\Generated_Source\PSoC4/capsense_Structure.c ****     union
 708:.\Generated_Source\PSoC4/capsense_Structure.c ****     {
 709:.\Generated_Source\PSoC4/capsense_Structure.c ****         volatile void   * ptr;
 710:.\Generated_Source\PSoC4/capsense_Structure.c ****         volatile uint8  * ptrUint8;
 711:.\Generated_Source\PSoC4/capsense_Structure.c ****         volatile uint16 * ptrUint16;
 712:.\Generated_Source\PSoC4/capsense_Structure.c ****         volatile uint32 * ptrUint32;
 713:.\Generated_Source\PSoC4/capsense_Structure.c ****     } ptrData;
 714:.\Generated_Source\PSoC4/capsense_Structure.c ****     
 715:.\Generated_Source\PSoC4/capsense_Structure.c ****     result = DsParseParamId(paramId, &pData);
 365              		.loc 1 715 0
 366 0006 6946     		mov	r1, sp
 367              	.LVL43:
 368 0008 FFF7FEFF 		bl	DsParseParamId
 369              	.LVL44:
 370 000c 041E     		sub	r4, r0, #0
 371              	.LVL45:
 716:.\Generated_Source\PSoC4/capsense_Structure.c ****     
 717:.\Generated_Source\PSoC4/capsense_Structure.c ****     /* verify if parameter is writable */
 718:.\Generated_Source\PSoC4/capsense_Structure.c ****     if (CYRET_SUCCESS == result)
 372              		.loc 1 718 0
 373 000e 04D1     		bne	.L33
 719:.\Generated_Source\PSoC4/capsense_Structure.c ****     {
 720:.\Generated_Source\PSoC4/capsense_Structure.c ****         if (0u == pData.rw)
 374              		.loc 1 720 0
 375 0010 6B46     		mov	r3, sp
 376 0012 9B79     		ldrb	r3, [r3, #6]
 377 0014 002B     		cmp	r3, #0
 378 0016 00D1     		bne	.L33
 721:.\Generated_Source\PSoC4/capsense_Structure.c ****         {
 722:.\Generated_Source\PSoC4/capsense_Structure.c ****             result = CYRET_BAD_PARAM;
 379              		.loc 1 722 0
 380 0018 0134     		add	r4, r4, #1
 381              	.L33:
 382              	.LVL46:
 723:.\Generated_Source\PSoC4/capsense_Structure.c ****         }
 724:.\Generated_Source\PSoC4/capsense_Structure.c ****     }
 725:.\Generated_Source\PSoC4/capsense_Structure.c ****     
 726:.\Generated_Source\PSoC4/capsense_Structure.c ****     /* Parse and validate paramId */
 727:.\Generated_Source\PSoC4/capsense_Structure.c ****     if (CYRET_SUCCESS == result)
 383              		.loc 1 727 0
 384 001a 002C     		cmp	r4, #0
 385 001c 16D1     		bne	.L34
 728:.\Generated_Source\PSoC4/capsense_Structure.c ****     {
 729:.\Generated_Source\PSoC4/capsense_Structure.c ****         /* Get base address of parameter */
 730:.\Generated_Source\PSoC4/capsense_Structure.c ****         ptrData.ptr = &capsense_dsRam;
ARM GAS  C:\Users\Alan\AppData\Local\Temp\cckMaArW.s 			page 21


 731:.\Generated_Source\PSoC4/capsense_Structure.c ****         
 732:.\Generated_Source\PSoC4/capsense_Structure.c ****         /* Add offset to base address */
 733:.\Generated_Source\PSoC4/capsense_Structure.c ****         ptrData.ptrUint8 += pData.offset;
 386              		.loc 1 733 0
 387 001e 6B46     		mov	r3, sp
 388 0020 1A88     		ldrh	r2, [r3]
 389 0022 0C4B     		ldr	r3, .L39
 390 0024 D318     		add	r3, r2, r3
 734:.\Generated_Source\PSoC4/capsense_Structure.c ****         
 735:.\Generated_Source\PSoC4/capsense_Structure.c ****         /* Write data */
 736:.\Generated_Source\PSoC4/capsense_Structure.c ****         if (DS_PARAM_TYPE_UINT8 == pData.type)
 391              		.loc 1 736 0
 392 0026 6A46     		mov	r2, sp
 393 0028 D279     		ldrb	r2, [r2, #7]
 394 002a 012A     		cmp	r2, #1
 395 002c 02D1     		bne	.L35
 737:.\Generated_Source\PSoC4/capsense_Structure.c ****         {
 738:.\Generated_Source\PSoC4/capsense_Structure.c ****             *ptrData.ptrUint8 = LO8(value);
 396              		.loc 1 738 0
 397 002e EDB2     		uxtb	r5, r5
 398              	.LVL47:
 399 0030 1D70     		strb	r5, [r3]
 400 0032 0BE0     		b	.L34
 401              	.LVL48:
 402              	.L35:
 739:.\Generated_Source\PSoC4/capsense_Structure.c ****         }
 740:.\Generated_Source\PSoC4/capsense_Structure.c ****         else if (DS_PARAM_TYPE_UINT16 == pData.type)
 403              		.loc 1 740 0
 404 0034 022A     		cmp	r2, #2
 405 0036 02D1     		bne	.L36
 741:.\Generated_Source\PSoC4/capsense_Structure.c ****         {
 742:.\Generated_Source\PSoC4/capsense_Structure.c ****             *ptrData.ptrUint16 = LO16(value);
 406              		.loc 1 742 0
 407 0038 ADB2     		uxth	r5, r5
 408              	.LVL49:
 409 003a 1D80     		strh	r5, [r3]
 410 003c 06E0     		b	.L34
 411              	.LVL50:
 412              	.L36:
 743:.\Generated_Source\PSoC4/capsense_Structure.c ****         }
 744:.\Generated_Source\PSoC4/capsense_Structure.c ****         else if (DS_PARAM_TYPE_UINT32 == pData.type)
 413              		.loc 1 744 0
 414 003e 032A     		cmp	r2, #3
 415 0040 01D1     		bne	.L37
 745:.\Generated_Source\PSoC4/capsense_Structure.c ****         {
 746:.\Generated_Source\PSoC4/capsense_Structure.c ****             *ptrData.ptrUint32 = value;
 416              		.loc 1 746 0
 417 0042 1D60     		str	r5, [r3]
 418 0044 02E0     		b	.L34
 419              	.L37:
 747:.\Generated_Source\PSoC4/capsense_Structure.c ****         }
 748:.\Generated_Source\PSoC4/capsense_Structure.c ****         else
 749:.\Generated_Source\PSoC4/capsense_Structure.c ****         {
 750:.\Generated_Source\PSoC4/capsense_Structure.c ****             /* Parameter comes here already validated. */
 751:.\Generated_Source\PSoC4/capsense_Structure.c ****             CYASSERT(0u);
 420              		.loc 1 751 0 discriminator 1
 421 0046 0020     		mov	r0, #0
ARM GAS  C:\Users\Alan\AppData\Local\Temp\cckMaArW.s 			page 22


 422 0048 FFF7FEFF 		bl	CyHalt
 423              	.LVL51:
 424              	.L34:
 752:.\Generated_Source\PSoC4/capsense_Structure.c ****         }
 753:.\Generated_Source\PSoC4/capsense_Structure.c ****         
 754:.\Generated_Source\PSoC4/capsense_Structure.c ****         /* Update widget CRC if self-test is enabled and parameter affects it */
 755:.\Generated_Source\PSoC4/capsense_Structure.c ****         #if (0u != capsense_SELF_TEST_EN)
 756:.\Generated_Source\PSoC4/capsense_Structure.c ****             if (0u != pData.affectsCrc)
 757:.\Generated_Source\PSoC4/capsense_Structure.c ****             {
 758:.\Generated_Source\PSoC4/capsense_Structure.c ****                 capsense_DsUpdateWidgetCrc((uint32)pData.widgetId);
 759:.\Generated_Source\PSoC4/capsense_Structure.c ****             }
 760:.\Generated_Source\PSoC4/capsense_Structure.c ****             else
 761:.\Generated_Source\PSoC4/capsense_Structure.c ****             {
 762:.\Generated_Source\PSoC4/capsense_Structure.c ****                 if ((ptrData.ptrUint16 >= &capsense_dsRam.csd0Config) &&
 763:.\Generated_Source\PSoC4/capsense_Structure.c ****                     (ptrData.ptrUint16 <  &capsense_dsRam.glbCrc))
 764:.\Generated_Source\PSoC4/capsense_Structure.c ****                 {
 765:.\Generated_Source\PSoC4/capsense_Structure.c ****                     /* Update global data CRC */
 766:.\Generated_Source\PSoC4/capsense_Structure.c ****                     capsense_dsRam.glbCrc = 
 767:.\Generated_Source\PSoC4/capsense_Structure.c ****                         capsense_DsCalculateCrc16(
 768:.\Generated_Source\PSoC4/capsense_Structure.c ****                             (void *)&capsense_dsRam.csd0Config,
 769:.\Generated_Source\PSoC4/capsense_Structure.c ****                             (uint32)&capsense_dsRam.glbCrc - (uint32)&capsense_dsRam.csd0Config);
 770:.\Generated_Source\PSoC4/capsense_Structure.c ****                 }
 771:.\Generated_Source\PSoC4/capsense_Structure.c ****             }
 772:.\Generated_Source\PSoC4/capsense_Structure.c ****         #endif /* #if (0u != capsense_SELF_TEST_EN) */
 773:.\Generated_Source\PSoC4/capsense_Structure.c ****     }
 774:.\Generated_Source\PSoC4/capsense_Structure.c ****     
 775:.\Generated_Source\PSoC4/capsense_Structure.c ****     return result;
 776:.\Generated_Source\PSoC4/capsense_Structure.c **** }
 425              		.loc 1 776 0
 426 004c 201C     		mov	r0, r4
 427 004e 03B0     		add	sp, sp, #12
 428              		@ sp needed
 429              	.LVL52:
 430 0050 30BD     		pop	{r4, r5, pc}
 431              	.L40:
 432 0052 C046     		.align	2
 433              	.L39:
 434 0054 00000000 		.word	capsense_dsRam
 435              		.cfi_endproc
 436              	.LFE4:
 437              		.size	capsense_SetParam, .-capsense_SetParam
 438              		.section	.text.capsense_IsAnyWidgetActive,"ax",%progbits
 439              		.align	2
 440              		.global	capsense_IsAnyWidgetActive
 441              		.code	16
 442              		.thumb_func
 443              		.type	capsense_IsAnyWidgetActive, %function
 444              	capsense_IsAnyWidgetActive:
 445              	.LFB5:
 777:.\Generated_Source\PSoC4/capsense_Structure.c **** 
 778:.\Generated_Source\PSoC4/capsense_Structure.c **** #if (0u != capsense_SELF_TEST_EN)
 779:.\Generated_Source\PSoC4/capsense_Structure.c **** /*******************************************************************************
 780:.\Generated_Source\PSoC4/capsense_Structure.c **** * Function Name: DsCalculateCrc16
 781:.\Generated_Source\PSoC4/capsense_Structure.c **** ****************************************************************************//**
 782:.\Generated_Source\PSoC4/capsense_Structure.c **** *
 783:.\Generated_Source\PSoC4/capsense_Structure.c **** * \brief
 784:.\Generated_Source\PSoC4/capsense_Structure.c **** *   Calculates CRC for the specified buffer and length. CRC Poly: 0xAC9A
ARM GAS  C:\Users\Alan\AppData\Local\Temp\cckMaArW.s 			page 23


 785:.\Generated_Source\PSoC4/capsense_Structure.c **** *
 786:.\Generated_Source\PSoC4/capsense_Structure.c **** * \details 
 787:.\Generated_Source\PSoC4/capsense_Structure.c **** *  This API is used for the CRC protection of the RAM Widget Object.
 788:.\Generated_Source\PSoC4/capsense_Structure.c **** *  The maximum size of the RAM Widget Object is 192 bits. So, the best suitable 
 789:.\Generated_Source\PSoC4/capsense_Structure.c **** *  CRC polynomial is 0xAC9A. It has a Hamming distance 5 for data words up to 241 bits.
 790:.\Generated_Source\PSoC4/capsense_Structure.c **** *    
 791:.\Generated_Source\PSoC4/capsense_Structure.c **** *  Reference:  "P. Koopman, T. Chakravarthy, 
 792:.\Generated_Source\PSoC4/capsense_Structure.c **** *  "Cyclic Redundancy Code (CRC) Polynomial Selection for Embedded Networks",
 793:.\Generated_Source\PSoC4/capsense_Structure.c **** *  The International Conference on Dependable Systems and Networks, DSN-2004"
 794:.\Generated_Source\PSoC4/capsense_Structure.c **** *
 795:.\Generated_Source\PSoC4/capsense_Structure.c **** * \param ptrData The pointer to the data.
 796:.\Generated_Source\PSoC4/capsense_Structure.c **** * \param len     The length of the data in bytes.
 797:.\Generated_Source\PSoC4/capsense_Structure.c **** *
 798:.\Generated_Source\PSoC4/capsense_Structure.c **** * \return A calculated CRC-16 value.
 799:.\Generated_Source\PSoC4/capsense_Structure.c **** *
 800:.\Generated_Source\PSoC4/capsense_Structure.c **** *******************************************************************************/
 801:.\Generated_Source\PSoC4/capsense_Structure.c **** uint16 capsense_DsCalculateCrc16(uint8 *ptrData, uint32 len)
 802:.\Generated_Source\PSoC4/capsense_Structure.c **** {
 803:.\Generated_Source\PSoC4/capsense_Structure.c ****     uint32 idx;
 804:.\Generated_Source\PSoC4/capsense_Structure.c ****     uint32 actualCrc = 0Lu;
 805:.\Generated_Source\PSoC4/capsense_Structure.c ****     const uint16 crcTable[] =
 806:.\Generated_Source\PSoC4/capsense_Structure.c ****     {
 807:.\Generated_Source\PSoC4/capsense_Structure.c ****         0x0000u, 0xAC9Au, 0xF5AEu, 0x5934u, 0x47C6u, 0xEB5Cu, 0xB268u, 0x1EF2u,
 808:.\Generated_Source\PSoC4/capsense_Structure.c ****         0x8F8Cu, 0x2316u, 0x7A22u, 0xD6B8u, 0xC84Au, 0x64D0u, 0x3DE4u, 0x917Eu
 809:.\Generated_Source\PSoC4/capsense_Structure.c ****     };
 810:.\Generated_Source\PSoC4/capsense_Structure.c ****     
 811:.\Generated_Source\PSoC4/capsense_Structure.c ****     for (;len-- > 0u;)
 812:.\Generated_Source\PSoC4/capsense_Structure.c ****     {
 813:.\Generated_Source\PSoC4/capsense_Structure.c ****         /* Process HI Nibble */
 814:.\Generated_Source\PSoC4/capsense_Structure.c ****         idx = ((actualCrc >> 12u) ^ (((uint32)*ptrData) >> 4u)) & 0xFLu;
 815:.\Generated_Source\PSoC4/capsense_Structure.c ****         actualCrc = crcTable[idx] ^ (actualCrc << 4u);
 816:.\Generated_Source\PSoC4/capsense_Structure.c **** 
 817:.\Generated_Source\PSoC4/capsense_Structure.c ****         /* Process LO Nibble */
 818:.\Generated_Source\PSoC4/capsense_Structure.c ****         idx = ((actualCrc >> 12u) ^ (uint32)*ptrData) & 0xFLu;
 819:.\Generated_Source\PSoC4/capsense_Structure.c ****         actualCrc = crcTable[idx] ^ (actualCrc << 4u);
 820:.\Generated_Source\PSoC4/capsense_Structure.c ****         
 821:.\Generated_Source\PSoC4/capsense_Structure.c ****         ptrData++;
 822:.\Generated_Source\PSoC4/capsense_Structure.c ****     }
 823:.\Generated_Source\PSoC4/capsense_Structure.c ****         
 824:.\Generated_Source\PSoC4/capsense_Structure.c ****     return (uint16)actualCrc;
 825:.\Generated_Source\PSoC4/capsense_Structure.c **** }
 826:.\Generated_Source\PSoC4/capsense_Structure.c **** 
 827:.\Generated_Source\PSoC4/capsense_Structure.c **** /*******************************************************************************
 828:.\Generated_Source\PSoC4/capsense_Structure.c **** * Function Name: capsense_DsUpdateWidgetCrc
 829:.\Generated_Source\PSoC4/capsense_Structure.c **** ****************************************************************************//**
 830:.\Generated_Source\PSoC4/capsense_Structure.c **** *
 831:.\Generated_Source\PSoC4/capsense_Structure.c **** * \brief
 832:.\Generated_Source\PSoC4/capsense_Structure.c **** *   Recalculates the CRC for the specified widgetId and 
 833:.\Generated_Source\PSoC4/capsense_Structure.c **** *   writes it to the Data Structure.
 834:.\Generated_Source\PSoC4/capsense_Structure.c **** *
 835:.\Generated_Source\PSoC4/capsense_Structure.c **** * \details 
 836:.\Generated_Source\PSoC4/capsense_Structure.c **** *  The maximum size of the RAM Widget Object is 192 bits. So, the best suitable 
 837:.\Generated_Source\PSoC4/capsense_Structure.c **** *  CRC polynomial is 0xAC9A that has hamming distance 5 for the data up to 241 bits. 
 838:.\Generated_Source\PSoC4/capsense_Structure.c **** *    
 839:.\Generated_Source\PSoC4/capsense_Structure.c **** *  Reference:  "P. Koopman, T. Chakravarthy, 
 840:.\Generated_Source\PSoC4/capsense_Structure.c **** *  "Cyclic Redundancy Code (CRC) Polynomial Selection for Embedded Networks", 
 841:.\Generated_Source\PSoC4/capsense_Structure.c **** *  The International Conference on Dependable Systems and Networks, DSN-2004"
ARM GAS  C:\Users\Alan\AppData\Local\Temp\cckMaArW.s 			page 24


 842:.\Generated_Source\PSoC4/capsense_Structure.c **** *
 843:.\Generated_Source\PSoC4/capsense_Structure.c **** * \param widgetId  The widget index number.
 844:.\Generated_Source\PSoC4/capsense_Structure.c **** *
 845:.\Generated_Source\PSoC4/capsense_Structure.c **** *******************************************************************************/
 846:.\Generated_Source\PSoC4/capsense_Structure.c **** void capsense_DsUpdateWidgetCrc(uint32 widgetId)
 847:.\Generated_Source\PSoC4/capsense_Structure.c **** {
 848:.\Generated_Source\PSoC4/capsense_Structure.c ****     uint32 len;
 849:.\Generated_Source\PSoC4/capsense_Structure.c ****     uint8 *ptrData;
 850:.\Generated_Source\PSoC4/capsense_Structure.c ****     capsense_RAM_WD_BASE_STRUCT *ptrWd;
 851:.\Generated_Source\PSoC4/capsense_Structure.c ****     
 852:.\Generated_Source\PSoC4/capsense_Structure.c ****     if (widgetId < capsense_TOTAL_WIDGETS)
 853:.\Generated_Source\PSoC4/capsense_Structure.c ****     {
 854:.\Generated_Source\PSoC4/capsense_Structure.c ****         /* Get pointer to RAM object data */
 855:.\Generated_Source\PSoC4/capsense_Structure.c ****         ptrWd = capsense_dsFlash.wdgtArray[widgetId].ptr2WdgtRam;
 856:.\Generated_Source\PSoC4/capsense_Structure.c ****         ptrData = capsense_dsFlash.wdgtArray[widgetId].ptr2WdgtRam;
 857:.\Generated_Source\PSoC4/capsense_Structure.c ****         len = (uint32)capsense_dsFlash.wdgtArray[widgetId].ramObjectSize - 2u;
 858:.\Generated_Source\PSoC4/capsense_Structure.c ****         
 859:.\Generated_Source\PSoC4/capsense_Structure.c ****         /* Skip CRC in RAM object structure for CRC calculation */
 860:.\Generated_Source\PSoC4/capsense_Structure.c ****         ptrData += 2u;
 861:.\Generated_Source\PSoC4/capsense_Structure.c ****       
 862:.\Generated_Source\PSoC4/capsense_Structure.c ****         ptrWd->crc = capsense_DsCalculateCrc16(ptrData, len);
 863:.\Generated_Source\PSoC4/capsense_Structure.c ****     }
 864:.\Generated_Source\PSoC4/capsense_Structure.c **** }
 865:.\Generated_Source\PSoC4/capsense_Structure.c **** #endif /* #if (0u != capsense_SELF_TEST_EN) */
 866:.\Generated_Source\PSoC4/capsense_Structure.c **** 
 867:.\Generated_Source\PSoC4/capsense_Structure.c **** /*******************************************************************************
 868:.\Generated_Source\PSoC4/capsense_Structure.c **** * Function Name: capsense_IsAnyWidgetActive
 869:.\Generated_Source\PSoC4/capsense_Structure.c **** ****************************************************************************//**
 870:.\Generated_Source\PSoC4/capsense_Structure.c **** *
 871:.\Generated_Source\PSoC4/capsense_Structure.c **** * \brief
 872:.\Generated_Source\PSoC4/capsense_Structure.c **** *   Reports if any widget has detected a touch.
 873:.\Generated_Source\PSoC4/capsense_Structure.c **** *
 874:.\Generated_Source\PSoC4/capsense_Structure.c **** * \details
 875:.\Generated_Source\PSoC4/capsense_Structure.c **** *   The information is extracted from the wdgtStatus registers.
 876:.\Generated_Source\PSoC4/capsense_Structure.c **** *
 877:.\Generated_Source\PSoC4/capsense_Structure.c **** * \return 
 878:.\Generated_Source\PSoC4/capsense_Structure.c **** *   Returns the status of all widgets:
 879:.\Generated_Source\PSoC4/capsense_Structure.c **** *   - Non-Zero - Indicates one or more widgets are active.
 880:.\Generated_Source\PSoC4/capsense_Structure.c **** *   - Zero     - Indicates no touch is detected.
 881:.\Generated_Source\PSoC4/capsense_Structure.c **** *
 882:.\Generated_Source\PSoC4/capsense_Structure.c **** *******************************************************************************/
 883:.\Generated_Source\PSoC4/capsense_Structure.c **** uint32 capsense_IsAnyWidgetActive(void)
 884:.\Generated_Source\PSoC4/capsense_Structure.c **** {
 446              		.loc 1 884 0
 447              		.cfi_startproc
 448              	.LVL53:
 885:.\Generated_Source\PSoC4/capsense_Structure.c ****     uint32 result = 0Lu;
 886:.\Generated_Source\PSoC4/capsense_Structure.c ****     uint32 wdWord;
 887:.\Generated_Source\PSoC4/capsense_Structure.c ****     
 888:.\Generated_Source\PSoC4/capsense_Structure.c ****     for (wdWord = capsense_WDGT_STATUS_WORDS; wdWord-- > 0u;)
 449              		.loc 1 888 0
 450 0000 0123     		mov	r3, #1
 885:.\Generated_Source\PSoC4/capsense_Structure.c ****     uint32 result = 0Lu;
 451              		.loc 1 885 0
 452 0002 0020     		mov	r0, #0
 453              		.loc 1 888 0
 454 0004 05E0     		b	.L42
ARM GAS  C:\Users\Alan\AppData\Local\Temp\cckMaArW.s 			page 25


 455              	.LVL54:
 456              	.L43:
 889:.\Generated_Source\PSoC4/capsense_Structure.c ****     {
 890:.\Generated_Source\PSoC4/capsense_Structure.c ****         result |= capsense_dsRam.wdgtStatus[wdWord];
 457              		.loc 1 890 0
 458 0006 131D     		add	r3, r2, #4
 459 0008 9B00     		lsl	r3, r3, #2
 460 000a 0449     		ldr	r1, .L44
 461 000c 5B58     		ldr	r3, [r3, r1]
 462 000e 1843     		orr	r0, r3
 463              	.LVL55:
 888:.\Generated_Source\PSoC4/capsense_Structure.c ****     {
 464              		.loc 1 888 0
 465 0010 131C     		mov	r3, r2
 466              	.LVL56:
 467              	.L42:
 888:.\Generated_Source\PSoC4/capsense_Structure.c ****     {
 468              		.loc 1 888 0 is_stmt 0 discriminator 1
 469 0012 5A1E     		sub	r2, r3, #1
 470              	.LVL57:
 471 0014 002B     		cmp	r3, #0
 472 0016 F6D1     		bne	.L43
 891:.\Generated_Source\PSoC4/capsense_Structure.c ****     }
 892:.\Generated_Source\PSoC4/capsense_Structure.c ****     
 893:.\Generated_Source\PSoC4/capsense_Structure.c ****     return result;
 894:.\Generated_Source\PSoC4/capsense_Structure.c **** }
 473              		.loc 1 894 0 is_stmt 1
 474              		@ sp needed
 475 0018 7047     		bx	lr
 476              	.L45:
 477 001a C046     		.align	2
 478              	.L44:
 479 001c 00000000 		.word	capsense_dsRam
 480              		.cfi_endproc
 481              	.LFE5:
 482              		.size	capsense_IsAnyWidgetActive, .-capsense_IsAnyWidgetActive
 483              		.section	.text.capsense_IsWidgetActive,"ax",%progbits
 484              		.align	2
 485              		.global	capsense_IsWidgetActive
 486              		.code	16
 487              		.thumb_func
 488              		.type	capsense_IsWidgetActive, %function
 489              	capsense_IsWidgetActive:
 490              	.LFB6:
 895:.\Generated_Source\PSoC4/capsense_Structure.c **** 
 896:.\Generated_Source\PSoC4/capsense_Structure.c **** 
 897:.\Generated_Source\PSoC4/capsense_Structure.c **** /*******************************************************************************
 898:.\Generated_Source\PSoC4/capsense_Structure.c **** * Function Name: capsense_IsWidgetActive
 899:.\Generated_Source\PSoC4/capsense_Structure.c **** ****************************************************************************//**
 900:.\Generated_Source\PSoC4/capsense_Structure.c **** *
 901:.\Generated_Source\PSoC4/capsense_Structure.c **** * \brief
 902:.\Generated_Source\PSoC4/capsense_Structure.c **** *   Reports if the specified widget detects a touch on any of its sensors.
 903:.\Generated_Source\PSoC4/capsense_Structure.c **** *
 904:.\Generated_Source\PSoC4/capsense_Structure.c **** * \details
 905:.\Generated_Source\PSoC4/capsense_Structure.c **** *   Reports if the specified widget detects a touch on any of its sensors.
 906:.\Generated_Source\PSoC4/capsense_Structure.c **** *   The information is extracted from the wdgtStatus register.
 907:.\Generated_Source\PSoC4/capsense_Structure.c **** *
ARM GAS  C:\Users\Alan\AppData\Local\Temp\cckMaArW.s 			page 26


 908:.\Generated_Source\PSoC4/capsense_Structure.c **** * \param widgetId  The widget index number.
 909:.\Generated_Source\PSoC4/capsense_Structure.c **** *
 910:.\Generated_Source\PSoC4/capsense_Structure.c **** * \return 
 911:.\Generated_Source\PSoC4/capsense_Structure.c **** *   Returns the status of specified widget:
 912:.\Generated_Source\PSoC4/capsense_Structure.c **** *   - Non-Zero - Indicates a touch is detected.
 913:.\Generated_Source\PSoC4/capsense_Structure.c **** *   - Zero     - Indicates no touch is detected.
 914:.\Generated_Source\PSoC4/capsense_Structure.c **** *
 915:.\Generated_Source\PSoC4/capsense_Structure.c **** *******************************************************************************/
 916:.\Generated_Source\PSoC4/capsense_Structure.c **** uint32 capsense_IsWidgetActive(uint32 widgetId)
 917:.\Generated_Source\PSoC4/capsense_Structure.c **** {
 491              		.loc 1 917 0
 492              		.cfi_startproc
 493              	.LVL58:
 918:.\Generated_Source\PSoC4/capsense_Structure.c ****     uint32 result = 0Lu;
 919:.\Generated_Source\PSoC4/capsense_Structure.c ****    
 920:.\Generated_Source\PSoC4/capsense_Structure.c ****     if (widgetId < capsense_TOTAL_WIDGETS)
 494              		.loc 1 920 0
 495 0000 0028     		cmp	r0, #0
 496 0002 0BD1     		bne	.L48
 921:.\Generated_Source\PSoC4/capsense_Structure.c ****     {
 922:.\Generated_Source\PSoC4/capsense_Structure.c ****         result = capsense_GET_WIDGET_ACTIVE_STATUS(widgetId);
 497              		.loc 1 922 0
 498 0004 1F22     		mov	r2, #31
 499 0006 0240     		and	r2, r0
 500 0008 0123     		mov	r3, #1
 501 000a 9340     		lsl	r3, r3, r2
 502 000c 1A1C     		mov	r2, r3
 503 000e 4309     		lsr	r3, r0, #5
 504 0010 0433     		add	r3, r3, #4
 505 0012 9B00     		lsl	r3, r3, #2
 506 0014 0249     		ldr	r1, .L49
 507 0016 5858     		ldr	r0, [r3, r1]
 508              	.LVL59:
 509 0018 1040     		and	r0, r2
 510              	.LVL60:
 511 001a 00E0     		b	.L47
 512              	.LVL61:
 513              	.L48:
 918:.\Generated_Source\PSoC4/capsense_Structure.c ****     uint32 result = 0Lu;
 514              		.loc 1 918 0
 515 001c 0020     		mov	r0, #0
 516              	.LVL62:
 517              	.L47:
 923:.\Generated_Source\PSoC4/capsense_Structure.c ****     }
 924:.\Generated_Source\PSoC4/capsense_Structure.c ****     return result;
 925:.\Generated_Source\PSoC4/capsense_Structure.c **** }
 518              		.loc 1 925 0
 519              		@ sp needed
 520 001e 7047     		bx	lr
 521              	.L50:
 522              		.align	2
 523              	.L49:
 524 0020 00000000 		.word	capsense_dsRam
 525              		.cfi_endproc
 526              	.LFE6:
 527              		.size	capsense_IsWidgetActive, .-capsense_IsWidgetActive
 528              		.section	.text.capsense_IsSensorActive,"ax",%progbits
ARM GAS  C:\Users\Alan\AppData\Local\Temp\cckMaArW.s 			page 27


 529              		.align	2
 530              		.global	capsense_IsSensorActive
 531              		.code	16
 532              		.thumb_func
 533              		.type	capsense_IsSensorActive, %function
 534              	capsense_IsSensorActive:
 535              	.LFB7:
 926:.\Generated_Source\PSoC4/capsense_Structure.c **** 
 927:.\Generated_Source\PSoC4/capsense_Structure.c **** 
 928:.\Generated_Source\PSoC4/capsense_Structure.c **** /*******************************************************************************
 929:.\Generated_Source\PSoC4/capsense_Structure.c **** * Function Name: capsense_IsSensorActive
 930:.\Generated_Source\PSoC4/capsense_Structure.c **** ****************************************************************************//**
 931:.\Generated_Source\PSoC4/capsense_Structure.c **** *
 932:.\Generated_Source\PSoC4/capsense_Structure.c **** * \brief
 933:.\Generated_Source\PSoC4/capsense_Structure.c **** *   Reports if the specified sensor in the widget detects a touch.
 934:.\Generated_Source\PSoC4/capsense_Structure.c **** *
 935:.\Generated_Source\PSoC4/capsense_Structure.c **** * \details 
 936:.\Generated_Source\PSoC4/capsense_Structure.c **** *   Reports if the specified sensor in the widget detects a touch.
 937:.\Generated_Source\PSoC4/capsense_Structure.c **** *   The information is extracted from the snsStatus register.
 938:.\Generated_Source\PSoC4/capsense_Structure.c **** *
 939:.\Generated_Source\PSoC4/capsense_Structure.c **** * \param widgetId  The widget index number.
 940:.\Generated_Source\PSoC4/capsense_Structure.c **** * \param sensorId  The sensor index number within the widget
 941:.\Generated_Source\PSoC4/capsense_Structure.c **** *
 942:.\Generated_Source\PSoC4/capsense_Structure.c **** * \return 
 943:.\Generated_Source\PSoC4/capsense_Structure.c **** *   Returns the status of sensors in the specified widget/sensor as below:
 944:.\Generated_Source\PSoC4/capsense_Structure.c **** *   - Non-Zero - Indicates a touch is detected.
 945:.\Generated_Source\PSoC4/capsense_Structure.c **** *   - Zero     - Indicates no touch is detected or a wrong widgetId/sensorId is specified.
 946:.\Generated_Source\PSoC4/capsense_Structure.c **** *
 947:.\Generated_Source\PSoC4/capsense_Structure.c **** *******************************************************************************/
 948:.\Generated_Source\PSoC4/capsense_Structure.c **** uint32 capsense_IsSensorActive(uint32 widgetId, uint32 sensorId)
 949:.\Generated_Source\PSoC4/capsense_Structure.c **** {
 536              		.loc 1 949 0
 537              		.cfi_startproc
 538              	.LVL63:
 950:.\Generated_Source\PSoC4/capsense_Structure.c ****     uint32 result = 0Lu;
 951:.\Generated_Source\PSoC4/capsense_Structure.c ****     
 952:.\Generated_Source\PSoC4/capsense_Structure.c ****     if ((widgetId < capsense_TOTAL_WIDGETS) &&
 539              		.loc 1 952 0
 540 0000 0028     		cmp	r0, #0
 541 0002 0ED1     		bne	.L53
 953:.\Generated_Source\PSoC4/capsense_Structure.c ****         (sensorId < capsense_GET_SENSOR_COUNT(widgetId)))
 542              		.loc 1 953 0 discriminator 1
 543 0004 8300     		lsl	r3, r0, #2
 544 0006 1B18     		add	r3, r3, r0
 545 0008 DB00     		lsl	r3, r3, #3
 546 000a 084A     		ldr	r2, .L55
 547 000c D318     		add	r3, r2, r3
 548 000e DB8B     		ldrh	r3, [r3, #30]
 952:.\Generated_Source\PSoC4/capsense_Structure.c ****         (sensorId < capsense_GET_SENSOR_COUNT(widgetId)))
 549              		.loc 1 952 0 discriminator 1
 550 0010 8B42     		cmp	r3, r1
 551 0012 08D9     		bls	.L54
 954:.\Generated_Source\PSoC4/capsense_Structure.c ****     {
 955:.\Generated_Source\PSoC4/capsense_Structure.c ****         result = capsense_dsRam.snsStatus[widgetId] & (1Lu << sensorId);
 552              		.loc 1 955 0
 553 0014 064B     		ldr	r3, .L55+4
 554 0016 1818     		add	r0, r3, r0
ARM GAS  C:\Users\Alan\AppData\Local\Temp\cckMaArW.s 			page 28


 555              	.LVL64:
 556 0018 037D     		ldrb	r3, [r0, #20]
 557 001a 0120     		mov	r0, #1
 558 001c 8840     		lsl	r0, r0, r1
 559 001e 1840     		and	r0, r3
 560              	.LVL65:
 561 0020 02E0     		b	.L52
 562              	.LVL66:
 563              	.L53:
 950:.\Generated_Source\PSoC4/capsense_Structure.c ****     
 564              		.loc 1 950 0
 565 0022 0020     		mov	r0, #0
 566              	.LVL67:
 567 0024 00E0     		b	.L52
 568              	.LVL68:
 569              	.L54:
 570 0026 0020     		mov	r0, #0
 571              	.LVL69:
 572              	.L52:
 956:.\Generated_Source\PSoC4/capsense_Structure.c ****     }
 957:.\Generated_Source\PSoC4/capsense_Structure.c ****     
 958:.\Generated_Source\PSoC4/capsense_Structure.c ****     return result;
 959:.\Generated_Source\PSoC4/capsense_Structure.c **** }
 573              		.loc 1 959 0
 574              		@ sp needed
 575 0028 7047     		bx	lr
 576              	.L56:
 577 002a C046     		.align	2
 578              	.L55:
 579 002c 00000000 		.word	.LANCHOR0
 580 0030 00000000 		.word	capsense_dsRam
 581              		.cfi_endproc
 582              	.LFE7:
 583              		.size	capsense_IsSensorActive, .-capsense_IsSensorActive
 584              		.section	.text.capsense_GetCentroidPos,"ax",%progbits
 585              		.align	2
 586              		.global	capsense_GetCentroidPos
 587              		.code	16
 588              		.thumb_func
 589              		.type	capsense_GetCentroidPos, %function
 590              	capsense_GetCentroidPos:
 591              	.LFB8:
 960:.\Generated_Source\PSoC4/capsense_Structure.c **** 
 961:.\Generated_Source\PSoC4/capsense_Structure.c **** #if (0u != capsense_MATRIX_WIDGET_EN)
 962:.\Generated_Source\PSoC4/capsense_Structure.c **** /*******************************************************************************
 963:.\Generated_Source\PSoC4/capsense_Structure.c **** * Function Name: capsense_IsMatrixButtonsActive
 964:.\Generated_Source\PSoC4/capsense_Structure.c **** ****************************************************************************//**
 965:.\Generated_Source\PSoC4/capsense_Structure.c **** *
 966:.\Generated_Source\PSoC4/capsense_Structure.c **** * \brief
 967:.\Generated_Source\PSoC4/capsense_Structure.c **** *   Reports the status of the selected Matrix Buttons widget.
 968:.\Generated_Source\PSoC4/capsense_Structure.c **** *
 969:.\Generated_Source\PSoC4/capsense_Structure.c **** * \details 
 970:.\Generated_Source\PSoC4/capsense_Structure.c **** *   Reports the status of the specified Matrix Buttons widget.
 971:.\Generated_Source\PSoC4/capsense_Structure.c **** *
 972:.\Generated_Source\PSoC4/capsense_Structure.c **** * \param widgetId Specify the ID number of the matrix button widget to check status 
 973:.\Generated_Source\PSoC4/capsense_Structure.c **** *            of its sensors. A macro for Widget ID can be found in 
 974:.\Generated_Source\PSoC4/capsense_Structure.c **** *            capsense_RegisterMap header file defined as capsense_<WidgetName>_ID
ARM GAS  C:\Users\Alan\AppData\Local\Temp\cckMaArW.s 			page 29


 975:.\Generated_Source\PSoC4/capsense_Structure.c **** *
 976:.\Generated_Source\PSoC4/capsense_Structure.c **** * \return 
 977:.\Generated_Source\PSoC4/capsense_Structure.c **** *   Returns the status of sensors in the specified widget as below:
 978:.\Generated_Source\PSoC4/capsense_Structure.c **** *       - For CSD Matrix Buttons:
 979:.\Generated_Source\PSoC4/capsense_Structure.c **** *           - Bit [31] - One or more sensors in the widget detected a touch
 980:.\Generated_Source\PSoC4/capsense_Structure.c **** *           - Bits [30..24] - Reserved
 981:.\Generated_Source\PSoC4/capsense_Structure.c **** *           - Bits [23..16] - Indicates logic sensor number of sensor that detected a touch. 
 982:.\Generated_Source\PSoC4/capsense_Structure.c **** *                             If more than one sensor detected a touch for CSX widget, 
 983:.\Generated_Source\PSoC4/capsense_Structure.c **** *                             the sensor with lowest logical number is reported and in case 
 984:.\Generated_Source\PSoC4/capsense_Structure.c **** *                             of CSD widget, no status is reported as more than one touch is 
 985:.\Generated_Source\PSoC4/capsense_Structure.c **** *                             invalid for CSD matrix button widget.
 986:.\Generated_Source\PSoC4/capsense_Structure.c **** *           - Bits [15..8]  - Indicates status of row sensors. Each bit indicates ON/OFF 
 987:.\Generated_Source\PSoC4/capsense_Structure.c **** *                             status of each row sensor.
 988:.\Generated_Source\PSoC4/capsense_Structure.c **** *           - Bits [7..0]   - Indicates status of column sensors. Each bit indicates ON/OFF 
 989:.\Generated_Source\PSoC4/capsense_Structure.c **** *                             status of each column sensor.
 990:.\Generated_Source\PSoC4/capsense_Structure.c **** *       - For CSX Matrix Buttons: each bit corresponds to the TX/RX intersection.
 991:.\Generated_Source\PSoC4/capsense_Structure.c **** *
 992:.\Generated_Source\PSoC4/capsense_Structure.c **** *******************************************************************************/
 993:.\Generated_Source\PSoC4/capsense_Structure.c **** uint32 capsense_IsMatrixButtonsActive(uint32 widgetId)
 994:.\Generated_Source\PSoC4/capsense_Structure.c **** {
 995:.\Generated_Source\PSoC4/capsense_Structure.c ****     uint32 result = 0Lu;
 996:.\Generated_Source\PSoC4/capsense_Structure.c ****     cystatus state = CYRET_SUCCESS;
 997:.\Generated_Source\PSoC4/capsense_Structure.c ****     capsense_FLASH_WD_STRUCT const *ptrFlashWdgt = 0u;
 998:.\Generated_Source\PSoC4/capsense_Structure.c ****     
 999:.\Generated_Source\PSoC4/capsense_Structure.c ****     #if (0u != capsense_CSD_MATRIX_WIDGET_EN)
1000:.\Generated_Source\PSoC4/capsense_Structure.c ****         capsense_RAM_WD_CSD_MATRIX_STRUCT *wdCsdMatrix;
1001:.\Generated_Source\PSoC4/capsense_Structure.c ****     #endif
1002:.\Generated_Source\PSoC4/capsense_Structure.c ****   
1003:.\Generated_Source\PSoC4/capsense_Structure.c ****     if (widgetId >= capsense_TOTAL_WIDGETS)
1004:.\Generated_Source\PSoC4/capsense_Structure.c ****     {
1005:.\Generated_Source\PSoC4/capsense_Structure.c ****         state = CYRET_BAD_PARAM;
1006:.\Generated_Source\PSoC4/capsense_Structure.c ****     }
1007:.\Generated_Source\PSoC4/capsense_Structure.c ****     else
1008:.\Generated_Source\PSoC4/capsense_Structure.c ****     {
1009:.\Generated_Source\PSoC4/capsense_Structure.c ****         ptrFlashWdgt = &capsense_dsFlash.wdgtArray[widgetId];
1010:.\Generated_Source\PSoC4/capsense_Structure.c ****         
1011:.\Generated_Source\PSoC4/capsense_Structure.c ****         if ((capsense_WD_TYPE_ENUM)ptrFlashWdgt->wdgtType != capsense_WD_MATRIX_BUTTON_E)
1012:.\Generated_Source\PSoC4/capsense_Structure.c ****         {
1013:.\Generated_Source\PSoC4/capsense_Structure.c ****             state = CYRET_BAD_PARAM;
1014:.\Generated_Source\PSoC4/capsense_Structure.c ****         }
1015:.\Generated_Source\PSoC4/capsense_Structure.c ****         else if (0u == capsense_GET_WIDGET_ACTIVE_STATUS(widgetId))
1016:.\Generated_Source\PSoC4/capsense_Structure.c ****         {
1017:.\Generated_Source\PSoC4/capsense_Structure.c ****             state = CYRET_BAD_PARAM;
1018:.\Generated_Source\PSoC4/capsense_Structure.c ****         }
1019:.\Generated_Source\PSoC4/capsense_Structure.c ****         else
1020:.\Generated_Source\PSoC4/capsense_Structure.c ****         {
1021:.\Generated_Source\PSoC4/capsense_Structure.c ****             /* input parameters are OK */
1022:.\Generated_Source\PSoC4/capsense_Structure.c ****         }
1023:.\Generated_Source\PSoC4/capsense_Structure.c ****     }
1024:.\Generated_Source\PSoC4/capsense_Structure.c ****        
1025:.\Generated_Source\PSoC4/capsense_Structure.c ****     if (CYRET_SUCCESS == state)
1026:.\Generated_Source\PSoC4/capsense_Structure.c ****     {
1027:.\Generated_Source\PSoC4/capsense_Structure.c ****         switch(capsense_GET_SENSE_METHOD(ptrFlashWdgt))
1028:.\Generated_Source\PSoC4/capsense_Structure.c ****         {
1029:.\Generated_Source\PSoC4/capsense_Structure.c ****         #if (0u != capsense_CSD_MATRIX_WIDGET_EN)
1030:.\Generated_Source\PSoC4/capsense_Structure.c ****             case capsense_SENSE_METHOD_CSD_E:
1031:.\Generated_Source\PSoC4/capsense_Structure.c ****                 wdCsdMatrix = ptrFlashWdgt->ptr2WdgtRam;
ARM GAS  C:\Users\Alan\AppData\Local\Temp\cckMaArW.s 			page 30


1032:.\Generated_Source\PSoC4/capsense_Structure.c ****                 
1033:.\Generated_Source\PSoC4/capsense_Structure.c ****                 result = capsense_MATRIX_BUTTONS_TOUCHED | 
1034:.\Generated_Source\PSoC4/capsense_Structure.c ****                          ((uint32)wdCsdMatrix->posSnsId << 16u)  |
1035:.\Generated_Source\PSoC4/capsense_Structure.c ****                          ((uint32)wdCsdMatrix->posRow   << 8u)   |
1036:.\Generated_Source\PSoC4/capsense_Structure.c ****                          (uint32)wdCsdMatrix->posCol;
1037:.\Generated_Source\PSoC4/capsense_Structure.c ****                 break;
1038:.\Generated_Source\PSoC4/capsense_Structure.c ****         #endif /* #if (0u != capsense_CSD_MATRIX_WIDGET_EN) */
1039:.\Generated_Source\PSoC4/capsense_Structure.c ****         
1040:.\Generated_Source\PSoC4/capsense_Structure.c ****         #if (0u != capsense_CSX_MATRIX_WIDGET_EN)
1041:.\Generated_Source\PSoC4/capsense_Structure.c ****             case capsense_SENSE_METHOD_CSX_E:
1042:.\Generated_Source\PSoC4/capsense_Structure.c ****                 result = capsense_dsRam.snsStatus[widgetId];
1043:.\Generated_Source\PSoC4/capsense_Structure.c ****                 break;
1044:.\Generated_Source\PSoC4/capsense_Structure.c ****         #endif /* #if (0u != capsense_CSX_MATRIX_WIDGET_EN) */
1045:.\Generated_Source\PSoC4/capsense_Structure.c ****         
1046:.\Generated_Source\PSoC4/capsense_Structure.c ****         default:
1047:.\Generated_Source\PSoC4/capsense_Structure.c ****             CYASSERT(0u);
1048:.\Generated_Source\PSoC4/capsense_Structure.c ****             break;
1049:.\Generated_Source\PSoC4/capsense_Structure.c ****         }
1050:.\Generated_Source\PSoC4/capsense_Structure.c ****     }
1051:.\Generated_Source\PSoC4/capsense_Structure.c ****     
1052:.\Generated_Source\PSoC4/capsense_Structure.c ****     return result;
1053:.\Generated_Source\PSoC4/capsense_Structure.c **** }
1054:.\Generated_Source\PSoC4/capsense_Structure.c **** #endif /* #if (0u != capsense_MATRIX_WIDGET_EN) */
1055:.\Generated_Source\PSoC4/capsense_Structure.c **** 
1056:.\Generated_Source\PSoC4/capsense_Structure.c **** #if (0u != capsense_PROXIMITY_WIDGET_EN)
1057:.\Generated_Source\PSoC4/capsense_Structure.c **** /*******************************************************************************
1058:.\Generated_Source\PSoC4/capsense_Structure.c **** * Function Name: capsense_IsProximityTouchActive
1059:.\Generated_Source\PSoC4/capsense_Structure.c **** ****************************************************************************//**
1060:.\Generated_Source\PSoC4/capsense_Structure.c **** *
1061:.\Generated_Source\PSoC4/capsense_Structure.c **** * \brief
1062:.\Generated_Source\PSoC4/capsense_Structure.c **** *   Reports the touch status of the selected Proximity widget.
1063:.\Generated_Source\PSoC4/capsense_Structure.c **** *
1064:.\Generated_Source\PSoC4/capsense_Structure.c **** * \details 
1065:.\Generated_Source\PSoC4/capsense_Structure.c **** *   The information is extracted from the snsStatus register.
1066:.\Generated_Source\PSoC4/capsense_Structure.c **** *
1067:.\Generated_Source\PSoC4/capsense_Structure.c **** * \param widgetId  The widget index number.
1068:.\Generated_Source\PSoC4/capsense_Structure.c **** * \param proxId    The proximity sensor number.
1069:.\Generated_Source\PSoC4/capsense_Structure.c **** *
1070:.\Generated_Source\PSoC4/capsense_Structure.c **** * \return 
1071:.\Generated_Source\PSoC4/capsense_Structure.c **** *  Returns the status in the specified widget:
1072:.\Generated_Source\PSoC4/capsense_Structure.c **** *   - 0x01Lu  - Indicates a finger proximity is detected.
1073:.\Generated_Source\PSoC4/capsense_Structure.c **** *   - 0x03Lu  - Indicates a finger touch is detected.
1074:.\Generated_Source\PSoC4/capsense_Structure.c **** *   - Zero    - Indicates no touch is detected or the specified widget is not proximity.
1075:.\Generated_Source\PSoC4/capsense_Structure.c **** *
1076:.\Generated_Source\PSoC4/capsense_Structure.c **** *******************************************************************************/
1077:.\Generated_Source\PSoC4/capsense_Structure.c **** uint32 capsense_IsProximityTouchActive(uint32 widgetId, uint32 proxId)
1078:.\Generated_Source\PSoC4/capsense_Structure.c **** {
1079:.\Generated_Source\PSoC4/capsense_Structure.c ****     uint32 result = 0Lu;
1080:.\Generated_Source\PSoC4/capsense_Structure.c ****     
1081:.\Generated_Source\PSoC4/capsense_Structure.c ****     if ((widgetId < capsense_TOTAL_WIDGETS) && (proxId < capsense_GET_SENSOR_COUNT(widgetId)) &&
1082:.\Generated_Source\PSoC4/capsense_Structure.c ****         (capsense_WD_PROXIMITY_E == 
1083:.\Generated_Source\PSoC4/capsense_Structure.c ****             (capsense_WD_TYPE_ENUM)capsense_dsFlash.wdgtArray[widgetId].wdgtType))
1084:.\Generated_Source\PSoC4/capsense_Structure.c ****     {
1085:.\Generated_Source\PSoC4/capsense_Structure.c ****         result = capsense_dsRam.snsStatus[widgetId];
1086:.\Generated_Source\PSoC4/capsense_Structure.c ****         result >>= capsense_PROX_STS_OFFSET(proxId);
1087:.\Generated_Source\PSoC4/capsense_Structure.c ****         result &=  capsense_PROX_STS_MASK;
1088:.\Generated_Source\PSoC4/capsense_Structure.c ****     }
ARM GAS  C:\Users\Alan\AppData\Local\Temp\cckMaArW.s 			page 31


1089:.\Generated_Source\PSoC4/capsense_Structure.c ****     
1090:.\Generated_Source\PSoC4/capsense_Structure.c ****     return result;
1091:.\Generated_Source\PSoC4/capsense_Structure.c **** }
1092:.\Generated_Source\PSoC4/capsense_Structure.c **** #endif /* #if (0u != capsense_PROXIMITY_WIDGET_EN) */
1093:.\Generated_Source\PSoC4/capsense_Structure.c **** 
1094:.\Generated_Source\PSoC4/capsense_Structure.c **** 
1095:.\Generated_Source\PSoC4/capsense_Structure.c **** #if (0u != capsense_SLIDER_WIDGET_EN)
1096:.\Generated_Source\PSoC4/capsense_Structure.c **** /*******************************************************************************
1097:.\Generated_Source\PSoC4/capsense_Structure.c **** * Function Name: capsense_GetCentroidPos
1098:.\Generated_Source\PSoC4/capsense_Structure.c **** ****************************************************************************//**
1099:.\Generated_Source\PSoC4/capsense_Structure.c **** *
1100:.\Generated_Source\PSoC4/capsense_Structure.c **** * \brief
1101:.\Generated_Source\PSoC4/capsense_Structure.c **** *   Reports the centroid position for the sliders.
1102:.\Generated_Source\PSoC4/capsense_Structure.c **** *
1103:.\Generated_Source\PSoC4/capsense_Structure.c **** * \details 
1104:.\Generated_Source\PSoC4/capsense_Structure.c **** *   Reports the centroid position for the sliders.
1105:.\Generated_Source\PSoC4/capsense_Structure.c **** *   The information is extracted from the Data Structure registers.
1106:.\Generated_Source\PSoC4/capsense_Structure.c **** *
1107:.\Generated_Source\PSoC4/capsense_Structure.c **** * \param widgetId The widget index number.
1108:.\Generated_Source\PSoC4/capsense_Structure.c **** *
1109:.\Generated_Source\PSoC4/capsense_Structure.c **** * \return 
1110:.\Generated_Source\PSoC4/capsense_Structure.c **** *   The slider position or capsense_SLIDER_NO_TOUCH in the case of no touch 
1111:.\Generated_Source\PSoC4/capsense_Structure.c **** *   or wrong widget index number.
1112:.\Generated_Source\PSoC4/capsense_Structure.c **** *
1113:.\Generated_Source\PSoC4/capsense_Structure.c **** *******************************************************************************/
1114:.\Generated_Source\PSoC4/capsense_Structure.c **** uint32 capsense_GetCentroidPos(uint32 widgetId)
1115:.\Generated_Source\PSoC4/capsense_Structure.c **** {
 592              		.loc 1 1115 0
 593              		.cfi_startproc
 594              	.LVL70:
1116:.\Generated_Source\PSoC4/capsense_Structure.c ****     uint32 result = capsense_SLIDER_NO_TOUCH;
1117:.\Generated_Source\PSoC4/capsense_Structure.c ****     capsense_RAM_WD_SLIDER_STRUCT *wdSlider;
1118:.\Generated_Source\PSoC4/capsense_Structure.c ****     
1119:.\Generated_Source\PSoC4/capsense_Structure.c ****     if ((widgetId < capsense_TOTAL_WIDGETS) && 
 595              		.loc 1 1119 0
 596 0000 0028     		cmp	r0, #0
 597 0002 10D1     		bne	.L59
1120:.\Generated_Source\PSoC4/capsense_Structure.c ****         ((capsense_WD_LINEAR_SLIDER_E == 
1121:.\Generated_Source\PSoC4/capsense_Structure.c ****             (capsense_WD_TYPE_ENUM)capsense_dsFlash.wdgtArray[widgetId].wdgtType) ||
 598              		.loc 1 1121 0 discriminator 1
 599 0004 8300     		lsl	r3, r0, #2
 600 0006 1B18     		add	r3, r3, r0
 601 0008 DB00     		lsl	r3, r3, #3
 602 000a 0A4A     		ldr	r2, .L61
 603 000c D318     		add	r3, r2, r3
 604 000e 2033     		add	r3, r3, #32
 605 0010 1B78     		ldrb	r3, [r3]
 606 0012 023B     		sub	r3, r3, #2
1119:.\Generated_Source\PSoC4/capsense_Structure.c ****         ((capsense_WD_LINEAR_SLIDER_E == 
 607              		.loc 1 1119 0 discriminator 1
 608 0014 012B     		cmp	r3, #1
 609 0016 09D8     		bhi	.L60
1122:.\Generated_Source\PSoC4/capsense_Structure.c ****          (capsense_WD_RADIAL_SLIDER_E == 
1123:.\Generated_Source\PSoC4/capsense_Structure.c ****             (capsense_WD_TYPE_ENUM)capsense_dsFlash.wdgtArray[widgetId].wdgtType)))
1124:.\Generated_Source\PSoC4/capsense_Structure.c ****     {
1125:.\Generated_Source\PSoC4/capsense_Structure.c ****         wdSlider = capsense_dsFlash.wdgtArray[widgetId].ptr2WdgtRam;
 610              		.loc 1 1125 0
ARM GAS  C:\Users\Alan\AppData\Local\Temp\cckMaArW.s 			page 32


 611 0018 8300     		lsl	r3, r0, #2
 612 001a 1818     		add	r0, r3, r0
 613              	.LVL71:
 614 001c C000     		lsl	r0, r0, #3
 615 001e 1018     		add	r0, r2, r0
 616 0020 C368     		ldr	r3, [r0, #12]
 617              	.LVL72:
1126:.\Generated_Source\PSoC4/capsense_Structure.c ****         result = (uint32)wdSlider->position[0u];
 618              		.loc 1 1126 0
 619 0022 188A     		ldrh	r0, [r3, #16]
 620              	.LVL73:
 621 0024 04E0     		b	.L58
 622              	.LVL74:
 623              	.L59:
1116:.\Generated_Source\PSoC4/capsense_Structure.c ****     capsense_RAM_WD_SLIDER_STRUCT *wdSlider;
 624              		.loc 1 1116 0
 625 0026 0120     		mov	r0, #1
 626              	.LVL75:
 627 0028 4042     		neg	r0, r0
 628 002a 01E0     		b	.L58
 629              	.LVL76:
 630              	.L60:
 631 002c 0120     		mov	r0, #1
 632              	.LVL77:
 633 002e 4042     		neg	r0, r0
 634              	.LVL78:
 635              	.L58:
1127:.\Generated_Source\PSoC4/capsense_Structure.c ****     }
1128:.\Generated_Source\PSoC4/capsense_Structure.c ****     
1129:.\Generated_Source\PSoC4/capsense_Structure.c ****     return result;
1130:.\Generated_Source\PSoC4/capsense_Structure.c **** }
 636              		.loc 1 1130 0
 637              		@ sp needed
 638 0030 7047     		bx	lr
 639              	.L62:
 640 0032 C046     		.align	2
 641              	.L61:
 642 0034 00000000 		.word	.LANCHOR0
 643              		.cfi_endproc
 644              	.LFE8:
 645              		.size	capsense_GetCentroidPos, .-capsense_GetCentroidPos
 646              		.global	capsense_ioList
 647              		.global	capsense_dsFlash
 648              		.comm	capsense_dsRam,100,4
 649              		.section	.rodata
 650              		.align	2
 651              		.set	.LANCHOR0,. + 0
 652              		.type	capsense_ramIdacInit, %object
 653              		.size	capsense_ramIdacInit, 5
 654              	capsense_ramIdacInit:
 655 0000 20       		.byte	32
 656 0001 20       		.byte	32
 657 0002 20       		.byte	32
 658 0003 20       		.byte	32
 659 0004 20       		.byte	32
 660 0005 000000   		.space	3
 661              		.type	capsense_dsFlash, %object
ARM GAS  C:\Users\Alan\AppData\Local\Temp\cckMaArW.s 			page 33


 662              		.size	capsense_dsFlash, 40
 663              	capsense_dsFlash:
 664 0008 00000000 		.word	capsense_ioList
 665 000c 1A000000 		.word	capsense_dsRam+26
 666 0010 2C000000 		.word	capsense_dsRam+44
 667 0014 00000000 		.word	0
 668 0018 40000000 		.word	capsense_debounceLinearSlider0
 669 001c 0100     		.short	1
 670 001e 0500     		.short	5
 671 0020 02       		.byte	2
 672 0021 05       		.byte	5
 673 0022 6400     		.short	100
 674 0024 0019     		.short	6400
 675 0026 0000     		.space	2
 676 0028 04000000 		.word	capsense_noiseEnvlpLinearSlider0
 677 002c 00000000 		.word	capsense_posHistoryLinearSlider0
 678              		.type	capsense_ramWidgetInit, %object
 679              		.size	capsense_ramWidgetInit, 18
 680              	capsense_ramWidgetInit:
 681 0030 0C00     		.short	12
 682 0032 0100     		.short	1
 683 0034 01       		.byte	1
 684 0035 01       		.byte	1
 685 0036 01       		.byte	1
 686 0037 03       		.byte	3
 687 0038 1E       		.byte	30
 688 0039 64       		.byte	100
 689 003a 20       		.byte	32
 690 003b 08       		.byte	8
 691 003c F401     		.short	500
 692 003e 0000     		.short	0
 693 0040 FFFF     		.short	-1
 694 0042 0000     		.space	2
 695              		.type	capsense_ioList, %object
 696              		.size	capsense_ioList, 140
 697              	capsense_ioList:
 698 0044 00020240 		.word	1073873408
 699 0048 08020440 		.word	1074004488
 700 004c 00020440 		.word	1074004480
 701 0050 04020440 		.word	1074004484
 702 0054 0F000000 		.word	15
 703 0058 01000000 		.word	1
 704 005c 00       		.byte	0
 705 005d 00       		.byte	0
 706 005e 00       		.byte	0
 707 005f 00       		.space	1
 708 0060 00000240 		.word	1073872896
 709 0064 08000440 		.word	1074003976
 710 0068 00000440 		.word	1074003968
 711 006c 04000440 		.word	1074003972
 712 0070 0000000F 		.word	251658240
 713 0074 40000000 		.word	64
 714 0078 18       		.byte	24
 715 0079 06       		.byte	6
 716 007a 12       		.byte	18
 717 007b 00       		.space	1
 718 007c 00000240 		.word	1073872896
ARM GAS  C:\Users\Alan\AppData\Local\Temp\cckMaArW.s 			page 34


 719 0080 08000440 		.word	1074003976
 720 0084 00000440 		.word	1074003968
 721 0088 04000440 		.word	1074003972
 722 008c 00F00000 		.word	61440
 723 0090 08000000 		.word	8
 724 0094 0C       		.byte	12
 725 0095 03       		.byte	3
 726 0096 09       		.byte	9
 727 0097 00       		.space	1
 728 0098 00000240 		.word	1073872896
 729 009c 08000440 		.word	1074003976
 730 00a0 00000440 		.word	1074003968
 731 00a4 04000440 		.word	1074003972
 732 00a8 000F0000 		.word	3840
 733 00ac 04000000 		.word	4
 734 00b0 08       		.byte	8
 735 00b1 02       		.byte	2
 736 00b2 06       		.byte	6
 737 00b3 00       		.space	1
 738 00b4 00000240 		.word	1073872896
 739 00b8 08000440 		.word	1074003976
 740 00bc 00000440 		.word	1074003968
 741 00c0 04000440 		.word	1074003972
 742 00c4 F0000000 		.word	240
 743 00c8 02000000 		.word	2
 744 00cc 04       		.byte	4
 745 00cd 01       		.byte	1
 746 00ce 03       		.byte	3
 747 00cf 00       		.space	1
 748              		.bss
 749              		.align	2
 750              		.type	capsense_posHistoryLinearSlider0, %object
 751              		.size	capsense_posHistoryLinearSlider0, 4
 752              	capsense_posHistoryLinearSlider0:
 753 0000 00000000 		.space	4
 754              		.type	capsense_noiseEnvlpLinearSlider0, %object
 755              		.size	capsense_noiseEnvlpLinearSlider0, 60
 756              	capsense_noiseEnvlpLinearSlider0:
 757 0004 00000000 		.space	60
 757      00000000 
 757      00000000 
 757      00000000 
 757      00000000 
 758              		.type	capsense_debounceLinearSlider0, %object
 759              		.size	capsense_debounceLinearSlider0, 1
 760              	capsense_debounceLinearSlider0:
 761 0040 00       		.space	1
 762 0041 000000   		.text
 763              	.Letext0:
 764              		.file 2 "Generated_Source\\PSoC4/cytypes.h"
 765              		.file 3 ".\\Generated_Source\\PSoC4\\capsense_Configuration.h"
 766              		.file 4 ".\\Generated_Source\\PSoC4\\capsense_SmartSense_LL.h"
 767              		.file 5 ".\\Generated_Source\\PSoC4\\capsense_Structure.h"
 768              		.file 6 ".\\Generated_Source\\PSoC4\\CyLib.h"