ARM GAS  C:\Users\Alan\AppData\Local\Temp\ccASquOj.s 			page 1


   1              		.cpu cortex-m0
   2              		.fpu softvfp
   3              		.eabi_attribute 20, 1
   4              		.eabi_attribute 21, 1
   5              		.eabi_attribute 23, 3
   6              		.eabi_attribute 24, 1
   7              		.eabi_attribute 25, 1
   8              		.eabi_attribute 26, 1
   9              		.eabi_attribute 30, 6
  10              		.eabi_attribute 34, 0
  11              		.eabi_attribute 18, 4
  12              		.code	16
  13              		.file	"main.c"
  14              		.text
  15              	.Ltext0:
  16              		.cfi_sections	.debug_frame
  17              		.global	fingerPos
  18              		.data
  19              		.align	1
  20              		.type	fingerPos, %object
  21              		.size	fingerPos, 2
  22              	fingerPos:
  23 0000 FFFF     		.short	-1
  24              		.global	fingerPosOld
  25              		.align	1
  26              		.type	fingerPosOld, %object
  27              		.size	fingerPosOld, 2
  28              	fingerPosOld:
  29 0002 FFFF     		.short	-1
  30              		.global	redLedState
  31              		.bss
  32              		.type	redLedState, %object
  33              		.size	redLedState, 1
  34              	redLedState:
  35 0000 00       		.space	1
  36              		.comm	capsenseNotify,4,4
  37              		.section	.text.updateLed,"ax",%progbits
  38              		.align	2
  39              		.global	updateLed
  40              		.code	16
  41              		.thumb_func
  42              		.type	updateLed, %function
  43              	updateLed:
  44              	.LFB37:
  45              		.file 1 ".\\main.c"
   1:.\main.c      **** #include <project.h>
   2:.\main.c      **** 
   3:.\main.c      **** uint16 fingerPos    = 0xFFFF;
   4:.\main.c      **** uint16 fingerPosOld = 0xFFFF;
   5:.\main.c      **** uint8 redLedState = 0; // start it as off
   6:.\main.c      **** int capsenseNotify;
   7:.\main.c      **** 
   8:.\main.c      **** /***************************************************************
   9:.\main.c      ****  * Function to update the LED state in the GATT database
  10:.\main.c      ****  **************************************************************/
  11:.\main.c      **** void updateLed()
  12:.\main.c      **** {
ARM GAS  C:\Users\Alan\AppData\Local\Temp\ccASquOj.s 			page 2


  46              		.loc 1 12 0
  47              		.cfi_startproc
  48 0000 80B5     		push	{r7, lr}
  49              		.cfi_def_cfa_offset 8
  50              		.cfi_offset 7, -8
  51              		.cfi_offset 14, -4
  52 0002 84B0     		sub	sp, sp, #16
  53              		.cfi_def_cfa_offset 24
  54 0004 00AF     		add	r7, sp, #0
  55              		.cfi_def_cfa_register 7
  13:.\main.c      ****     CYBLE_GATTS_HANDLE_VALUE_NTF_T 	tempHandle;
  14:.\main.c      ****    
  15:.\main.c      ****    
  16:.\main.c      ****     if(CyBle_GetState() != CYBLE_STATE_CONNECTED)
  56              		.loc 1 16 0
  57 0006 0C4B     		ldr	r3, .L4
  58 0008 1B78     		ldrb	r3, [r3]
  59 000a 022B     		cmp	r3, #2
  60 000c 10D1     		bne	.L1
  17:.\main.c      ****         return;
  18:.\main.c      ****     
  19:.\main.c      ****     tempHandle.attrHandle = CYBLE_LEDCAPSENSE_LED_CHAR_HANDLE;
  61              		.loc 1 19 0
  62 000e 3B1D     		add	r3, r7, #4
  63 0010 0E22     		mov	r2, #14
  64 0012 1A81     		strh	r2, [r3, #8]
  20:.\main.c      ****   	tempHandle.value.val = (uint8 *) &redLedState;
  65              		.loc 1 20 0
  66 0014 3B1D     		add	r3, r7, #4
  67 0016 094A     		ldr	r2, .L4+4
  68 0018 1A60     		str	r2, [r3]
  21:.\main.c      ****     tempHandle.value.len = 1;
  69              		.loc 1 21 0
  70 001a 3B1D     		add	r3, r7, #4
  71 001c 0122     		mov	r2, #1
  72 001e 9A80     		strh	r2, [r3, #4]
  22:.\main.c      ****     CyBle_GattsWriteAttributeValue(&tempHandle,0,&cyBle_connHandle,CYBLE_GATT_DB_LOCALLY_INITIATED)
  73              		.loc 1 22 0
  74 0020 3A1D     		add	r2, r7, #4
  75 0022 074B     		ldr	r3, .L4+8
  76 0024 101C     		mov	r0, r2
  77 0026 0021     		mov	r1, #0
  78 0028 1A1C     		mov	r2, r3
  79 002a 0023     		mov	r3, #0
  80 002c FFF7FEFF 		bl	CyBle_GattsWriteAttributeValue
  81              	.L1:
  23:.\main.c      **** }
  82              		.loc 1 23 0
  83 0030 BD46     		mov	sp, r7
  84 0032 04B0     		add	sp, sp, #16
  85              		@ sp needed
  86 0034 80BD     		pop	{r7, pc}
  87              	.L5:
  88 0036 C046     		.align	2
  89              	.L4:
  90 0038 00000000 		.word	cyBle_state
  91 003c 00000000 		.word	redLedState
ARM GAS  C:\Users\Alan\AppData\Local\Temp\ccASquOj.s 			page 3


  92 0040 00000000 		.word	cyBle_connHandle
  93              		.cfi_endproc
  94              	.LFE37:
  95              		.size	updateLed, .-updateLed
  96              		.section	.text.updateCapsense,"ax",%progbits
  97              		.align	2
  98              		.global	updateCapsense
  99              		.code	16
 100              		.thumb_func
 101              		.type	updateCapsense, %function
 102              	updateCapsense:
 103              	.LFB38:
  24:.\main.c      **** 
  25:.\main.c      **** /***************************************************************
  26:.\main.c      ****  * Function to update the CapSesnse state in the GATT database
  27:.\main.c      ****  **************************************************************/
  28:.\main.c      **** void updateCapsense()
  29:.\main.c      **** {
 104              		.loc 1 29 0
 105              		.cfi_startproc
 106 0000 80B5     		push	{r7, lr}
 107              		.cfi_def_cfa_offset 8
 108              		.cfi_offset 7, -8
 109              		.cfi_offset 14, -4
 110 0002 84B0     		sub	sp, sp, #16
 111              		.cfi_def_cfa_offset 24
 112 0004 00AF     		add	r7, sp, #0
 113              		.cfi_def_cfa_register 7
  30:.\main.c      ****     if(CyBle_GetState() != CYBLE_STATE_CONNECTED)
 114              		.loc 1 30 0
 115 0006 224B     		ldr	r3, .L11
 116 0008 1B78     		ldrb	r3, [r3]
 117 000a 022B     		cmp	r3, #2
 118 000c 3CD1     		bne	.L6
  31:.\main.c      ****         return;
  32:.\main.c      ****     
  33:.\main.c      **** 	CYBLE_GATTS_HANDLE_VALUE_NTF_T 	tempHandle;
  34:.\main.c      ****     
  35:.\main.c      ****     tempHandle.attrHandle = CYBLE_LEDCAPSENSE_CAPSENSE_CHAR_HANDLE;
 119              		.loc 1 35 0
 120 000e 3B1D     		add	r3, r7, #4
 121 0010 1122     		mov	r2, #17
 122 0012 1A81     		strh	r2, [r3, #8]
  36:.\main.c      ****   	tempHandle.value.val = (uint8 *)&fingerPos;
 123              		.loc 1 36 0
 124 0014 3B1D     		add	r3, r7, #4
 125 0016 1F4A     		ldr	r2, .L11+4
 126 0018 1A60     		str	r2, [r3]
  37:.\main.c      ****     tempHandle.value.len = 2; 
 127              		.loc 1 37 0
 128 001a 3B1D     		add	r3, r7, #4
 129 001c 0222     		mov	r2, #2
 130 001e 9A80     		strh	r2, [r3, #4]
  38:.\main.c      ****     CyBle_GattsWriteAttributeValue(&tempHandle,0,&cyBle_connHandle,CYBLE_GATT_DB_LOCALLY_INITIATED 
 131              		.loc 1 38 0
 132 0020 3A1D     		add	r2, r7, #4
 133 0022 1D4B     		ldr	r3, .L11+8
ARM GAS  C:\Users\Alan\AppData\Local\Temp\ccASquOj.s 			page 4


 134 0024 101C     		mov	r0, r2
 135 0026 0021     		mov	r1, #0
 136 0028 1A1C     		mov	r2, r3
 137 002a 0023     		mov	r3, #0
 138 002c FFF7FEFF 		bl	CyBle_GattsWriteAttributeValue
  39:.\main.c      ****     
  40:.\main.c      ****     if(fingerPos != fingerPosOld)
 139              		.loc 1 40 0
 140 0030 184B     		ldr	r3, .L11+4
 141 0032 1A88     		ldrh	r2, [r3]
 142 0034 194B     		ldr	r3, .L11+12
 143 0036 1B88     		ldrh	r3, [r3]
 144 0038 9A42     		cmp	r2, r3
 145 003a 08D0     		beq	.L9
  41:.\main.c      ****     {
  42:.\main.c      ****         tx_Write(!tx_Read());
 146              		.loc 1 42 0
 147 003c FFF7FEFF 		bl	tx_Read
 148 0040 031C     		mov	r3, r0
 149 0042 5A42     		neg	r2, r3
 150 0044 5341     		adc	r3, r3, r2
 151 0046 DBB2     		uxtb	r3, r3
 152 0048 181C     		mov	r0, r3
 153 004a FFF7FEFF 		bl	tx_Write
 154              	.L9:
  43:.\main.c      ****     }
  44:.\main.c      ****     
  45:.\main.c      ****     /* send notification to client if notifications are enabled and finger location has changed */
  46:.\main.c      ****     if (capsenseNotify && (fingerPos != fingerPosOld) )
 155              		.loc 1 46 0
 156 004e 144B     		ldr	r3, .L11+16
 157 0050 1B68     		ldr	r3, [r3]
 158 0052 002B     		cmp	r3, #0
 159 0054 14D0     		beq	.L10
 160              		.loc 1 46 0 is_stmt 0 discriminator 1
 161 0056 0F4B     		ldr	r3, .L11+4
 162 0058 1A88     		ldrh	r2, [r3]
 163 005a 104B     		ldr	r3, .L11+12
 164 005c 1B88     		ldrh	r3, [r3]
 165 005e 9A42     		cmp	r2, r3
 166 0060 0ED0     		beq	.L10
  47:.\main.c      ****     {
  48:.\main.c      ****         CyBle_GattsNotification(cyBle_connHandle,&tempHandle);
 167              		.loc 1 48 0 is_stmt 1
 168 0062 0D4B     		ldr	r3, .L11+8
 169 0064 391D     		add	r1, r7, #4
 170 0066 1A78     		ldrb	r2, [r3]
 171 0068 5B78     		ldrb	r3, [r3, #1]
 172 006a 1B02     		lsl	r3, r3, #8
 173 006c 1A43     		orr	r2, r3
 174 006e 0023     		mov	r3, #0
 175 0070 1204     		lsl	r2, r2, #16
 176 0072 120C     		lsr	r2, r2, #16
 177 0074 1B0C     		lsr	r3, r3, #16
 178 0076 1B04     		lsl	r3, r3, #16
 179 0078 1343     		orr	r3, r2
 180 007a 181C     		mov	r0, r3
ARM GAS  C:\Users\Alan\AppData\Local\Temp\ccASquOj.s 			page 5


 181 007c FFF7FEFF 		bl	CyBle_GattsNotification
 182              	.L10:
  49:.\main.c      ****     }
  50:.\main.c      ****         
  51:.\main.c      ****         
  52:.\main.c      ****     fingerPosOld = fingerPos;
 183              		.loc 1 52 0
 184 0080 044B     		ldr	r3, .L11+4
 185 0082 1A88     		ldrh	r2, [r3]
 186 0084 054B     		ldr	r3, .L11+12
 187 0086 1A80     		strh	r2, [r3]
 188              	.L6:
  53:.\main.c      **** }
 189              		.loc 1 53 0
 190 0088 BD46     		mov	sp, r7
 191 008a 04B0     		add	sp, sp, #16
 192              		@ sp needed
 193 008c 80BD     		pop	{r7, pc}
 194              	.L12:
 195 008e C046     		.align	2
 196              	.L11:
 197 0090 00000000 		.word	cyBle_state
 198 0094 00000000 		.word	fingerPos
 199 0098 00000000 		.word	cyBle_connHandle
 200 009c 00000000 		.word	fingerPosOld
 201 00a0 00000000 		.word	capsenseNotify
 202              		.cfi_endproc
 203              	.LFE38:
 204              		.size	updateCapsense, .-updateCapsense
 205              		.section	.text.BleCallBack,"ax",%progbits
 206              		.align	2
 207              		.global	BleCallBack
 208              		.code	16
 209              		.thumb_func
 210              		.type	BleCallBack, %function
 211              	BleCallBack:
 212              	.LFB39:
  54:.\main.c      **** 
  55:.\main.c      **** /***************************************************************
  56:.\main.c      ****  * Function to handle the BLE stack
  57:.\main.c      ****  **************************************************************/
  58:.\main.c      **** void BleCallBack(uint32 event, void* eventParam)
  59:.\main.c      **** {
 213              		.loc 1 59 0
 214              		.cfi_startproc
 215 0000 80B5     		push	{r7, lr}
 216              		.cfi_def_cfa_offset 8
 217              		.cfi_offset 7, -8
 218              		.cfi_offset 14, -4
 219 0002 84B0     		sub	sp, sp, #16
 220              		.cfi_def_cfa_offset 24
 221 0004 00AF     		add	r7, sp, #0
 222              		.cfi_def_cfa_register 7
 223 0006 7860     		str	r0, [r7, #4]
 224 0008 3960     		str	r1, [r7]
  60:.\main.c      ****     CYBLE_GATTS_WRITE_REQ_PARAM_T *wrReqParam;
  61:.\main.c      **** 
ARM GAS  C:\Users\Alan\AppData\Local\Temp\ccASquOj.s 			page 6


  62:.\main.c      ****     switch(event)
 225              		.loc 1 62 0
 226 000a 7B68     		ldr	r3, [r7, #4]
 227 000c 282B     		cmp	r3, #40
 228 000e 08D0     		beq	.L15
 229 0010 02D8     		bhi	.L16
 230 0012 012B     		cmp	r3, #1
 231 0014 05D0     		beq	.L15
  63:.\main.c      ****     {
  64:.\main.c      ****         /* if there is a disconnect or the stack just turned on from a reset then start the adverti
  65:.\main.c      ****         case CYBLE_EVT_STACK_ON:
  66:.\main.c      ****         case CYBLE_EVT_GAP_DEVICE_DISCONNECTED:
  67:.\main.c      ****             capsenseNotify = 0;
  68:.\main.c      ****             CyBle_GappStartAdvertisement(CYBLE_ADVERTISING_FAST);
  69:.\main.c      ****             //pwm_Start();
  70:.\main.c      ****         break;
  71:.\main.c      ****         
  72:.\main.c      ****         /* when a connection is made, update the LED and Capsense states in the GATT database and s
  73:.\main.c      ****         case CYBLE_EVT_GATT_CONNECT_IND:
  74:.\main.c      ****             updateLed();
  75:.\main.c      ****             updateCapsense();  
  76:.\main.c      ****             //pwm_Stop();
  77:.\main.c      **** 		break;
  78:.\main.c      **** 
  79:.\main.c      ****         /* handle a write request */
  80:.\main.c      ****         case CYBLE_EVT_GATTS_WRITE_REQ:
  81:.\main.c      ****             wrReqParam = (CYBLE_GATTS_WRITE_REQ_PARAM_T *) eventParam;
  82:.\main.c      **** 			      
  83:.\main.c      ****             /* request write the LED value */
  84:.\main.c      ****             if(wrReqParam->handleValPair.attrHandle == CYBLE_LEDCAPSENSE_LED_CHAR_HANDLE)
  85:.\main.c      ****             {
  86:.\main.c      ****                 /* only update the value and write the response if the requested write is allowed *
  87:.\main.c      ****                 if(CYBLE_GATT_ERR_NONE == CyBle_GattsWriteAttributeValue(&wrReqParam->handleValPair
  88:.\main.c      ****                 {
  89:.\main.c      ****                    
  90:.\main.c      ****                     redLedState = wrReqParam->handleValPair.value.val[0];
  91:.\main.c      ****                     CyBle_GattsWriteRsp(cyBle_connHandle);
  92:.\main.c      ****                 }
  93:.\main.c      ****             }
  94:.\main.c      ****             
  95:.\main.c      ****             /* request to update the CapSense notification */
  96:.\main.c      ****             if(wrReqParam->handleValPair.attrHandle == CYBLE_LEDCAPSENSE_CAPSENSE_CAPSENSECCCD_DESC
  97:.\main.c      ****             {
  98:.\main.c      ****                 CyBle_GattsWriteAttributeValue(&wrReqParam->handleValPair, 0, &cyBle_connHandle, CY
  99:.\main.c      ****                 capsenseNotify = wrReqParam->handleValPair.value.val[0] & 0x01;
 100:.\main.c      ****                 CyBle_GattsWriteRsp(cyBle_connHandle);
 101:.\main.c      ****             }		
 102:.\main.c      **** 			break;  
 103:.\main.c      ****         
 104:.\main.c      ****         default:
 105:.\main.c      ****             break;
 232              		.loc 1 105 0
 233 0016 59E0     		b	.L13
 234              	.L16:
  62:.\main.c      ****     {
 235              		.loc 1 62 0
 236 0018 412B     		cmp	r3, #65
ARM GAS  C:\Users\Alan\AppData\Local\Temp\ccASquOj.s 			page 7


 237 001a 09D0     		beq	.L17
 238 001c 4C2B     		cmp	r3, #76
 239 001e 0CD0     		beq	.L18
 240              		.loc 1 105 0
 241 0020 54E0     		b	.L13
 242              	.L15:
  67:.\main.c      ****             CyBle_GappStartAdvertisement(CYBLE_ADVERTISING_FAST);
 243              		.loc 1 67 0
 244 0022 2C4B     		ldr	r3, .L23
 245 0024 0022     		mov	r2, #0
 246 0026 1A60     		str	r2, [r3]
  68:.\main.c      ****             //pwm_Start();
 247              		.loc 1 68 0
 248 0028 0020     		mov	r0, #0
 249 002a FFF7FEFF 		bl	CyBle_GappStartAdvertisement
  70:.\main.c      ****         
 250              		.loc 1 70 0
 251 002e 4DE0     		b	.L13
 252              	.L17:
  74:.\main.c      ****             updateCapsense();  
 253              		.loc 1 74 0
 254 0030 FFF7FEFF 		bl	updateLed
  75:.\main.c      ****             //pwm_Stop();
 255              		.loc 1 75 0
 256 0034 FFF7FEFF 		bl	updateCapsense
  77:.\main.c      **** 
 257              		.loc 1 77 0
 258 0038 48E0     		b	.L13
 259              	.L18:
  81:.\main.c      **** 			      
 260              		.loc 1 81 0
 261 003a 3B68     		ldr	r3, [r7]
 262 003c FB60     		str	r3, [r7, #12]
  84:.\main.c      ****             {
 263              		.loc 1 84 0
 264 003e FB68     		ldr	r3, [r7, #12]
 265 0040 9B89     		ldrh	r3, [r3, #12]
 266 0042 0E2B     		cmp	r3, #14
 267 0044 1DD1     		bne	.L20
  87:.\main.c      ****                 {
 268              		.loc 1 87 0
 269 0046 FB68     		ldr	r3, [r7, #12]
 270 0048 1A1D     		add	r2, r3, #4
 271 004a 234B     		ldr	r3, .L23+4
 272 004c 101C     		mov	r0, r2
 273 004e 0021     		mov	r1, #0
 274 0050 1A1C     		mov	r2, r3
 275 0052 4023     		mov	r3, #64
 276 0054 FFF7FEFF 		bl	CyBle_GattsWriteAttributeValue
 277 0058 031E     		sub	r3, r0, #0
 278 005a 12D1     		bne	.L20
  90:.\main.c      ****                     CyBle_GattsWriteRsp(cyBle_connHandle);
 279              		.loc 1 90 0
 280 005c FB68     		ldr	r3, [r7, #12]
 281 005e 5B68     		ldr	r3, [r3, #4]
 282 0060 1A78     		ldrb	r2, [r3]
 283 0062 1E4B     		ldr	r3, .L23+8
ARM GAS  C:\Users\Alan\AppData\Local\Temp\ccASquOj.s 			page 8


 284 0064 1A70     		strb	r2, [r3]
  91:.\main.c      ****                 }
 285              		.loc 1 91 0
 286 0066 1C4B     		ldr	r3, .L23+4
 287 0068 1A78     		ldrb	r2, [r3]
 288 006a 5B78     		ldrb	r3, [r3, #1]
 289 006c 1B02     		lsl	r3, r3, #8
 290 006e 1A43     		orr	r2, r3
 291 0070 0023     		mov	r3, #0
 292 0072 1204     		lsl	r2, r2, #16
 293 0074 120C     		lsr	r2, r2, #16
 294 0076 1B0C     		lsr	r3, r3, #16
 295 0078 1B04     		lsl	r3, r3, #16
 296 007a 1343     		orr	r3, r2
 297 007c 181C     		mov	r0, r3
 298 007e FFF7FEFF 		bl	CyBle_GattsWriteRsp
 299              	.L20:
  96:.\main.c      ****             {
 300              		.loc 1 96 0
 301 0082 FB68     		ldr	r3, [r7, #12]
 302 0084 9B89     		ldrh	r3, [r3, #12]
 303 0086 122B     		cmp	r3, #18
 304 0088 1FD1     		bne	.L21
  98:.\main.c      ****                 capsenseNotify = wrReqParam->handleValPair.value.val[0] & 0x01;
 305              		.loc 1 98 0
 306 008a FB68     		ldr	r3, [r7, #12]
 307 008c 1A1D     		add	r2, r3, #4
 308 008e 124B     		ldr	r3, .L23+4
 309 0090 101C     		mov	r0, r2
 310 0092 0021     		mov	r1, #0
 311 0094 1A1C     		mov	r2, r3
 312 0096 4023     		mov	r3, #64
 313 0098 FFF7FEFF 		bl	CyBle_GattsWriteAttributeValue
  99:.\main.c      ****                 CyBle_GattsWriteRsp(cyBle_connHandle);
 314              		.loc 1 99 0
 315 009c FB68     		ldr	r3, [r7, #12]
 316 009e 5B68     		ldr	r3, [r3, #4]
 317 00a0 1B78     		ldrb	r3, [r3]
 318 00a2 1A1C     		mov	r2, r3
 319 00a4 0123     		mov	r3, #1
 320 00a6 1A40     		and	r2, r3
 321 00a8 0A4B     		ldr	r3, .L23
 322 00aa 1A60     		str	r2, [r3]
 100:.\main.c      ****             }		
 323              		.loc 1 100 0
 324 00ac 0A4B     		ldr	r3, .L23+4
 325 00ae 1A78     		ldrb	r2, [r3]
 326 00b0 5B78     		ldrb	r3, [r3, #1]
 327 00b2 1B02     		lsl	r3, r3, #8
 328 00b4 1A43     		orr	r2, r3
 329 00b6 0023     		mov	r3, #0
 330 00b8 1204     		lsl	r2, r2, #16
 331 00ba 120C     		lsr	r2, r2, #16
 332 00bc 1B0C     		lsr	r3, r3, #16
 333 00be 1B04     		lsl	r3, r3, #16
 334 00c0 1343     		orr	r3, r2
 335 00c2 181C     		mov	r0, r3
ARM GAS  C:\Users\Alan\AppData\Local\Temp\ccASquOj.s 			page 9


 336 00c4 FFF7FEFF 		bl	CyBle_GattsWriteRsp
 102:.\main.c      ****         
 337              		.loc 1 102 0
 338 00c8 FFE7     		b	.L22
 339              	.L21:
 340              	.L22:
 341 00ca C046     		mov	r8, r8
 342              	.L13:
 106:.\main.c      ****     }
 107:.\main.c      **** } 
 343              		.loc 1 107 0
 344 00cc BD46     		mov	sp, r7
 345 00ce 04B0     		add	sp, sp, #16
 346              		@ sp needed
 347 00d0 80BD     		pop	{r7, pc}
 348              	.L24:
 349 00d2 C046     		.align	2
 350              	.L23:
 351 00d4 00000000 		.word	capsenseNotify
 352 00d8 00000000 		.word	cyBle_connHandle
 353 00dc 00000000 		.word	redLedState
 354              		.cfi_endproc
 355              	.LFE39:
 356              		.size	BleCallBack, .-BleCallBack
 357              		.section	.text.main,"ax",%progbits
 358              		.align	2
 359              		.global	main
 360              		.code	16
 361              		.thumb_func
 362              		.type	main, %function
 363              	main:
 364              	.LFB40:
 108:.\main.c      **** 
 109:.\main.c      **** /***************************************************************
 110:.\main.c      ****  * Main
 111:.\main.c      ****  **************************************************************/
 112:.\main.c      **** int main()
 113:.\main.c      **** {
 365              		.loc 1 113 0
 366              		.cfi_startproc
 367 0000 80B5     		push	{r7, lr}
 368              		.cfi_def_cfa_offset 8
 369              		.cfi_offset 7, -8
 370              		.cfi_offset 14, -4
 371 0002 82B0     		sub	sp, sp, #8
 372              		.cfi_def_cfa_offset 16
 373 0004 00AF     		add	r7, sp, #0
 374              		.cfi_def_cfa_register 7
 114:.\main.c      ****     CyGlobalIntEnable; 
 375              		.loc 1 114 0
 376              	@ 114 ".\main.c" 1
 377 0006 62B6     		CPSIE   i
 378              	@ 0 "" 2
 115:.\main.c      ****     
 116:.\main.c      ****     uint8 buff[2];
 117:.\main.c      ****     
 118:.\main.c      ****     EZI2C_Start();
ARM GAS  C:\Users\Alan\AppData\Local\Temp\ccASquOj.s 			page 10


 379              		.loc 1 118 0
 380              		.code	16
 381 0008 FFF7FEFF 		bl	EZI2C_Start
 119:.\main.c      ****     EZI2C_EzI2CSetBuffer1(2,1,buff);
 382              		.loc 1 119 0
 383 000c 3B1D     		add	r3, r7, #4
 384 000e 0220     		mov	r0, #2
 385 0010 0121     		mov	r1, #1
 386 0012 1A1C     		mov	r2, r3
 387 0014 FFF7FEFF 		bl	EZI2C_EzI2CSetBuffer1
 120:.\main.c      ****     
 121:.\main.c      ****     /* Start BLE stack and register the callback function */
 122:.\main.c      ****     CyBle_Start(BleCallBack);
 388              		.loc 1 122 0
 389 0018 0B4B     		ldr	r3, .L27
 390 001a 181C     		mov	r0, r3
 391 001c FFF7FEFF 		bl	CyBle_Start
 123:.\main.c      ****     
 124:.\main.c      ****     tx_Write(1);
 392              		.loc 1 124 0
 393 0020 0120     		mov	r0, #1
 394 0022 FFF7FEFF 		bl	tx_Write
 395              	.L26:
 125:.\main.c      **** 
 126:.\main.c      ****     for(;;)
 127:.\main.c      ****     {        
 128:.\main.c      ****         
 129:.\main.c      ****         fingerPos = buff[0];      
 396              		.loc 1 129 0 discriminator 1
 397 0026 3B1D     		add	r3, r7, #4
 398 0028 1B78     		ldrb	r3, [r3]
 399 002a 9AB2     		uxth	r2, r3
 400 002c 074B     		ldr	r3, .L27+4
 401 002e 1A80     		strh	r2, [r3]
 130:.\main.c      ****         updateCapsense();
 402              		.loc 1 130 0 discriminator 1
 403 0030 FFF7FEFF 		bl	updateCapsense
 131:.\main.c      ****         
 132:.\main.c      ****         buff[1] = redLedState;
 404              		.loc 1 132 0 discriminator 1
 405 0034 064B     		ldr	r3, .L27+8
 406 0036 1A78     		ldrb	r2, [r3]
 407 0038 3B1D     		add	r3, r7, #4
 408 003a 5A70     		strb	r2, [r3, #1]
 133:.\main.c      ****         
 134:.\main.c      ****         CyBle_ProcessEvents();
 409              		.loc 1 134 0 discriminator 1
 410 003c FFF7FEFF 		bl	CyBle_ProcessEvents
 135:.\main.c      ****         CyBle_EnterLPM(CYBLE_BLESS_DEEPSLEEP);    
 411              		.loc 1 135 0 discriminator 1
 412 0040 0320     		mov	r0, #3
 413 0042 FFF7FEFF 		bl	CyBle_EnterLPM
 136:.\main.c      ****     }
 414              		.loc 1 136 0 discriminator 1
 415 0046 EEE7     		b	.L26
 416              	.L28:
 417              		.align	2
ARM GAS  C:\Users\Alan\AppData\Local\Temp\ccASquOj.s 			page 11


 418              	.L27:
 419 0048 00000000 		.word	BleCallBack
 420 004c 00000000 		.word	fingerPos
 421 0050 00000000 		.word	redLedState
 422              		.cfi_endproc
 423              	.LFE40:
 424              		.size	main, .-main
 425              		.text
 426              	.Letext0:
 427              		.file 2 "Generated_Source\\PSoC4/cytypes.h"
 428              		.file 3 "Generated_Source\\PSoC4/ble_Stack.h"
 429              		.file 4 "Generated_Source\\PSoC4/ble_StackGatt.h"
 430              		.file 5 "Generated_Source\\PSoC4/ble_StackGattServer.h"
 431              		.file 6 "Generated_Source\\PSoC4/ble_eventHandler.h"