ARM GAS  C:\Users\Alan\AppData\Local\Temp\ccxZwOqj.s 			page 1


   1              		.cpu cortex-m0plus
   2              		.fpu softvfp
   3              		.eabi_attribute 20, 1
   4              		.eabi_attribute 21, 1
   5              		.eabi_attribute 23, 3
   6              		.eabi_attribute 24, 1
   7              		.eabi_attribute 25, 1
   8              		.eabi_attribute 26, 1
   9              		.eabi_attribute 30, 1
  10              		.eabi_attribute 34, 0
  11              		.eabi_attribute 18, 4
  12              		.code	16
  13              		.file	"CapSense_Control.c"
  14              		.text
  15              	.Ltext0:
  16              		.cfi_sections	.debug_frame
  17              		.section	.text.CapSense_Initialize,"ax",%progbits
  18              		.align	2
  19              		.global	CapSense_Initialize
  20              		.code	16
  21              		.thumb_func
  22              		.type	CapSense_Initialize, %function
  23              	CapSense_Initialize:
  24              	.LFB2:
  25              		.file 1 ".\\Generated_Source\\PSoC4\\CapSense_Control.c"
   1:.\Generated_Source\PSoC4/CapSense_Control.c **** /***************************************************************************//**
   2:.\Generated_Source\PSoC4/CapSense_Control.c **** * \file CapSense_Control.c
   3:.\Generated_Source\PSoC4/CapSense_Control.c **** * \version 3.0
   4:.\Generated_Source\PSoC4/CapSense_Control.c **** *
   5:.\Generated_Source\PSoC4/CapSense_Control.c **** * \brief
   6:.\Generated_Source\PSoC4/CapSense_Control.c **** * This file provides the source code to the Control module API of the Component.
   7:.\Generated_Source\PSoC4/CapSense_Control.c **** *
   8:.\Generated_Source\PSoC4/CapSense_Control.c **** * \see CapSense P4 v3.0 Datasheet
   9:.\Generated_Source\PSoC4/CapSense_Control.c **** *
  10:.\Generated_Source\PSoC4/CapSense_Control.c **** *//*****************************************************************************
  11:.\Generated_Source\PSoC4/CapSense_Control.c **** * Copyright (2016), Cypress Semiconductor Corporation.
  12:.\Generated_Source\PSoC4/CapSense_Control.c **** ********************************************************************************
  13:.\Generated_Source\PSoC4/CapSense_Control.c **** * This software is owned by Cypress Semiconductor Corporation (Cypress) and is
  14:.\Generated_Source\PSoC4/CapSense_Control.c **** * protected by and subject to worldwide patent protection (United States and
  15:.\Generated_Source\PSoC4/CapSense_Control.c **** * foreign), United States copyright laws and international treaty provisions.
  16:.\Generated_Source\PSoC4/CapSense_Control.c **** * Cypress hereby grants to licensee a personal, non-exclusive, non-transferable
  17:.\Generated_Source\PSoC4/CapSense_Control.c **** * license to copy, use, modify, create derivative works of, and compile the
  18:.\Generated_Source\PSoC4/CapSense_Control.c **** * Cypress Source Code and derivative works for the sole purpose of creating
  19:.\Generated_Source\PSoC4/CapSense_Control.c **** * custom software in support of licensee product to be used only in conjunction
  20:.\Generated_Source\PSoC4/CapSense_Control.c **** * with a Cypress integrated circuit as specified in the applicable agreement.
  21:.\Generated_Source\PSoC4/CapSense_Control.c **** * Any reproduction, modification, translation, compilation, or representation of
  22:.\Generated_Source\PSoC4/CapSense_Control.c **** * this software except as specified above is prohibited without the express
  23:.\Generated_Source\PSoC4/CapSense_Control.c **** * written permission of Cypress.
  24:.\Generated_Source\PSoC4/CapSense_Control.c **** *
  25:.\Generated_Source\PSoC4/CapSense_Control.c **** * Disclaimer: CYPRESS MAKES NO WARRANTY OF ANY KIND, EXPRESS OR IMPLIED, WITH
  26:.\Generated_Source\PSoC4/CapSense_Control.c **** * REGARD TO THIS MATERIAL, INCLUDING, BUT NOT LIMITED TO, THE IMPLIED
  27:.\Generated_Source\PSoC4/CapSense_Control.c **** * WARRANTIES OF MERCHANTABILITY AND FITNESS FOR A PARTICULAR PURPOSE.
  28:.\Generated_Source\PSoC4/CapSense_Control.c **** * Cypress reserves the right to make changes without further notice to the
  29:.\Generated_Source\PSoC4/CapSense_Control.c **** * materials described herein. Cypress does not assume any liability arising out
  30:.\Generated_Source\PSoC4/CapSense_Control.c **** * of the application or use of any product or circuit described herein. Cypress
  31:.\Generated_Source\PSoC4/CapSense_Control.c **** * does not authorize its products for use as critical components in life-support
  32:.\Generated_Source\PSoC4/CapSense_Control.c **** * systems where a malfunction or failure may reasonably be expected to result in
ARM GAS  C:\Users\Alan\AppData\Local\Temp\ccxZwOqj.s 			page 2


  33:.\Generated_Source\PSoC4/CapSense_Control.c **** * significant injury to the user. The inclusion of Cypress' product in a life-
  34:.\Generated_Source\PSoC4/CapSense_Control.c **** * support systems application implies that the manufacturer assumes all risk of
  35:.\Generated_Source\PSoC4/CapSense_Control.c **** * such use and in doing so indemnifies Cypress against all charges. Use may be
  36:.\Generated_Source\PSoC4/CapSense_Control.c **** * limited by and subject to the applicable Cypress software license agreement.
  37:.\Generated_Source\PSoC4/CapSense_Control.c **** *******************************************************************************/
  38:.\Generated_Source\PSoC4/CapSense_Control.c **** 
  39:.\Generated_Source\PSoC4/CapSense_Control.c **** #include "cytypes.h"
  40:.\Generated_Source\PSoC4/CapSense_Control.c **** #include "CyLib.h"
  41:.\Generated_Source\PSoC4/CapSense_Control.c **** #include "cyPm.h"
  42:.\Generated_Source\PSoC4/CapSense_Control.c **** #include "CapSense_Configuration.h"
  43:.\Generated_Source\PSoC4/CapSense_Control.c **** #include "CapSense_Structure.h"
  44:.\Generated_Source\PSoC4/CapSense_Control.c **** #include "CapSense_Control.h"
  45:.\Generated_Source\PSoC4/CapSense_Control.c **** #include "CapSense_Processing.h"
  46:.\Generated_Source\PSoC4/CapSense_Control.c **** #include "CapSense_Filter.h"
  47:.\Generated_Source\PSoC4/CapSense_Control.c **** #include "CapSense_Sensing.h"
  48:.\Generated_Source\PSoC4/CapSense_Control.c **** #include "CapSense_Tuner.h"
  49:.\Generated_Source\PSoC4/CapSense_Control.c **** 
  50:.\Generated_Source\PSoC4/CapSense_Control.c **** #if (0u != CapSense_ADC_EN)
  51:.\Generated_Source\PSoC4/CapSense_Control.c ****     #include "CapSense_Adc.h"
  52:.\Generated_Source\PSoC4/CapSense_Control.c **** #endif /* (0u != CapSense_ADC_EN) */
  53:.\Generated_Source\PSoC4/CapSense_Control.c **** /**************************************************************************************************
  54:.\Generated_Source\PSoC4/CapSense_Control.c **** * Local definition
  55:.\Generated_Source\PSoC4/CapSense_Control.c **** ***************************************************************************************************
  56:.\Generated_Source\PSoC4/CapSense_Control.c **** #define CapSense_INIT_DONE   (1u)
  57:.\Generated_Source\PSoC4/CapSense_Control.c **** #define CapSense_INIT_NEEDED (0u)
  58:.\Generated_Source\PSoC4/CapSense_Control.c **** 
  59:.\Generated_Source\PSoC4/CapSense_Control.c **** /**************************************************************************************************
  60:.\Generated_Source\PSoC4/CapSense_Control.c **** * Local variables
  61:.\Generated_Source\PSoC4/CapSense_Control.c **** ***************************************************************************************************
  62:.\Generated_Source\PSoC4/CapSense_Control.c **** static uint8 CapSense_InitVar = CapSense_INIT_NEEDED;
  63:.\Generated_Source\PSoC4/CapSense_Control.c **** 
  64:.\Generated_Source\PSoC4/CapSense_Control.c **** /*******************************************************************************
  65:.\Generated_Source\PSoC4/CapSense_Control.c **** * Function Name: CapSense_Start
  66:.\Generated_Source\PSoC4/CapSense_Control.c **** ****************************************************************************//**
  67:.\Generated_Source\PSoC4/CapSense_Control.c **** *
  68:.\Generated_Source\PSoC4/CapSense_Control.c **** * \brief
  69:.\Generated_Source\PSoC4/CapSense_Control.c **** *  This function initialize component hardware and firmware modules. This API should be called
  70:.\Generated_Source\PSoC4/CapSense_Control.c **** *   by application program prior to calling any other API of the component.
  71:.\Generated_Source\PSoC4/CapSense_Control.c **** *
  72:.\Generated_Source\PSoC4/CapSense_Control.c **** * \details
  73:.\Generated_Source\PSoC4/CapSense_Control.c **** *   When called, following tasks are executed as part of initialization process:
  74:.\Generated_Source\PSoC4/CapSense_Control.c **** *   - Initialize values of parameters in CapSense_dsRam data structure based on user selection
  75:.\Generated_Source\PSoC4/CapSense_Control.c **** *     in component configuration wizard.
  76:.\Generated_Source\PSoC4/CapSense_Control.c **** *   - Configure the hardware to perform capacitive sensing.
  77:.\Generated_Source\PSoC4/CapSense_Control.c **** *   - Calibrate the sensors and find optimal values for IDACs of each Widgets/sensors, if
  78:.\Generated_Source\PSoC4/CapSense_Control.c **** *     Enable IDAC auto-calibration is enabled in the CSD Setting or CSX Setting tabs.
  79:.\Generated_Source\PSoC4/CapSense_Control.c **** *   - If SmartSense Auto-tuning is selected for CSD Tuning mode in Basic tab, auto-tuning algorithm
  80:.\Generated_Source\PSoC4/CapSense_Control.c **** *     is executed to set optimal values for hardware parameters of widgets/sensors.
  81:.\Generated_Source\PSoC4/CapSense_Control.c **** *   - Perform a scan for all sensors and initialize the baseline history. During the scan CPU being
  82:.\Generated_Source\PSoC4/CapSense_Control.c **** *     in the sleep mode to save power.
  83:.\Generated_Source\PSoC4/CapSense_Control.c **** *   - If firmware filters are enabled in Advanced General tab, the filter histories are also initia
  84:.\Generated_Source\PSoC4/CapSense_Control.c **** *
  85:.\Generated_Source\PSoC4/CapSense_Control.c **** * \return
  86:.\Generated_Source\PSoC4/CapSense_Control.c **** *  Returns the status of initialization process. If CYRET_SUCCESS is not received, some of the
  87:.\Generated_Source\PSoC4/CapSense_Control.c **** *  initialized failed and component may not operate as expected.
  88:.\Generated_Source\PSoC4/CapSense_Control.c **** *
  89:.\Generated_Source\PSoC4/CapSense_Control.c **** *******************************************************************************/
ARM GAS  C:\Users\Alan\AppData\Local\Temp\ccxZwOqj.s 			page 3


  90:.\Generated_Source\PSoC4/CapSense_Control.c **** cystatus CapSense_Start(void)
  91:.\Generated_Source\PSoC4/CapSense_Control.c **** {
  92:.\Generated_Source\PSoC4/CapSense_Control.c ****     cystatus result;
  93:.\Generated_Source\PSoC4/CapSense_Control.c ****     uint8 interruptState;
  94:.\Generated_Source\PSoC4/CapSense_Control.c **** 
  95:.\Generated_Source\PSoC4/CapSense_Control.c ****     /* Initialize CapSense modules */
  96:.\Generated_Source\PSoC4/CapSense_Control.c ****     result = CapSense_Initialize();
  97:.\Generated_Source\PSoC4/CapSense_Control.c **** 
  98:.\Generated_Source\PSoC4/CapSense_Control.c ****     #if (0u != CapSense_SELF_TEST_EN)
  99:.\Generated_Source\PSoC4/CapSense_Control.c ****         if (CYRET_SUCCESS == result)
 100:.\Generated_Source\PSoC4/CapSense_Control.c ****         {
 101:.\Generated_Source\PSoC4/CapSense_Control.c ****             result = CapSense_RunSelfTest(CapSense_TST_SHORTS);
 102:.\Generated_Source\PSoC4/CapSense_Control.c **** 
 103:.\Generated_Source\PSoC4/CapSense_Control.c ****             /* Verify if test succeed */
 104:.\Generated_Source\PSoC4/CapSense_Control.c ****             if (0u != result)
 105:.\Generated_Source\PSoC4/CapSense_Control.c ****             {
 106:.\Generated_Source\PSoC4/CapSense_Control.c ****                 result = CYRET_UNKNOWN;
 107:.\Generated_Source\PSoC4/CapSense_Control.c ****             }
 108:.\Generated_Source\PSoC4/CapSense_Control.c ****         }
 109:.\Generated_Source\PSoC4/CapSense_Control.c ****     #endif /* #if (0u != CapSense_SELF_TEST_EN) */
 110:.\Generated_Source\PSoC4/CapSense_Control.c **** 
 111:.\Generated_Source\PSoC4/CapSense_Control.c ****     #if (CapSense_CSD_AUTOTUNE != CapSense_CSD_SS_DIS)
 112:.\Generated_Source\PSoC4/CapSense_Control.c ****         if (CYRET_SUCCESS == result)
 113:.\Generated_Source\PSoC4/CapSense_Control.c ****         {
 114:.\Generated_Source\PSoC4/CapSense_Control.c ****             result = CapSense_AutoTune();
 115:.\Generated_Source\PSoC4/CapSense_Control.c ****         }
 116:.\Generated_Source\PSoC4/CapSense_Control.c ****     #endif /* #if (CapSense_CSD_AUTOTUNE != CapSense_CSD_SS_DIS) */
 117:.\Generated_Source\PSoC4/CapSense_Control.c **** 
 118:.\Generated_Source\PSoC4/CapSense_Control.c ****     #if ((0u != CapSense_CSX_IDAC_AUTOCAL_EN) || \
 119:.\Generated_Source\PSoC4/CapSense_Control.c ****         ((CapSense_CSD_AUTOTUNE == CapSense_CSD_SS_DIS) && (0u != CapSense_CSD_IDAC_AUTOCAL_EN)))
 120:.\Generated_Source\PSoC4/CapSense_Control.c ****         if (CYRET_SUCCESS == result)
 121:.\Generated_Source\PSoC4/CapSense_Control.c ****         {
 122:.\Generated_Source\PSoC4/CapSense_Control.c ****             result = CapSense_CalibrateAllWidgets();
 123:.\Generated_Source\PSoC4/CapSense_Control.c ****         }
 124:.\Generated_Source\PSoC4/CapSense_Control.c ****     #endif
 125:.\Generated_Source\PSoC4/CapSense_Control.c **** 
 126:.\Generated_Source\PSoC4/CapSense_Control.c ****     if (CYRET_SUCCESS == result)
 127:.\Generated_Source\PSoC4/CapSense_Control.c ****     {
 128:.\Generated_Source\PSoC4/CapSense_Control.c ****         result = CapSense_ScanAllWidgets();
 129:.\Generated_Source\PSoC4/CapSense_Control.c ****     }
 130:.\Generated_Source\PSoC4/CapSense_Control.c **** 
 131:.\Generated_Source\PSoC4/CapSense_Control.c ****     if (CYRET_SUCCESS == result)
 132:.\Generated_Source\PSoC4/CapSense_Control.c ****     {
 133:.\Generated_Source\PSoC4/CapSense_Control.c ****         /* Put CPU into sleep mode while scanning */
 134:.\Generated_Source\PSoC4/CapSense_Control.c ****         interruptState = CyEnterCriticalSection();
 135:.\Generated_Source\PSoC4/CapSense_Control.c ****         while(CapSense_NOT_BUSY != CapSense_IsBusy())
 136:.\Generated_Source\PSoC4/CapSense_Control.c ****         {
 137:.\Generated_Source\PSoC4/CapSense_Control.c ****             CySysPmSleep();
 138:.\Generated_Source\PSoC4/CapSense_Control.c **** 
 139:.\Generated_Source\PSoC4/CapSense_Control.c ****             /* Exit from the critical section to unblock processing pending interruprs. */
 140:.\Generated_Source\PSoC4/CapSense_Control.c ****             CyExitCriticalSection(interruptState);
 141:.\Generated_Source\PSoC4/CapSense_Control.c ****             interruptState = CyEnterCriticalSection();
 142:.\Generated_Source\PSoC4/CapSense_Control.c ****         }
 143:.\Generated_Source\PSoC4/CapSense_Control.c ****         CyExitCriticalSection(interruptState);
 144:.\Generated_Source\PSoC4/CapSense_Control.c **** 
 145:.\Generated_Source\PSoC4/CapSense_Control.c ****         CapSense_FtInitialize();
 146:.\Generated_Source\PSoC4/CapSense_Control.c ****         CapSense_InitializeAllBaselines();
ARM GAS  C:\Users\Alan\AppData\Local\Temp\ccxZwOqj.s 			page 4


 147:.\Generated_Source\PSoC4/CapSense_Control.c ****     }
 148:.\Generated_Source\PSoC4/CapSense_Control.c **** 
 149:.\Generated_Source\PSoC4/CapSense_Control.c ****     #if (0u != CapSense_ADC_EN)
 150:.\Generated_Source\PSoC4/CapSense_Control.c ****         CapSense_AdcInitialize();
 151:.\Generated_Source\PSoC4/CapSense_Control.c ****     #endif /* (0u != CapSense_ADC_EN) */
 152:.\Generated_Source\PSoC4/CapSense_Control.c **** 
 153:.\Generated_Source\PSoC4/CapSense_Control.c ****     return result;
 154:.\Generated_Source\PSoC4/CapSense_Control.c **** }
 155:.\Generated_Source\PSoC4/CapSense_Control.c **** 
 156:.\Generated_Source\PSoC4/CapSense_Control.c **** /*******************************************************************************
 157:.\Generated_Source\PSoC4/CapSense_Control.c **** * Function Name: CapSense_Initialize
 158:.\Generated_Source\PSoC4/CapSense_Control.c **** ****************************************************************************//**
 159:.\Generated_Source\PSoC4/CapSense_Control.c **** *
 160:.\Generated_Source\PSoC4/CapSense_Control.c **** * \brief
 161:.\Generated_Source\PSoC4/CapSense_Control.c **** *  This function initializes the CapSense component.
 162:.\Generated_Source\PSoC4/CapSense_Control.c **** *
 163:.\Generated_Source\PSoC4/CapSense_Control.c **** * \details
 164:.\Generated_Source\PSoC4/CapSense_Control.c **** *  This API initializes all sub-modules of the CapSense component:
 165:.\Generated_Source\PSoC4/CapSense_Control.c **** *   - Data Structure - set the default component parameters defined in the Customizer.
 166:.\Generated_Source\PSoC4/CapSense_Control.c **** *   - Data Processing - resets all widget statuses.
 167:.\Generated_Source\PSoC4/CapSense_Control.c **** *   - Tuner - resets tuning state.
 168:.\Generated_Source\PSoC4/CapSense_Control.c **** *   - Sensing - prepares CSD HW for operation.
 169:.\Generated_Source\PSoC4/CapSense_Control.c **** *
 170:.\Generated_Source\PSoC4/CapSense_Control.c **** *  Note that Data Structure module is initialized only once after the reset or
 171:.\Generated_Source\PSoC4/CapSense_Control.c **** *  CapSense_Stop() API is called. The repeated calls of Initialize API
 172:.\Generated_Source\PSoC4/CapSense_Control.c **** *  will not re-initialize Data Structure. This is done to preserve component
 173:.\Generated_Source\PSoC4/CapSense_Control.c **** *  parameters that user may set in runtime.
 174:.\Generated_Source\PSoC4/CapSense_Control.c **** *
 175:.\Generated_Source\PSoC4/CapSense_Control.c **** *  If default component parameters are needed the CapSense_DsInitialize()
 176:.\Generated_Source\PSoC4/CapSense_Control.c **** *  API must be called directly from the application code.
 177:.\Generated_Source\PSoC4/CapSense_Control.c **** *
 178:.\Generated_Source\PSoC4/CapSense_Control.c **** * \return
 179:.\Generated_Source\PSoC4/CapSense_Control.c **** *  Return CYRET_SUCCESS if the initialization was successful.
 180:.\Generated_Source\PSoC4/CapSense_Control.c **** *
 181:.\Generated_Source\PSoC4/CapSense_Control.c **** *******************************************************************************/
 182:.\Generated_Source\PSoC4/CapSense_Control.c **** cystatus CapSense_Initialize(void)
 183:.\Generated_Source\PSoC4/CapSense_Control.c **** {
  26              		.loc 1 183 0
  27              		.cfi_startproc
  28 0000 08B5     		push	{r3, lr}
  29              		.cfi_def_cfa_offset 8
  30              		.cfi_offset 3, -8
  31              		.cfi_offset 14, -4
 184:.\Generated_Source\PSoC4/CapSense_Control.c ****     cystatus result;
 185:.\Generated_Source\PSoC4/CapSense_Control.c **** 
 186:.\Generated_Source\PSoC4/CapSense_Control.c ****     /* The Data Structure and Tuner are initialized only once */
 187:.\Generated_Source\PSoC4/CapSense_Control.c ****     if (CapSense_INIT_NEEDED == CapSense_InitVar)
  32              		.loc 1 187 0
  33 0002 084B     		ldr	r3, .L3
  34 0004 1B78     		ldrb	r3, [r3]
  35 0006 002B     		cmp	r3, #0
  36 0008 06D1     		bne	.L2
 188:.\Generated_Source\PSoC4/CapSense_Control.c ****     {
 189:.\Generated_Source\PSoC4/CapSense_Control.c ****         CapSense_DsInitialize();
  37              		.loc 1 189 0
  38 000a FFF7FEFF 		bl	CapSense_DsInitialize
  39              	.LVL0:
ARM GAS  C:\Users\Alan\AppData\Local\Temp\ccxZwOqj.s 			page 5


 190:.\Generated_Source\PSoC4/CapSense_Control.c ****         CapSense_TuInitialize();
  40              		.loc 1 190 0
  41 000e FFF7FEFF 		bl	CapSense_TuInitialize
  42              	.LVL1:
 191:.\Generated_Source\PSoC4/CapSense_Control.c ****         CapSense_InitVar = CapSense_INIT_DONE;
  43              		.loc 1 191 0
  44 0012 0122     		mov	r2, #1
  45 0014 034B     		ldr	r3, .L3
  46 0016 1A70     		strb	r2, [r3]
  47              	.L2:
 192:.\Generated_Source\PSoC4/CapSense_Control.c ****     }
 193:.\Generated_Source\PSoC4/CapSense_Control.c **** 
 194:.\Generated_Source\PSoC4/CapSense_Control.c ****     CapSense_DpInitialize();
  48              		.loc 1 194 0
  49 0018 FFF7FEFF 		bl	CapSense_DpInitialize
  50              	.LVL2:
 195:.\Generated_Source\PSoC4/CapSense_Control.c **** 
 196:.\Generated_Source\PSoC4/CapSense_Control.c ****     result = CapSense_SsInitialize();
  51              		.loc 1 196 0
  52 001c FFF7FEFF 		bl	CapSense_SsInitialize
  53              	.LVL3:
 197:.\Generated_Source\PSoC4/CapSense_Control.c **** 
 198:.\Generated_Source\PSoC4/CapSense_Control.c ****     return result;
 199:.\Generated_Source\PSoC4/CapSense_Control.c **** }
  54              		.loc 1 199 0
  55              		@ sp needed
  56 0020 08BD     		pop	{r3, pc}
  57              	.L4:
  58 0022 C046     		.align	2
  59              	.L3:
  60 0024 00000000 		.word	.LANCHOR0
  61              		.cfi_endproc
  62              	.LFE2:
  63              		.size	CapSense_Initialize, .-CapSense_Initialize
  64              		.section	.text.CapSense_Start,"ax",%progbits
  65              		.align	2
  66              		.global	CapSense_Start
  67              		.code	16
  68              		.thumb_func
  69              		.type	CapSense_Start, %function
  70              	CapSense_Start:
  71              	.LFB1:
  91:.\Generated_Source\PSoC4/CapSense_Control.c ****     cystatus result;
  72              		.loc 1 91 0
  73              		.cfi_startproc
  74 0000 38B5     		push	{r3, r4, r5, lr}
  75              		.cfi_def_cfa_offset 16
  76              		.cfi_offset 3, -16
  77              		.cfi_offset 4, -12
  78              		.cfi_offset 5, -8
  79              		.cfi_offset 14, -4
  96:.\Generated_Source\PSoC4/CapSense_Control.c **** 
  80              		.loc 1 96 0
  81 0002 FFF7FEFF 		bl	CapSense_Initialize
  82              	.LVL4:
  83 0006 051E     		sub	r5, r0, #0
  84              	.LVL5:
ARM GAS  C:\Users\Alan\AppData\Local\Temp\ccxZwOqj.s 			page 6


 120:.\Generated_Source\PSoC4/CapSense_Control.c ****         {
  85              		.loc 1 120 0
  86 0008 02D1     		bne	.L6
 122:.\Generated_Source\PSoC4/CapSense_Control.c ****         }
  87              		.loc 1 122 0
  88 000a FFF7FEFF 		bl	CapSense_CalibrateAllWidgets
  89              	.LVL6:
  90 000e 051C     		mov	r5, r0
  91              	.LVL7:
  92              	.L6:
 126:.\Generated_Source\PSoC4/CapSense_Control.c ****     {
  93              		.loc 1 126 0
  94 0010 002D     		cmp	r5, #0
  95 0012 02D1     		bne	.L7
 128:.\Generated_Source\PSoC4/CapSense_Control.c ****     }
  96              		.loc 1 128 0
  97 0014 FFF7FEFF 		bl	CapSense_ScanAllWidgets
  98              	.LVL8:
  99 0018 051C     		mov	r5, r0
 100              	.LVL9:
 101              	.L7:
 131:.\Generated_Source\PSoC4/CapSense_Control.c ****     {
 102              		.loc 1 131 0
 103 001a 002D     		cmp	r5, #0
 104 001c 16D1     		bne	.L8
 134:.\Generated_Source\PSoC4/CapSense_Control.c ****         while(CapSense_NOT_BUSY != CapSense_IsBusy())
 105              		.loc 1 134 0
 106 001e FFF7FEFF 		bl	CyEnterCriticalSection
 107              	.LVL10:
 108 0022 041C     		mov	r4, r0
 109              	.LVL11:
 135:.\Generated_Source\PSoC4/CapSense_Control.c ****         {
 110              		.loc 1 135 0
 111 0024 07E0     		b	.L9
 112              	.LVL12:
 113              	.L10:
 137:.\Generated_Source\PSoC4/CapSense_Control.c **** 
 114              		.loc 1 137 0
 115 0026 FFF7FEFF 		bl	CySysPmSleep
 116              	.LVL13:
 140:.\Generated_Source\PSoC4/CapSense_Control.c ****             interruptState = CyEnterCriticalSection();
 117              		.loc 1 140 0
 118 002a 201C     		mov	r0, r4
 119 002c FFF7FEFF 		bl	CyExitCriticalSection
 120              	.LVL14:
 141:.\Generated_Source\PSoC4/CapSense_Control.c ****         }
 121              		.loc 1 141 0
 122 0030 FFF7FEFF 		bl	CyEnterCriticalSection
 123              	.LVL15:
 124 0034 041C     		mov	r4, r0
 125              	.LVL16:
 126              	.L9:
 135:.\Generated_Source\PSoC4/CapSense_Control.c ****         {
 127              		.loc 1 135 0
 128 0036 FFF7FEFF 		bl	CapSense_IsBusy
 129              	.LVL17:
 130 003a 0028     		cmp	r0, #0
ARM GAS  C:\Users\Alan\AppData\Local\Temp\ccxZwOqj.s 			page 7


 131 003c F3D1     		bne	.L10
 143:.\Generated_Source\PSoC4/CapSense_Control.c **** 
 132              		.loc 1 143 0
 133 003e 201C     		mov	r0, r4
 134 0040 FFF7FEFF 		bl	CyExitCriticalSection
 135              	.LVL18:
 145:.\Generated_Source\PSoC4/CapSense_Control.c ****         CapSense_InitializeAllBaselines();
 136              		.loc 1 145 0
 137 0044 FFF7FEFF 		bl	CapSense_FtInitialize
 138              	.LVL19:
 146:.\Generated_Source\PSoC4/CapSense_Control.c ****     }
 139              		.loc 1 146 0
 140 0048 FFF7FEFF 		bl	CapSense_InitializeAllBaselines
 141              	.LVL20:
 142              	.L8:
 154:.\Generated_Source\PSoC4/CapSense_Control.c **** 
 143              		.loc 1 154 0
 144 004c 281C     		mov	r0, r5
 145              		@ sp needed
 146              	.LVL21:
 147 004e 38BD     		pop	{r3, r4, r5, pc}
 148              		.cfi_endproc
 149              	.LFE1:
 150              		.size	CapSense_Start, .-CapSense_Start
 151              		.section	.text.CapSense_Stop,"ax",%progbits
 152              		.align	2
 153              		.global	CapSense_Stop
 154              		.code	16
 155              		.thumb_func
 156              		.type	CapSense_Stop, %function
 157              	CapSense_Stop:
 158              	.LFB3:
 200:.\Generated_Source\PSoC4/CapSense_Control.c **** 
 201:.\Generated_Source\PSoC4/CapSense_Control.c **** /*******************************************************************************
 202:.\Generated_Source\PSoC4/CapSense_Control.c **** * Function Name: CapSense_Stop
 203:.\Generated_Source\PSoC4/CapSense_Control.c **** ****************************************************************************//**
 204:.\Generated_Source\PSoC4/CapSense_Control.c **** *
 205:.\Generated_Source\PSoC4/CapSense_Control.c **** * \brief
 206:.\Generated_Source\PSoC4/CapSense_Control.c **** *  This function stops the component operation.
 207:.\Generated_Source\PSoC4/CapSense_Control.c **** *
 208:.\Generated_Source\PSoC4/CapSense_Control.c **** * \details
 209:.\Generated_Source\PSoC4/CapSense_Control.c **** *  The hardware block reconfigured by application
 210:.\Generated_Source\PSoC4/CapSense_Control.c **** *  program for any special usage. Once the component is stopped, the operation can be resumed
 211:.\Generated_Source\PSoC4/CapSense_Control.c **** *  by calling CapSense_Resume() function or component can be reset by calling
 212:.\Generated_Source\PSoC4/CapSense_Control.c **** *  CapSense_Start() function. No sensor scanning or self-tests can be executed
 213:.\Generated_Source\PSoC4/CapSense_Control.c **** *  when component is stopped.
 214:.\Generated_Source\PSoC4/CapSense_Control.c **** *
 215:.\Generated_Source\PSoC4/CapSense_Control.c **** * \return
 216:.\Generated_Source\PSoC4/CapSense_Control.c **** *  Returns if CYRET_SUCCESS stop process is successfully executed.
 217:.\Generated_Source\PSoC4/CapSense_Control.c **** *
 218:.\Generated_Source\PSoC4/CapSense_Control.c **** *******************************************************************************/
 219:.\Generated_Source\PSoC4/CapSense_Control.c **** cystatus CapSense_Stop(void)
 220:.\Generated_Source\PSoC4/CapSense_Control.c **** {
 159              		.loc 1 220 0
 160              		.cfi_startproc
 161              	.LVL22:
 221:.\Generated_Source\PSoC4/CapSense_Control.c ****     cystatus result = CYRET_SUCCESS;
ARM GAS  C:\Users\Alan\AppData\Local\Temp\ccxZwOqj.s 			page 8


 222:.\Generated_Source\PSoC4/CapSense_Control.c **** 
 223:.\Generated_Source\PSoC4/CapSense_Control.c ****     #if (CapSense_ENABLE == CapSense_ADC_EN)
 224:.\Generated_Source\PSoC4/CapSense_Control.c ****         /* Release CSD resources */
 225:.\Generated_Source\PSoC4/CapSense_Control.c ****         result = CapSense_SsReleaseResources();
 226:.\Generated_Source\PSoC4/CapSense_Control.c **** 
 227:.\Generated_Source\PSoC4/CapSense_Control.c ****         /* Release ADC resources */
 228:.\Generated_Source\PSoC4/CapSense_Control.c ****         CapSense_AdcStop();
 229:.\Generated_Source\PSoC4/CapSense_Control.c ****     #endif /* (CapSense_ENABLE == CapSense_ADC_EN) */
 230:.\Generated_Source\PSoC4/CapSense_Control.c **** 
 231:.\Generated_Source\PSoC4/CapSense_Control.c ****     CapSense_InitVar = CapSense_INIT_NEEDED;
 162              		.loc 1 231 0
 163 0000 0022     		mov	r2, #0
 164 0002 024B     		ldr	r3, .L12
 165 0004 1A70     		strb	r2, [r3]
 232:.\Generated_Source\PSoC4/CapSense_Control.c **** 
 233:.\Generated_Source\PSoC4/CapSense_Control.c ****     return result;
 234:.\Generated_Source\PSoC4/CapSense_Control.c **** }
 166              		.loc 1 234 0
 167 0006 0020     		mov	r0, #0
 168              		@ sp needed
 169 0008 7047     		bx	lr
 170              	.L13:
 171 000a C046     		.align	2
 172              	.L12:
 173 000c 00000000 		.word	.LANCHOR0
 174              		.cfi_endproc
 175              	.LFE3:
 176              		.size	CapSense_Stop, .-CapSense_Stop
 177              		.section	.text.CapSense_Resume,"ax",%progbits
 178              		.align	2
 179              		.global	CapSense_Resume
 180              		.code	16
 181              		.thumb_func
 182              		.type	CapSense_Resume, %function
 183              	CapSense_Resume:
 184              	.LFB4:
 235:.\Generated_Source\PSoC4/CapSense_Control.c **** 
 236:.\Generated_Source\PSoC4/CapSense_Control.c **** /*******************************************************************************
 237:.\Generated_Source\PSoC4/CapSense_Control.c **** * Function Name: CapSense_Resume
 238:.\Generated_Source\PSoC4/CapSense_Control.c **** ****************************************************************************//**
 239:.\Generated_Source\PSoC4/CapSense_Control.c **** *
 240:.\Generated_Source\PSoC4/CapSense_Control.c **** * \brief
 241:.\Generated_Source\PSoC4/CapSense_Control.c **** *  This function resumes the component operation if CapSense_Stop()
 242:.\Generated_Source\PSoC4/CapSense_Control.c **** *  function was called previously.
 243:.\Generated_Source\PSoC4/CapSense_Control.c **** *
 244:.\Generated_Source\PSoC4/CapSense_Control.c **** * \details
 245:.\Generated_Source\PSoC4/CapSense_Control.c **** *   Following tasks are executed as part of operation resume process:
 246:.\Generated_Source\PSoC4/CapSense_Control.c **** *   - Configure the hardware to perform capacitive sensing.
 247:.\Generated_Source\PSoC4/CapSense_Control.c **** *   - Reset all Widgets/Sensors status.
 248:.\Generated_Source\PSoC4/CapSense_Control.c **** *
 249:.\Generated_Source\PSoC4/CapSense_Control.c **** * \return
 250:.\Generated_Source\PSoC4/CapSense_Control.c **** *  Returns the status of resume process. If CYRET_SUCCESS is not received,
 251:.\Generated_Source\PSoC4/CapSense_Control.c **** *  resume process failed and component may not operate as expected.
 252:.\Generated_Source\PSoC4/CapSense_Control.c **** *
 253:.\Generated_Source\PSoC4/CapSense_Control.c **** *******************************************************************************/
 254:.\Generated_Source\PSoC4/CapSense_Control.c **** cystatus CapSense_Resume(void)
 255:.\Generated_Source\PSoC4/CapSense_Control.c **** {
ARM GAS  C:\Users\Alan\AppData\Local\Temp\ccxZwOqj.s 			page 9


 185              		.loc 1 255 0
 186              		.cfi_startproc
 187 0000 08B5     		push	{r3, lr}
 188              		.cfi_def_cfa_offset 8
 189              		.cfi_offset 3, -8
 190              		.cfi_offset 14, -4
 256:.\Generated_Source\PSoC4/CapSense_Control.c ****     cystatus result;
 257:.\Generated_Source\PSoC4/CapSense_Control.c **** 
 258:.\Generated_Source\PSoC4/CapSense_Control.c ****     CapSense_DpInitialize();
 191              		.loc 1 258 0
 192 0002 FFF7FEFF 		bl	CapSense_DpInitialize
 193              	.LVL23:
 259:.\Generated_Source\PSoC4/CapSense_Control.c ****     CapSense_TuInitialize();
 194              		.loc 1 259 0
 195 0006 FFF7FEFF 		bl	CapSense_TuInitialize
 196              	.LVL24:
 260:.\Generated_Source\PSoC4/CapSense_Control.c **** 
 261:.\Generated_Source\PSoC4/CapSense_Control.c ****     result = CapSense_SsInitialize();
 197              		.loc 1 261 0
 198 000a FFF7FEFF 		bl	CapSense_SsInitialize
 199              	.LVL25:
 262:.\Generated_Source\PSoC4/CapSense_Control.c **** 
 263:.\Generated_Source\PSoC4/CapSense_Control.c ****     CapSense_InitVar = CapSense_INIT_DONE;
 200              		.loc 1 263 0
 201 000e 0122     		mov	r2, #1
 202 0010 014B     		ldr	r3, .L15
 203 0012 1A70     		strb	r2, [r3]
 264:.\Generated_Source\PSoC4/CapSense_Control.c **** 
 265:.\Generated_Source\PSoC4/CapSense_Control.c ****     return result;
 266:.\Generated_Source\PSoC4/CapSense_Control.c **** }
 204              		.loc 1 266 0
 205              		@ sp needed
 206 0014 08BD     		pop	{r3, pc}
 207              	.L16:
 208 0016 C046     		.align	2
 209              	.L15:
 210 0018 00000000 		.word	.LANCHOR0
 211              		.cfi_endproc
 212              	.LFE4:
 213              		.size	CapSense_Resume, .-CapSense_Resume
 214              		.section	.text.CapSense_ProcessAllWidgets,"ax",%progbits
 215              		.align	2
 216              		.global	CapSense_ProcessAllWidgets
 217              		.code	16
 218              		.thumb_func
 219              		.type	CapSense_ProcessAllWidgets, %function
 220              	CapSense_ProcessAllWidgets:
 221              	.LFB5:
 267:.\Generated_Source\PSoC4/CapSense_Control.c **** 
 268:.\Generated_Source\PSoC4/CapSense_Control.c **** 
 269:.\Generated_Source\PSoC4/CapSense_Control.c **** /*******************************************************************************
 270:.\Generated_Source\PSoC4/CapSense_Control.c **** * Function Name: CapSense_ProcessAllWidgets
 271:.\Generated_Source\PSoC4/CapSense_Control.c **** ****************************************************************************//**
 272:.\Generated_Source\PSoC4/CapSense_Control.c **** *
 273:.\Generated_Source\PSoC4/CapSense_Control.c **** * \brief
 274:.\Generated_Source\PSoC4/CapSense_Control.c **** *   Performs full data processing on all enabled widgets.
 275:.\Generated_Source\PSoC4/CapSense_Control.c **** *
ARM GAS  C:\Users\Alan\AppData\Local\Temp\ccxZwOqj.s 			page 10


 276:.\Generated_Source\PSoC4/CapSense_Control.c **** * \details
 277:.\Generated_Source\PSoC4/CapSense_Control.c **** *   The following tasks are executed as part of processing all widgets:
 278:.\Generated_Source\PSoC4/CapSense_Control.c **** *   1. Apply filter to Raw Signal
 279:.\Generated_Source\PSoC4/CapSense_Control.c **** *   2. Update thresholds if FW Auto Tuning is enabled
 280:.\Generated_Source\PSoC4/CapSense_Control.c **** *   3. Update Baselines and differences
 281:.\Generated_Source\PSoC4/CapSense_Control.c **** *   4. Update Status (on/off, centroid, X/Y position)
 282:.\Generated_Source\PSoC4/CapSense_Control.c **** *
 283:.\Generated_Source\PSoC4/CapSense_Control.c **** * \return
 284:.\Generated_Source\PSoC4/CapSense_Control.c **** *   Returns CYRET_SUCCESS.
 285:.\Generated_Source\PSoC4/CapSense_Control.c **** *
 286:.\Generated_Source\PSoC4/CapSense_Control.c **** *******************************************************************************/
 287:.\Generated_Source\PSoC4/CapSense_Control.c **** cystatus CapSense_ProcessAllWidgets(void)
 288:.\Generated_Source\PSoC4/CapSense_Control.c **** {
 222              		.loc 1 288 0
 223              		.cfi_startproc
 224 0000 38B5     		push	{r3, r4, r5, lr}
 225              		.cfi_def_cfa_offset 16
 226              		.cfi_offset 3, -16
 227              		.cfi_offset 4, -12
 228              		.cfi_offset 5, -8
 229              		.cfi_offset 14, -4
 230              	.LVL26:
 289:.\Generated_Source\PSoC4/CapSense_Control.c ****     uint32 wdgtId;
 290:.\Generated_Source\PSoC4/CapSense_Control.c ****     cystatus result = CYRET_SUCCESS;
 291:.\Generated_Source\PSoC4/CapSense_Control.c ****     CapSense_FLASH_WD_STRUCT const *ptrFlashWdgt;
 292:.\Generated_Source\PSoC4/CapSense_Control.c **** 
 293:.\Generated_Source\PSoC4/CapSense_Control.c ****     ptrFlashWdgt = CapSense_dsFlash.wdgtArray;
 231              		.loc 1 293 0
 232 0002 0E4D     		ldr	r5, .L21
 294:.\Generated_Source\PSoC4/CapSense_Control.c **** 
 295:.\Generated_Source\PSoC4/CapSense_Control.c ****     for (wdgtId = 0u; wdgtId < CapSense_TOTAL_WIDGETS; wdgtId++)
 233              		.loc 1 295 0
 234 0004 0024     		mov	r4, #0
 235 0006 14E0     		b	.L18
 236              	.LVL27:
 237              	.L20:
 296:.\Generated_Source\PSoC4/CapSense_Control.c ****     {
 297:.\Generated_Source\PSoC4/CapSense_Control.c ****         if (0u != CapSense_GET_WIDGET_EN_STATUS(wdgtId))
 238              		.loc 1 297 0
 239 0008 6309     		lsr	r3, r4, #5
 240 000a 0233     		add	r3, r3, #2
 241 000c 9B00     		lsl	r3, r3, #2
 242 000e 0C4A     		ldr	r2, .L21+4
 243 0010 D318     		add	r3, r2, r3
 244 0012 5A68     		ldr	r2, [r3, #4]
 245 0014 1F23     		mov	r3, #31
 246 0016 2340     		and	r3, r4
 247 0018 DA40     		lsr	r2, r2, r3
 248 001a 131C     		mov	r3, r2
 249 001c DB07     		lsl	r3, r3, #31
 250 001e 06D5     		bpl	.L19
 298:.\Generated_Source\PSoC4/CapSense_Control.c ****         {
 299:.\Generated_Source\PSoC4/CapSense_Control.c ****             switch(CapSense_GET_SENSE_METHOD(ptrFlashWdgt))
 300:.\Generated_Source\PSoC4/CapSense_Control.c ****             {
 301:.\Generated_Source\PSoC4/CapSense_Control.c ****             #if (0u != CapSense_TOTAL_CSD_WIDGETS)
 302:.\Generated_Source\PSoC4/CapSense_Control.c ****                 case CapSense_SENSE_METHOD_CSD_E:
 303:.\Generated_Source\PSoC4/CapSense_Control.c ****                     CapSense_DpProcessCsdWidgetRawCounts(ptrFlashWdgt);
ARM GAS  C:\Users\Alan\AppData\Local\Temp\ccxZwOqj.s 			page 11


 304:.\Generated_Source\PSoC4/CapSense_Control.c ****                     CapSense_DpProcessCsdWidgetStatus(wdgtId, ptrFlashWdgt);
 305:.\Generated_Source\PSoC4/CapSense_Control.c ****                     break;
 306:.\Generated_Source\PSoC4/CapSense_Control.c ****             #endif /* #if (0u != CapSense_TOTAL_CSD_WIDGETS) */
 307:.\Generated_Source\PSoC4/CapSense_Control.c **** 
 308:.\Generated_Source\PSoC4/CapSense_Control.c ****             #if (0u != CapSense_TOTAL_CSX_WIDGETS)
 309:.\Generated_Source\PSoC4/CapSense_Control.c ****                 case CapSense_SENSE_METHOD_CSX_E:
 310:.\Generated_Source\PSoC4/CapSense_Control.c ****                     CapSense_DpProcessCsxWidgetRawCounts(ptrFlashWdgt);
 251              		.loc 1 310 0
 252 0020 281C     		mov	r0, r5
 253 0022 FFF7FEFF 		bl	CapSense_DpProcessCsxWidgetRawCounts
 254              	.LVL28:
 311:.\Generated_Source\PSoC4/CapSense_Control.c ****                     CapSense_DpProcessCsxWidgetStatus(wdgtId, ptrFlashWdgt);
 255              		.loc 1 311 0
 256 0026 201C     		mov	r0, r4
 257 0028 291C     		mov	r1, r5
 258 002a FFF7FEFF 		bl	CapSense_DpProcessCsxWidgetStatus
 259              	.LVL29:
 260              	.L19:
 312:.\Generated_Source\PSoC4/CapSense_Control.c ****                     break;
 313:.\Generated_Source\PSoC4/CapSense_Control.c ****             #endif /* #if (0u != CapSense_TOTAL_CSX_WIDGETS) */
 314:.\Generated_Source\PSoC4/CapSense_Control.c **** 
 315:.\Generated_Source\PSoC4/CapSense_Control.c ****             default:
 316:.\Generated_Source\PSoC4/CapSense_Control.c ****                 CYASSERT(0u);
 317:.\Generated_Source\PSoC4/CapSense_Control.c ****                 break;
 318:.\Generated_Source\PSoC4/CapSense_Control.c ****             }
 319:.\Generated_Source\PSoC4/CapSense_Control.c ****         }
 320:.\Generated_Source\PSoC4/CapSense_Control.c **** 
 321:.\Generated_Source\PSoC4/CapSense_Control.c ****         ptrFlashWdgt++;
 261              		.loc 1 321 0 discriminator 2
 262 002e 1C35     		add	r5, r5, #28
 263              	.LVL30:
 295:.\Generated_Source\PSoC4/CapSense_Control.c ****     {
 264              		.loc 1 295 0 discriminator 2
 265 0030 0134     		add	r4, r4, #1
 266              	.LVL31:
 267              	.L18:
 295:.\Generated_Source\PSoC4/CapSense_Control.c ****     {
 268              		.loc 1 295 0 is_stmt 0 discriminator 1
 269 0032 022C     		cmp	r4, #2
 270 0034 E8D9     		bls	.L20
 322:.\Generated_Source\PSoC4/CapSense_Control.c ****     }
 323:.\Generated_Source\PSoC4/CapSense_Control.c **** 
 324:.\Generated_Source\PSoC4/CapSense_Control.c ****     return result;
 325:.\Generated_Source\PSoC4/CapSense_Control.c **** }
 271              		.loc 1 325 0 is_stmt 1
 272 0036 0020     		mov	r0, #0
 273              		@ sp needed
 274              	.LVL32:
 275              	.LVL33:
 276 0038 38BD     		pop	{r3, r4, r5, pc}
 277              	.L22:
 278 003a C046     		.align	2
 279              	.L21:
 280 003c 00000000 		.word	CapSense_dsFlash
 281 0040 00000000 		.word	CapSense_dsRam
 282              		.cfi_endproc
 283              	.LFE5:
ARM GAS  C:\Users\Alan\AppData\Local\Temp\ccxZwOqj.s 			page 12


 284              		.size	CapSense_ProcessAllWidgets, .-CapSense_ProcessAllWidgets
 285              		.section	.text.CapSense_ProcessWidget,"ax",%progbits
 286              		.align	2
 287              		.global	CapSense_ProcessWidget
 288              		.code	16
 289              		.thumb_func
 290              		.type	CapSense_ProcessWidget, %function
 291              	CapSense_ProcessWidget:
 292              	.LFB6:
 326:.\Generated_Source\PSoC4/CapSense_Control.c **** 
 327:.\Generated_Source\PSoC4/CapSense_Control.c **** 
 328:.\Generated_Source\PSoC4/CapSense_Control.c **** /*******************************************************************************
 329:.\Generated_Source\PSoC4/CapSense_Control.c **** * Function Name: CapSense_ProcessWidget
 330:.\Generated_Source\PSoC4/CapSense_Control.c **** ****************************************************************************//**
 331:.\Generated_Source\PSoC4/CapSense_Control.c **** *
 332:.\Generated_Source\PSoC4/CapSense_Control.c **** * \brief
 333:.\Generated_Source\PSoC4/CapSense_Control.c **** *   Performs full data processing of the selected widget if it is enabled.
 334:.\Generated_Source\PSoC4/CapSense_Control.c **** *
 335:.\Generated_Source\PSoC4/CapSense_Control.c **** * \details
 336:.\Generated_Source\PSoC4/CapSense_Control.c **** *   The following tasks are executed as part of process a widget:
 337:.\Generated_Source\PSoC4/CapSense_Control.c **** *   1. Apply filter to Raw signal
 338:.\Generated_Source\PSoC4/CapSense_Control.c **** *   2. Update thresholds if FW Auto Tuning is enabled
 339:.\Generated_Source\PSoC4/CapSense_Control.c **** *   3. Update Baselines and differences
 340:.\Generated_Source\PSoC4/CapSense_Control.c **** *   4. Update Status (on/off, centroid, X/Y position)
 341:.\Generated_Source\PSoC4/CapSense_Control.c **** *
 342:.\Generated_Source\PSoC4/CapSense_Control.c **** * \param widgetId The widget index number.
 343:.\Generated_Source\PSoC4/CapSense_Control.c **** *
 344:.\Generated_Source\PSoC4/CapSense_Control.c **** * \return
 345:.\Generated_Source\PSoC4/CapSense_Control.c **** *   Returns CYRET_SUCCESS if operation was successfully completed.
 346:.\Generated_Source\PSoC4/CapSense_Control.c **** *   Returns CYRET_BAD_PARAM if the widgetId index is wrong.
 347:.\Generated_Source\PSoC4/CapSense_Control.c **** *   Returns CYRET_INVALID_STATE if the specified widget is disabled or
 348:.\Generated_Source\PSoC4/CapSense_Control.c **** *   if the Self Test has detected some issues with the selected widget.
 349:.\Generated_Source\PSoC4/CapSense_Control.c **** *
 350:.\Generated_Source\PSoC4/CapSense_Control.c **** *******************************************************************************/
 351:.\Generated_Source\PSoC4/CapSense_Control.c **** cystatus CapSense_ProcessWidget(uint32 widgetId)
 352:.\Generated_Source\PSoC4/CapSense_Control.c **** {
 293              		.loc 1 352 0
 294              		.cfi_startproc
 295              	.LVL34:
 296 0000 70B5     		push	{r4, r5, r6, lr}
 297              		.cfi_def_cfa_offset 16
 298              		.cfi_offset 4, -16
 299              		.cfi_offset 5, -12
 300              		.cfi_offset 6, -8
 301              		.cfi_offset 14, -4
 302              	.LVL35:
 353:.\Generated_Source\PSoC4/CapSense_Control.c ****     cystatus result = CYRET_SUCCESS;
 354:.\Generated_Source\PSoC4/CapSense_Control.c ****     CapSense_FLASH_WD_STRUCT const *ptrFlashWdgt;
 355:.\Generated_Source\PSoC4/CapSense_Control.c **** 
 356:.\Generated_Source\PSoC4/CapSense_Control.c ****     if (widgetId >= CapSense_TOTAL_WIDGETS)
 303              		.loc 1 356 0
 304 0002 0228     		cmp	r0, #2
 305 0004 01D8     		bhi	.L27
 353:.\Generated_Source\PSoC4/CapSense_Control.c ****     cystatus result = CYRET_SUCCESS;
 306              		.loc 1 353 0
 307 0006 0025     		mov	r5, #0
 308 0008 00E0     		b	.L24
ARM GAS  C:\Users\Alan\AppData\Local\Temp\ccxZwOqj.s 			page 13


 309              	.L27:
 357:.\Generated_Source\PSoC4/CapSense_Control.c ****     {
 358:.\Generated_Source\PSoC4/CapSense_Control.c ****         result = CYRET_BAD_PARAM;
 310              		.loc 1 358 0
 311 000a 0125     		mov	r5, #1
 312              	.L24:
 313              	.LVL36:
 359:.\Generated_Source\PSoC4/CapSense_Control.c ****     }
 360:.\Generated_Source\PSoC4/CapSense_Control.c **** 
 361:.\Generated_Source\PSoC4/CapSense_Control.c ****     if ((CYRET_SUCCESS == result) && (0u == CapSense_GET_WIDGET_EN_STATUS(widgetId)))
 314              		.loc 1 361 0
 315 000c 002D     		cmp	r5, #0
 316 000e 0CD1     		bne	.L25
 317              		.loc 1 361 0 is_stmt 0 discriminator 1
 318 0010 4309     		lsr	r3, r0, #5
 319 0012 0233     		add	r3, r3, #2
 320 0014 9B00     		lsl	r3, r3, #2
 321 0016 0D4A     		ldr	r2, .L29
 322 0018 D318     		add	r3, r2, r3
 323 001a 5A68     		ldr	r2, [r3, #4]
 324 001c 1F23     		mov	r3, #31
 325 001e 0340     		and	r3, r0
 326 0020 DA40     		lsr	r2, r2, r3
 327 0022 131C     		mov	r3, r2
 328 0024 DB07     		lsl	r3, r3, #31
 329 0026 00D4     		bmi	.L25
 362:.\Generated_Source\PSoC4/CapSense_Control.c ****     {
 363:.\Generated_Source\PSoC4/CapSense_Control.c ****         result = CYRET_INVALID_STATE;
 330              		.loc 1 363 0 is_stmt 1
 331 0028 1135     		add	r5, r5, #17
 332              	.LVL37:
 333              	.L25:
 364:.\Generated_Source\PSoC4/CapSense_Control.c ****     }
 365:.\Generated_Source\PSoC4/CapSense_Control.c **** 
 366:.\Generated_Source\PSoC4/CapSense_Control.c ****     if (CYRET_SUCCESS == result)
 334              		.loc 1 366 0
 335 002a 002D     		cmp	r5, #0
 336 002c 0CD1     		bne	.L26
 337 002e 041C     		mov	r4, r0
 367:.\Generated_Source\PSoC4/CapSense_Control.c ****     {
 368:.\Generated_Source\PSoC4/CapSense_Control.c ****         ptrFlashWdgt = &CapSense_dsFlash.wdgtArray[widgetId];
 338              		.loc 1 368 0
 339 0030 C300     		lsl	r3, r0, #3
 340 0032 1B1A     		sub	r3, r3, r0
 341 0034 9B00     		lsl	r3, r3, #2
 342 0036 064E     		ldr	r6, .L29+4
 343 0038 9E19     		add	r6, r3, r6
 344              	.LVL38:
 369:.\Generated_Source\PSoC4/CapSense_Control.c **** 
 370:.\Generated_Source\PSoC4/CapSense_Control.c ****         switch(CapSense_GET_SENSE_METHOD(ptrFlashWdgt))
 371:.\Generated_Source\PSoC4/CapSense_Control.c ****         {
 372:.\Generated_Source\PSoC4/CapSense_Control.c ****         #if (0u != CapSense_TOTAL_CSD_WIDGETS)
 373:.\Generated_Source\PSoC4/CapSense_Control.c ****             case CapSense_SENSE_METHOD_CSD_E:
 374:.\Generated_Source\PSoC4/CapSense_Control.c ****                 CapSense_DpProcessCsdWidgetRawCounts(ptrFlashWdgt);
 375:.\Generated_Source\PSoC4/CapSense_Control.c ****                 CapSense_DpProcessCsdWidgetStatus(widgetId, ptrFlashWdgt);
 376:.\Generated_Source\PSoC4/CapSense_Control.c ****                 break;
 377:.\Generated_Source\PSoC4/CapSense_Control.c ****         #endif /* #if (0u != CapSense_TOTAL_CSD_WIDGETS) */
ARM GAS  C:\Users\Alan\AppData\Local\Temp\ccxZwOqj.s 			page 14


 378:.\Generated_Source\PSoC4/CapSense_Control.c **** 
 379:.\Generated_Source\PSoC4/CapSense_Control.c ****         #if (0u != CapSense_TOTAL_CSX_WIDGETS)
 380:.\Generated_Source\PSoC4/CapSense_Control.c ****             case CapSense_SENSE_METHOD_CSX_E:
 381:.\Generated_Source\PSoC4/CapSense_Control.c ****                 CapSense_DpProcessCsxWidgetRawCounts(ptrFlashWdgt);
 345              		.loc 1 381 0
 346 003a 301C     		mov	r0, r6
 347              	.LVL39:
 348 003c FFF7FEFF 		bl	CapSense_DpProcessCsxWidgetRawCounts
 349              	.LVL40:
 382:.\Generated_Source\PSoC4/CapSense_Control.c ****                 CapSense_DpProcessCsxWidgetStatus(widgetId, ptrFlashWdgt);
 350              		.loc 1 382 0
 351 0040 201C     		mov	r0, r4
 352 0042 311C     		mov	r1, r6
 353 0044 FFF7FEFF 		bl	CapSense_DpProcessCsxWidgetStatus
 354              	.LVL41:
 355              	.L26:
 383:.\Generated_Source\PSoC4/CapSense_Control.c ****                 break;
 384:.\Generated_Source\PSoC4/CapSense_Control.c ****         #endif /* #if (0u != CapSense_TOTAL_CSX_WIDGETS) */
 385:.\Generated_Source\PSoC4/CapSense_Control.c **** 
 386:.\Generated_Source\PSoC4/CapSense_Control.c ****         default:
 387:.\Generated_Source\PSoC4/CapSense_Control.c ****             CYASSERT(0u);
 388:.\Generated_Source\PSoC4/CapSense_Control.c ****             break;
 389:.\Generated_Source\PSoC4/CapSense_Control.c ****         }
 390:.\Generated_Source\PSoC4/CapSense_Control.c ****     }
 391:.\Generated_Source\PSoC4/CapSense_Control.c **** 
 392:.\Generated_Source\PSoC4/CapSense_Control.c ****     return result;
 393:.\Generated_Source\PSoC4/CapSense_Control.c **** }
 356              		.loc 1 393 0
 357 0048 281C     		mov	r0, r5
 358              		@ sp needed
 359              	.LVL42:
 360 004a 70BD     		pop	{r4, r5, r6, pc}
 361              	.L30:
 362              		.align	2
 363              	.L29:
 364 004c 00000000 		.word	CapSense_dsRam
 365 0050 00000000 		.word	CapSense_dsFlash
 366              		.cfi_endproc
 367              	.LFE6:
 368              		.size	CapSense_ProcessWidget, .-CapSense_ProcessWidget
 369              		.section	.text.CapSense_ProcessWidgetExt,"ax",%progbits
 370              		.align	2
 371              		.global	CapSense_ProcessWidgetExt
 372              		.code	16
 373              		.thumb_func
 374              		.type	CapSense_ProcessWidgetExt, %function
 375              	CapSense_ProcessWidgetExt:
 376              	.LFB7:
 394:.\Generated_Source\PSoC4/CapSense_Control.c **** 
 395:.\Generated_Source\PSoC4/CapSense_Control.c **** 
 396:.\Generated_Source\PSoC4/CapSense_Control.c **** /*******************************************************************************
 397:.\Generated_Source\PSoC4/CapSense_Control.c **** * Function Name: CapSense_ProcessWidgetExt
 398:.\Generated_Source\PSoC4/CapSense_Control.c **** ****************************************************************************//**
 399:.\Generated_Source\PSoC4/CapSense_Control.c **** *
 400:.\Generated_Source\PSoC4/CapSense_Control.c **** * \brief
 401:.\Generated_Source\PSoC4/CapSense_Control.c **** *   Performs customized data processing on the selected widget.
 402:.\Generated_Source\PSoC4/CapSense_Control.c **** *
ARM GAS  C:\Users\Alan\AppData\Local\Temp\ccxZwOqj.s 			page 15


 403:.\Generated_Source\PSoC4/CapSense_Control.c **** * \details
 404:.\Generated_Source\PSoC4/CapSense_Control.c **** *   The execution order of the requested operations is from LSB to MSB.
 405:.\Generated_Source\PSoC4/CapSense_Control.c **** *   If a different order is needed, this API can be called multiple
 406:.\Generated_Source\PSoC4/CapSense_Control.c **** *   times with the required mode parameter.
 407:.\Generated_Source\PSoC4/CapSense_Control.c **** *
 408:.\Generated_Source\PSoC4/CapSense_Control.c **** *   The CapSense_PROCESS_CALC_NOISE and CapSense_PROCESS_THRESHOLDS
 409:.\Generated_Source\PSoC4/CapSense_Control.c **** *   flags are not supported by the CSX widgets.
 410:.\Generated_Source\PSoC4/CapSense_Control.c **** *
 411:.\Generated_Source\PSoC4/CapSense_Control.c **** *   The CapSense_PROCESS_DECONVOLUTION flag is supported only by the CSX widgets
 412:.\Generated_Source\PSoC4/CapSense_Control.c **** *   with the multiphase TX scan mode. For such widgets it is mandatory to execute this task
 413:.\Generated_Source\PSoC4/CapSense_Control.c **** *   as the first processing step to get the correct raw counts. Otherwise any further processing
 414:.\Generated_Source\PSoC4/CapSense_Control.c **** *   will make no sense.
 415:.\Generated_Source\PSoC4/CapSense_Control.c **** *
 416:.\Generated_Source\PSoC4/CapSense_Control.c **** *   Note that this API ignores values of the wdgtEnable and wdgtWorking registers.
 417:.\Generated_Source\PSoC4/CapSense_Control.c **** *
 418:.\Generated_Source\PSoC4/CapSense_Control.c **** * \param widgetId The widget index number.
 419:.\Generated_Source\PSoC4/CapSense_Control.c **** * \param mode Specify the type of process that needs to be executed for the widget:
 420:.\Generated_Source\PSoC4/CapSense_Control.c **** *    - Bits [31..7] - Reserved
 421:.\Generated_Source\PSoC4/CapSense_Control.c **** *    - Bits [6..0] - CapSense_PROCESS_ALL - Execute all tasks
 422:.\Generated_Source\PSoC4/CapSense_Control.c **** *    - Bit [6] - CapSense_PROCESS_DECONVOLUTION - Runs the deconvolution algorithm
 423:.\Generated_Source\PSoC4/CapSense_Control.c **** *               if widget supports this task
 424:.\Generated_Source\PSoC4/CapSense_Control.c **** *    - Bit [5] - CapSense_PROCESS_STATUS - Update Status (on/off, position)
 425:.\Generated_Source\PSoC4/CapSense_Control.c **** *    - Bit [4] - CapSense_PROCESS_THRESHOLDS - Update Thresholds (only in auto-tuning mode)
 426:.\Generated_Source\PSoC4/CapSense_Control.c **** *    - Bit [3] - CapSense_PROCESS_CALC_NOISE - Calculate Noise (only in auto-tuning mode)
 427:.\Generated_Source\PSoC4/CapSense_Control.c **** *    - Bit [2] - CapSense_PROCESS_DIFFCOUNTS - Update Difference Counts
 428:.\Generated_Source\PSoC4/CapSense_Control.c **** *    - Bit [1] - CapSense_PROCESS_BASELINE - Update Baselines
 429:.\Generated_Source\PSoC4/CapSense_Control.c **** *    - Bit [0] - CapSense_PROCESS_FILTER - Run Firmware Filter
 430:.\Generated_Source\PSoC4/CapSense_Control.c **** *
 431:.\Generated_Source\PSoC4/CapSense_Control.c **** * \return
 432:.\Generated_Source\PSoC4/CapSense_Control.c **** *   Returns CYRET_SUCCESS in case of success or CYRET_BAD_PARAM in case of wrong
 433:.\Generated_Source\PSoC4/CapSense_Control.c **** *   widgetId parameter.
 434:.\Generated_Source\PSoC4/CapSense_Control.c **** *
 435:.\Generated_Source\PSoC4/CapSense_Control.c **** *******************************************************************************/
 436:.\Generated_Source\PSoC4/CapSense_Control.c **** cystatus CapSense_ProcessWidgetExt(uint32 widgetId, uint32 mode)
 437:.\Generated_Source\PSoC4/CapSense_Control.c **** {
 377              		.loc 1 437 0
 378              		.cfi_startproc
 379              	.LVL43:
 380 0000 F0B5     		push	{r4, r5, r6, r7, lr}
 381              		.cfi_def_cfa_offset 20
 382              		.cfi_offset 4, -20
 383              		.cfi_offset 5, -16
 384              		.cfi_offset 6, -12
 385              		.cfi_offset 7, -8
 386              		.cfi_offset 14, -4
 387 0002 4F46     		mov	r7, r9
 388 0004 80B4     		push	{r7}
 389              		.cfi_def_cfa_offset 24
 390              		.cfi_offset 9, -24
 391 0006 82B0     		sub	sp, sp, #8
 392              		.cfi_def_cfa_offset 32
 393              	.LVL44:
 438:.\Generated_Source\PSoC4/CapSense_Control.c ****     uint32 snsCount;
 439:.\Generated_Source\PSoC4/CapSense_Control.c ****     cystatus result = CYRET_BAD_PARAM;
 440:.\Generated_Source\PSoC4/CapSense_Control.c ****     CapSense_FLASH_WD_STRUCT const *ptrFlashWdgt;
 441:.\Generated_Source\PSoC4/CapSense_Control.c ****     CapSense_PTR_FILTER_VARIANT fltrHistV;
 442:.\Generated_Source\PSoC4/CapSense_Control.c ****     CapSense_RAM_SNS_STRUCT *ptrSns;
ARM GAS  C:\Users\Alan\AppData\Local\Temp\ccxZwOqj.s 			page 16


 443:.\Generated_Source\PSoC4/CapSense_Control.c **** 
 444:.\Generated_Source\PSoC4/CapSense_Control.c ****     #if (0u != CapSense_TOTAL_CSD_WIDGETS)
 445:.\Generated_Source\PSoC4/CapSense_Control.c ****         uint32 isProxWdgt;
 446:.\Generated_Source\PSoC4/CapSense_Control.c ****     #endif
 447:.\Generated_Source\PSoC4/CapSense_Control.c **** 
 448:.\Generated_Source\PSoC4/CapSense_Control.c ****     if (widgetId < CapSense_TOTAL_WIDGETS)
 394              		.loc 1 448 0
 395 0008 0228     		cmp	r0, #2
 396 000a 1ED8     		bhi	.L35
 397 000c 0D1C     		mov	r5, r1
 398 000e 8146     		mov	r9, r0
 449:.\Generated_Source\PSoC4/CapSense_Control.c ****     {
 450:.\Generated_Source\PSoC4/CapSense_Control.c ****         ptrFlashWdgt = &CapSense_dsFlash.wdgtArray[widgetId];
 399              		.loc 1 450 0
 400 0010 C200     		lsl	r2, r0, #3
 401 0012 121A     		sub	r2, r2, r0
 402 0014 9200     		lsl	r2, r2, #2
 403 0016 104B     		ldr	r3, .L37
 404 0018 D618     		add	r6, r2, r3
 405              	.LVL45:
 451:.\Generated_Source\PSoC4/CapSense_Control.c ****         snsCount = CapSense_GET_SNS_CNT_BY_PTR(ptrFlashWdgt);
 406              		.loc 1 451 0
 407 001a F38A     		ldrh	r3, [r6, #22]
 408              	.LVL46:
 452:.\Generated_Source\PSoC4/CapSense_Control.c ****         ptrSns = ptrFlashWdgt->ptr2SnsRam;
 409              		.loc 1 452 0
 410 001c B468     		ldr	r4, [r6, #8]
 411              	.LVL47:
 453:.\Generated_Source\PSoC4/CapSense_Control.c ****         fltrHistV.ptr = ptrFlashWdgt->ptr2FltrHistory;
 412              		.loc 1 453 0
 413 001e F268     		ldr	r2, [r6, #12]
 414              	.LVL48:
 415 0020 0192     		str	r2, [sp, #4]
 454:.\Generated_Source\PSoC4/CapSense_Control.c **** 
 455:.\Generated_Source\PSoC4/CapSense_Control.c ****         switch(CapSense_GET_SENSE_METHOD(ptrFlashWdgt))
 456:.\Generated_Source\PSoC4/CapSense_Control.c ****         {
 457:.\Generated_Source\PSoC4/CapSense_Control.c ****         #if (0u != CapSense_TOTAL_CSD_WIDGETS)
 458:.\Generated_Source\PSoC4/CapSense_Control.c ****             case CapSense_SENSE_METHOD_CSD_E:
 459:.\Generated_Source\PSoC4/CapSense_Control.c ****             {
 460:.\Generated_Source\PSoC4/CapSense_Control.c ****                 /* Determine if widget is type of proximity.
 461:.\Generated_Source\PSoC4/CapSense_Control.c ****                  * The Proximity widgets use different filters and
 462:.\Generated_Source\PSoC4/CapSense_Control.c ****                  * therefore have different filter history object structure */
 463:.\Generated_Source\PSoC4/CapSense_Control.c ****                 isProxWdgt =
 464:.\Generated_Source\PSoC4/CapSense_Control.c ****                     (CapSense_GET_WIDGET_TYPE(ptrFlashWdgt) == CapSense_WD_PROXIMITY_E) ? 1Lu : 0Lu
 465:.\Generated_Source\PSoC4/CapSense_Control.c **** 
 466:.\Generated_Source\PSoC4/CapSense_Control.c ****                 /* Run the desired processing for the all CSD widget sensors */
 467:.\Generated_Source\PSoC4/CapSense_Control.c ****                 for (;snsCount-- > 0u;)
 468:.\Generated_Source\PSoC4/CapSense_Control.c ****                 {
 469:.\Generated_Source\PSoC4/CapSense_Control.c ****                     CapSense_DpProcessCsdSensorRawCountsExt(ptrFlashWdgt, ptrSns, fltrHistV, mode);
 470:.\Generated_Source\PSoC4/CapSense_Control.c **** 
 471:.\Generated_Source\PSoC4/CapSense_Control.c ****                     /* Move to the next sensor and filter history objects */
 472:.\Generated_Source\PSoC4/CapSense_Control.c ****                     ptrSns++;
 473:.\Generated_Source\PSoC4/CapSense_Control.c ****                     CapSense_INC_FLTR_OBJ_VARIANT(isProxWdgt, fltrHistV);
 474:.\Generated_Source\PSoC4/CapSense_Control.c ****                 }
 475:.\Generated_Source\PSoC4/CapSense_Control.c **** 
 476:.\Generated_Source\PSoC4/CapSense_Control.c ****                 if (0u != (mode & CapSense_PROCESS_STATUS))
 477:.\Generated_Source\PSoC4/CapSense_Control.c ****                 {
ARM GAS  C:\Users\Alan\AppData\Local\Temp\ccxZwOqj.s 			page 17


 478:.\Generated_Source\PSoC4/CapSense_Control.c ****                     CapSense_DpProcessCsdWidgetStatus(widgetId, ptrFlashWdgt);
 479:.\Generated_Source\PSoC4/CapSense_Control.c ****                 }
 480:.\Generated_Source\PSoC4/CapSense_Control.c ****                 break;
 481:.\Generated_Source\PSoC4/CapSense_Control.c ****             }
 482:.\Generated_Source\PSoC4/CapSense_Control.c ****         #endif /* #if (0u != CapSense_TOTAL_CSD_WIDGETS) */
 483:.\Generated_Source\PSoC4/CapSense_Control.c **** 
 484:.\Generated_Source\PSoC4/CapSense_Control.c ****         #if (0u != CapSense_TOTAL_CSX_WIDGETS)
 485:.\Generated_Source\PSoC4/CapSense_Control.c ****             case CapSense_SENSE_METHOD_CSX_E:
 486:.\Generated_Source\PSoC4/CapSense_Control.c **** 
 487:.\Generated_Source\PSoC4/CapSense_Control.c ****                 #if (0u != CapSense_CSX_MULTIPHASE_TX_EN)
 488:.\Generated_Source\PSoC4/CapSense_Control.c ****                     if ((0u != (mode & CapSense_PROCESS_DECONVOLUTION)) &&
 489:.\Generated_Source\PSoC4/CapSense_Control.c ****                         (0u != (ptrFlashWdgt->staticConfig & CapSense_MULTIPHASE_TX_MASK)))
 490:.\Generated_Source\PSoC4/CapSense_Control.c ****                     {
 491:.\Generated_Source\PSoC4/CapSense_Control.c ****                         CapSense_DpDeconvolution(ptrFlashWdgt);
 492:.\Generated_Source\PSoC4/CapSense_Control.c ****                     }
 493:.\Generated_Source\PSoC4/CapSense_Control.c ****                 #endif /* #if (0u != CapSense_CSX_MULTIPHASE_TX_EN) */
 494:.\Generated_Source\PSoC4/CapSense_Control.c **** 
 495:.\Generated_Source\PSoC4/CapSense_Control.c ****                 /* Run the desired processing for the all CSX widget sensors */
 496:.\Generated_Source\PSoC4/CapSense_Control.c ****                 for (;snsCount-- > 0u;)
 416              		.loc 1 496 0
 417 0022 07E0     		b	.L33
 418              	.LVL49:
 419              	.L34:
 497:.\Generated_Source\PSoC4/CapSense_Control.c ****                 {
 498:.\Generated_Source\PSoC4/CapSense_Control.c ****                     CapSense_DpProcessCsxSensorRawCountsExt(ptrFlashWdgt, ptrSns, fltrHistV, mode);
 420              		.loc 1 498 0
 421 0024 301C     		mov	r0, r6
 422 0026 211C     		mov	r1, r4
 423 0028 019A     		ldr	r2, [sp, #4]
 424              	.LVL50:
 425 002a 2B1C     		mov	r3, r5
 426 002c FFF7FEFF 		bl	CapSense_DpProcessCsxSensorRawCountsExt
 427              	.LVL51:
 499:.\Generated_Source\PSoC4/CapSense_Control.c **** 
 500:.\Generated_Source\PSoC4/CapSense_Control.c ****                     /* Move to the next sensor and filter history objects */
 501:.\Generated_Source\PSoC4/CapSense_Control.c ****                     ptrSns++;
 428              		.loc 1 501 0
 429 0030 0A34     		add	r4, r4, #10
 430              	.LVL52:
 496:.\Generated_Source\PSoC4/CapSense_Control.c ****                 {
 431              		.loc 1 496 0
 432 0032 3B1C     		mov	r3, r7
 433              	.LVL53:
 434              	.L33:
 435 0034 5F1E     		sub	r7, r3, #1
 436              	.LVL54:
 437 0036 002B     		cmp	r3, #0
 438 0038 F4D1     		bne	.L34
 502:.\Generated_Source\PSoC4/CapSense_Control.c ****                     CapSense_INC_FLTR_OBJ_VARIANT(0u, fltrHistV);
 503:.\Generated_Source\PSoC4/CapSense_Control.c ****                 }
 504:.\Generated_Source\PSoC4/CapSense_Control.c **** 
 505:.\Generated_Source\PSoC4/CapSense_Control.c ****                 if (0u != (mode & CapSense_PROCESS_STATUS))
 439              		.loc 1 505 0
 440 003a AB06     		lsl	r3, r5, #26
 441 003c 07D5     		bpl	.L36
 506:.\Generated_Source\PSoC4/CapSense_Control.c ****                 {
 507:.\Generated_Source\PSoC4/CapSense_Control.c ****                     CapSense_DpProcessCsxWidgetStatus(widgetId, ptrFlashWdgt);
ARM GAS  C:\Users\Alan\AppData\Local\Temp\ccxZwOqj.s 			page 18


 442              		.loc 1 507 0
 443 003e 4846     		mov	r0, r9
 444 0040 311C     		mov	r1, r6
 445 0042 FFF7FEFF 		bl	CapSense_DpProcessCsxWidgetStatus
 446              	.LVL55:
 508:.\Generated_Source\PSoC4/CapSense_Control.c ****                 }
 509:.\Generated_Source\PSoC4/CapSense_Control.c ****                 break;
 510:.\Generated_Source\PSoC4/CapSense_Control.c ****         #endif /* #if (0u != CapSense_TOTAL_CSX_WIDGETS) */
 511:.\Generated_Source\PSoC4/CapSense_Control.c **** 
 512:.\Generated_Source\PSoC4/CapSense_Control.c ****         default:
 513:.\Generated_Source\PSoC4/CapSense_Control.c ****             CYASSERT(0u);
 514:.\Generated_Source\PSoC4/CapSense_Control.c ****             break;
 515:.\Generated_Source\PSoC4/CapSense_Control.c ****         }
 516:.\Generated_Source\PSoC4/CapSense_Control.c **** 
 517:.\Generated_Source\PSoC4/CapSense_Control.c ****         result = CYRET_SUCCESS;
 447              		.loc 1 517 0
 448 0046 0020     		mov	r0, #0
 449 0048 02E0     		b	.L32
 450              	.LVL56:
 451              	.L35:
 439:.\Generated_Source\PSoC4/CapSense_Control.c ****     CapSense_FLASH_WD_STRUCT const *ptrFlashWdgt;
 452              		.loc 1 439 0
 453 004a 0120     		mov	r0, #1
 454              	.LVL57:
 455 004c 00E0     		b	.L32
 456              	.LVL58:
 457              	.L36:
 458              		.loc 1 517 0
 459 004e 0020     		mov	r0, #0
 460              	.LVL59:
 461              	.L32:
 518:.\Generated_Source\PSoC4/CapSense_Control.c ****     }
 519:.\Generated_Source\PSoC4/CapSense_Control.c **** 
 520:.\Generated_Source\PSoC4/CapSense_Control.c ****     return result;
 521:.\Generated_Source\PSoC4/CapSense_Control.c **** }
 462              		.loc 1 521 0
 463 0050 02B0     		add	sp, sp, #8
 464              		@ sp needed
 465 0052 04BC     		pop	{r2}
 466 0054 9146     		mov	r9, r2
 467 0056 F0BD     		pop	{r4, r5, r6, r7, pc}
 468              	.L38:
 469              		.align	2
 470              	.L37:
 471 0058 00000000 		.word	CapSense_dsFlash
 472              		.cfi_endproc
 473              	.LFE7:
 474              		.size	CapSense_ProcessWidgetExt, .-CapSense_ProcessWidgetExt
 475              		.section	.text.CapSense_ProcessSensorExt,"ax",%progbits
 476              		.align	2
 477              		.global	CapSense_ProcessSensorExt
 478              		.code	16
 479              		.thumb_func
 480              		.type	CapSense_ProcessSensorExt, %function
 481              	CapSense_ProcessSensorExt:
 482              	.LFB8:
 522:.\Generated_Source\PSoC4/CapSense_Control.c **** 
ARM GAS  C:\Users\Alan\AppData\Local\Temp\ccxZwOqj.s 			page 19


 523:.\Generated_Source\PSoC4/CapSense_Control.c **** /*******************************************************************************
 524:.\Generated_Source\PSoC4/CapSense_Control.c **** * Function Name: CapSense_ProcessSensorExt
 525:.\Generated_Source\PSoC4/CapSense_Control.c **** ****************************************************************************//**
 526:.\Generated_Source\PSoC4/CapSense_Control.c **** *
 527:.\Generated_Source\PSoC4/CapSense_Control.c **** * \brief
 528:.\Generated_Source\PSoC4/CapSense_Control.c **** *   Performs customized data processing on the selected widget's sensor
 529:.\Generated_Source\PSoC4/CapSense_Control.c **** *   after scanning.
 530:.\Generated_Source\PSoC4/CapSense_Control.c **** *
 531:.\Generated_Source\PSoC4/CapSense_Control.c **** * \details
 532:.\Generated_Source\PSoC4/CapSense_Control.c **** *   The execution order of the requested operations is the same as in the
 533:.\Generated_Source\PSoC4/CapSense_Control.c **** *   provided list. If a different order is needed, this API can be called multiple
 534:.\Generated_Source\PSoC4/CapSense_Control.c **** *   times with the required mode parameter.
 535:.\Generated_Source\PSoC4/CapSense_Control.c **** *
 536:.\Generated_Source\PSoC4/CapSense_Control.c **** *   The CapSense_PROCESS_CALC_NOISE and CapSense_PROCESS_THRESHOLDS
 537:.\Generated_Source\PSoC4/CapSense_Control.c **** *   flags are not supported by the CSX widgets.
 538:.\Generated_Source\PSoC4/CapSense_Control.c **** *
 539:.\Generated_Source\PSoC4/CapSense_Control.c **** *   Note that this API ignores values of the wdgtEnable and wdgtWorking registers.
 540:.\Generated_Source\PSoC4/CapSense_Control.c **** *
 541:.\Generated_Source\PSoC4/CapSense_Control.c **** * \param widgetId  The widget index number.
 542:.\Generated_Source\PSoC4/CapSense_Control.c **** * \param sensorId  The sensor index number within the widget.
 543:.\Generated_Source\PSoC4/CapSense_Control.c **** * \param mode      The bit-mask with data processing tasks to be executed.
 544:.\Generated_Source\PSoC4/CapSense_Control.c **** *   The mode parameter can take the following values:
 545:.\Generated_Source\PSoC4/CapSense_Control.c **** *    - CapSense_PROCESS_FILTER     Run Firmware Filter
 546:.\Generated_Source\PSoC4/CapSense_Control.c **** *    - CapSense_PROCESS_BASELINE   Update Baselines
 547:.\Generated_Source\PSoC4/CapSense_Control.c **** *    - CapSense_PROCESS_DIFFCOUNTS Update Difference Counts
 548:.\Generated_Source\PSoC4/CapSense_Control.c **** *    - CapSense_PROCESS_CALC_NOISE Calculate Noise (only in auto-tuning mode)
 549:.\Generated_Source\PSoC4/CapSense_Control.c **** *    - CapSense_PROCESS_THRESHOLDS Update Thresholds (only in auto-tuning mode)
 550:.\Generated_Source\PSoC4/CapSense_Control.c **** *    - CapSense_PROCESS_ALL        Execute all tasks
 551:.\Generated_Source\PSoC4/CapSense_Control.c **** *
 552:.\Generated_Source\PSoC4/CapSense_Control.c **** * \return
 553:.\Generated_Source\PSoC4/CapSense_Control.c **** *   Returns CYRET_SUCCESS in case of success or CYRET_BAD_PARAM in case of wrong
 554:.\Generated_Source\PSoC4/CapSense_Control.c **** *   widgetId or sensorId parameters.
 555:.\Generated_Source\PSoC4/CapSense_Control.c **** *
 556:.\Generated_Source\PSoC4/CapSense_Control.c **** *******************************************************************************/
 557:.\Generated_Source\PSoC4/CapSense_Control.c **** cystatus CapSense_ProcessSensorExt(uint32 widgetId, uint32 sensorId, uint32 mode)
 558:.\Generated_Source\PSoC4/CapSense_Control.c **** {
 483              		.loc 1 558 0
 484              		.cfi_startproc
 485              	.LVL60:
 486 0000 70B5     		push	{r4, r5, r6, lr}
 487              		.cfi_def_cfa_offset 16
 488              		.cfi_offset 4, -16
 489              		.cfi_offset 5, -12
 490              		.cfi_offset 6, -8
 491              		.cfi_offset 14, -4
 492              	.LVL61:
 559:.\Generated_Source\PSoC4/CapSense_Control.c ****     cystatus result = CYRET_BAD_PARAM;
 560:.\Generated_Source\PSoC4/CapSense_Control.c ****     CapSense_FLASH_WD_STRUCT const *ptrFlashWdgt;
 561:.\Generated_Source\PSoC4/CapSense_Control.c ****     CapSense_PTR_FILTER_VARIANT fltrHistV;
 562:.\Generated_Source\PSoC4/CapSense_Control.c ****     CapSense_RAM_SNS_STRUCT *ptrSns;
 563:.\Generated_Source\PSoC4/CapSense_Control.c **** 
 564:.\Generated_Source\PSoC4/CapSense_Control.c ****     if ((widgetId < CapSense_TOTAL_WIDGETS) && (sensorId < CapSense_GET_SENSOR_COUNT(widgetId)))
 493              		.loc 1 564 0
 494 0002 0228     		cmp	r0, #2
 495 0004 17D8     		bhi	.L41
 496              		.loc 1 564 0 is_stmt 0 discriminator 1
 497 0006 C400     		lsl	r4, r0, #3
ARM GAS  C:\Users\Alan\AppData\Local\Temp\ccxZwOqj.s 			page 20


 498 0008 241A     		sub	r4, r4, r0
 499 000a A400     		lsl	r4, r4, #2
 500 000c 0C4B     		ldr	r3, .L43
 501 000e 1C19     		add	r4, r3, r4
 502 0010 E38A     		ldrh	r3, [r4, #22]
 503 0012 8B42     		cmp	r3, r1
 504 0014 11D9     		bls	.L42
 505 0016 131C     		mov	r3, r2
 565:.\Generated_Source\PSoC4/CapSense_Control.c ****     {
 566:.\Generated_Source\PSoC4/CapSense_Control.c ****         ptrFlashWdgt = &CapSense_dsFlash.wdgtArray[widgetId];
 506              		.loc 1 566 0 is_stmt 1
 507 0018 C500     		lsl	r5, r0, #3
 508 001a 281A     		sub	r0, r5, r0
 509              	.LVL62:
 510 001c 8000     		lsl	r0, r0, #2
 511 001e 084E     		ldr	r6, .L43
 512 0020 8019     		add	r0, r0, r6
 513              	.LVL63:
 567:.\Generated_Source\PSoC4/CapSense_Control.c ****         fltrHistV.ptr = ptrFlashWdgt->ptr2FltrHistory;
 514              		.loc 1 567 0
 515 0022 C268     		ldr	r2, [r0, #12]
 516              	.LVL64:
 568:.\Generated_Source\PSoC4/CapSense_Control.c ****         ptrSns = ptrFlashWdgt->ptr2SnsRam;
 517              		.loc 1 568 0
 518 0024 8468     		ldr	r4, [r0, #8]
 519              	.LVL65:
 569:.\Generated_Source\PSoC4/CapSense_Control.c ****         ptrSns += sensorId;
 520              		.loc 1 569 0
 521 0026 8D00     		lsl	r5, r1, #2
 522 0028 6918     		add	r1, r5, r1
 523              	.LVL66:
 524 002a 4900     		lsl	r1, r1, #1
 525 002c 6118     		add	r1, r4, r1
 526              	.LVL67:
 570:.\Generated_Source\PSoC4/CapSense_Control.c **** 
 571:.\Generated_Source\PSoC4/CapSense_Control.c ****         switch(CapSense_GET_SENSE_METHOD(ptrFlashWdgt))
 572:.\Generated_Source\PSoC4/CapSense_Control.c ****         {
 573:.\Generated_Source\PSoC4/CapSense_Control.c ****         #if (0u != CapSense_TOTAL_CSD_WIDGETS)
 574:.\Generated_Source\PSoC4/CapSense_Control.c ****             case CapSense_SENSE_METHOD_CSD_E:
 575:.\Generated_Source\PSoC4/CapSense_Control.c ****                 if (CapSense_WD_PROXIMITY_E == (CapSense_WD_TYPE_ENUM)ptrFlashWdgt->wdgtType)
 576:.\Generated_Source\PSoC4/CapSense_Control.c ****                 {
 577:.\Generated_Source\PSoC4/CapSense_Control.c ****                     #if (0u != CapSense_PROX_RC_FILTER_EN)
 578:.\Generated_Source\PSoC4/CapSense_Control.c ****                         fltrHistV.ptr = &fltrHistV.ptrProx[sensorId];
 579:.\Generated_Source\PSoC4/CapSense_Control.c ****                     #endif /* #if (0u != CapSense_PROX_RC_FILTER_EN) */
 580:.\Generated_Source\PSoC4/CapSense_Control.c ****                 }
 581:.\Generated_Source\PSoC4/CapSense_Control.c ****                 else
 582:.\Generated_Source\PSoC4/CapSense_Control.c ****                 {
 583:.\Generated_Source\PSoC4/CapSense_Control.c ****                     #if (0u != CapSense_REGULAR_RC_FILTER_EN)
 584:.\Generated_Source\PSoC4/CapSense_Control.c ****                         fltrHistV.ptr = &fltrHistV.ptrRegular[sensorId];
 585:.\Generated_Source\PSoC4/CapSense_Control.c ****                     #endif /* #if (0u != CapSense_REGULAR_RC_FILTER_EN) */
 586:.\Generated_Source\PSoC4/CapSense_Control.c ****                 }
 587:.\Generated_Source\PSoC4/CapSense_Control.c **** 
 588:.\Generated_Source\PSoC4/CapSense_Control.c ****                 CapSense_DpProcessCsdSensorRawCountsExt(ptrFlashWdgt, ptrSns, fltrHistV, mode);
 589:.\Generated_Source\PSoC4/CapSense_Control.c ****                 break;
 590:.\Generated_Source\PSoC4/CapSense_Control.c ****         #endif /* #if (0u != CapSense_TOTAL_CSD_WIDGETS) */
 591:.\Generated_Source\PSoC4/CapSense_Control.c **** 
 592:.\Generated_Source\PSoC4/CapSense_Control.c ****         #if (0u != CapSense_TOTAL_CSX_WIDGETS)
ARM GAS  C:\Users\Alan\AppData\Local\Temp\ccxZwOqj.s 			page 21


 593:.\Generated_Source\PSoC4/CapSense_Control.c ****             case CapSense_SENSE_METHOD_CSX_E:
 594:.\Generated_Source\PSoC4/CapSense_Control.c ****                 #if (0u != CapSense_REGULAR_RC_FILTER_EN)
 595:.\Generated_Source\PSoC4/CapSense_Control.c ****                     fltrHistV.ptr = &fltrHistV.ptrRegular[sensorId];
 596:.\Generated_Source\PSoC4/CapSense_Control.c ****                 #endif /* #if (0u != CapSense_REGULAR_RC_FILTER_EN) */
 597:.\Generated_Source\PSoC4/CapSense_Control.c **** 
 598:.\Generated_Source\PSoC4/CapSense_Control.c ****                 CapSense_DpProcessCsxSensorRawCountsExt(ptrFlashWdgt, ptrSns, fltrHistV, mode);
 527              		.loc 1 598 0
 528 002e FFF7FEFF 		bl	CapSense_DpProcessCsxSensorRawCountsExt
 529              	.LVL68:
 599:.\Generated_Source\PSoC4/CapSense_Control.c ****                 break;
 600:.\Generated_Source\PSoC4/CapSense_Control.c ****         #endif /* #if (0u != CapSense_TOTAL_CSX_WIDGETS) */
 601:.\Generated_Source\PSoC4/CapSense_Control.c **** 
 602:.\Generated_Source\PSoC4/CapSense_Control.c ****         default:
 603:.\Generated_Source\PSoC4/CapSense_Control.c ****             CYASSERT(0u);
 604:.\Generated_Source\PSoC4/CapSense_Control.c ****             break;
 605:.\Generated_Source\PSoC4/CapSense_Control.c ****         }
 606:.\Generated_Source\PSoC4/CapSense_Control.c **** 
 607:.\Generated_Source\PSoC4/CapSense_Control.c ****         result = CYRET_SUCCESS;
 530              		.loc 1 607 0
 531 0032 0020     		mov	r0, #0
 532 0034 02E0     		b	.L40
 533              	.LVL69:
 534              	.L41:
 559:.\Generated_Source\PSoC4/CapSense_Control.c ****     CapSense_FLASH_WD_STRUCT const *ptrFlashWdgt;
 535              		.loc 1 559 0
 536 0036 0120     		mov	r0, #1
 537              	.LVL70:
 538 0038 00E0     		b	.L40
 539              	.LVL71:
 540              	.L42:
 541 003a 0120     		mov	r0, #1
 542              	.LVL72:
 543              	.L40:
 608:.\Generated_Source\PSoC4/CapSense_Control.c ****     }
 609:.\Generated_Source\PSoC4/CapSense_Control.c **** 
 610:.\Generated_Source\PSoC4/CapSense_Control.c ****     return result;
 611:.\Generated_Source\PSoC4/CapSense_Control.c **** }
 544              		.loc 1 611 0
 545              		@ sp needed
 546 003c 70BD     		pop	{r4, r5, r6, pc}
 547              	.L44:
 548 003e C046     		.align	2
 549              	.L43:
 550 0040 00000000 		.word	CapSense_dsFlash
 551              		.cfi_endproc
 552              	.LFE8:
 553              		.size	CapSense_ProcessSensorExt, .-CapSense_ProcessSensorExt
 554              		.section	.text.CapSense_Sleep,"ax",%progbits
 555              		.align	2
 556              		.global	CapSense_Sleep
 557              		.code	16
 558              		.thumb_func
 559              		.type	CapSense_Sleep, %function
 560              	CapSense_Sleep:
 561              	.LFB9:
 612:.\Generated_Source\PSoC4/CapSense_Control.c **** 
 613:.\Generated_Source\PSoC4/CapSense_Control.c **** #if (0u != CapSense_SELF_TEST_EN)
ARM GAS  C:\Users\Alan\AppData\Local\Temp\ccxZwOqj.s 			page 22


 614:.\Generated_Source\PSoC4/CapSense_Control.c **** /*******************************************************************************
 615:.\Generated_Source\PSoC4/CapSense_Control.c **** * Function Name: CapSense_RunSelfTest
 616:.\Generated_Source\PSoC4/CapSense_Control.c **** ****************************************************************************//**
 617:.\Generated_Source\PSoC4/CapSense_Control.c **** *
 618:.\Generated_Source\PSoC4/CapSense_Control.c **** * \brief
 619:.\Generated_Source\PSoC4/CapSense_Control.c **** *  Run-self tests based on the test-enable mask.
 620:.\Generated_Source\PSoC4/CapSense_Control.c **** *
 621:.\Generated_Source\PSoC4/CapSense_Control.c **** * \details
 622:.\Generated_Source\PSoC4/CapSense_Control.c **** *  The test bit-mask can take the following values:
 623:.\Generated_Source\PSoC4/CapSense_Control.c **** *   - CapSense_TST_SHORTS        - A test for the sensor shorts.
 624:.\Generated_Source\PSoC4/CapSense_Control.c **** *   - CapSense_TST_GLOBAL_CRC    - Verify CRC of RAM and FLASH global parameters.
 625:.\Generated_Source\PSoC4/CapSense_Control.c **** *   - CapSense_TST_BSL_RAW_LIMTS - Verify Baseline and Raw Counts limits.
 626:.\Generated_Source\PSoC4/CapSense_Control.c **** *   - CapSense_TST_WIDGET_CRC    - Verify CRC of the widget's configuration in RAM.
 627:.\Generated_Source\PSoC4/CapSense_Control.c **** *   - CapSense_TST_CSD_CAPS      - Measure the Cmod and Ctank capacitance.
 628:.\Generated_Source\PSoC4/CapSense_Control.c **** *   - CapSense_TST_CSX_CAPS      - Measure the Cint1 and Cint2 capacitance.
 629:.\Generated_Source\PSoC4/CapSense_Control.c **** *   - CapSense_TST_BASELINES     - Verify the baselines consistency (inverse copy).
 630:.\Generated_Source\PSoC4/CapSense_Control.c **** *
 631:.\Generated_Source\PSoC4/CapSense_Control.c **** *  The results of the capacitance measurements are stored into the corresponding
 632:.\Generated_Source\PSoC4/CapSense_Control.c **** *  registers of the data structure.
 633:.\Generated_Source\PSoC4/CapSense_Control.c **** *
 634:.\Generated_Source\PSoC4/CapSense_Control.c **** * \param testEnMask The bit-mask with the requested tests to be executed.
 635:.\Generated_Source\PSoC4/CapSense_Control.c **** *
 636:.\Generated_Source\PSoC4/CapSense_Control.c **** * \return
 637:.\Generated_Source\PSoC4/CapSense_Control.c **** *  Bitmask that contains 0 for passed tests (or not selected with the testEnMask)
 638:.\Generated_Source\PSoC4/CapSense_Control.c **** *  and 1 for the failed tests.
 639:.\Generated_Source\PSoC4/CapSense_Control.c **** *
 640:.\Generated_Source\PSoC4/CapSense_Control.c **** *******************************************************************************/
 641:.\Generated_Source\PSoC4/CapSense_Control.c **** uint32 CapSense_RunSelfTest(uint32 testEnMask)
 642:.\Generated_Source\PSoC4/CapSense_Control.c **** {
 643:.\Generated_Source\PSoC4/CapSense_Control.c ****     /* The implementation of this API will be
 644:.\Generated_Source\PSoC4/CapSense_Control.c ****      * provided in the FUTURE version of the
 645:.\Generated_Source\PSoC4/CapSense_Control.c ****      * CapSense component */
 646:.\Generated_Source\PSoC4/CapSense_Control.c ****     (void)testEnMask;
 647:.\Generated_Source\PSoC4/CapSense_Control.c ****     return 0Lu;
 648:.\Generated_Source\PSoC4/CapSense_Control.c **** }
 649:.\Generated_Source\PSoC4/CapSense_Control.c **** #endif /* #if CapSense_SELF_TEST_EN */
 650:.\Generated_Source\PSoC4/CapSense_Control.c **** 
 651:.\Generated_Source\PSoC4/CapSense_Control.c **** 
 652:.\Generated_Source\PSoC4/CapSense_Control.c **** /*******************************************************************************
 653:.\Generated_Source\PSoC4/CapSense_Control.c **** * Function Name: CapSense_Sleep
 654:.\Generated_Source\PSoC4/CapSense_Control.c **** ****************************************************************************//**
 655:.\Generated_Source\PSoC4/CapSense_Control.c **** *
 656:.\Generated_Source\PSoC4/CapSense_Control.c **** * \brief
 657:.\Generated_Source\PSoC4/CapSense_Control.c **** *  This function sets the component to sleep.
 658:.\Generated_Source\PSoC4/CapSense_Control.c **** *
 659:.\Generated_Source\PSoC4/CapSense_Control.c **** * \details
 660:.\Generated_Source\PSoC4/CapSense_Control.c **** *  This function sets the component to sleep.
 661:.\Generated_Source\PSoC4/CapSense_Control.c **** *
 662:.\Generated_Source\PSoC4/CapSense_Control.c **** *******************************************************************************/
 663:.\Generated_Source\PSoC4/CapSense_Control.c **** void CapSense_Sleep(void)
 664:.\Generated_Source\PSoC4/CapSense_Control.c **** {
 562              		.loc 1 664 0
 563              		.cfi_startproc
 665:.\Generated_Source\PSoC4/CapSense_Control.c **** }
 564              		.loc 1 665 0
 565              		@ sp needed
 566 0000 7047     		bx	lr
ARM GAS  C:\Users\Alan\AppData\Local\Temp\ccxZwOqj.s 			page 23


 567              		.cfi_endproc
 568              	.LFE9:
 569              		.size	CapSense_Sleep, .-CapSense_Sleep
 570 0002 C046     		.section	.text.CapSense_Wakeup,"ax",%progbits
 571              		.align	2
 572              		.global	CapSense_Wakeup
 573              		.code	16
 574              		.thumb_func
 575              		.type	CapSense_Wakeup, %function
 576              	CapSense_Wakeup:
 577              	.LFB10:
 666:.\Generated_Source\PSoC4/CapSense_Control.c **** 
 667:.\Generated_Source\PSoC4/CapSense_Control.c **** 
 668:.\Generated_Source\PSoC4/CapSense_Control.c **** /*******************************************************************************
 669:.\Generated_Source\PSoC4/CapSense_Control.c **** * Function Name: CapSense_Wakeup
 670:.\Generated_Source\PSoC4/CapSense_Control.c **** ****************************************************************************//**
 671:.\Generated_Source\PSoC4/CapSense_Control.c **** *
 672:.\Generated_Source\PSoC4/CapSense_Control.c **** * \brief
 673:.\Generated_Source\PSoC4/CapSense_Control.c **** *  This function resumes the component after sleep.
 674:.\Generated_Source\PSoC4/CapSense_Control.c **** *
 675:.\Generated_Source\PSoC4/CapSense_Control.c **** * \details
 676:.\Generated_Source\PSoC4/CapSense_Control.c **** *  This function resumes the component after sleep.
 677:.\Generated_Source\PSoC4/CapSense_Control.c **** *
 678:.\Generated_Source\PSoC4/CapSense_Control.c **** *******************************************************************************/
 679:.\Generated_Source\PSoC4/CapSense_Control.c **** void CapSense_Wakeup(void)
 680:.\Generated_Source\PSoC4/CapSense_Control.c **** {
 578              		.loc 1 680 0
 579              		.cfi_startproc
 681:.\Generated_Source\PSoC4/CapSense_Control.c **** }
 580              		.loc 1 681 0
 581              		@ sp needed
 582 0000 7047     		bx	lr
 583              		.cfi_endproc
 584              	.LFE10:
 585              		.size	CapSense_Wakeup, .-CapSense_Wakeup
 586 0002 C046     		.section	.text.CapSense_SaveConfig,"ax",%progbits
 587              		.align	2
 588              		.global	CapSense_SaveConfig
 589              		.code	16
 590              		.thumb_func
 591              		.type	CapSense_SaveConfig, %function
 592              	CapSense_SaveConfig:
 593              	.LFB11:
 682:.\Generated_Source\PSoC4/CapSense_Control.c **** 
 683:.\Generated_Source\PSoC4/CapSense_Control.c **** 
 684:.\Generated_Source\PSoC4/CapSense_Control.c **** /*******************************************************************************
 685:.\Generated_Source\PSoC4/CapSense_Control.c **** * Function Name: CapSense_SaveConfig
 686:.\Generated_Source\PSoC4/CapSense_Control.c **** ****************************************************************************//**
 687:.\Generated_Source\PSoC4/CapSense_Control.c **** *
 688:.\Generated_Source\PSoC4/CapSense_Control.c **** * \brief
 689:.\Generated_Source\PSoC4/CapSense_Control.c **** *   This is a dummy API for the consistency reason with the component PM architecture.
 690:.\Generated_Source\PSoC4/CapSense_Control.c **** *
 691:.\Generated_Source\PSoC4/CapSense_Control.c **** * \details
 692:.\Generated_Source\PSoC4/CapSense_Control.c **** *   This is a dummy API for the consistency reason with the component PM architecture.
 693:.\Generated_Source\PSoC4/CapSense_Control.c **** *
 694:.\Generated_Source\PSoC4/CapSense_Control.c **** *******************************************************************************/
 695:.\Generated_Source\PSoC4/CapSense_Control.c **** void CapSense_SaveConfig(void)
ARM GAS  C:\Users\Alan\AppData\Local\Temp\ccxZwOqj.s 			page 24


 696:.\Generated_Source\PSoC4/CapSense_Control.c **** {
 594              		.loc 1 696 0
 595              		.cfi_startproc
 697:.\Generated_Source\PSoC4/CapSense_Control.c **** }
 596              		.loc 1 697 0
 597              		@ sp needed
 598 0000 7047     		bx	lr
 599              		.cfi_endproc
 600              	.LFE11:
 601              		.size	CapSense_SaveConfig, .-CapSense_SaveConfig
 602 0002 C046     		.section	.text.CapSense_RestoreConfig,"ax",%progbits
 603              		.align	2
 604              		.global	CapSense_RestoreConfig
 605              		.code	16
 606              		.thumb_func
 607              		.type	CapSense_RestoreConfig, %function
 608              	CapSense_RestoreConfig:
 609              	.LFB12:
 698:.\Generated_Source\PSoC4/CapSense_Control.c **** 
 699:.\Generated_Source\PSoC4/CapSense_Control.c **** 
 700:.\Generated_Source\PSoC4/CapSense_Control.c **** /*******************************************************************************
 701:.\Generated_Source\PSoC4/CapSense_Control.c **** * Function Name: CapSense_RestoreConfig
 702:.\Generated_Source\PSoC4/CapSense_Control.c **** ****************************************************************************//**
 703:.\Generated_Source\PSoC4/CapSense_Control.c **** *
 704:.\Generated_Source\PSoC4/CapSense_Control.c **** * \brief
 705:.\Generated_Source\PSoC4/CapSense_Control.c **** *   This is a dummy API for the consistency reason with the component PM architecture.
 706:.\Generated_Source\PSoC4/CapSense_Control.c **** *
 707:.\Generated_Source\PSoC4/CapSense_Control.c **** * \details
 708:.\Generated_Source\PSoC4/CapSense_Control.c **** *   This is a dummy API for the consistency reason with the component PM architecture.
 709:.\Generated_Source\PSoC4/CapSense_Control.c **** *
 710:.\Generated_Source\PSoC4/CapSense_Control.c **** *******************************************************************************/
 711:.\Generated_Source\PSoC4/CapSense_Control.c **** void CapSense_RestoreConfig(void)
 712:.\Generated_Source\PSoC4/CapSense_Control.c **** {
 610              		.loc 1 712 0
 611              		.cfi_startproc
 713:.\Generated_Source\PSoC4/CapSense_Control.c **** }
 612              		.loc 1 713 0
 613              		@ sp needed
 614 0000 7047     		bx	lr
 615              		.cfi_endproc
 616              	.LFE12:
 617              		.size	CapSense_RestoreConfig, .-CapSense_RestoreConfig
 618 0002 C046     		.bss
 619              		.set	.LANCHOR0,. + 0
 620              		.type	CapSense_InitVar, %object
 621              		.size	CapSense_InitVar, 1
 622              	CapSense_InitVar:
 623 0000 00       		.space	1
 624              		.text
 625              	.Letext0:
 626              		.file 2 ".\\Generated_Source\\PSoC4\\cytypes.h"
 627              		.file 3 ".\\Generated_Source\\PSoC4\\CapSense_Configuration.h"
 628              		.file 4 ".\\Generated_Source\\PSoC4\\CapSense_Structure.h"
 629              		.file 5 ".\\Generated_Source\\PSoC4\\CapSense_Tuner.h"
 630              		.file 6 ".\\Generated_Source\\PSoC4\\CapSense_Processing.h"
 631              		.file 7 ".\\Generated_Source\\PSoC4\\CapSense_Sensing.h"
 632              		.file 8 ".\\Generated_Source\\PSoC4\\CyLib.h"
ARM GAS  C:\Users\Alan\AppData\Local\Temp\ccxZwOqj.s 			page 25


 633              		.file 9 ".\\Generated_Source\\PSoC4\\cyPm.h"
 634              		.file 10 ".\\Generated_Source\\PSoC4\\CapSense_Filter.h"