ARM GAS  C:\Users\Alan\AppData\Local\Temp\ccbGKewn.s 			page 1


   1              		.cpu cortex-m0plus
   2              		.fpu softvfp
   3              		.eabi_attribute 20, 1
   4              		.eabi_attribute 21, 1
   5              		.eabi_attribute 23, 3
   6              		.eabi_attribute 24, 1
   7              		.eabi_attribute 25, 1
   8              		.eabi_attribute 26, 1
   9              		.eabi_attribute 30, 1
  10              		.eabi_attribute 34, 0
  11              		.eabi_attribute 18, 4
  12              		.code	16
  13              		.file	"CapSense_SensingCSX_LL.c"
  14              		.text
  15              	.Ltext0:
  16              		.cfi_sections	.debug_frame
  17              		.section	.text.CapSense_SsSetIOsInDefaultState,"ax",%progbits
  18              		.align	2
  19              		.code	16
  20              		.thumb_func
  21              		.type	CapSense_SsSetIOsInDefaultState, %function
  22              	CapSense_SsSetIOsInDefaultState:
  23              	.LFB7:
  24              		.file 1 ".\\Generated_Source\\PSoC4\\CapSense_SensingCSX_LL.c"
   1:.\Generated_Source\PSoC4/CapSense_SensingCSX_LL.c **** /***************************************************************************//**
   2:.\Generated_Source\PSoC4/CapSense_SensingCSX_LL.c **** * \file CapSense_SensingCSX_LL.c
   3:.\Generated_Source\PSoC4/CapSense_SensingCSX_LL.c **** * \version 3.0
   4:.\Generated_Source\PSoC4/CapSense_SensingCSX_LL.c **** *
   5:.\Generated_Source\PSoC4/CapSense_SensingCSX_LL.c **** * \brief
   6:.\Generated_Source\PSoC4/CapSense_SensingCSX_LL.c **** *   This file defines the data structure global variables and provides
   7:.\Generated_Source\PSoC4/CapSense_SensingCSX_LL.c **** *   implementation for the low-level APIs of the CSX part of
   8:.\Generated_Source\PSoC4/CapSense_SensingCSX_LL.c **** *   the Sensing module. The file contains the APIs used for the CSD block
   9:.\Generated_Source\PSoC4/CapSense_SensingCSX_LL.c **** *   initialization, calibration and scanning.
  10:.\Generated_Source\PSoC4/CapSense_SensingCSX_LL.c **** *
  11:.\Generated_Source\PSoC4/CapSense_SensingCSX_LL.c **** * \see CapSense P4 v3.0 Datasheet
  12:.\Generated_Source\PSoC4/CapSense_SensingCSX_LL.c **** *
  13:.\Generated_Source\PSoC4/CapSense_SensingCSX_LL.c **** *//*****************************************************************************
  14:.\Generated_Source\PSoC4/CapSense_SensingCSX_LL.c **** * Copyright (2016), Cypress Semiconductor Corporation.
  15:.\Generated_Source\PSoC4/CapSense_SensingCSX_LL.c **** ********************************************************************************
  16:.\Generated_Source\PSoC4/CapSense_SensingCSX_LL.c **** * This software is owned by Cypress Semiconductor Corporation (Cypress) and is
  17:.\Generated_Source\PSoC4/CapSense_SensingCSX_LL.c **** * protected by and subject to worldwide patent protection (United States and
  18:.\Generated_Source\PSoC4/CapSense_SensingCSX_LL.c **** * foreign), United States copyright laws and international treaty provisions.
  19:.\Generated_Source\PSoC4/CapSense_SensingCSX_LL.c **** * Cypress hereby grants to licensee a personal, non-exclusive, non-transferable
  20:.\Generated_Source\PSoC4/CapSense_SensingCSX_LL.c **** * license to copy, use, modify, create derivative works of, and compile the
  21:.\Generated_Source\PSoC4/CapSense_SensingCSX_LL.c **** * Cypress Source Code and derivative works for the sole purpose of creating
  22:.\Generated_Source\PSoC4/CapSense_SensingCSX_LL.c **** * custom software in support of licensee product to be used only in conjunction
  23:.\Generated_Source\PSoC4/CapSense_SensingCSX_LL.c **** * with a Cypress integrated circuit as specified in the applicable agreement.
  24:.\Generated_Source\PSoC4/CapSense_SensingCSX_LL.c **** * Any reproduction, modification, translation, compilation, or representation of
  25:.\Generated_Source\PSoC4/CapSense_SensingCSX_LL.c **** * this software except as specified above is prohibited without the express
  26:.\Generated_Source\PSoC4/CapSense_SensingCSX_LL.c **** * written permission of Cypress.
  27:.\Generated_Source\PSoC4/CapSense_SensingCSX_LL.c **** *
  28:.\Generated_Source\PSoC4/CapSense_SensingCSX_LL.c **** * Disclaimer: CYPRESS MAKES NO WARRANTY OF ANY KIND, EXPRESS OR IMPLIED, WITH
  29:.\Generated_Source\PSoC4/CapSense_SensingCSX_LL.c **** * REGARD TO THIS MATERIAL, INCLUDING, BUT NOT LIMITED TO, THE IMPLIED
  30:.\Generated_Source\PSoC4/CapSense_SensingCSX_LL.c **** * WARRANTIES OF MERCHANTABILITY AND FITNESS FOR A PARTICULAR PURPOSE.
  31:.\Generated_Source\PSoC4/CapSense_SensingCSX_LL.c **** * Cypress reserves the right to make changes without further notice to the
  32:.\Generated_Source\PSoC4/CapSense_SensingCSX_LL.c **** * materials described herein. Cypress does not assume any liability arising out
  33:.\Generated_Source\PSoC4/CapSense_SensingCSX_LL.c **** * of the application or use of any product or circuit described herein. Cypress
ARM GAS  C:\Users\Alan\AppData\Local\Temp\ccbGKewn.s 			page 2


  34:.\Generated_Source\PSoC4/CapSense_SensingCSX_LL.c **** * does not authorize its products for use as critical components in life-support
  35:.\Generated_Source\PSoC4/CapSense_SensingCSX_LL.c **** * systems where a malfunction or failure may reasonably be expected to result in
  36:.\Generated_Source\PSoC4/CapSense_SensingCSX_LL.c **** * significant injury to the user. The inclusion of Cypress' product in a life-
  37:.\Generated_Source\PSoC4/CapSense_SensingCSX_LL.c **** * support systems application implies that the manufacturer assumes all risk of
  38:.\Generated_Source\PSoC4/CapSense_SensingCSX_LL.c **** * such use and in doing so indemnifies Cypress against all charges. Use may be
  39:.\Generated_Source\PSoC4/CapSense_SensingCSX_LL.c **** * limited by and subject to the applicable Cypress software license agreement.
  40:.\Generated_Source\PSoC4/CapSense_SensingCSX_LL.c **** *******************************************************************************/
  41:.\Generated_Source\PSoC4/CapSense_SensingCSX_LL.c **** #include <cytypes.h>
  42:.\Generated_Source\PSoC4/CapSense_SensingCSX_LL.c **** #include "CyLib.h"
  43:.\Generated_Source\PSoC4/CapSense_SensingCSX_LL.c **** 
  44:.\Generated_Source\PSoC4/CapSense_SensingCSX_LL.c **** #include "CapSense_Structure.h"
  45:.\Generated_Source\PSoC4/CapSense_SensingCSX_LL.c **** #include "CapSense_Configuration.h"
  46:.\Generated_Source\PSoC4/CapSense_SensingCSX_LL.c **** #include "CapSense_SensingCSX_LL.h"
  47:.\Generated_Source\PSoC4/CapSense_SensingCSX_LL.c **** #include "CapSense_Sensing.h"
  48:.\Generated_Source\PSoC4/CapSense_SensingCSX_LL.c **** 
  49:.\Generated_Source\PSoC4/CapSense_SensingCSX_LL.c **** #if (0u != CapSense_CSX_EN)
  50:.\Generated_Source\PSoC4/CapSense_SensingCSX_LL.c **** 
  51:.\Generated_Source\PSoC4/CapSense_SensingCSX_LL.c **** /*******************************************************************************
  52:.\Generated_Source\PSoC4/CapSense_SensingCSX_LL.c **** * Module local function declarations
  53:.\Generated_Source\PSoC4/CapSense_SensingCSX_LL.c **** *******************************************************************************/
  54:.\Generated_Source\PSoC4/CapSense_SensingCSX_LL.c **** /**
  55:.\Generated_Source\PSoC4/CapSense_SensingCSX_LL.c **** * \if SECTION_CAPSENSE_INTERNAL
  56:.\Generated_Source\PSoC4/CapSense_SensingCSX_LL.c **** * \addtogroup group_capsense_internal
  57:.\Generated_Source\PSoC4/CapSense_SensingCSX_LL.c **** * \{
  58:.\Generated_Source\PSoC4/CapSense_SensingCSX_LL.c **** */
  59:.\Generated_Source\PSoC4/CapSense_SensingCSX_LL.c **** 
  60:.\Generated_Source\PSoC4/CapSense_SensingCSX_LL.c **** static void CapSense_SsCSXStartSample (void);
  61:.\Generated_Source\PSoC4/CapSense_SensingCSX_LL.c **** static void CapSense_SsCSXPostMultiScan (void);
  62:.\Generated_Source\PSoC4/CapSense_SensingCSX_LL.c **** static void CapSense_SsCSXPostSingleScan (void);
  63:.\Generated_Source\PSoC4/CapSense_SensingCSX_LL.c **** static void CapSense_SsSetIOsInDefaultState(void);
  64:.\Generated_Source\PSoC4/CapSense_SensingCSX_LL.c **** 
  65:.\Generated_Source\PSoC4/CapSense_SensingCSX_LL.c **** #if (CapSense_CSX_GANGED_SNS_EN == 1u)
  66:.\Generated_Source\PSoC4/CapSense_SensingCSX_LL.c **** static void CapSense_SsCSXPostMultiScanGanged (void);
  67:.\Generated_Source\PSoC4/CapSense_SensingCSX_LL.c **** #endif
  68:.\Generated_Source\PSoC4/CapSense_SensingCSX_LL.c **** 
  69:.\Generated_Source\PSoC4/CapSense_SensingCSX_LL.c **** /** \}
  70:.\Generated_Source\PSoC4/CapSense_SensingCSX_LL.c **** * \endif */
  71:.\Generated_Source\PSoC4/CapSense_SensingCSX_LL.c **** 
  72:.\Generated_Source\PSoC4/CapSense_SensingCSX_LL.c **** #if(CapSense_ENABLE == CapSense_CSDV2)
  73:.\Generated_Source\PSoC4/CapSense_SensingCSX_LL.c ****     CY_INLINE static void CapSense_SsCSXStartSampleExt(void);
  74:.\Generated_Source\PSoC4/CapSense_SensingCSX_LL.c ****     CY_INLINE static void CapSense_CSXV2HwInit(void);
  75:.\Generated_Source\PSoC4/CapSense_SensingCSX_LL.c ****     CY_INLINE static void CapSense_CSXV2HwSetup(void);
  76:.\Generated_Source\PSoC4/CapSense_SensingCSX_LL.c **** #else
  77:.\Generated_Source\PSoC4/CapSense_SensingCSX_LL.c ****     static uint16 CapSense_SsCalcCsxScanPeriod (CapSense_RAM_WD_BASE_STRUCT const *wdgtPtr);
  78:.\Generated_Source\PSoC4/CapSense_SensingCSX_LL.c **** #endif /* (CapSense_ENABLE == CapSense_CSDV2) */
  79:.\Generated_Source\PSoC4/CapSense_SensingCSX_LL.c **** 
  80:.\Generated_Source\PSoC4/CapSense_SensingCSX_LL.c **** /*******************************************************************************
  81:.\Generated_Source\PSoC4/CapSense_SensingCSX_LL.c **** * Define module variables
  82:.\Generated_Source\PSoC4/CapSense_SensingCSX_LL.c **** *******************************************************************************/
  83:.\Generated_Source\PSoC4/CapSense_SensingCSX_LL.c **** 
  84:.\Generated_Source\PSoC4/CapSense_SensingCSX_LL.c **** /*  Local variable used to store the Scan period */
  85:.\Generated_Source\PSoC4/CapSense_SensingCSX_LL.c **** volatile uint16 CapSense_csxScanPeriod = 0u;
  86:.\Generated_Source\PSoC4/CapSense_SensingCSX_LL.c **** /*  Local variable used to return RawCount from the post scan ISR */
  87:.\Generated_Source\PSoC4/CapSense_SensingCSX_LL.c **** volatile uint16 CapSense_csxRawCount = 0u;
  88:.\Generated_Source\PSoC4/CapSense_SensingCSX_LL.c **** 
  89:.\Generated_Source\PSoC4/CapSense_SensingCSX_LL.c **** #if(CapSense_ENABLE == CapSense_CSDV2)
  90:.\Generated_Source\PSoC4/CapSense_SensingCSX_LL.c ****     volatile uint32 CapSense_resamplingCyclesCnt = CapSense_RESAMPLING_CYCLES_MAX_NUMBER;
ARM GAS  C:\Users\Alan\AppData\Local\Temp\ccbGKewn.s 			page 3


  91:.\Generated_Source\PSoC4/CapSense_SensingCSX_LL.c **** #else
  92:.\Generated_Source\PSoC4/CapSense_SensingCSX_LL.c ****     /*  Local variable used by ASM function for raw count correction    */
  93:.\Generated_Source\PSoC4/CapSense_SensingCSX_LL.c ****     volatile uint32 CapSense_csxRawGarbage = 0u;
  94:.\Generated_Source\PSoC4/CapSense_SensingCSX_LL.c **** #endif /* (CapSense_ENABLE == CapSense_CSDV2) */
  95:.\Generated_Source\PSoC4/CapSense_SensingCSX_LL.c **** 
  96:.\Generated_Source\PSoC4/CapSense_SensingCSX_LL.c **** /*  Pointer to Flash structure holding info of sensor to be scanned     */
  97:.\Generated_Source\PSoC4/CapSense_SensingCSX_LL.c **** #if (CapSense_CSX_GANGED_SNS_EN == 1u)
  98:.\Generated_Source\PSoC4/CapSense_SensingCSX_LL.c **** static CapSense_FLASH_SNS_STRUCT const *CapSense_curGangRxPtr = 0u;
  99:.\Generated_Source\PSoC4/CapSense_SensingCSX_LL.c **** static CapSense_FLASH_SNS_STRUCT const *CapSense_curGangTxPtr = 0u;
 100:.\Generated_Source\PSoC4/CapSense_SensingCSX_LL.c **** #endif
 101:.\Generated_Source\PSoC4/CapSense_SensingCSX_LL.c **** /*  Pointer to Flash structure to hold Tx electrode that was connected previously   */
 102:.\Generated_Source\PSoC4/CapSense_SensingCSX_LL.c **** static CapSense_FLASH_IO_STRUCT const *CapSense_curTxIOPtr;
 103:.\Generated_Source\PSoC4/CapSense_SensingCSX_LL.c **** /*  Pointer to Flash structure to hold Rx electrode that was connected previously   */
 104:.\Generated_Source\PSoC4/CapSense_SensingCSX_LL.c **** static CapSense_FLASH_IO_STRUCT const *CapSense_curRxIOPtr;
 105:.\Generated_Source\PSoC4/CapSense_SensingCSX_LL.c **** /*  Pointer to Pointer to function used to register callback in ISR     */
 106:.\Generated_Source\PSoC4/CapSense_SensingCSX_LL.c **** void (*CapSense_CSXPostScanApiPtr)(void) = &CapSense_SsCSXPostMultiScan;
 107:.\Generated_Source\PSoC4/CapSense_SensingCSX_LL.c **** 
 108:.\Generated_Source\PSoC4/CapSense_SensingCSX_LL.c **** /*  Local variable to hold total Tx in widget, while scanning all sensors in widget */
 109:.\Generated_Source\PSoC4/CapSense_SensingCSX_LL.c **** static uint16 CapSense_curWdgtTotalRx = 0u;
 110:.\Generated_Source\PSoC4/CapSense_SensingCSX_LL.c **** /*  Local variable to hold total Rx in widget, while scanning all sensors in widget */
 111:.\Generated_Source\PSoC4/CapSense_SensingCSX_LL.c **** static uint16 CapSense_curWdgtTotalTx = 0u;
 112:.\Generated_Source\PSoC4/CapSense_SensingCSX_LL.c **** /*  Flag to indicate that electrodes were connected previously  */
 113:.\Generated_Source\PSoC4/CapSense_SensingCSX_LL.c **** static uint16 CapSense_eleCsxDisconnectFlag = 0u;
 114:.\Generated_Source\PSoC4/CapSense_SensingCSX_LL.c **** 
 115:.\Generated_Source\PSoC4/CapSense_SensingCSX_LL.c **** /*******************************************************************************
 116:.\Generated_Source\PSoC4/CapSense_SensingCSX_LL.c **** * Function constants
 117:.\Generated_Source\PSoC4/CapSense_SensingCSX_LL.c **** *******************************************************************************/
 118:.\Generated_Source\PSoC4/CapSense_SensingCSX_LL.c **** 
 119:.\Generated_Source\PSoC4/CapSense_SensingCSX_LL.c **** #define  CapSense_NUM_HALF_CYCLES       2u
 120:.\Generated_Source\PSoC4/CapSense_SensingCSX_LL.c **** 
 121:.\Generated_Source\PSoC4/CapSense_SensingCSX_LL.c **** /*******************************************************************************
 122:.\Generated_Source\PSoC4/CapSense_SensingCSX_LL.c **** * Function Name: CapSense_CSXInitialize
 123:.\Generated_Source\PSoC4/CapSense_SensingCSX_LL.c **** ****************************************************************************//**
 124:.\Generated_Source\PSoC4/CapSense_SensingCSX_LL.c **** *
 125:.\Generated_Source\PSoC4/CapSense_SensingCSX_LL.c **** * \brief
 126:.\Generated_Source\PSoC4/CapSense_SensingCSX_LL.c **** *   Performs hardware and firmware initialization required for the CSX operation
 127:.\Generated_Source\PSoC4/CapSense_SensingCSX_LL.c **** *   of the CapSense component.
 128:.\Generated_Source\PSoC4/CapSense_SensingCSX_LL.c **** *
 129:.\Generated_Source\PSoC4/CapSense_SensingCSX_LL.c **** * \details
 130:.\Generated_Source\PSoC4/CapSense_SensingCSX_LL.c **** *   This function initializes hardware to perform the CSX sensing operation. This
 131:.\Generated_Source\PSoC4/CapSense_SensingCSX_LL.c **** *   function is called by the CapSense_Start() API during the component
 132:.\Generated_Source\PSoC4/CapSense_SensingCSX_LL.c **** *   initialization. If both CSX and CSD sensing methods are used in the component,
 133:.\Generated_Source\PSoC4/CapSense_SensingCSX_LL.c **** *   this function is called by the CapSense_SetupWidget() API to change hardware
 134:.\Generated_Source\PSoC4/CapSense_SensingCSX_LL.c **** *   configured for CSD to re-initialise for the CSX sensing.
 135:.\Generated_Source\PSoC4/CapSense_SensingCSX_LL.c **** *
 136:.\Generated_Source\PSoC4/CapSense_SensingCSX_LL.c **** *   If the CSD and CSX widgets are used in the component, it is recommended not to
 137:.\Generated_Source\PSoC4/CapSense_SensingCSX_LL.c **** *   mix the CSD widgets between the CSX widgets, instead, place all CSX widgets in
 138:.\Generated_Source\PSoC4/CapSense_SensingCSX_LL.c **** *   the required scanning order and then place the CSD widgets in the customizer.
 139:.\Generated_Source\PSoC4/CapSense_SensingCSX_LL.c **** *   For the component API, this action will eliminate the need for changing the hardware
 140:.\Generated_Source\PSoC4/CapSense_SensingCSX_LL.c **** *   configuration for every widget scan and will increase the execution speed
 141:.\Generated_Source\PSoC4/CapSense_SensingCSX_LL.c **** *   in the CapSense_ScanAllWidgets() when the API is called.
 142:.\Generated_Source\PSoC4/CapSense_SensingCSX_LL.c **** *
 143:.\Generated_Source\PSoC4/CapSense_SensingCSX_LL.c **** *   Similarly, it is recommended to set up and scan all the CSX widgets in such
 144:.\Generated_Source\PSoC4/CapSense_SensingCSX_LL.c **** *   a sequence that the CapSense_SetupWidget() API  shouldn't need
 145:.\Generated_Source\PSoC4/CapSense_SensingCSX_LL.c **** *   hardware  sensing-configuration change.
 146:.\Generated_Source\PSoC4/CapSense_SensingCSX_LL.c **** *
 147:.\Generated_Source\PSoC4/CapSense_SensingCSX_LL.c **** *   It is highly not recommended to call this API directly from the application layer.
ARM GAS  C:\Users\Alan\AppData\Local\Temp\ccbGKewn.s 			page 4


 148:.\Generated_Source\PSoC4/CapSense_SensingCSX_LL.c **** *
 149:.\Generated_Source\PSoC4/CapSense_SensingCSX_LL.c **** *******************************************************************************/
 150:.\Generated_Source\PSoC4/CapSense_SensingCSX_LL.c **** 
 151:.\Generated_Source\PSoC4/CapSense_SensingCSX_LL.c **** void CapSense_CSXInitialize(void)
 152:.\Generated_Source\PSoC4/CapSense_SensingCSX_LL.c **** {
 153:.\Generated_Source\PSoC4/CapSense_SensingCSX_LL.c ****     #if(CapSense_ENABLE == CapSense_CSDV2)
 154:.\Generated_Source\PSoC4/CapSense_SensingCSX_LL.c **** 
 155:.\Generated_Source\PSoC4/CapSense_SensingCSX_LL.c ****         CapSense_CSXV2HwInit();
 156:.\Generated_Source\PSoC4/CapSense_SensingCSX_LL.c ****         /*  Set all IO states to default state  */
 157:.\Generated_Source\PSoC4/CapSense_SensingCSX_LL.c ****         CapSense_SsSetIOsInDefaultState ();
 158:.\Generated_Source\PSoC4/CapSense_SensingCSX_LL.c **** 
 159:.\Generated_Source\PSoC4/CapSense_SensingCSX_LL.c ****     #else
 160:.\Generated_Source\PSoC4/CapSense_SensingCSX_LL.c ****         uint32 trimValue;
 161:.\Generated_Source\PSoC4/CapSense_SensingCSX_LL.c **** 
 162:.\Generated_Source\PSoC4/CapSense_SensingCSX_LL.c ****         /*  Set all IO states to default state  */
 163:.\Generated_Source\PSoC4/CapSense_SensingCSX_LL.c ****         CapSense_SsSetIOsInDefaultState ();
 164:.\Generated_Source\PSoC4/CapSense_SensingCSX_LL.c **** 
 165:.\Generated_Source\PSoC4/CapSense_SensingCSX_LL.c ****         /* Load trim values from SFLASH rows to calibrate IDC1 and IDAC2    */
 166:.\Generated_Source\PSoC4/CapSense_SensingCSX_LL.c ****         trimValue = CY_GET_REG32(CapSense_TRIM1_PTR);
 167:.\Generated_Source\PSoC4/CapSense_SensingCSX_LL.c ****         trimValue &= ~(CapSense_IDAC_TRIM1_MOD_SRC_MASK | CapSense_IDAC_TRIM1_COMP_SRC_MASK);
 168:.\Generated_Source\PSoC4/CapSense_SensingCSX_LL.c ****         trimValue |= (uint32)((uint32)CY_GET_REG8(CapSense_SFLASH_TRIM1_PTR) &
 169:.\Generated_Source\PSoC4/CapSense_SensingCSX_LL.c ****                      (CapSense_SFLASH_TRIM_IDAC_MOD_MASK | CapSense_SFLASH_TRIM_IDAC_COMP_MASK));
 170:.\Generated_Source\PSoC4/CapSense_SensingCSX_LL.c **** 
 171:.\Generated_Source\PSoC4/CapSense_SensingCSX_LL.c ****         CY_SET_REG32(CapSense_TRIM1_PTR, trimValue);
 172:.\Generated_Source\PSoC4/CapSense_SensingCSX_LL.c **** 
 173:.\Generated_Source\PSoC4/CapSense_SensingCSX_LL.c ****         trimValue = CY_GET_REG32(CapSense_TRIM2_PTR);
 174:.\Generated_Source\PSoC4/CapSense_SensingCSX_LL.c ****         trimValue &= ~(CapSense_IDAC_TRIM2_MOD_SNK_MASK | CapSense_IDAC_TRIM2_COMP_SNK_MASK);
 175:.\Generated_Source\PSoC4/CapSense_SensingCSX_LL.c ****         trimValue |= (uint32)((uint32)CY_GET_REG8(CapSense_SFLASH_TRIM2_PTR) &
 176:.\Generated_Source\PSoC4/CapSense_SensingCSX_LL.c ****                       (CapSense_SFLASH_TRIM_IDAC_MOD_MASK | CapSense_SFLASH_TRIM_IDAC_COMP_MASK));
 177:.\Generated_Source\PSoC4/CapSense_SensingCSX_LL.c **** 
 178:.\Generated_Source\PSoC4/CapSense_SensingCSX_LL.c ****         CY_SET_REG32(CapSense_TRIM2_PTR, trimValue);
 179:.\Generated_Source\PSoC4/CapSense_SensingCSX_LL.c **** 
 180:.\Generated_Source\PSoC4/CapSense_SensingCSX_LL.c ****         /*  Connect CintB to AMUXBUS-A using HSIOM registers.   */
 181:.\Generated_Source\PSoC4/CapSense_SensingCSX_LL.c **** 
 182:.\Generated_Source\PSoC4/CapSense_SensingCSX_LL.c ****         trimValue = CY_GET_REG32(CapSense_CintB_HSIOM_PTR);
 183:.\Generated_Source\PSoC4/CapSense_SensingCSX_LL.c ****         trimValue &= ~CapSense_CintB_HSIOM_MASK;
 184:.\Generated_Source\PSoC4/CapSense_SensingCSX_LL.c ****         trimValue |= (CapSense_HSIOM_SEL_AMUXA << CapSense_CintB_HSIOM_SHIFT);
 185:.\Generated_Source\PSoC4/CapSense_SensingCSX_LL.c ****         CY_SET_REG32(CapSense_CintB_HSIOM_PTR, trimValue);
 186:.\Generated_Source\PSoC4/CapSense_SensingCSX_LL.c **** 
 187:.\Generated_Source\PSoC4/CapSense_SensingCSX_LL.c ****         /*  Set drive mode of CintB pin to High-Z Analog state in PC register
 188:.\Generated_Source\PSoC4/CapSense_SensingCSX_LL.c ****             and set logic high on DR register.  */
 189:.\Generated_Source\PSoC4/CapSense_SensingCSX_LL.c ****         trimValue = CY_GET_REG32(CapSense_CintB_PC_PTR);
 190:.\Generated_Source\PSoC4/CapSense_SensingCSX_LL.c ****         trimValue &= ~(CapSense_GPIO_PC_MASK << (CapSense_CintB__SHIFT * CapSense_GPIO_PC_BIT_SIZE 
 191:.\Generated_Source\PSoC4/CapSense_SensingCSX_LL.c ****         CY_SET_REG32(CapSense_CintB_PC_PTR, trimValue);
 192:.\Generated_Source\PSoC4/CapSense_SensingCSX_LL.c **** 
 193:.\Generated_Source\PSoC4/CapSense_SensingCSX_LL.c ****         trimValue = CY_GET_REG32(CapSense_CintB_DR_PTR);
 194:.\Generated_Source\PSoC4/CapSense_SensingCSX_LL.c ****         trimValue &= ~(uint32)((uint32)0x01u << CapSense_CintB__SHIFT);
 195:.\Generated_Source\PSoC4/CapSense_SensingCSX_LL.c ****         CY_SET_REG32(CapSense_CintB_DR_PTR, trimValue);
 196:.\Generated_Source\PSoC4/CapSense_SensingCSX_LL.c **** 
 197:.\Generated_Source\PSoC4/CapSense_SensingCSX_LL.c ****         /*  Connect CintA_tank pin to AMUXBUS-A using HSIOM registers.  */
 198:.\Generated_Source\PSoC4/CapSense_SensingCSX_LL.c ****         trimValue = CY_GET_REG32(CapSense_CintA_HSIOM_PTR);
 199:.\Generated_Source\PSoC4/CapSense_SensingCSX_LL.c ****         trimValue &= ~CapSense_CintA_HSIOM_MASK;
 200:.\Generated_Source\PSoC4/CapSense_SensingCSX_LL.c ****         trimValue |= (CapSense_HSIOM_SEL_AMUXA << CapSense_CintA_HSIOM_SHIFT);
 201:.\Generated_Source\PSoC4/CapSense_SensingCSX_LL.c ****         CY_SET_REG32(CapSense_CintA_HSIOM_PTR, trimValue);
 202:.\Generated_Source\PSoC4/CapSense_SensingCSX_LL.c **** 
 203:.\Generated_Source\PSoC4/CapSense_SensingCSX_LL.c ****         /*  Set drive mode of CintA_tank pin to High-Z Analog state in PC register
 204:.\Generated_Source\PSoC4/CapSense_SensingCSX_LL.c ****             and set logic high on DR register.  */
ARM GAS  C:\Users\Alan\AppData\Local\Temp\ccbGKewn.s 			page 5


 205:.\Generated_Source\PSoC4/CapSense_SensingCSX_LL.c ****         trimValue = CY_GET_REG32(CapSense_CintA_PC_PTR);
 206:.\Generated_Source\PSoC4/CapSense_SensingCSX_LL.c ****         trimValue &= ~(CapSense_GPIO_PC_MASK << (CapSense_CintA_SHIFT * CapSense_GPIO_PC_BIT_SIZE )
 207:.\Generated_Source\PSoC4/CapSense_SensingCSX_LL.c ****         CY_SET_REG32(CapSense_CintA_PC_PTR, trimValue);
 208:.\Generated_Source\PSoC4/CapSense_SensingCSX_LL.c **** 
 209:.\Generated_Source\PSoC4/CapSense_SensingCSX_LL.c ****         trimValue = CY_GET_REG32(CapSense_CintA_DR_PTR);
 210:.\Generated_Source\PSoC4/CapSense_SensingCSX_LL.c ****         trimValue &= ~(uint32)((uint32)0x01u << CapSense_CintA_SHIFT);
 211:.\Generated_Source\PSoC4/CapSense_SensingCSX_LL.c ****         CY_SET_REG32(CapSense_CintA_DR_PTR, trimValue);
 212:.\Generated_Source\PSoC4/CapSense_SensingCSX_LL.c **** 
 213:.\Generated_Source\PSoC4/CapSense_SensingCSX_LL.c ****         /*  Connect CSD comparator to CintB via AMUXBUS-A   */
 214:.\Generated_Source\PSoC4/CapSense_SensingCSX_LL.c ****         trimValue = CY_GET_REG32(CapSense_CONFIG_PTR);
 215:.\Generated_Source\PSoC4/CapSense_SensingCSX_LL.c ****         trimValue |= CapSense_CONFIG_SENSE_INSEL_MASK;
 216:.\Generated_Source\PSoC4/CapSense_SensingCSX_LL.c ****         CY_SET_REG32(CapSense_CONFIG_PTR, trimValue);
 217:.\Generated_Source\PSoC4/CapSense_SensingCSX_LL.c **** 
 218:.\Generated_Source\PSoC4/CapSense_SensingCSX_LL.c ****         /*  If common clocks are enabled for component, set clock
 219:.\Generated_Source\PSoC4/CapSense_SensingCSX_LL.c ****             divider for sensor and modulator clocks and start/restart them  */
 220:.\Generated_Source\PSoC4/CapSense_SensingCSX_LL.c ****         #if (CapSense_CSX_COMMON_TX_CLK_EN == CapSense_ENABLE)
 221:.\Generated_Source\PSoC4/CapSense_SensingCSX_LL.c ****             CapSense_ConfigureClocks((uint32)CapSense_dsRam.snsCsxClk, (uint32)CapSense_dsRam.modCs
 222:.\Generated_Source\PSoC4/CapSense_SensingCSX_LL.c ****         #endif
 223:.\Generated_Source\PSoC4/CapSense_SensingCSX_LL.c ****     #endif /* (CapSense_ENABLE == CapSense_CSDV2) */
 224:.\Generated_Source\PSoC4/CapSense_SensingCSX_LL.c ****     /* Enable CapSense ISR  and set ISR for CSX sensing */
 225:.\Generated_Source\PSoC4/CapSense_SensingCSX_LL.c ****     CapSense_IsrInitialize(&CapSense_SsCSXScanISR);
 226:.\Generated_Source\PSoC4/CapSense_SensingCSX_LL.c **** }
 227:.\Generated_Source\PSoC4/CapSense_SensingCSX_LL.c **** 
 228:.\Generated_Source\PSoC4/CapSense_SensingCSX_LL.c **** 
 229:.\Generated_Source\PSoC4/CapSense_SensingCSX_LL.c **** /*******************************************************************************
 230:.\Generated_Source\PSoC4/CapSense_SensingCSX_LL.c **** * Function Name: CapSense_CSXElectrodeCheck
 231:.\Generated_Source\PSoC4/CapSense_SensingCSX_LL.c **** ****************************************************************************//**
 232:.\Generated_Source\PSoC4/CapSense_SensingCSX_LL.c **** *
 233:.\Generated_Source\PSoC4/CapSense_SensingCSX_LL.c **** * \brief
 234:.\Generated_Source\PSoC4/CapSense_SensingCSX_LL.c **** *   Check if electrodes were previously connected using
 235:.\Generated_Source\PSoC4/CapSense_SensingCSX_LL.c **** *   the CapSense_CSXSetupWidgetExt() API and if yes, disconnect them.
 236:.\Generated_Source\PSoC4/CapSense_SensingCSX_LL.c **** *
 237:.\Generated_Source\PSoC4/CapSense_SensingCSX_LL.c **** * \details
 238:.\Generated_Source\PSoC4/CapSense_SensingCSX_LL.c **** *   This function checks if CapSense_eleCsxDisconnectFlag is set.
 239:.\Generated_Source\PSoC4/CapSense_SensingCSX_LL.c **** *   If it is set, the function disconnects the previously connected electrode.
 240:.\Generated_Source\PSoC4/CapSense_SensingCSX_LL.c **** *
 241:.\Generated_Source\PSoC4/CapSense_SensingCSX_LL.c **** *******************************************************************************/
 242:.\Generated_Source\PSoC4/CapSense_SensingCSX_LL.c **** void CapSense_CSXElectrodeCheck(void)
 243:.\Generated_Source\PSoC4/CapSense_SensingCSX_LL.c **** {
 244:.\Generated_Source\PSoC4/CapSense_SensingCSX_LL.c ****     #if (0u != CapSense_CSX_GANGED_SNS_EN)
 245:.\Generated_Source\PSoC4/CapSense_SensingCSX_LL.c ****         uint32 numElectrodes;
 246:.\Generated_Source\PSoC4/CapSense_SensingCSX_LL.c ****     #endif /* (0u != CapSense_CSX_GANGED_SNS_EN)  */
 247:.\Generated_Source\PSoC4/CapSense_SensingCSX_LL.c **** 
 248:.\Generated_Source\PSoC4/CapSense_SensingCSX_LL.c ****     if (0u != CapSense_eleCsxDisconnectFlag)
 249:.\Generated_Source\PSoC4/CapSense_SensingCSX_LL.c ****     {
 250:.\Generated_Source\PSoC4/CapSense_SensingCSX_LL.c ****        /* Disconnect if electrodes were previous connected by SetupWidgetExt() API */
 251:.\Generated_Source\PSoC4/CapSense_SensingCSX_LL.c ****         #if (0u != CapSense_CSX_GANGED_SNS_EN)
 252:.\Generated_Source\PSoC4/CapSense_SensingCSX_LL.c ****             /* Check ganged sns flag */
 253:.\Generated_Source\PSoC4/CapSense_SensingCSX_LL.c ****             if (CapSense_GANGED_SNS_MASK == (CapSense_curFlashWdgtPtr->staticConfig & CapSense_GANG
 254:.\Generated_Source\PSoC4/CapSense_SensingCSX_LL.c ****             {
 255:.\Generated_Source\PSoC4/CapSense_SensingCSX_LL.c ****                 /*  1. Get number of pins in previous connected Tx electode
 256:.\Generated_Source\PSoC4/CapSense_SensingCSX_LL.c ****                     3. Get Tx pointer
 257:.\Generated_Source\PSoC4/CapSense_SensingCSX_LL.c ****                     4. Disconnect all Tx   */
 258:.\Generated_Source\PSoC4/CapSense_SensingCSX_LL.c ****                 numElectrodes = CapSense_curGangTxPtr->numPins;
 259:.\Generated_Source\PSoC4/CapSense_SensingCSX_LL.c ****                 CapSense_curTxIOPtr = &CapSense_ioList[CapSense_curGangTxPtr->firstPinId];
 260:.\Generated_Source\PSoC4/CapSense_SensingCSX_LL.c **** 
 261:.\Generated_Source\PSoC4/CapSense_SensingCSX_LL.c ****                 do
ARM GAS  C:\Users\Alan\AppData\Local\Temp\ccbGKewn.s 			page 6


 262:.\Generated_Source\PSoC4/CapSense_SensingCSX_LL.c ****                 {
 263:.\Generated_Source\PSoC4/CapSense_SensingCSX_LL.c ****                     CapSense_CSXDisconnectTx(CapSense_curTxIOPtr++);
 264:.\Generated_Source\PSoC4/CapSense_SensingCSX_LL.c ****                     numElectrodes--;
 265:.\Generated_Source\PSoC4/CapSense_SensingCSX_LL.c ****                 } while (0u != numElectrodes);
 266:.\Generated_Source\PSoC4/CapSense_SensingCSX_LL.c **** 
 267:.\Generated_Source\PSoC4/CapSense_SensingCSX_LL.c ****                 /*  1. Get number of pins in previous connected Rx electode
 268:.\Generated_Source\PSoC4/CapSense_SensingCSX_LL.c ****                     3. Get Rx pointer
 269:.\Generated_Source\PSoC4/CapSense_SensingCSX_LL.c ****                     4. Disconnect all Rx   */
 270:.\Generated_Source\PSoC4/CapSense_SensingCSX_LL.c ****                 numElectrodes = CapSense_curGangRxPtr->numPins;
 271:.\Generated_Source\PSoC4/CapSense_SensingCSX_LL.c ****                 CapSense_curRxIOPtr = &CapSense_ioList[CapSense_curGangRxPtr->firstPinId];
 272:.\Generated_Source\PSoC4/CapSense_SensingCSX_LL.c **** 
 273:.\Generated_Source\PSoC4/CapSense_SensingCSX_LL.c ****                 do
 274:.\Generated_Source\PSoC4/CapSense_SensingCSX_LL.c ****                 {
 275:.\Generated_Source\PSoC4/CapSense_SensingCSX_LL.c ****                     CapSense_CSXDisconnectRx(CapSense_curRxIOPtr++);
 276:.\Generated_Source\PSoC4/CapSense_SensingCSX_LL.c ****                     numElectrodes--;
 277:.\Generated_Source\PSoC4/CapSense_SensingCSX_LL.c ****                 } while (0u != numElectrodes);
 278:.\Generated_Source\PSoC4/CapSense_SensingCSX_LL.c ****             }
 279:.\Generated_Source\PSoC4/CapSense_SensingCSX_LL.c ****             else
 280:.\Generated_Source\PSoC4/CapSense_SensingCSX_LL.c ****             {
 281:.\Generated_Source\PSoC4/CapSense_SensingCSX_LL.c ****                 /*  Disconnect if electrodes were previous connected by SetupWidgetExt API  */
 282:.\Generated_Source\PSoC4/CapSense_SensingCSX_LL.c ****                 CapSense_CSXDisconnectTx(CapSense_curTxIOPtr);
 283:.\Generated_Source\PSoC4/CapSense_SensingCSX_LL.c ****                 CapSense_CSXDisconnectRx(CapSense_curRxIOPtr);
 284:.\Generated_Source\PSoC4/CapSense_SensingCSX_LL.c ****             }
 285:.\Generated_Source\PSoC4/CapSense_SensingCSX_LL.c ****         #else
 286:.\Generated_Source\PSoC4/CapSense_SensingCSX_LL.c ****             /*  Disconnect if electrodes were previous connected by SetupWidgetExt API  */
 287:.\Generated_Source\PSoC4/CapSense_SensingCSX_LL.c ****             CapSense_CSXDisconnectTx(CapSense_curTxIOPtr);
 288:.\Generated_Source\PSoC4/CapSense_SensingCSX_LL.c ****             CapSense_CSXDisconnectRx(CapSense_curRxIOPtr);
 289:.\Generated_Source\PSoC4/CapSense_SensingCSX_LL.c ****         #endif
 290:.\Generated_Source\PSoC4/CapSense_SensingCSX_LL.c ****         CapSense_eleCsxDisconnectFlag = 0u;
 291:.\Generated_Source\PSoC4/CapSense_SensingCSX_LL.c ****     }
 292:.\Generated_Source\PSoC4/CapSense_SensingCSX_LL.c **** }
 293:.\Generated_Source\PSoC4/CapSense_SensingCSX_LL.c **** 
 294:.\Generated_Source\PSoC4/CapSense_SensingCSX_LL.c **** 
 295:.\Generated_Source\PSoC4/CapSense_SensingCSX_LL.c **** /*******************************************************************************
 296:.\Generated_Source\PSoC4/CapSense_SensingCSX_LL.c **** * Function Name: CapSense_CSXSetupWidget
 297:.\Generated_Source\PSoC4/CapSense_SensingCSX_LL.c **** ****************************************************************************//**
 298:.\Generated_Source\PSoC4/CapSense_SensingCSX_LL.c **** *
 299:.\Generated_Source\PSoC4/CapSense_SensingCSX_LL.c **** * \brief
 300:.\Generated_Source\PSoC4/CapSense_SensingCSX_LL.c **** *   Performs hardware and firmware initialization required for scanning sensors
 301:.\Generated_Source\PSoC4/CapSense_SensingCSX_LL.c **** *   in a specific widget using the CSX sensing method.
 302:.\Generated_Source\PSoC4/CapSense_SensingCSX_LL.c **** *
 303:.\Generated_Source\PSoC4/CapSense_SensingCSX_LL.c **** * \details
 304:.\Generated_Source\PSoC4/CapSense_SensingCSX_LL.c **** *   This function initializes the widgets specific common parameters to perform the CSX
 305:.\Generated_Source\PSoC4/CapSense_SensingCSX_LL.c **** *   scanning. The initialization includes initialization of the CSD_CONFIG register,
 306:.\Generated_Source\PSoC4/CapSense_SensingCSX_LL.c **** *   module IDAC register, sense-clock frequency, and phase alignment of the sense and
 307:.\Generated_Source\PSoC4/CapSense_SensingCSX_LL.c **** *   modulator clocks. This function does not connect any specific sensors to
 308:.\Generated_Source\PSoC4/CapSense_SensingCSX_LL.c **** *   the scanning hardware and also does not start a scanning process.
 309:.\Generated_Source\PSoC4/CapSense_SensingCSX_LL.c **** *
 310:.\Generated_Source\PSoC4/CapSense_SensingCSX_LL.c **** *   This function is called by the CapSense_SetupWidget() API if the given
 311:.\Generated_Source\PSoC4/CapSense_SensingCSX_LL.c **** *   widget uses the CSX sensing method. The CapSense_Scan() API must be called
 312:.\Generated_Source\PSoC4/CapSense_SensingCSX_LL.c **** *   after initializing the widget to start scanning.
 313:.\Generated_Source\PSoC4/CapSense_SensingCSX_LL.c **** *
 314:.\Generated_Source\PSoC4/CapSense_SensingCSX_LL.c **** *   It is not recommended to call this function directly from the application layer.
 315:.\Generated_Source\PSoC4/CapSense_SensingCSX_LL.c **** *
 316:.\Generated_Source\PSoC4/CapSense_SensingCSX_LL.c **** * \param
 317:.\Generated_Source\PSoC4/CapSense_SensingCSX_LL.c **** *   widgetId  The ID of the widget for which the hardware shall be initialized.
 318:.\Generated_Source\PSoC4/CapSense_SensingCSX_LL.c **** *
ARM GAS  C:\Users\Alan\AppData\Local\Temp\ccbGKewn.s 			page 7


 319:.\Generated_Source\PSoC4/CapSense_SensingCSX_LL.c **** *******************************************************************************/
 320:.\Generated_Source\PSoC4/CapSense_SensingCSX_LL.c **** 
 321:.\Generated_Source\PSoC4/CapSense_SensingCSX_LL.c **** void CapSense_CSXSetupWidget(uint32 widgetIndex)
 322:.\Generated_Source\PSoC4/CapSense_SensingCSX_LL.c **** {
 323:.\Generated_Source\PSoC4/CapSense_SensingCSX_LL.c ****     /*  Configure hardware block */
 324:.\Generated_Source\PSoC4/CapSense_SensingCSX_LL.c ****     #if(CapSense_ENABLE != CapSense_CSDV2)
 325:.\Generated_Source\PSoC4/CapSense_SensingCSX_LL.c ****         /* variable to access widget details    */
 326:.\Generated_Source\PSoC4/CapSense_SensingCSX_LL.c ****         CapSense_RAM_WD_BASE_STRUCT * curRamWdgtBasePtr;
 327:.\Generated_Source\PSoC4/CapSense_SensingCSX_LL.c **** 
 328:.\Generated_Source\PSoC4/CapSense_SensingCSX_LL.c ****         /*  Check if CSX electrodes were previously connected using
 329:.\Generated_Source\PSoC4/CapSense_SensingCSX_LL.c ****             CapSense_CSXSetupWidgetExt API and if yes, disconnect them  */
 330:.\Generated_Source\PSoC4/CapSense_SensingCSX_LL.c ****         CapSense_CSXElectrodeCheck ();
 331:.\Generated_Source\PSoC4/CapSense_SensingCSX_LL.c **** 
 332:.\Generated_Source\PSoC4/CapSense_SensingCSX_LL.c ****         /*  Initialise access pointers for current:
 333:.\Generated_Source\PSoC4/CapSense_SensingCSX_LL.c ****             1. Pointer to widget configuration in Flash
 334:.\Generated_Source\PSoC4/CapSense_SensingCSX_LL.c ****             2. Widget configuration in RAM
 335:.\Generated_Source\PSoC4/CapSense_SensingCSX_LL.c ****             3. Make a local copy of widget index    */
 336:.\Generated_Source\PSoC4/CapSense_SensingCSX_LL.c ****         CapSense_curFlashWdgtPtr = &CapSense_dsFlash.wdgtArray[widgetIndex];
 337:.\Generated_Source\PSoC4/CapSense_SensingCSX_LL.c ****         curRamWdgtBasePtr = (CapSense_RAM_WD_BASE_STRUCT *)CapSense_curFlashWdgtPtr->ptr2WdgtRam;
 338:.\Generated_Source\PSoC4/CapSense_SensingCSX_LL.c **** 
 339:.\Generated_Source\PSoC4/CapSense_SensingCSX_LL.c ****         CY_SET_REG32(CapSense_CONFIG_PTR, CapSense_CONFIG_ENABLE_MASK);
 340:.\Generated_Source\PSoC4/CapSense_SensingCSX_LL.c ****         CY_SET_REG32(CapSense_CONFIG_PTR, (CY_GET_REG32(CapSense_CONFIG_PTR) |
 341:.\Generated_Source\PSoC4/CapSense_SensingCSX_LL.c ****                                 CapSense_CONFIG_MUTUALCAP_EN_MASK     |
 342:.\Generated_Source\PSoC4/CapSense_SensingCSX_LL.c ****                                 CapSense_CONFIG_SENSE_COMP_BW_MASK    |
 343:.\Generated_Source\PSoC4/CapSense_SensingCSX_LL.c ****                                 CapSense_CONFIG_SENSE_COMP_EN_MASK    |
 344:.\Generated_Source\PSoC4/CapSense_SensingCSX_LL.c ****                                 CapSense_CONFIG_SENSE_INSEL_MASK      |
 345:.\Generated_Source\PSoC4/CapSense_SensingCSX_LL.c ****                                 CapSense_CONFIG_REFBUF_EN_MASK        |
 346:.\Generated_Source\PSoC4/CapSense_SensingCSX_LL.c ****                                 CapSense_CONFIG_REFBUF_DRV_MASK));
 347:.\Generated_Source\PSoC4/CapSense_SensingCSX_LL.c **** 
 348:.\Generated_Source\PSoC4/CapSense_SensingCSX_LL.c ****         /*  If individual clocks are enabled for each widget, set clock
 349:.\Generated_Source\PSoC4/CapSense_SensingCSX_LL.c ****             divider for sensor and modulator clocks and start/restart them.  */
 350:.\Generated_Source\PSoC4/CapSense_SensingCSX_LL.c ****         #if (CapSense_CSX_COMMON_TX_CLK_EN == CapSense_DISABLE)
 351:.\Generated_Source\PSoC4/CapSense_SensingCSX_LL.c ****             CapSense_ConfigureClocks((uint32)curRamWdgtBasePtr->snsClk, (uint32)CapSense_dsRam.modC
 352:.\Generated_Source\PSoC4/CapSense_SensingCSX_LL.c ****         #endif
 353:.\Generated_Source\PSoC4/CapSense_SensingCSX_LL.c **** 
 354:.\Generated_Source\PSoC4/CapSense_SensingCSX_LL.c ****         /*  Find scan period */
 355:.\Generated_Source\PSoC4/CapSense_SensingCSX_LL.c ****         CapSense_csxScanPeriod = CapSense_SsCalcCsxScanPeriod (curRamWdgtBasePtr);
 356:.\Generated_Source\PSoC4/CapSense_SensingCSX_LL.c ****     #else
 357:.\Generated_Source\PSoC4/CapSense_SensingCSX_LL.c ****         CapSense_CSXElectrodeCheck();
 358:.\Generated_Source\PSoC4/CapSense_SensingCSX_LL.c ****         CapSense_curFlashWdgtPtr = &CapSense_dsFlash.wdgtArray[widgetIndex];
 359:.\Generated_Source\PSoC4/CapSense_SensingCSX_LL.c ****         CapSense_CSXV2HwSetup();
 360:.\Generated_Source\PSoC4/CapSense_SensingCSX_LL.c ****     #endif /* (CapSense_ENABLE != CapSense_CSDV2) */
 361:.\Generated_Source\PSoC4/CapSense_SensingCSX_LL.c **** }
 362:.\Generated_Source\PSoC4/CapSense_SensingCSX_LL.c **** 
 363:.\Generated_Source\PSoC4/CapSense_SensingCSX_LL.c **** /*******************************************************************************
 364:.\Generated_Source\PSoC4/CapSense_SensingCSX_LL.c **** * Function Name: CapSense_CSXSetupWidgetExt
 365:.\Generated_Source\PSoC4/CapSense_SensingCSX_LL.c **** ****************************************************************************//**
 366:.\Generated_Source\PSoC4/CapSense_SensingCSX_LL.c **** *
 367:.\Generated_Source\PSoC4/CapSense_SensingCSX_LL.c **** * \brief
 368:.\Generated_Source\PSoC4/CapSense_SensingCSX_LL.c **** *   Performs extended initialization for widget scanning. This API initializes
 369:.\Generated_Source\PSoC4/CapSense_SensingCSX_LL.c **** *   the widget and also connects a particular sensor in the widget to the scanning
 370:.\Generated_Source\PSoC4/CapSense_SensingCSX_LL.c **** *   hardware.
 371:.\Generated_Source\PSoC4/CapSense_SensingCSX_LL.c **** *
 372:.\Generated_Source\PSoC4/CapSense_SensingCSX_LL.c **** * \details
 373:.\Generated_Source\PSoC4/CapSense_SensingCSX_LL.c **** *   This function does the same tasks as CapSense_SetupWidget() and
 374:.\Generated_Source\PSoC4/CapSense_SensingCSX_LL.c **** *   also connects a sensor in the widget for scanning.
 375:.\Generated_Source\PSoC4/CapSense_SensingCSX_LL.c **** *
ARM GAS  C:\Users\Alan\AppData\Local\Temp\ccbGKewn.s 			page 8


 376:.\Generated_Source\PSoC4/CapSense_SensingCSX_LL.c **** *   Once this function is called to initialize a widget and a sensor,
 377:.\Generated_Source\PSoC4/CapSense_SensingCSX_LL.c **** *   the CapSense_CSXScanExt() function should be called to scan the sensor.
 378:.\Generated_Source\PSoC4/CapSense_SensingCSX_LL.c **** *
 379:.\Generated_Source\PSoC4/CapSense_SensingCSX_LL.c **** * \param
 380:.\Generated_Source\PSoC4/CapSense_SensingCSX_LL.c **** *   widgetId The ID of the widget for which the hardware shall be initialized.
 381:.\Generated_Source\PSoC4/CapSense_SensingCSX_LL.c **** *   SnsId    The ID of the sensor in the widget to be scanned.
 382:.\Generated_Source\PSoC4/CapSense_SensingCSX_LL.c **** *
 383:.\Generated_Source\PSoC4/CapSense_SensingCSX_LL.c **** *******************************************************************************/
 384:.\Generated_Source\PSoC4/CapSense_SensingCSX_LL.c **** 
 385:.\Generated_Source\PSoC4/CapSense_SensingCSX_LL.c **** void CapSense_CSXSetupWidgetExt(uint32 widgetIndex, uint32 snsIndex)
 386:.\Generated_Source\PSoC4/CapSense_SensingCSX_LL.c **** {
 387:.\Generated_Source\PSoC4/CapSense_SensingCSX_LL.c ****     uint32 txIndex;
 388:.\Generated_Source\PSoC4/CapSense_SensingCSX_LL.c ****     uint32 rxIndex;
 389:.\Generated_Source\PSoC4/CapSense_SensingCSX_LL.c ****     #if (CapSense_ENABLE == CapSense_CSX_GANGED_SNS_EN)
 390:.\Generated_Source\PSoC4/CapSense_SensingCSX_LL.c ****         uint16 numElectrodes;
 391:.\Generated_Source\PSoC4/CapSense_SensingCSX_LL.c ****     #endif /* (CapSense_ENABLE == CapSense_CSX_GANGED_SNS_EN) */
 392:.\Generated_Source\PSoC4/CapSense_SensingCSX_LL.c **** 
 393:.\Generated_Source\PSoC4/CapSense_SensingCSX_LL.c ****     #if (CapSense_ENABLE == CapSense_CSD_CSX_EN)
 394:.\Generated_Source\PSoC4/CapSense_SensingCSX_LL.c ****         /*
 395:.\Generated_Source\PSoC4/CapSense_SensingCSX_LL.c ****          *  Check if CSD block is  already initialized for CSX operation
 396:.\Generated_Source\PSoC4/CapSense_SensingCSX_LL.c ****          *  If not, initialize CSD hardware block for CSX measurement
 397:.\Generated_Source\PSoC4/CapSense_SensingCSX_LL.c ****          */
 398:.\Generated_Source\PSoC4/CapSense_SensingCSX_LL.c ****         if (CapSense_SENSE_METHOD_CSX_E != CapSense_currentSenseMethod)
 399:.\Generated_Source\PSoC4/CapSense_SensingCSX_LL.c ****         {
 400:.\Generated_Source\PSoC4/CapSense_SensingCSX_LL.c ****             CapSense_SwitchSensingMode(CapSense_SENSE_METHOD_CSX_E);
 401:.\Generated_Source\PSoC4/CapSense_SensingCSX_LL.c ****         }
 402:.\Generated_Source\PSoC4/CapSense_SensingCSX_LL.c ****     #endif /* (CapSense_ENABLE == CapSense_CSD_CSX_EN) */
 403:.\Generated_Source\PSoC4/CapSense_SensingCSX_LL.c **** 
 404:.\Generated_Source\PSoC4/CapSense_SensingCSX_LL.c ****     /*  Initialize widget   */
 405:.\Generated_Source\PSoC4/CapSense_SensingCSX_LL.c ****     CapSense_CSXSetupWidget(widgetIndex);
 406:.\Generated_Source\PSoC4/CapSense_SensingCSX_LL.c **** 
 407:.\Generated_Source\PSoC4/CapSense_SensingCSX_LL.c ****     /*  Initialise sensor data structure pointer to appropriate address */
 408:.\Generated_Source\PSoC4/CapSense_SensingCSX_LL.c ****     CapSense_curRamSnsPtr = CapSense_curFlashWdgtPtr->ptr2SnsRam;
 409:.\Generated_Source\PSoC4/CapSense_SensingCSX_LL.c ****     CapSense_curRamSnsPtr = &CapSense_curRamSnsPtr[snsIndex];
 410:.\Generated_Source\PSoC4/CapSense_SensingCSX_LL.c **** 
 411:.\Generated_Source\PSoC4/CapSense_SensingCSX_LL.c ****     /*  Find Tx and Rx index for given snsIndex
 412:.\Generated_Source\PSoC4/CapSense_SensingCSX_LL.c ****         rxIndex = snsIndex / TxCount
 413:.\Generated_Source\PSoC4/CapSense_SensingCSX_LL.c ****         txIndex = snsIndex % TxCount    */
 414:.\Generated_Source\PSoC4/CapSense_SensingCSX_LL.c ****     rxIndex = snsIndex /CapSense_curFlashWdgtPtr->numRows;
 415:.\Generated_Source\PSoC4/CapSense_SensingCSX_LL.c ****     txIndex = snsIndex % CapSense_curFlashWdgtPtr->numRows;
 416:.\Generated_Source\PSoC4/CapSense_SensingCSX_LL.c **** 
 417:.\Generated_Source\PSoC4/CapSense_SensingCSX_LL.c ****     /*  If widget is APA, find node (Tx/Rx) to be connected for scanning    */
 418:.\Generated_Source\PSoC4/CapSense_SensingCSX_LL.c ****     #if (CapSense_ENABLE == CapSense_CSX_GANGED_SNS_EN)
 419:.\Generated_Source\PSoC4/CapSense_SensingCSX_LL.c ****         if (CapSense_GANGED_SNS_MASK == (CapSense_curFlashWdgtPtr->staticConfig & CapSense_GANGED_S
 420:.\Generated_Source\PSoC4/CapSense_SensingCSX_LL.c ****         {
 421:.\Generated_Source\PSoC4/CapSense_SensingCSX_LL.c ****             /*  1. Get access to Rx sensor pointer  (Rx = Base + rxIndex).
 422:.\Generated_Source\PSoC4/CapSense_SensingCSX_LL.c ****                 2. Get number of Rx electrodes
 423:.\Generated_Source\PSoC4/CapSense_SensingCSX_LL.c ****                 3. Get Rx pointer
 424:.\Generated_Source\PSoC4/CapSense_SensingCSX_LL.c ****                 4. Connect all Rx   */
 425:.\Generated_Source\PSoC4/CapSense_SensingCSX_LL.c ****             CapSense_curGangRxPtr = CapSense_curFlashWdgtPtr->ptr2SnsFlash;
 426:.\Generated_Source\PSoC4/CapSense_SensingCSX_LL.c ****             CapSense_curGangRxPtr += rxIndex;
 427:.\Generated_Source\PSoC4/CapSense_SensingCSX_LL.c ****             numElectrodes = CapSense_curGangRxPtr->numPins ;
 428:.\Generated_Source\PSoC4/CapSense_SensingCSX_LL.c ****             CapSense_curRxIOPtr = &CapSense_ioList[CapSense_curGangRxPtr->firstPinId];
 429:.\Generated_Source\PSoC4/CapSense_SensingCSX_LL.c **** 
 430:.\Generated_Source\PSoC4/CapSense_SensingCSX_LL.c ****             do
 431:.\Generated_Source\PSoC4/CapSense_SensingCSX_LL.c ****             {
 432:.\Generated_Source\PSoC4/CapSense_SensingCSX_LL.c ****                 CapSense_CSXConnectRx(CapSense_curRxIOPtr++);
ARM GAS  C:\Users\Alan\AppData\Local\Temp\ccbGKewn.s 			page 9


 433:.\Generated_Source\PSoC4/CapSense_SensingCSX_LL.c ****                 numElectrodes--;
 434:.\Generated_Source\PSoC4/CapSense_SensingCSX_LL.c ****             } while (0u != numElectrodes);
 435:.\Generated_Source\PSoC4/CapSense_SensingCSX_LL.c **** 
 436:.\Generated_Source\PSoC4/CapSense_SensingCSX_LL.c ****             /*  1. Get access to Tx sensor pointer (Tx = Base + NumberRx + TxIndex).
 437:.\Generated_Source\PSoC4/CapSense_SensingCSX_LL.c ****                 2. Get number of Tx electrodes
 438:.\Generated_Source\PSoC4/CapSense_SensingCSX_LL.c ****                 3. Get Tx pointer
 439:.\Generated_Source\PSoC4/CapSense_SensingCSX_LL.c ****                 4. Connect all Tx   */
 440:.\Generated_Source\PSoC4/CapSense_SensingCSX_LL.c ****             CapSense_curGangTxPtr = CapSense_curFlashWdgtPtr->ptr2SnsFlash;
 441:.\Generated_Source\PSoC4/CapSense_SensingCSX_LL.c ****             CapSense_curGangTxPtr += (CapSense_curFlashWdgtPtr->numCols + txIndex);
 442:.\Generated_Source\PSoC4/CapSense_SensingCSX_LL.c **** 
 443:.\Generated_Source\PSoC4/CapSense_SensingCSX_LL.c ****             numElectrodes = CapSense_curGangTxPtr->numPins ;
 444:.\Generated_Source\PSoC4/CapSense_SensingCSX_LL.c ****             CapSense_curTxIOPtr = &CapSense_ioList[CapSense_curGangTxPtr->firstPinId];
 445:.\Generated_Source\PSoC4/CapSense_SensingCSX_LL.c **** 
 446:.\Generated_Source\PSoC4/CapSense_SensingCSX_LL.c ****             do
 447:.\Generated_Source\PSoC4/CapSense_SensingCSX_LL.c ****             {
 448:.\Generated_Source\PSoC4/CapSense_SensingCSX_LL.c ****                 CapSense_CSXConnectTx(CapSense_curTxIOPtr++);
 449:.\Generated_Source\PSoC4/CapSense_SensingCSX_LL.c ****                 numElectrodes--;
 450:.\Generated_Source\PSoC4/CapSense_SensingCSX_LL.c ****             }while (0u != numElectrodes);
 451:.\Generated_Source\PSoC4/CapSense_SensingCSX_LL.c **** 
 452:.\Generated_Source\PSoC4/CapSense_SensingCSX_LL.c ****             /*  Set callback to scan connected ganged sensor only */
 453:.\Generated_Source\PSoC4/CapSense_SensingCSX_LL.c ****             CapSense_CSXPostScanApiPtr = &CapSense_SsCSXPostSingleScan;
 454:.\Generated_Source\PSoC4/CapSense_SensingCSX_LL.c ****         }
 455:.\Generated_Source\PSoC4/CapSense_SensingCSX_LL.c ****         else
 456:.\Generated_Source\PSoC4/CapSense_SensingCSX_LL.c ****     #endif  /* (CapSense_ENABLE == CapSense_CSD_CSX_EN) */
 457:.\Generated_Source\PSoC4/CapSense_SensingCSX_LL.c ****         {
 458:.\Generated_Source\PSoC4/CapSense_SensingCSX_LL.c ****             /*  If no ganged sensor in component OR current widget no contains ganged sns, then:
 459:.\Generated_Source\PSoC4/CapSense_SensingCSX_LL.c ****                 1. Find Rx pointer: Rx = Base address + RxIndex
 460:.\Generated_Source\PSoC4/CapSense_SensingCSX_LL.c ****                 2. Find Tx pointer: Tx = Base address + (total Rx + TxIndex) */
 461:.\Generated_Source\PSoC4/CapSense_SensingCSX_LL.c ****             CapSense_curRxIOPtr = (CapSense_FLASH_IO_STRUCT const *)CapSense_curFlashWdgtPtr->ptr2S
 462:.\Generated_Source\PSoC4/CapSense_SensingCSX_LL.c ****             CapSense_curRxIOPtr = &CapSense_curRxIOPtr[rxIndex];
 463:.\Generated_Source\PSoC4/CapSense_SensingCSX_LL.c **** 
 464:.\Generated_Source\PSoC4/CapSense_SensingCSX_LL.c ****             CapSense_curTxIOPtr = (CapSense_FLASH_IO_STRUCT const *)CapSense_curFlashWdgtPtr->ptr2S
 465:.\Generated_Source\PSoC4/CapSense_SensingCSX_LL.c ****             CapSense_curTxIOPtr = &CapSense_curTxIOPtr[(CapSense_curFlashWdgtPtr->numCols + txIndex
 466:.\Generated_Source\PSoC4/CapSense_SensingCSX_LL.c **** 
 467:.\Generated_Source\PSoC4/CapSense_SensingCSX_LL.c ****             /*  Connect Tx and Rx IOs for scan ad set flag to indicate that IOs should be disconnec
 468:.\Generated_Source\PSoC4/CapSense_SensingCSX_LL.c ****             CapSense_CSXConnectTx(CapSense_curTxIOPtr);
 469:.\Generated_Source\PSoC4/CapSense_SensingCSX_LL.c ****             CapSense_CSXConnectRx(CapSense_curRxIOPtr);
 470:.\Generated_Source\PSoC4/CapSense_SensingCSX_LL.c ****             CapSense_eleCsxDisconnectFlag = CapSense_DISCONNECT_IO_FLAG;
 471:.\Generated_Source\PSoC4/CapSense_SensingCSX_LL.c **** 
 472:.\Generated_Source\PSoC4/CapSense_SensingCSX_LL.c ****             /*   Set callback to scan all sensors in widget */
 473:.\Generated_Source\PSoC4/CapSense_SensingCSX_LL.c ****             CapSense_CSXPostScanApiPtr = &CapSense_SsCSXPostSingleScan;
 474:.\Generated_Source\PSoC4/CapSense_SensingCSX_LL.c ****         }
 475:.\Generated_Source\PSoC4/CapSense_SensingCSX_LL.c **** }
 476:.\Generated_Source\PSoC4/CapSense_SensingCSX_LL.c **** 
 477:.\Generated_Source\PSoC4/CapSense_SensingCSX_LL.c **** /*******************************************************************************
 478:.\Generated_Source\PSoC4/CapSense_SensingCSX_LL.c **** * Function Name: CapSense_CSXScan
 479:.\Generated_Source\PSoC4/CapSense_SensingCSX_LL.c **** ****************************************************************************//**
 480:.\Generated_Source\PSoC4/CapSense_SensingCSX_LL.c **** *
 481:.\Generated_Source\PSoC4/CapSense_SensingCSX_LL.c **** * \brief
 482:.\Generated_Source\PSoC4/CapSense_SensingCSX_LL.c **** *   Starts the CSX scanning for the first sensor in the widget that was previously
 483:.\Generated_Source\PSoC4/CapSense_SensingCSX_LL.c **** *   set up by the CapSense_CSXSetupWidget() API.
 484:.\Generated_Source\PSoC4/CapSense_SensingCSX_LL.c **** *
 485:.\Generated_Source\PSoC4/CapSense_SensingCSX_LL.c **** * \details
 486:.\Generated_Source\PSoC4/CapSense_SensingCSX_LL.c **** *   Connects the first sensor of the widget and starts scanning for the first sensor
 487:.\Generated_Source\PSoC4/CapSense_SensingCSX_LL.c **** *   in the widget. Also, initializes a callback function to initialize a next scan
 488:.\Generated_Source\PSoC4/CapSense_SensingCSX_LL.c **** *   (chained scan) from the end of the scan ISR.
 489:.\Generated_Source\PSoC4/CapSense_SensingCSX_LL.c **** *
ARM GAS  C:\Users\Alan\AppData\Local\Temp\ccbGKewn.s 			page 10


 490:.\Generated_Source\PSoC4/CapSense_SensingCSX_LL.c **** *   This function is called by the CapSense_Scan() API if the given widget
 491:.\Generated_Source\PSoC4/CapSense_SensingCSX_LL.c **** *   uses the CSX sensing method.
 492:.\Generated_Source\PSoC4/CapSense_SensingCSX_LL.c **** 
 493:.\Generated_Source\PSoC4/CapSense_SensingCSX_LL.c **** *   It is highly not recommended to call this function directly from the application
 494:.\Generated_Source\PSoC4/CapSense_SensingCSX_LL.c **** *   layer.
 495:.\Generated_Source\PSoC4/CapSense_SensingCSX_LL.c **** *
 496:.\Generated_Source\PSoC4/CapSense_SensingCSX_LL.c **** *******************************************************************************/
 497:.\Generated_Source\PSoC4/CapSense_SensingCSX_LL.c **** 
 498:.\Generated_Source\PSoC4/CapSense_SensingCSX_LL.c **** void CapSense_CSXScan(void)
 499:.\Generated_Source\PSoC4/CapSense_SensingCSX_LL.c **** {
 500:.\Generated_Source\PSoC4/CapSense_SensingCSX_LL.c ****     #if (CapSense_CSX_GANGED_SNS_EN == 1u)
 501:.\Generated_Source\PSoC4/CapSense_SensingCSX_LL.c ****         uint32 numElectrodes;
 502:.\Generated_Source\PSoC4/CapSense_SensingCSX_LL.c ****     #endif
 503:.\Generated_Source\PSoC4/CapSense_SensingCSX_LL.c **** 
 504:.\Generated_Source\PSoC4/CapSense_SensingCSX_LL.c ****     /*  Initialise pointer to access sensor RAM elements    */
 505:.\Generated_Source\PSoC4/CapSense_SensingCSX_LL.c ****     CapSense_curRamSnsPtr = CapSense_curFlashWdgtPtr->ptr2SnsRam;
 506:.\Generated_Source\PSoC4/CapSense_SensingCSX_LL.c **** 
 507:.\Generated_Source\PSoC4/CapSense_SensingCSX_LL.c ****     /*  Calculate total sensor to be scanned. If buttons, one Tx and an Rx for each sensor
 508:.\Generated_Source\PSoC4/CapSense_SensingCSX_LL.c ****         if Matrix button or Touchpad, M x N rule applies    */
 509:.\Generated_Source\PSoC4/CapSense_SensingCSX_LL.c ****     CapSense_curWdgtTotalTx = CapSense_curFlashWdgtPtr->numRows;
 510:.\Generated_Source\PSoC4/CapSense_SensingCSX_LL.c ****     CapSense_curWdgtTotalRx  = CapSense_curFlashWdgtPtr->numCols;
 511:.\Generated_Source\PSoC4/CapSense_SensingCSX_LL.c **** 
 512:.\Generated_Source\PSoC4/CapSense_SensingCSX_LL.c ****     /*  If component contains CSX ganged sensor, then check if widget contains ganged sensor.   */
 513:.\Generated_Source\PSoC4/CapSense_SensingCSX_LL.c ****     #if (CapSense_CSX_GANGED_SNS_EN == 1u)
 514:.\Generated_Source\PSoC4/CapSense_SensingCSX_LL.c ****         if ((CapSense_curFlashWdgtPtr->staticConfig & CapSense_GANGED_SNS_MASK) != 0u)
 515:.\Generated_Source\PSoC4/CapSense_SensingCSX_LL.c ****         {
 516:.\Generated_Source\PSoC4/CapSense_SensingCSX_LL.c ****             /*  1. Get sns pointer for first Rx
 517:.\Generated_Source\PSoC4/CapSense_SensingCSX_LL.c ****                 2. Get number of Rx pin
 518:.\Generated_Source\PSoC4/CapSense_SensingCSX_LL.c ****                 3. Get pointer to the Rx pin
 519:.\Generated_Source\PSoC4/CapSense_SensingCSX_LL.c ****                 4. Connect all Rx pins   */
 520:.\Generated_Source\PSoC4/CapSense_SensingCSX_LL.c ****             CapSense_curGangRxPtr = CapSense_curFlashWdgtPtr->ptr2SnsFlash;
 521:.\Generated_Source\PSoC4/CapSense_SensingCSX_LL.c ****             numElectrodes = CapSense_curGangRxPtr->numPins ;
 522:.\Generated_Source\PSoC4/CapSense_SensingCSX_LL.c ****             CapSense_curRxIOPtr = &CapSense_ioList[CapSense_curGangRxPtr->firstPinId];
 523:.\Generated_Source\PSoC4/CapSense_SensingCSX_LL.c ****             do
 524:.\Generated_Source\PSoC4/CapSense_SensingCSX_LL.c ****             {
 525:.\Generated_Source\PSoC4/CapSense_SensingCSX_LL.c ****                 CapSense_CSXConnectRx(CapSense_curRxIOPtr++);
 526:.\Generated_Source\PSoC4/CapSense_SensingCSX_LL.c ****                 numElectrodes--;
 527:.\Generated_Source\PSoC4/CapSense_SensingCSX_LL.c ****             } while (0u != numElectrodes);
 528:.\Generated_Source\PSoC4/CapSense_SensingCSX_LL.c **** 
 529:.\Generated_Source\PSoC4/CapSense_SensingCSX_LL.c ****             /*  1. Get sns pointer for first Tx (Tx = Base + number of Rx).
 530:.\Generated_Source\PSoC4/CapSense_SensingCSX_LL.c ****                 2. Get number of Tx electrodes
 531:.\Generated_Source\PSoC4/CapSense_SensingCSX_LL.c ****                 3. Get pointer the Tx electrode
 532:.\Generated_Source\PSoC4/CapSense_SensingCSX_LL.c ****                 4. Connect all Tx   */
 533:.\Generated_Source\PSoC4/CapSense_SensingCSX_LL.c ****             CapSense_curGangTxPtr = CapSense_curFlashWdgtPtr->ptr2SnsFlash;
 534:.\Generated_Source\PSoC4/CapSense_SensingCSX_LL.c ****             CapSense_curGangTxPtr += CapSense_curFlashWdgtPtr->numCols;
 535:.\Generated_Source\PSoC4/CapSense_SensingCSX_LL.c ****             numElectrodes = CapSense_curGangTxPtr->numPins ;
 536:.\Generated_Source\PSoC4/CapSense_SensingCSX_LL.c ****             CapSense_curTxIOPtr = &CapSense_ioList[CapSense_curGangTxPtr->firstPinId];
 537:.\Generated_Source\PSoC4/CapSense_SensingCSX_LL.c **** 
 538:.\Generated_Source\PSoC4/CapSense_SensingCSX_LL.c ****             do
 539:.\Generated_Source\PSoC4/CapSense_SensingCSX_LL.c ****             {
 540:.\Generated_Source\PSoC4/CapSense_SensingCSX_LL.c ****                 CapSense_CSXConnectTx(CapSense_curTxIOPtr++);
 541:.\Generated_Source\PSoC4/CapSense_SensingCSX_LL.c ****                 numElectrodes--;
 542:.\Generated_Source\PSoC4/CapSense_SensingCSX_LL.c ****             }while (0u != numElectrodes);
 543:.\Generated_Source\PSoC4/CapSense_SensingCSX_LL.c **** 
 544:.\Generated_Source\PSoC4/CapSense_SensingCSX_LL.c ****             /*  Assign callback to ISR  */
 545:.\Generated_Source\PSoC4/CapSense_SensingCSX_LL.c ****             CapSense_CSXPostScanApiPtr = &CapSense_SsCSXPostMultiScanGanged;
 546:.\Generated_Source\PSoC4/CapSense_SensingCSX_LL.c **** 
ARM GAS  C:\Users\Alan\AppData\Local\Temp\ccbGKewn.s 			page 11


 547:.\Generated_Source\PSoC4/CapSense_SensingCSX_LL.c ****         }
 548:.\Generated_Source\PSoC4/CapSense_SensingCSX_LL.c ****         else
 549:.\Generated_Source\PSoC4/CapSense_SensingCSX_LL.c ****     #endif
 550:.\Generated_Source\PSoC4/CapSense_SensingCSX_LL.c ****         {
 551:.\Generated_Source\PSoC4/CapSense_SensingCSX_LL.c ****             /*  If no ganged sensor in the component OR current widget contains no ganged sns, then
 552:.\Generated_Source\PSoC4/CapSense_SensingCSX_LL.c ****                 1. Find Rx pointer: Rx = Base address.
 553:.\Generated_Source\PSoC4/CapSense_SensingCSX_LL.c ****                 2. Find Rx pointer: Tx = Base address + total Rx */
 554:.\Generated_Source\PSoC4/CapSense_SensingCSX_LL.c ****             CapSense_curRxIOPtr = (CapSense_FLASH_IO_STRUCT const *)CapSense_curFlashWdgtPtr->ptr2S
 555:.\Generated_Source\PSoC4/CapSense_SensingCSX_LL.c ****             CapSense_curTxIOPtr = CapSense_curRxIOPtr;
 556:.\Generated_Source\PSoC4/CapSense_SensingCSX_LL.c ****             CapSense_curTxIOPtr = &CapSense_curTxIOPtr[(CapSense_curFlashWdgtPtr->numCols)];
 557:.\Generated_Source\PSoC4/CapSense_SensingCSX_LL.c **** 
 558:.\Generated_Source\PSoC4/CapSense_SensingCSX_LL.c ****             /*  Connect first Tx and first Rx IOs for scan  */
 559:.\Generated_Source\PSoC4/CapSense_SensingCSX_LL.c ****             CapSense_CSXConnectTx(CapSense_curTxIOPtr);
 560:.\Generated_Source\PSoC4/CapSense_SensingCSX_LL.c ****             CapSense_CSXConnectRx(CapSense_curRxIOPtr);
 561:.\Generated_Source\PSoC4/CapSense_SensingCSX_LL.c **** 
 562:.\Generated_Source\PSoC4/CapSense_SensingCSX_LL.c ****             /*   Set callback to scan all sensors in widget */
 563:.\Generated_Source\PSoC4/CapSense_SensingCSX_LL.c ****             CapSense_CSXPostScanApiPtr = &CapSense_SsCSXPostMultiScan;
 564:.\Generated_Source\PSoC4/CapSense_SensingCSX_LL.c ****         }
 565:.\Generated_Source\PSoC4/CapSense_SensingCSX_LL.c **** 
 566:.\Generated_Source\PSoC4/CapSense_SensingCSX_LL.c ****         /*  If frequency hopping is enabled, reset hopping channel counter  */
 567:.\Generated_Source\PSoC4/CapSense_SensingCSX_LL.c ****         #if (CapSense_MULTI_FREQ_SCAN_EN == CapSense_ENABLE)
 568:.\Generated_Source\PSoC4/CapSense_SensingCSX_LL.c ****             CapSense_scanFreqIndex = 0u;
 569:.\Generated_Source\PSoC4/CapSense_SensingCSX_LL.c ****         #endif
 570:.\Generated_Source\PSoC4/CapSense_SensingCSX_LL.c **** 
 571:.\Generated_Source\PSoC4/CapSense_SensingCSX_LL.c ****     /*  Set scan status, enter critical section and initiate scan   */
 572:.\Generated_Source\PSoC4/CapSense_SensingCSX_LL.c ****     CapSense_dsRam.status |= CapSense_SW_STS_BUSY;
 573:.\Generated_Source\PSoC4/CapSense_SensingCSX_LL.c ****     CapSense_SsCSXStartSample();
 574:.\Generated_Source\PSoC4/CapSense_SensingCSX_LL.c **** }
 575:.\Generated_Source\PSoC4/CapSense_SensingCSX_LL.c **** 
 576:.\Generated_Source\PSoC4/CapSense_SensingCSX_LL.c **** /*******************************************************************************
 577:.\Generated_Source\PSoC4/CapSense_SensingCSX_LL.c **** * Function Name: CapSense_CSXScanExt()
 578:.\Generated_Source\PSoC4/CapSense_SensingCSX_LL.c **** ****************************************************************************//**
 579:.\Generated_Source\PSoC4/CapSense_SensingCSX_LL.c **** *
 580:.\Generated_Source\PSoC4/CapSense_SensingCSX_LL.c **** * \brief
 581:.\Generated_Source\PSoC4/CapSense_SensingCSX_LL.c **** *   Starts the CSX scanning for the sensor that was previously configured by
 582:.\Generated_Source\PSoC4/CapSense_SensingCSX_LL.c **** *   the CapSense_CSXSetupWidgetExt() API.
 583:.\Generated_Source\PSoC4/CapSense_SensingCSX_LL.c **** *
 584:.\Generated_Source\PSoC4/CapSense_SensingCSX_LL.c **** * \details
 585:.\Generated_Source\PSoC4/CapSense_SensingCSX_LL.c **** *   This function covers the following functionality:
 586:.\Generated_Source\PSoC4/CapSense_SensingCSX_LL.c **** *    - Sets the busy flag in the CapSense_dsRam structure.
 587:.\Generated_Source\PSoC4/CapSense_SensingCSX_LL.c **** *    - Configures the Tx clock frequency.
 588:.\Generated_Source\PSoC4/CapSense_SensingCSX_LL.c **** *    - Configures the Modulator clock frequency.
 589:.\Generated_Source\PSoC4/CapSense_SensingCSX_LL.c **** *    - Configures the IDAC value.
 590:.\Generated_Source\PSoC4/CapSense_SensingCSX_LL.c **** *    - Starts measurement.
 591:.\Generated_Source\PSoC4/CapSense_SensingCSX_LL.c **** *
 592:.\Generated_Source\PSoC4/CapSense_SensingCSX_LL.c **** *   It is forbidden to call this function while the component is busy.
 593:.\Generated_Source\PSoC4/CapSense_SensingCSX_LL.c **** *   The sensor must be preconfigured by using the CapSense_CSXSetupWidgetExt()
 594:.\Generated_Source\PSoC4/CapSense_SensingCSX_LL.c **** *   API prior to calling this function. The sensor remains ready for the next scan if
 595:.\Generated_Source\PSoC4/CapSense_SensingCSX_LL.c **** *   a previous scan was triggered by using the The CapSense_CSXScanExt()
 596:.\Generated_Source\PSoC4/CapSense_SensingCSX_LL.c **** *   function. In this case calling CapSense_CSXSetupWidgetExt() is not
 597:.\Generated_Source\PSoC4/CapSense_SensingCSX_LL.c **** *   required every time before the CapSense_CSXScanExt() function. If a previous
 598:.\Generated_Source\PSoC4/CapSense_SensingCSX_LL.c **** *   scan was triggered in any other way: CapSense_Scan(),
 599:.\Generated_Source\PSoC4/CapSense_SensingCSX_LL.c **** *   CapSense_ScanAllWidgets() or CapSense_RunTuner() (see the
 600:.\Generated_Source\PSoC4/CapSense_SensingCSX_LL.c **** *   CapSense_RunTuner() function description for more details), the sensor must
 601:.\Generated_Source\PSoC4/CapSense_SensingCSX_LL.c **** *   be preconfigured again by using the CapSense_CSXSetupWidgetExt() API prior to calling
 602:.\Generated_Source\PSoC4/CapSense_SensingCSX_LL.c **** *   the CapSense_CSXScanExt() function.
 603:.\Generated_Source\PSoC4/CapSense_SensingCSX_LL.c **** *
ARM GAS  C:\Users\Alan\AppData\Local\Temp\ccbGKewn.s 			page 12


 604:.\Generated_Source\PSoC4/CapSense_SensingCSX_LL.c **** *   If disconnection of the sensors is required after calling the
 605:.\Generated_Source\PSoC4/CapSense_SensingCSX_LL.c **** *  CapSense_CSXScanExt(), the CapSense_CSXDisconnectTx() and
 606:.\Generated_Source\PSoC4/CapSense_SensingCSX_LL.c **** *  CapSense_CSXDisconnectRx() APIs can be used.
 607:.\Generated_Source\PSoC4/CapSense_SensingCSX_LL.c **** *
 608:.\Generated_Source\PSoC4/CapSense_SensingCSX_LL.c **** *******************************************************************************/
 609:.\Generated_Source\PSoC4/CapSense_SensingCSX_LL.c **** 
 610:.\Generated_Source\PSoC4/CapSense_SensingCSX_LL.c **** void CapSense_CSXScanExt(void)
 611:.\Generated_Source\PSoC4/CapSense_SensingCSX_LL.c **** {
 612:.\Generated_Source\PSoC4/CapSense_SensingCSX_LL.c ****     /*  If frequency hopping is enabled, reset hopping channel counter  */
 613:.\Generated_Source\PSoC4/CapSense_SensingCSX_LL.c ****     #if (CapSense_MULTI_FREQ_SCAN_EN == CapSense_ENABLE)
 614:.\Generated_Source\PSoC4/CapSense_SensingCSX_LL.c ****         CapSense_scanFreqIndex = 0u;
 615:.\Generated_Source\PSoC4/CapSense_SensingCSX_LL.c ****     #endif
 616:.\Generated_Source\PSoC4/CapSense_SensingCSX_LL.c **** 
 617:.\Generated_Source\PSoC4/CapSense_SensingCSX_LL.c ****     /*  Set busy flag and start conversion  */
 618:.\Generated_Source\PSoC4/CapSense_SensingCSX_LL.c ****     CapSense_dsRam.status |= CapSense_SW_STS_BUSY;
 619:.\Generated_Source\PSoC4/CapSense_SensingCSX_LL.c ****     CapSense_SsCSXStartSample();
 620:.\Generated_Source\PSoC4/CapSense_SensingCSX_LL.c **** }
 621:.\Generated_Source\PSoC4/CapSense_SensingCSX_LL.c **** 
 622:.\Generated_Source\PSoC4/CapSense_SensingCSX_LL.c **** /*******************************************************************************
 623:.\Generated_Source\PSoC4/CapSense_SensingCSX_LL.c **** * Function Name: CapSense_SsSetIOsInDefaultState
 624:.\Generated_Source\PSoC4/CapSense_SensingCSX_LL.c **** ****************************************************************************//**
 625:.\Generated_Source\PSoC4/CapSense_SensingCSX_LL.c **** *
 626:.\Generated_Source\PSoC4/CapSense_SensingCSX_LL.c **** * \brief
 627:.\Generated_Source\PSoC4/CapSense_SensingCSX_LL.c **** *   Sets all electrodes into a default state.
 628:.\Generated_Source\PSoC4/CapSense_SensingCSX_LL.c **** *
 629:.\Generated_Source\PSoC4/CapSense_SensingCSX_LL.c **** * \details
 630:.\Generated_Source\PSoC4/CapSense_SensingCSX_LL.c **** *   Sets all IOs into a default state:
 631:.\Generated_Source\PSoC4/CapSense_SensingCSX_LL.c **** *   - HSIOM   - Disconnected, the GPIO mode.
 632:.\Generated_Source\PSoC4/CapSense_SensingCSX_LL.c **** *   - DM      - Strong drive.
 633:.\Generated_Source\PSoC4/CapSense_SensingCSX_LL.c **** *   - State   - Zero.
 634:.\Generated_Source\PSoC4/CapSense_SensingCSX_LL.c **** *
 635:.\Generated_Source\PSoC4/CapSense_SensingCSX_LL.c **** *   It is not recommended to call this function directly from the application
 636:.\Generated_Source\PSoC4/CapSense_SensingCSX_LL.c **** *   layer.
 637:.\Generated_Source\PSoC4/CapSense_SensingCSX_LL.c **** *
 638:.\Generated_Source\PSoC4/CapSense_SensingCSX_LL.c **** *******************************************************************************/
 639:.\Generated_Source\PSoC4/CapSense_SensingCSX_LL.c **** 
 640:.\Generated_Source\PSoC4/CapSense_SensingCSX_LL.c **** static void CapSense_SsSetIOsInDefaultState(void)
 641:.\Generated_Source\PSoC4/CapSense_SensingCSX_LL.c **** {
  25              		.loc 1 641 0
  26              		.cfi_startproc
  27 0000 30B5     		push	{r4, r5, lr}
  28              		.cfi_def_cfa_offset 12
  29              		.cfi_offset 4, -12
  30              		.cfi_offset 5, -8
  31              		.cfi_offset 14, -4
  32              	.LVL0:
 642:.\Generated_Source\PSoC4/CapSense_SensingCSX_LL.c ****     CapSense_FLASH_IO_STRUCT const *ioPtr = &CapSense_ioList[0u];
 643:.\Generated_Source\PSoC4/CapSense_SensingCSX_LL.c ****     uint32 loopIndex;
 644:.\Generated_Source\PSoC4/CapSense_SensingCSX_LL.c ****     uint32 regValue;
 645:.\Generated_Source\PSoC4/CapSense_SensingCSX_LL.c **** 
 646:.\Generated_Source\PSoC4/CapSense_SensingCSX_LL.c ****     /*  Loop through all electrodes */
 647:.\Generated_Source\PSoC4/CapSense_SensingCSX_LL.c ****     for (loopIndex = 0u; loopIndex < CapSense_TOTAL_ELECTRODES; loopIndex++)
  33              		.loc 1 647 0
  34 0002 0020     		mov	r0, #0
 642:.\Generated_Source\PSoC4/CapSense_SensingCSX_LL.c ****     CapSense_FLASH_IO_STRUCT const *ioPtr = &CapSense_ioList[0u];
  35              		.loc 1 642 0
  36 0004 0D4B     		ldr	r3, .L4
ARM GAS  C:\Users\Alan\AppData\Local\Temp\ccbGKewn.s 			page 13


  37              		.loc 1 647 0
  38 0006 16E0     		b	.L2
  39              	.LVL1:
  40              	.L3:
 648:.\Generated_Source\PSoC4/CapSense_SensingCSX_LL.c ****     {
 649:.\Generated_Source\PSoC4/CapSense_SensingCSX_LL.c ****         /*  1. Disconnect HSIOM
 650:.\Generated_Source\PSoC4/CapSense_SensingCSX_LL.c ****             2. Set strong DM
 651:.\Generated_Source\PSoC4/CapSense_SensingCSX_LL.c ****             3. Set pin state to logic 0     */
 652:.\Generated_Source\PSoC4/CapSense_SensingCSX_LL.c ****         regValue = CY_GET_REG32 (ioPtr->hsiomPtr);
  41              		.loc 1 652 0 discriminator 3
  42 0008 1968     		ldr	r1, [r3]
  43 000a 0A68     		ldr	r2, [r1]
  44              	.LVL2:
 653:.\Generated_Source\PSoC4/CapSense_SensingCSX_LL.c ****         regValue &= ~(ioPtr->hsiomMask);
  45              		.loc 1 653 0 discriminator 3
  46 000c 1C69     		ldr	r4, [r3, #16]
  47 000e A243     		bic	r2, r4
  48              	.LVL3:
 654:.\Generated_Source\PSoC4/CapSense_SensingCSX_LL.c ****         CY_SET_REG32 (ioPtr->hsiomPtr, regValue);
  49              		.loc 1 654 0 discriminator 3
  50 0010 0A60     		str	r2, [r1]
 655:.\Generated_Source\PSoC4/CapSense_SensingCSX_LL.c **** 
 656:.\Generated_Source\PSoC4/CapSense_SensingCSX_LL.c ****         regValue = CY_GET_REG32 (ioPtr->pcPtr);
  51              		.loc 1 656 0 discriminator 3
  52 0012 5C68     		ldr	r4, [r3, #4]
  53 0014 2268     		ldr	r2, [r4]
  54              	.LVL4:
 657:.\Generated_Source\PSoC4/CapSense_SensingCSX_LL.c ****         regValue &= ~(CapSense_GPIO_PC_MASK << ioPtr->shift);
  55              		.loc 1 657 0 discriminator 3
  56 0016 9D7E     		ldrb	r5, [r3, #26]
  57 0018 0721     		mov	r1, #7
  58 001a A940     		lsl	r1, r1, r5
  59 001c 8A43     		bic	r2, r1
  60              	.LVL5:
  61 001e 111C     		mov	r1, r2
  62              	.LVL6:
 658:.\Generated_Source\PSoC4/CapSense_SensingCSX_LL.c ****         regValue |=  (CapSense_GPIO_STRGDRV << ioPtr->shift);
  63              		.loc 1 658 0 discriminator 3
  64 0020 0622     		mov	r2, #6
  65 0022 AA40     		lsl	r2, r2, r5
  66 0024 0A43     		orr	r2, r1
  67              	.LVL7:
 659:.\Generated_Source\PSoC4/CapSense_SensingCSX_LL.c ****         CY_SET_REG32 (ioPtr->pcPtr, regValue);
  68              		.loc 1 659 0 discriminator 3
  69 0026 2260     		str	r2, [r4]
 660:.\Generated_Source\PSoC4/CapSense_SensingCSX_LL.c **** 
 661:.\Generated_Source\PSoC4/CapSense_SensingCSX_LL.c ****         regValue = CY_GET_REG32 (ioPtr->drPtr);
  70              		.loc 1 661 0 discriminator 3
  71 0028 9968     		ldr	r1, [r3, #8]
  72 002a 0A68     		ldr	r2, [r1]
  73              	.LVL8:
 662:.\Generated_Source\PSoC4/CapSense_SensingCSX_LL.c ****         regValue &= ~(ioPtr->mask);
  74              		.loc 1 662 0 discriminator 3
  75 002c 5C69     		ldr	r4, [r3, #20]
  76 002e A243     		bic	r2, r4
  77              	.LVL9:
 663:.\Generated_Source\PSoC4/CapSense_SensingCSX_LL.c ****         CY_SET_REG32 (ioPtr->drPtr, regValue);
ARM GAS  C:\Users\Alan\AppData\Local\Temp\ccbGKewn.s 			page 14


  78              		.loc 1 663 0 discriminator 3
  79 0030 0A60     		str	r2, [r1]
 664:.\Generated_Source\PSoC4/CapSense_SensingCSX_LL.c **** 
 665:.\Generated_Source\PSoC4/CapSense_SensingCSX_LL.c ****         /*  Get next electrode  */
 666:.\Generated_Source\PSoC4/CapSense_SensingCSX_LL.c ****         ioPtr++;
  80              		.loc 1 666 0 discriminator 3
  81 0032 1C33     		add	r3, r3, #28
  82              	.LVL10:
 647:.\Generated_Source\PSoC4/CapSense_SensingCSX_LL.c ****     {
  83              		.loc 1 647 0 discriminator 3
  84 0034 0130     		add	r0, r0, #1
  85              	.LVL11:
  86              	.L2:
 647:.\Generated_Source\PSoC4/CapSense_SensingCSX_LL.c ****     {
  87              		.loc 1 647 0 is_stmt 0 discriminator 1
  88 0036 0528     		cmp	r0, #5
  89 0038 E6D9     		bls	.L3
 667:.\Generated_Source\PSoC4/CapSense_SensingCSX_LL.c ****     }
 668:.\Generated_Source\PSoC4/CapSense_SensingCSX_LL.c **** }
  90              		.loc 1 668 0 is_stmt 1
  91              		@ sp needed
  92 003a 30BD     		pop	{r4, r5, pc}
  93              	.L5:
  94              		.align	2
  95              	.L4:
  96 003c 00000000 		.word	CapSense_ioList
  97              		.cfi_endproc
  98              	.LFE7:
  99              		.size	CapSense_SsSetIOsInDefaultState, .-CapSense_SsSetIOsInDefaultState
 100              		.section	.text.CapSense_SsCSXPostSingleScan,"ax",%progbits
 101              		.align	2
 102              		.code	16
 103              		.thumb_func
 104              		.type	CapSense_SsCSXPostSingleScan, %function
 105              	CapSense_SsCSXPostSingleScan:
 106              	.LFB9:
 669:.\Generated_Source\PSoC4/CapSense_SensingCSX_LL.c **** 
 670:.\Generated_Source\PSoC4/CapSense_SensingCSX_LL.c **** /*******************************************************************************
 671:.\Generated_Source\PSoC4/CapSense_SensingCSX_LL.c **** * Function Name: CapSense_SsCSXPostMultiScan
 672:.\Generated_Source\PSoC4/CapSense_SensingCSX_LL.c **** ****************************************************************************//**
 673:.\Generated_Source\PSoC4/CapSense_SensingCSX_LL.c **** *
 674:.\Generated_Source\PSoC4/CapSense_SensingCSX_LL.c **** * \brief
 675:.\Generated_Source\PSoC4/CapSense_SensingCSX_LL.c **** *   ISR function implements the multiple sensor scanning for un-ganged CSX widgets.
 676:.\Generated_Source\PSoC4/CapSense_SensingCSX_LL.c **** *   This function is called by the component ISR only, it should not be used by
 677:.\Generated_Source\PSoC4/CapSense_SensingCSX_LL.c **** *   the application layer.
 678:.\Generated_Source\PSoC4/CapSense_SensingCSX_LL.c **** *
 679:.\Generated_Source\PSoC4/CapSense_SensingCSX_LL.c **** *******************************************************************************/
 680:.\Generated_Source\PSoC4/CapSense_SensingCSX_LL.c **** 
 681:.\Generated_Source\PSoC4/CapSense_SensingCSX_LL.c **** static void CapSense_SsCSXPostMultiScan(void)
 682:.\Generated_Source\PSoC4/CapSense_SensingCSX_LL.c **** {
 683:.\Generated_Source\PSoC4/CapSense_SensingCSX_LL.c ****     #ifdef CapSense_ENTRY_CALLBACK
 684:.\Generated_Source\PSoC4/CapSense_SensingCSX_LL.c ****         CapSense_EntryCallback();
 685:.\Generated_Source\PSoC4/CapSense_SensingCSX_LL.c ****     #endif /* CapSense_ENTRY_CALLBACK */
 686:.\Generated_Source\PSoC4/CapSense_SensingCSX_LL.c **** 
 687:.\Generated_Source\PSoC4/CapSense_SensingCSX_LL.c ****     /*  Copy scan result into sensor raw count array    */
 688:.\Generated_Source\PSoC4/CapSense_SensingCSX_LL.c ****     CapSense_curRamSnsPtr->raw[CapSense_scanFreqIndex] = \
 689:.\Generated_Source\PSoC4/CapSense_SensingCSX_LL.c ****                              (CapSense_csxScanPeriod - CapSense_csxRawCount);
ARM GAS  C:\Users\Alan\AppData\Local\Temp\ccbGKewn.s 			page 15


 690:.\Generated_Source\PSoC4/CapSense_SensingCSX_LL.c **** 
 691:.\Generated_Source\PSoC4/CapSense_SensingCSX_LL.c ****     #if (CapSense_MULTI_FREQ_SCAN_EN == CapSense_ENABLE)
 692:.\Generated_Source\PSoC4/CapSense_SensingCSX_LL.c ****     /*  Increment frequency hopping index and imitate next scan if all channels
 693:.\Generated_Source\PSoC4/CapSense_SensingCSX_LL.c ****         are not scanned */
 694:.\Generated_Source\PSoC4/CapSense_SensingCSX_LL.c ****         CapSense_scanFreqIndex++;
 695:.\Generated_Source\PSoC4/CapSense_SensingCSX_LL.c ****         if (CapSense_scanFreqIndex < 3u)
 696:.\Generated_Source\PSoC4/CapSense_SensingCSX_LL.c ****         {
 697:.\Generated_Source\PSoC4/CapSense_SensingCSX_LL.c ****             /*  Change IMO frequency and start sample   */
 698:.\Generated_Source\PSoC4/CapSense_SensingCSX_LL.c ****                 CapSense_ChangeImoFreq (CapSense_scanFreqIndex);
 699:.\Generated_Source\PSoC4/CapSense_SensingCSX_LL.c ****                 CapSense_SsCSXStartSample ();
 700:.\Generated_Source\PSoC4/CapSense_SensingCSX_LL.c ****         }
 701:.\Generated_Source\PSoC4/CapSense_SensingCSX_LL.c ****         else
 702:.\Generated_Source\PSoC4/CapSense_SensingCSX_LL.c ****     #endif
 703:.\Generated_Source\PSoC4/CapSense_SensingCSX_LL.c ****         {
 704:.\Generated_Source\PSoC4/CapSense_SensingCSX_LL.c ****             /*  Restore IMO clock, Reset frequency hopping channel counter, if FH is enabled.   */
 705:.\Generated_Source\PSoC4/CapSense_SensingCSX_LL.c ****             #if (CapSense_MULTI_FREQ_SCAN_EN == CapSense_ENABLE)
 706:.\Generated_Source\PSoC4/CapSense_SensingCSX_LL.c ****                 CapSense_ChangeImoFreq (0u);
 707:.\Generated_Source\PSoC4/CapSense_SensingCSX_LL.c ****                 CapSense_scanFreqIndex = 0u;
 708:.\Generated_Source\PSoC4/CapSense_SensingCSX_LL.c ****             #endif
 709:.\Generated_Source\PSoC4/CapSense_SensingCSX_LL.c **** 
 710:.\Generated_Source\PSoC4/CapSense_SensingCSX_LL.c ****             /*  Disconnect Tx electrodes of previously scanned sensor as
 711:.\Generated_Source\PSoC4/CapSense_SensingCSX_LL.c ****                 preparation for next sensor scan    */
 712:.\Generated_Source\PSoC4/CapSense_SensingCSX_LL.c ****             CapSense_CSXDisconnectTx (CapSense_curTxIOPtr);
 713:.\Generated_Source\PSoC4/CapSense_SensingCSX_LL.c **** 
 714:.\Generated_Source\PSoC4/CapSense_SensingCSX_LL.c ****             /*  Initiate scan for next sensor in widget, if all sensors in
 715:.\Generated_Source\PSoC4/CapSense_SensingCSX_LL.c ****                 widget are not scanned */
 716:.\Generated_Source\PSoC4/CapSense_SensingCSX_LL.c ****             CapSense_curWdgtTotalTx--;
 717:.\Generated_Source\PSoC4/CapSense_SensingCSX_LL.c ****             if (CapSense_curWdgtTotalTx > 0u)
 718:.\Generated_Source\PSoC4/CapSense_SensingCSX_LL.c ****             {
 719:.\Generated_Source\PSoC4/CapSense_SensingCSX_LL.c ****                 /*  1. Increment pointer to next Tx
 720:.\Generated_Source\PSoC4/CapSense_SensingCSX_LL.c ****                     2. Connect next Rx for scan
 721:.\Generated_Source\PSoC4/CapSense_SensingCSX_LL.c ****                     3. Increment pointer to sns data    */
 722:.\Generated_Source\PSoC4/CapSense_SensingCSX_LL.c ****                 CapSense_curTxIOPtr++;
 723:.\Generated_Source\PSoC4/CapSense_SensingCSX_LL.c ****                 CapSense_CSXConnectTx (CapSense_curTxIOPtr);
 724:.\Generated_Source\PSoC4/CapSense_SensingCSX_LL.c ****                 CapSense_curRamSnsPtr++;
 725:.\Generated_Source\PSoC4/CapSense_SensingCSX_LL.c **** 
 726:.\Generated_Source\PSoC4/CapSense_SensingCSX_LL.c ****                 /*  Reset scan result holder, and initiate scan */
 727:.\Generated_Source\PSoC4/CapSense_SensingCSX_LL.c ****                 CapSense_SsCSXStartSample();
 728:.\Generated_Source\PSoC4/CapSense_SensingCSX_LL.c ****             }
 729:.\Generated_Source\PSoC4/CapSense_SensingCSX_LL.c **** 
 730:.\Generated_Source\PSoC4/CapSense_SensingCSX_LL.c ****             /*  Check if all Rx are looped through  */
 731:.\Generated_Source\PSoC4/CapSense_SensingCSX_LL.c ****             else
 732:.\Generated_Source\PSoC4/CapSense_SensingCSX_LL.c ****             {
 733:.\Generated_Source\PSoC4/CapSense_SensingCSX_LL.c ****                 CapSense_curWdgtTotalRx--;
 734:.\Generated_Source\PSoC4/CapSense_SensingCSX_LL.c ****                 if (CapSense_curWdgtTotalRx > 0u)
 735:.\Generated_Source\PSoC4/CapSense_SensingCSX_LL.c ****                 {
 736:.\Generated_Source\PSoC4/CapSense_SensingCSX_LL.c ****                     /*  1. Disconnect current Rx electrode
 737:.\Generated_Source\PSoC4/CapSense_SensingCSX_LL.c ****                         2. Connect next Rx electrode
 738:.\Generated_Source\PSoC4/CapSense_SensingCSX_LL.c ****                         3. Re-initialize total Tx to be scanned per Rx
 739:.\Generated_Source\PSoC4/CapSense_SensingCSX_LL.c ****                         4. Find first Tx electrode again
 740:.\Generated_Source\PSoC4/CapSense_SensingCSX_LL.c ****                         5. Connect first Tx electrode   */
 741:.\Generated_Source\PSoC4/CapSense_SensingCSX_LL.c ****                     CapSense_CSXDisconnectRx(CapSense_curRxIOPtr);
 742:.\Generated_Source\PSoC4/CapSense_SensingCSX_LL.c ****                     CapSense_curRxIOPtr++;
 743:.\Generated_Source\PSoC4/CapSense_SensingCSX_LL.c ****                     CapSense_CSXConnectRx(CapSense_curRxIOPtr);
 744:.\Generated_Source\PSoC4/CapSense_SensingCSX_LL.c ****                     CapSense_curWdgtTotalTx  = CapSense_curFlashWdgtPtr->numRows;
 745:.\Generated_Source\PSoC4/CapSense_SensingCSX_LL.c ****                     CapSense_curTxIOPtr = (CapSense_FLASH_IO_STRUCT const *)CapSense_curFlashWdgtPt
 746:.\Generated_Source\PSoC4/CapSense_SensingCSX_LL.c ****                     CapSense_curTxIOPtr = & CapSense_curTxIOPtr[(CapSense_curFlashWdgtPtr->numCols)
ARM GAS  C:\Users\Alan\AppData\Local\Temp\ccbGKewn.s 			page 16


 747:.\Generated_Source\PSoC4/CapSense_SensingCSX_LL.c ****                     CapSense_CSXConnectTx(CapSense_curTxIOPtr);
 748:.\Generated_Source\PSoC4/CapSense_SensingCSX_LL.c **** 
 749:.\Generated_Source\PSoC4/CapSense_SensingCSX_LL.c ****                     /*  Increment RAM sensor pointer pointer    */
 750:.\Generated_Source\PSoC4/CapSense_SensingCSX_LL.c ****                     CapSense_curRamSnsPtr++;
 751:.\Generated_Source\PSoC4/CapSense_SensingCSX_LL.c **** 
 752:.\Generated_Source\PSoC4/CapSense_SensingCSX_LL.c ****                     /*  Initiate sample */
 753:.\Generated_Source\PSoC4/CapSense_SensingCSX_LL.c ****                     CapSense_SsCSXStartSample();
 754:.\Generated_Source\PSoC4/CapSense_SensingCSX_LL.c ****                 }
 755:.\Generated_Source\PSoC4/CapSense_SensingCSX_LL.c ****                 else
 756:.\Generated_Source\PSoC4/CapSense_SensingCSX_LL.c ****                 {
 757:.\Generated_Source\PSoC4/CapSense_SensingCSX_LL.c ****                     /*  If all sensors are scanned, disconnect Tx   */
 758:.\Generated_Source\PSoC4/CapSense_SensingCSX_LL.c ****                     CapSense_CSXDisconnectRx(CapSense_curRxIOPtr);
 759:.\Generated_Source\PSoC4/CapSense_SensingCSX_LL.c **** 
 760:.\Generated_Source\PSoC4/CapSense_SensingCSX_LL.c ****                     /*  Call scan next widget API if requested, if not, complete scan   */
 761:.\Generated_Source\PSoC4/CapSense_SensingCSX_LL.c ****                     if (CapSense_requestScanAllWidget != 0u)
 762:.\Generated_Source\PSoC4/CapSense_SensingCSX_LL.c ****                     {
 763:.\Generated_Source\PSoC4/CapSense_SensingCSX_LL.c ****                         CapSense_PostAllWidgetsScan();
 764:.\Generated_Source\PSoC4/CapSense_SensingCSX_LL.c ****                     }
 765:.\Generated_Source\PSoC4/CapSense_SensingCSX_LL.c ****                     else
 766:.\Generated_Source\PSoC4/CapSense_SensingCSX_LL.c ****                     {
 767:.\Generated_Source\PSoC4/CapSense_SensingCSX_LL.c ****                         /* All pending scans completed,
 768:.\Generated_Source\PSoC4/CapSense_SensingCSX_LL.c ****                             1. update the counter to indicat same
 769:.\Generated_Source\PSoC4/CapSense_SensingCSX_LL.c ****                             2. Clear busy state as scanning is completed      */
 770:.\Generated_Source\PSoC4/CapSense_SensingCSX_LL.c ****                         CapSense_dsRam.scanCounter++;
 771:.\Generated_Source\PSoC4/CapSense_SensingCSX_LL.c ****                         CapSense_dsRam.status &= ~CapSense_SW_STS_BUSY;
 772:.\Generated_Source\PSoC4/CapSense_SensingCSX_LL.c ****                     }
 773:.\Generated_Source\PSoC4/CapSense_SensingCSX_LL.c ****                 }
 774:.\Generated_Source\PSoC4/CapSense_SensingCSX_LL.c ****             }
 775:.\Generated_Source\PSoC4/CapSense_SensingCSX_LL.c ****         }
 776:.\Generated_Source\PSoC4/CapSense_SensingCSX_LL.c **** 
 777:.\Generated_Source\PSoC4/CapSense_SensingCSX_LL.c ****     #ifdef CapSense_EXIT_CALLBACK
 778:.\Generated_Source\PSoC4/CapSense_SensingCSX_LL.c ****         CapSense_ExitCallBack();
 779:.\Generated_Source\PSoC4/CapSense_SensingCSX_LL.c ****     #endif /* CapSense_EXIT_CALLBACK */
 780:.\Generated_Source\PSoC4/CapSense_SensingCSX_LL.c **** }
 781:.\Generated_Source\PSoC4/CapSense_SensingCSX_LL.c **** 
 782:.\Generated_Source\PSoC4/CapSense_SensingCSX_LL.c **** 
 783:.\Generated_Source\PSoC4/CapSense_SensingCSX_LL.c **** /*******************************************************************************
 784:.\Generated_Source\PSoC4/CapSense_SensingCSX_LL.c **** * Function Name: CapSense_SsCSXPostMultiScanGanged
 785:.\Generated_Source\PSoC4/CapSense_SensingCSX_LL.c **** ****************************************************************************//**
 786:.\Generated_Source\PSoC4/CapSense_SensingCSX_LL.c **** *
 787:.\Generated_Source\PSoC4/CapSense_SensingCSX_LL.c **** * \brief
 788:.\Generated_Source\PSoC4/CapSense_SensingCSX_LL.c **** *   The ISR function implements the multiple sensor scanning for ganged CSX widgets.
 789:.\Generated_Source\PSoC4/CapSense_SensingCSX_LL.c **** *   This function is called by the Component ISR only, should not be used by
 790:.\Generated_Source\PSoC4/CapSense_SensingCSX_LL.c **** *   the application layer.
 791:.\Generated_Source\PSoC4/CapSense_SensingCSX_LL.c **** *
 792:.\Generated_Source\PSoC4/CapSense_SensingCSX_LL.c **** * \details
 793:.\Generated_Source\PSoC4/CapSense_SensingCSX_LL.c **** *   The ISR function implements the multiple sensor scanning for ganged CSX widgets.
 794:.\Generated_Source\PSoC4/CapSense_SensingCSX_LL.c **** *   This function is called by the Component ISR only, should not be used by
 795:.\Generated_Source\PSoC4/CapSense_SensingCSX_LL.c **** *   the application layer.
 796:.\Generated_Source\PSoC4/CapSense_SensingCSX_LL.c **** *
 797:.\Generated_Source\PSoC4/CapSense_SensingCSX_LL.c **** *******************************************************************************/
 798:.\Generated_Source\PSoC4/CapSense_SensingCSX_LL.c **** #if (CapSense_CSX_GANGED_SNS_EN == 1u)
 799:.\Generated_Source\PSoC4/CapSense_SensingCSX_LL.c **** 
 800:.\Generated_Source\PSoC4/CapSense_SensingCSX_LL.c **** static void CapSense_SsCSXPostMultiScanGanged(void)
 801:.\Generated_Source\PSoC4/CapSense_SensingCSX_LL.c **** {
 802:.\Generated_Source\PSoC4/CapSense_SensingCSX_LL.c ****     uint32 numElectrodes;
 803:.\Generated_Source\PSoC4/CapSense_SensingCSX_LL.c **** 
ARM GAS  C:\Users\Alan\AppData\Local\Temp\ccbGKewn.s 			page 17


 804:.\Generated_Source\PSoC4/CapSense_SensingCSX_LL.c ****     #ifdef CapSense_ENTRY_CALLBACK
 805:.\Generated_Source\PSoC4/CapSense_SensingCSX_LL.c ****         CapSense_EntryCallback();
 806:.\Generated_Source\PSoC4/CapSense_SensingCSX_LL.c ****     #endif /* CapSense_ENTRY_CALLBACK */
 807:.\Generated_Source\PSoC4/CapSense_SensingCSX_LL.c **** 
 808:.\Generated_Source\PSoC4/CapSense_SensingCSX_LL.c ****     /*  Copy scan result into sensor raw count array    */
 809:.\Generated_Source\PSoC4/CapSense_SensingCSX_LL.c ****     CapSense_curRamSnsPtr->raw[CapSense_scanFreqIndex] = \
 810:.\Generated_Source\PSoC4/CapSense_SensingCSX_LL.c ****                     (CapSense_csxScanPeriod - CapSense_csxRawCount);
 811:.\Generated_Source\PSoC4/CapSense_SensingCSX_LL.c **** 
 812:.\Generated_Source\PSoC4/CapSense_SensingCSX_LL.c ****     #if (CapSense_MULTI_FREQ_SCAN_EN == CapSense_ENABLE)
 813:.\Generated_Source\PSoC4/CapSense_SensingCSX_LL.c ****     /*  Increment frequency hopping index and initiate next scan if all channels are not scanned */
 814:.\Generated_Source\PSoC4/CapSense_SensingCSX_LL.c ****         CapSense_scanFreqIndex++;
 815:.\Generated_Source\PSoC4/CapSense_SensingCSX_LL.c ****         if (CapSense_scanFreqIndex < 3u)
 816:.\Generated_Source\PSoC4/CapSense_SensingCSX_LL.c ****         {
 817:.\Generated_Source\PSoC4/CapSense_SensingCSX_LL.c ****             /*  Change IMO frequency and start sample   */
 818:.\Generated_Source\PSoC4/CapSense_SensingCSX_LL.c ****             CapSense_ChangeImoFreq (CapSense_scanFreqIndex);
 819:.\Generated_Source\PSoC4/CapSense_SensingCSX_LL.c ****             CapSense_SsCSXStartSample();
 820:.\Generated_Source\PSoC4/CapSense_SensingCSX_LL.c ****         }
 821:.\Generated_Source\PSoC4/CapSense_SensingCSX_LL.c ****         else
 822:.\Generated_Source\PSoC4/CapSense_SensingCSX_LL.c ****     #endif
 823:.\Generated_Source\PSoC4/CapSense_SensingCSX_LL.c ****         {
 824:.\Generated_Source\PSoC4/CapSense_SensingCSX_LL.c ****             /*  Restore IMO clock, Reset frequency hopping channel counter, if FH is enabled.   */
 825:.\Generated_Source\PSoC4/CapSense_SensingCSX_LL.c ****             #if (CapSense_MULTI_FREQ_SCAN_EN == CapSense_ENABLE)
 826:.\Generated_Source\PSoC4/CapSense_SensingCSX_LL.c ****                 CapSense_ChangeImoFreq (0u);
 827:.\Generated_Source\PSoC4/CapSense_SensingCSX_LL.c ****                 CapSense_scanFreqIndex = 0u;
 828:.\Generated_Source\PSoC4/CapSense_SensingCSX_LL.c ****             #endif
 829:.\Generated_Source\PSoC4/CapSense_SensingCSX_LL.c **** 
 830:.\Generated_Source\PSoC4/CapSense_SensingCSX_LL.c ****             /*  Disconnect ALL pins of previously scanned Tx     */
 831:.\Generated_Source\PSoC4/CapSense_SensingCSX_LL.c ****             numElectrodes = CapSense_curGangTxPtr->numPins ;
 832:.\Generated_Source\PSoC4/CapSense_SensingCSX_LL.c ****             CapSense_curTxIOPtr = &CapSense_ioList[CapSense_curGangTxPtr->firstPinId];
 833:.\Generated_Source\PSoC4/CapSense_SensingCSX_LL.c ****             do
 834:.\Generated_Source\PSoC4/CapSense_SensingCSX_LL.c ****             {
 835:.\Generated_Source\PSoC4/CapSense_SensingCSX_LL.c ****                 CapSense_CSXDisconnectTx (CapSense_curTxIOPtr++);
 836:.\Generated_Source\PSoC4/CapSense_SensingCSX_LL.c ****                 numElectrodes--;
 837:.\Generated_Source\PSoC4/CapSense_SensingCSX_LL.c ****             } while (0u != numElectrodes);
 838:.\Generated_Source\PSoC4/CapSense_SensingCSX_LL.c **** 
 839:.\Generated_Source\PSoC4/CapSense_SensingCSX_LL.c ****             /*  Check if all Tx are scanned, if not, initiate scan for next Tx  */
 840:.\Generated_Source\PSoC4/CapSense_SensingCSX_LL.c ****             CapSense_curWdgtTotalTx--;
 841:.\Generated_Source\PSoC4/CapSense_SensingCSX_LL.c ****             if (CapSense_curWdgtTotalTx > 0u)
 842:.\Generated_Source\PSoC4/CapSense_SensingCSX_LL.c ****             {
 843:.\Generated_Source\PSoC4/CapSense_SensingCSX_LL.c ****                 /*  1. Find pointer of next Tx (ganged)
 844:.\Generated_Source\PSoC4/CapSense_SensingCSX_LL.c ****                     2. Connect all Tx pins        */
 845:.\Generated_Source\PSoC4/CapSense_SensingCSX_LL.c ****                 CapSense_curGangTxPtr++;
 846:.\Generated_Source\PSoC4/CapSense_SensingCSX_LL.c ****                 numElectrodes = CapSense_curGangTxPtr->numPins ;
 847:.\Generated_Source\PSoC4/CapSense_SensingCSX_LL.c ****                 CapSense_curTxIOPtr = &CapSense_ioList[CapSense_curGangTxPtr->firstPinId];
 848:.\Generated_Source\PSoC4/CapSense_SensingCSX_LL.c ****                 do
 849:.\Generated_Source\PSoC4/CapSense_SensingCSX_LL.c ****                 {
 850:.\Generated_Source\PSoC4/CapSense_SensingCSX_LL.c ****                     CapSense_CSXConnectTx(CapSense_curTxIOPtr++);
 851:.\Generated_Source\PSoC4/CapSense_SensingCSX_LL.c ****                     numElectrodes--;
 852:.\Generated_Source\PSoC4/CapSense_SensingCSX_LL.c ****                 } while (0u != numElectrodes);
 853:.\Generated_Source\PSoC4/CapSense_SensingCSX_LL.c **** 
 854:.\Generated_Source\PSoC4/CapSense_SensingCSX_LL.c ****                 /*  Increment RAM pointer to next sensor    */
 855:.\Generated_Source\PSoC4/CapSense_SensingCSX_LL.c ****                 CapSense_curRamSnsPtr++;
 856:.\Generated_Source\PSoC4/CapSense_SensingCSX_LL.c **** 
 857:.\Generated_Source\PSoC4/CapSense_SensingCSX_LL.c ****                 /*  Reset scan result holder and initiate scan */
 858:.\Generated_Source\PSoC4/CapSense_SensingCSX_LL.c ****                 CapSense_SsCSXStartSample();
 859:.\Generated_Source\PSoC4/CapSense_SensingCSX_LL.c ****             }
 860:.\Generated_Source\PSoC4/CapSense_SensingCSX_LL.c ****             else
ARM GAS  C:\Users\Alan\AppData\Local\Temp\ccbGKewn.s 			page 18


 861:.\Generated_Source\PSoC4/CapSense_SensingCSX_LL.c ****             {
 862:.\Generated_Source\PSoC4/CapSense_SensingCSX_LL.c ****                 /*  Check if all Rx are scanned, if not, initiate scan for next Rx  */
 863:.\Generated_Source\PSoC4/CapSense_SensingCSX_LL.c ****                 CapSense_curWdgtTotalRx--;
 864:.\Generated_Source\PSoC4/CapSense_SensingCSX_LL.c ****                 if (CapSense_curWdgtTotalRx > 0u)
 865:.\Generated_Source\PSoC4/CapSense_SensingCSX_LL.c ****                 {
 866:.\Generated_Source\PSoC4/CapSense_SensingCSX_LL.c ****                     /*  1. Disconnect current Rx ALL pins   */
 867:.\Generated_Source\PSoC4/CapSense_SensingCSX_LL.c ****                     numElectrodes = CapSense_curGangRxPtr->numPins ;
 868:.\Generated_Source\PSoC4/CapSense_SensingCSX_LL.c ****                     CapSense_curRxIOPtr = &CapSense_ioList[CapSense_curGangRxPtr->firstPinId];
 869:.\Generated_Source\PSoC4/CapSense_SensingCSX_LL.c ****                     do
 870:.\Generated_Source\PSoC4/CapSense_SensingCSX_LL.c ****                     {
 871:.\Generated_Source\PSoC4/CapSense_SensingCSX_LL.c ****                         CapSense_CSXDisconnectRx(CapSense_curRxIOPtr++);
 872:.\Generated_Source\PSoC4/CapSense_SensingCSX_LL.c ****                         numElectrodes--;
 873:.\Generated_Source\PSoC4/CapSense_SensingCSX_LL.c ****                     } while (0u != numElectrodes);
 874:.\Generated_Source\PSoC4/CapSense_SensingCSX_LL.c **** 
 875:.\Generated_Source\PSoC4/CapSense_SensingCSX_LL.c ****                     /*  2. Connect next Rx ALL pins */
 876:.\Generated_Source\PSoC4/CapSense_SensingCSX_LL.c ****                     CapSense_curGangRxPtr++;
 877:.\Generated_Source\PSoC4/CapSense_SensingCSX_LL.c ****                     numElectrodes = CapSense_curGangRxPtr->numPins ;
 878:.\Generated_Source\PSoC4/CapSense_SensingCSX_LL.c ****                     CapSense_curRxIOPtr = &CapSense_ioList[CapSense_curGangRxPtr->firstPinId];
 879:.\Generated_Source\PSoC4/CapSense_SensingCSX_LL.c ****                     do
 880:.\Generated_Source\PSoC4/CapSense_SensingCSX_LL.c ****                     {
 881:.\Generated_Source\PSoC4/CapSense_SensingCSX_LL.c ****                         CapSense_CSXConnectRx(CapSense_curRxIOPtr++);
 882:.\Generated_Source\PSoC4/CapSense_SensingCSX_LL.c ****                         numElectrodes--;
 883:.\Generated_Source\PSoC4/CapSense_SensingCSX_LL.c ****                     } while (0u != numElectrodes);
 884:.\Generated_Source\PSoC4/CapSense_SensingCSX_LL.c **** 
 885:.\Generated_Source\PSoC4/CapSense_SensingCSX_LL.c ****                     /*  3. Re-initialize total Tx to be scanned per Rx
 886:.\Generated_Source\PSoC4/CapSense_SensingCSX_LL.c ****                         4. Find first Tx  again
 887:.\Generated_Source\PSoC4/CapSense_SensingCSX_LL.c ****                         5. Connect first Tx ALL pins    */
 888:.\Generated_Source\PSoC4/CapSense_SensingCSX_LL.c ****                     CapSense_curWdgtTotalTx = CapSense_curFlashWdgtPtr->numRows;
 889:.\Generated_Source\PSoC4/CapSense_SensingCSX_LL.c ****                     CapSense_curGangTxPtr = CapSense_curFlashWdgtPtr->ptr2SnsFlash;
 890:.\Generated_Source\PSoC4/CapSense_SensingCSX_LL.c ****                     CapSense_curGangTxPtr += CapSense_curFlashWdgtPtr->numCols;
 891:.\Generated_Source\PSoC4/CapSense_SensingCSX_LL.c **** 
 892:.\Generated_Source\PSoC4/CapSense_SensingCSX_LL.c ****                     /*  5. Connect Tx ALL pins    */
 893:.\Generated_Source\PSoC4/CapSense_SensingCSX_LL.c ****                     numElectrodes = CapSense_curGangTxPtr->numPins ;
 894:.\Generated_Source\PSoC4/CapSense_SensingCSX_LL.c ****                     CapSense_curTxIOPtr = &CapSense_ioList[CapSense_curGangTxPtr->firstPinId];
 895:.\Generated_Source\PSoC4/CapSense_SensingCSX_LL.c ****                     do
 896:.\Generated_Source\PSoC4/CapSense_SensingCSX_LL.c ****                     {
 897:.\Generated_Source\PSoC4/CapSense_SensingCSX_LL.c ****                         CapSense_CSXConnectTx(CapSense_curTxIOPtr++);
 898:.\Generated_Source\PSoC4/CapSense_SensingCSX_LL.c ****                         numElectrodes--;
 899:.\Generated_Source\PSoC4/CapSense_SensingCSX_LL.c ****                     } while (0u != numElectrodes);
 900:.\Generated_Source\PSoC4/CapSense_SensingCSX_LL.c **** 
 901:.\Generated_Source\PSoC4/CapSense_SensingCSX_LL.c ****                     /*  Increment RAM pointer to next sensor    */
 902:.\Generated_Source\PSoC4/CapSense_SensingCSX_LL.c ****                     CapSense_curRamSnsPtr++;
 903:.\Generated_Source\PSoC4/CapSense_SensingCSX_LL.c **** 
 904:.\Generated_Source\PSoC4/CapSense_SensingCSX_LL.c ****                     /*  Reset scan result holder and initiate scan */
 905:.\Generated_Source\PSoC4/CapSense_SensingCSX_LL.c ****                     CapSense_SsCSXStartSample();
 906:.\Generated_Source\PSoC4/CapSense_SensingCSX_LL.c ****                 }
 907:.\Generated_Source\PSoC4/CapSense_SensingCSX_LL.c ****                 else
 908:.\Generated_Source\PSoC4/CapSense_SensingCSX_LL.c ****                 {
 909:.\Generated_Source\PSoC4/CapSense_SensingCSX_LL.c ****                     /*  Disconnect ALL electrodes of previously scanned Rx   */
 910:.\Generated_Source\PSoC4/CapSense_SensingCSX_LL.c ****                     numElectrodes = CapSense_curGangRxPtr->numPins ;
 911:.\Generated_Source\PSoC4/CapSense_SensingCSX_LL.c ****                     CapSense_curRxIOPtr = &CapSense_ioList[CapSense_curGangRxPtr->firstPinId];
 912:.\Generated_Source\PSoC4/CapSense_SensingCSX_LL.c ****                     do
 913:.\Generated_Source\PSoC4/CapSense_SensingCSX_LL.c ****                     {
 914:.\Generated_Source\PSoC4/CapSense_SensingCSX_LL.c ****                         CapSense_CSXDisconnectRx(CapSense_curRxIOPtr++);
 915:.\Generated_Source\PSoC4/CapSense_SensingCSX_LL.c ****                         numElectrodes--;
 916:.\Generated_Source\PSoC4/CapSense_SensingCSX_LL.c ****                     } while (0u != numElectrodes);
 917:.\Generated_Source\PSoC4/CapSense_SensingCSX_LL.c **** 
ARM GAS  C:\Users\Alan\AppData\Local\Temp\ccbGKewn.s 			page 19


 918:.\Generated_Source\PSoC4/CapSense_SensingCSX_LL.c ****                     /*  Call scan next widget API if requested, if not, complete scan   */
 919:.\Generated_Source\PSoC4/CapSense_SensingCSX_LL.c ****                     if (CapSense_requestScanAllWidget != 0u)
 920:.\Generated_Source\PSoC4/CapSense_SensingCSX_LL.c ****                     {
 921:.\Generated_Source\PSoC4/CapSense_SensingCSX_LL.c ****                         CapSense_PostAllWidgetsScan();
 922:.\Generated_Source\PSoC4/CapSense_SensingCSX_LL.c ****                     }
 923:.\Generated_Source\PSoC4/CapSense_SensingCSX_LL.c ****                     else
 924:.\Generated_Source\PSoC4/CapSense_SensingCSX_LL.c ****                     {
 925:.\Generated_Source\PSoC4/CapSense_SensingCSX_LL.c ****                         /* All pending scans completed,
 926:.\Generated_Source\PSoC4/CapSense_SensingCSX_LL.c ****                             1. update the counter to indicat same
 927:.\Generated_Source\PSoC4/CapSense_SensingCSX_LL.c ****                             2. Clear busy state as scanning is completed      */
 928:.\Generated_Source\PSoC4/CapSense_SensingCSX_LL.c ****                         CapSense_dsRam.scanCounter++;
 929:.\Generated_Source\PSoC4/CapSense_SensingCSX_LL.c ****                         CapSense_dsRam.status &= ~CapSense_SW_STS_BUSY;
 930:.\Generated_Source\PSoC4/CapSense_SensingCSX_LL.c ****                     }
 931:.\Generated_Source\PSoC4/CapSense_SensingCSX_LL.c ****                 }
 932:.\Generated_Source\PSoC4/CapSense_SensingCSX_LL.c ****             }
 933:.\Generated_Source\PSoC4/CapSense_SensingCSX_LL.c ****         }
 934:.\Generated_Source\PSoC4/CapSense_SensingCSX_LL.c **** 
 935:.\Generated_Source\PSoC4/CapSense_SensingCSX_LL.c ****     #ifdef CapSense_EXIT_CALLBACK
 936:.\Generated_Source\PSoC4/CapSense_SensingCSX_LL.c ****         CapSense_ExitCallBack();
 937:.\Generated_Source\PSoC4/CapSense_SensingCSX_LL.c ****     #endif /* CapSense_EXIT_CALLBACK */
 938:.\Generated_Source\PSoC4/CapSense_SensingCSX_LL.c **** }
 939:.\Generated_Source\PSoC4/CapSense_SensingCSX_LL.c **** 
 940:.\Generated_Source\PSoC4/CapSense_SensingCSX_LL.c **** #endif  /*  end of (CapSense_CSX_GANGED_SNS_EN == 1u)   */
 941:.\Generated_Source\PSoC4/CapSense_SensingCSX_LL.c **** 
 942:.\Generated_Source\PSoC4/CapSense_SensingCSX_LL.c **** /*******************************************************************************
 943:.\Generated_Source\PSoC4/CapSense_SensingCSX_LL.c **** * Function Name: CapSense_SsCSXPostSingleScan
 944:.\Generated_Source\PSoC4/CapSense_SensingCSX_LL.c **** ****************************************************************************//**
 945:.\Generated_Source\PSoC4/CapSense_SensingCSX_LL.c **** *
 946:.\Generated_Source\PSoC4/CapSense_SensingCSX_LL.c **** * \brief
 947:.\Generated_Source\PSoC4/CapSense_SensingCSX_LL.c **** *   The ISR function for single-sensor scanning implementation.
 948:.\Generated_Source\PSoC4/CapSense_SensingCSX_LL.c **** *
 949:.\Generated_Source\PSoC4/CapSense_SensingCSX_LL.c **** * \details
 950:.\Generated_Source\PSoC4/CapSense_SensingCSX_LL.c **** *   This function is used by CapSense ISR in the CSX scanning mode to implement
 951:.\Generated_Source\PSoC4/CapSense_SensingCSX_LL.c **** *   the single-sensor scanning.
 952:.\Generated_Source\PSoC4/CapSense_SensingCSX_LL.c **** *   This function should not be used by the application layer.
 953:.\Generated_Source\PSoC4/CapSense_SensingCSX_LL.c **** *
 954:.\Generated_Source\PSoC4/CapSense_SensingCSX_LL.c **** *******************************************************************************/
 955:.\Generated_Source\PSoC4/CapSense_SensingCSX_LL.c **** 
 956:.\Generated_Source\PSoC4/CapSense_SensingCSX_LL.c **** static void CapSense_SsCSXPostSingleScan(void)
 957:.\Generated_Source\PSoC4/CapSense_SensingCSX_LL.c **** {
 107              		.loc 1 957 0
 108              		.cfi_startproc
 958:.\Generated_Source\PSoC4/CapSense_SensingCSX_LL.c ****     #ifdef CapSense_ENTRY_CALLBACK
 959:.\Generated_Source\PSoC4/CapSense_SensingCSX_LL.c ****         CapSense_EntryCallback();
 960:.\Generated_Source\PSoC4/CapSense_SensingCSX_LL.c ****     #endif /* CapSense_ENTRY_CALLBACK */
 961:.\Generated_Source\PSoC4/CapSense_SensingCSX_LL.c **** 
 962:.\Generated_Source\PSoC4/CapSense_SensingCSX_LL.c ****     /*  Copy scan result into sensor raw count array and clear busy flag
 963:.\Generated_Source\PSoC4/CapSense_SensingCSX_LL.c ****         No sensor is connected or disconnected in this function
 964:.\Generated_Source\PSoC4/CapSense_SensingCSX_LL.c ****         Calling CapSense_ScanExt from application would perform
 965:.\Generated_Source\PSoC4/CapSense_SensingCSX_LL.c ****         one more scan of same sensor. Specifically for low-power mode.   */
 966:.\Generated_Source\PSoC4/CapSense_SensingCSX_LL.c ****     CapSense_curRamSnsPtr->raw[CapSense_scanFreqIndex] = \
 109              		.loc 1 966 0
 110 0000 094B     		ldr	r3, .L7
 111 0002 1868     		ldr	r0, [r3]
 112 0004 094B     		ldr	r3, .L7+4
 113 0006 1B78     		ldrb	r3, [r3]
 114 0008 0949     		ldr	r1, .L7+8
ARM GAS  C:\Users\Alan\AppData\Local\Temp\ccbGKewn.s 			page 20


 115 000a 0A88     		ldrh	r2, [r1]
 116 000c 4988     		ldrh	r1, [r1, #2]
 117 000e 5B00     		lsl	r3, r3, #1
 118 0010 521A     		sub	r2, r2, r1
 119 0012 1A52     		strh	r2, [r3, r0]
 967:.\Generated_Source\PSoC4/CapSense_SensingCSX_LL.c ****                         (CapSense_csxScanPeriod - CapSense_csxRawCount);
 968:.\Generated_Source\PSoC4/CapSense_SensingCSX_LL.c **** 
 969:.\Generated_Source\PSoC4/CapSense_SensingCSX_LL.c ****     /*  If frequency hopping is enabled */
 970:.\Generated_Source\PSoC4/CapSense_SensingCSX_LL.c ****     #if (CapSense_MULTI_FREQ_SCAN_EN == CapSense_ENABLE)
 971:.\Generated_Source\PSoC4/CapSense_SensingCSX_LL.c ****         /*  Increment frequency hopping index and initiate next scan if all
 972:.\Generated_Source\PSoC4/CapSense_SensingCSX_LL.c ****             channels are not scanned */
 973:.\Generated_Source\PSoC4/CapSense_SensingCSX_LL.c ****         if (++CapSense_scanFreqIndex < 3u)
 974:.\Generated_Source\PSoC4/CapSense_SensingCSX_LL.c ****         {
 975:.\Generated_Source\PSoC4/CapSense_SensingCSX_LL.c ****             /*  Change IMO frequency and start sample   */
 976:.\Generated_Source\PSoC4/CapSense_SensingCSX_LL.c ****             CapSense_ChangeImoFreq (CapSense_scanFreqIndex);
 977:.\Generated_Source\PSoC4/CapSense_SensingCSX_LL.c ****             CapSense_SsCSXStartSample ();
 978:.\Generated_Source\PSoC4/CapSense_SensingCSX_LL.c ****         }
 979:.\Generated_Source\PSoC4/CapSense_SensingCSX_LL.c ****         else
 980:.\Generated_Source\PSoC4/CapSense_SensingCSX_LL.c ****     #endif
 981:.\Generated_Source\PSoC4/CapSense_SensingCSX_LL.c ****         {
 982:.\Generated_Source\PSoC4/CapSense_SensingCSX_LL.c ****             /*  Restore IMO clock   */
 983:.\Generated_Source\PSoC4/CapSense_SensingCSX_LL.c ****             #if (CapSense_MULTI_FREQ_SCAN_EN == CapSense_ENABLE)
 984:.\Generated_Source\PSoC4/CapSense_SensingCSX_LL.c ****                 CapSense_ChangeImoFreq (0u);
 985:.\Generated_Source\PSoC4/CapSense_SensingCSX_LL.c ****             #endif
 986:.\Generated_Source\PSoC4/CapSense_SensingCSX_LL.c **** 
 987:.\Generated_Source\PSoC4/CapSense_SensingCSX_LL.c ****             /* All pending scans completed,
 988:.\Generated_Source\PSoC4/CapSense_SensingCSX_LL.c ****                 1. update the counter to indicat same
 989:.\Generated_Source\PSoC4/CapSense_SensingCSX_LL.c ****                 2. Clear busy state as scanning is completed    */
 990:.\Generated_Source\PSoC4/CapSense_SensingCSX_LL.c ****             CapSense_dsRam.scanCounter++;
 120              		.loc 1 990 0
 121 0014 074B     		ldr	r3, .L7+12
 122 0016 DA88     		ldrh	r2, [r3, #6]
 123 0018 0132     		add	r2, r2, #1
 124 001a DA80     		strh	r2, [r3, #6]
 991:.\Generated_Source\PSoC4/CapSense_SensingCSX_LL.c ****             CapSense_dsRam.status &= ~CapSense_SW_STS_BUSY;
 125              		.loc 1 991 0
 126 001c 8022     		mov	r2, #128
 127 001e 9968     		ldr	r1, [r3, #8]
 128 0020 9143     		bic	r1, r2
 129 0022 9960     		str	r1, [r3, #8]
 992:.\Generated_Source\PSoC4/CapSense_SensingCSX_LL.c ****         }
 993:.\Generated_Source\PSoC4/CapSense_SensingCSX_LL.c **** 
 994:.\Generated_Source\PSoC4/CapSense_SensingCSX_LL.c ****     #ifdef CapSense_EXIT_CALLBACK
 995:.\Generated_Source\PSoC4/CapSense_SensingCSX_LL.c ****         CapSense_ExitCallBack();
 996:.\Generated_Source\PSoC4/CapSense_SensingCSX_LL.c ****     #endif /* CapSense_EXIT_CALLBACK */
 997:.\Generated_Source\PSoC4/CapSense_SensingCSX_LL.c **** }
 130              		.loc 1 997 0
 131              		@ sp needed
 132 0024 7047     		bx	lr
 133              	.L8:
 134 0026 C046     		.align	2
 135              	.L7:
 136 0028 00000000 		.word	CapSense_curRamSnsPtr
 137 002c 00000000 		.word	CapSense_scanFreqIndex
 138 0030 00000000 		.word	.LANCHOR0
 139 0034 00000000 		.word	CapSense_dsRam
 140              		.cfi_endproc
ARM GAS  C:\Users\Alan\AppData\Local\Temp\ccbGKewn.s 			page 21


 141              	.LFE9:
 142              		.size	CapSense_SsCSXPostSingleScan, .-CapSense_SsCSXPostSingleScan
 143              		.global	__aeabi_uidiv
 144              		.section	.text.CapSense_SsCSXStartSample,"ax",%progbits
 145              		.align	2
 146              		.code	16
 147              		.thumb_func
 148              		.type	CapSense_SsCSXStartSample, %function
 149              	CapSense_SsCSXStartSample:
 150              	.LFB11:
 998:.\Generated_Source\PSoC4/CapSense_SensingCSX_LL.c **** 
 999:.\Generated_Source\PSoC4/CapSense_SensingCSX_LL.c **** /*******************************************************************************
1000:.\Generated_Source\PSoC4/CapSense_SensingCSX_LL.c **** * Function Name: CapSense_CSXCalibrateWidget
1001:.\Generated_Source\PSoC4/CapSense_SensingCSX_LL.c **** ****************************************************************************//**
1002:.\Generated_Source\PSoC4/CapSense_SensingCSX_LL.c **** *
1003:.\Generated_Source\PSoC4/CapSense_SensingCSX_LL.c **** * \brief
1004:.\Generated_Source\PSoC4/CapSense_SensingCSX_LL.c **** *   Calibrates the raw count values of all sensors/nodes in a CSX widget.
1005:.\Generated_Source\PSoC4/CapSense_SensingCSX_LL.c **** *
1006:.\Generated_Source\PSoC4/CapSense_SensingCSX_LL.c **** * \details
1007:.\Generated_Source\PSoC4/CapSense_SensingCSX_LL.c **** *   Performs a successive approximation search algorithm to find appropriate
1008:.\Generated_Source\PSoC4/CapSense_SensingCSX_LL.c **** *   IDAC values for sensors in the widgets.
1009:.\Generated_Source\PSoC4/CapSense_SensingCSX_LL.c **** *
1010:.\Generated_Source\PSoC4/CapSense_SensingCSX_LL.c **** * \param  widgetIndex The ID of the widget to be calibrated.
1011:.\Generated_Source\PSoC4/CapSense_SensingCSX_LL.c **** * \param  target Target raw count level for sensor/nodes in percentage.
1012:.\Generated_Source\PSoC4/CapSense_SensingCSX_LL.c **** *
1013:.\Generated_Source\PSoC4/CapSense_SensingCSX_LL.c **** *******************************************************************************/
1014:.\Generated_Source\PSoC4/CapSense_SensingCSX_LL.c **** #if (CapSense_CSX_IDAC_AUTOCAL_EN == CapSense_ENABLE)
1015:.\Generated_Source\PSoC4/CapSense_SensingCSX_LL.c **** 
1016:.\Generated_Source\PSoC4/CapSense_SensingCSX_LL.c **** void CapSense_CSXCalibrateWidget(uint32 widgetIndex, uint16 target)
1017:.\Generated_Source\PSoC4/CapSense_SensingCSX_LL.c **** {
1018:.\Generated_Source\PSoC4/CapSense_SensingCSX_LL.c ****     /*  Declare and initialise ptr to widget and sensor structures        */
1019:.\Generated_Source\PSoC4/CapSense_SensingCSX_LL.c ****     CapSense_RAM_SNS_STRUCT *snsRamPtr = CapSense_dsFlash.wdgtArray[widgetIndex].ptr2SnsRam;
1020:.\Generated_Source\PSoC4/CapSense_SensingCSX_LL.c ****     CapSense_RAM_WD_BASE_STRUCT *ptrWdgt = (CapSense_RAM_WD_BASE_STRUCT *)
1021:.\Generated_Source\PSoC4/CapSense_SensingCSX_LL.c ****                                           CapSense_dsFlash.wdgtArray[widgetIndex].ptr2WdgtRam;
1022:.\Generated_Source\PSoC4/CapSense_SensingCSX_LL.c ****     /*  Current IDAC bit in use
1023:.\Generated_Source\PSoC4/CapSense_SensingCSX_LL.c ****         next idac bit to be used
1024:.\Generated_Source\PSoC4/CapSense_SensingCSX_LL.c ****         counters for loop execution
1025:.\Generated_Source\PSoC4/CapSense_SensingCSX_LL.c ****         variable to calculate raw count target      */
1026:.\Generated_Source\PSoC4/CapSense_SensingCSX_LL.c ****     uint8 curIdacMask = (1u << (CapSense_CSX_IDAC_BITS_USED-1u));
1027:.\Generated_Source\PSoC4/CapSense_SensingCSX_LL.c ****     uint8 nextIdacMask = (curIdacMask >> 1u);
1028:.\Generated_Source\PSoC4/CapSense_SensingCSX_LL.c ****     uint32 calibrationIndex, totalSns;
1029:.\Generated_Source\PSoC4/CapSense_SensingCSX_LL.c ****     uint32 rawTarget;
1030:.\Generated_Source\PSoC4/CapSense_SensingCSX_LL.c **** 
1031:.\Generated_Source\PSoC4/CapSense_SensingCSX_LL.c ****     #if(CapSense_ENABLE == CapSense_CSDV2)
1032:.\Generated_Source\PSoC4/CapSense_SensingCSX_LL.c ****         #if (0u != CapSense_CSX_COMMON_TX_CLK_EN)
1033:.\Generated_Source\PSoC4/CapSense_SensingCSX_LL.c ****             rawTarget = (uint32)CapSense_dsRam.snsCsxClk;
1034:.\Generated_Source\PSoC4/CapSense_SensingCSX_LL.c ****         #else
1035:.\Generated_Source\PSoC4/CapSense_SensingCSX_LL.c ****             rawTarget = (uint32)ptrWdgt->snsClk;
1036:.\Generated_Source\PSoC4/CapSense_SensingCSX_LL.c ****         #endif /* (0u != CapSense_CSX_COMMON_TX_CLK_EN) */
1037:.\Generated_Source\PSoC4/CapSense_SensingCSX_LL.c **** 
1038:.\Generated_Source\PSoC4/CapSense_SensingCSX_LL.c ****         CapSense_csxScanPeriod  = LO16((uint32)ptrWdgt->resolution * (uint32)rawTarget);
1039:.\Generated_Source\PSoC4/CapSense_SensingCSX_LL.c ****         CapSense_csxScanPeriod -= LO16((uint32)ptrWdgt->resolution * CapSense_CSX_DEADBAND_CYCLES_N
1040:.\Generated_Source\PSoC4/CapSense_SensingCSX_LL.c ****         rawTarget = CapSense_csxScanPeriod;
1041:.\Generated_Source\PSoC4/CapSense_SensingCSX_LL.c ****     #else
1042:.\Generated_Source\PSoC4/CapSense_SensingCSX_LL.c ****         /*  Find max count       */
1043:.\Generated_Source\PSoC4/CapSense_SensingCSX_LL.c ****         rawTarget = CapSense_csxScanPeriod = CapSense_SsCalcCsxScanPeriod (ptrWdgt);
1044:.\Generated_Source\PSoC4/CapSense_SensingCSX_LL.c ****     #endif /* (CapSense_ENABLE == CapSense_CSDV2) */
ARM GAS  C:\Users\Alan\AppData\Local\Temp\ccbGKewn.s 			page 22


1045:.\Generated_Source\PSoC4/CapSense_SensingCSX_LL.c **** 
1046:.\Generated_Source\PSoC4/CapSense_SensingCSX_LL.c ****     /*  Calculate target raw count      */
1047:.\Generated_Source\PSoC4/CapSense_SensingCSX_LL.c ****     rawTarget = (rawTarget * target);
1048:.\Generated_Source\PSoC4/CapSense_SensingCSX_LL.c ****     rawTarget = (rawTarget / CapSense_PERCENTAGE_100);
1049:.\Generated_Source\PSoC4/CapSense_SensingCSX_LL.c **** 
1050:.\Generated_Source\PSoC4/CapSense_SensingCSX_LL.c ****     if (CapSense_SENSE_METHOD_CSX_E == \
1051:.\Generated_Source\PSoC4/CapSense_SensingCSX_LL.c ****        (CapSense_SENSE_METHOD_ENUM)CapSense_GET_SENSE_METHOD(&CapSense_dsFlash.wdgtArray[widgetInde
1052:.\Generated_Source\PSoC4/CapSense_SensingCSX_LL.c ****     {
1053:.\Generated_Source\PSoC4/CapSense_SensingCSX_LL.c ****         /*  Find out total sensors/nodes in widget  */
1054:.\Generated_Source\PSoC4/CapSense_SensingCSX_LL.c ****         totalSns = ((uint32)CapSense_dsFlash.wdgtArray[widgetIndex].numCols *
1055:.\Generated_Source\PSoC4/CapSense_SensingCSX_LL.c ****                     (uint32)CapSense_dsFlash.wdgtArray[widgetIndex].numRows);
1056:.\Generated_Source\PSoC4/CapSense_SensingCSX_LL.c **** 
1057:.\Generated_Source\PSoC4/CapSense_SensingCSX_LL.c ****         /*  Clear raw count registers and IDAC registers of all sensors/nodes   */
1058:.\Generated_Source\PSoC4/CapSense_SensingCSX_LL.c ****         for (calibrationIndex = 0u; calibrationIndex < totalSns; calibrationIndex++)
1059:.\Generated_Source\PSoC4/CapSense_SensingCSX_LL.c ****         {
1060:.\Generated_Source\PSoC4/CapSense_SensingCSX_LL.c ****             snsRamPtr->raw[0u] = 0u;
1061:.\Generated_Source\PSoC4/CapSense_SensingCSX_LL.c ****             snsRamPtr->idacComp[0u] = curIdacMask;
1062:.\Generated_Source\PSoC4/CapSense_SensingCSX_LL.c ****             #if (CapSense_MULTI_FREQ_SCAN_EN == CapSense_ENABLE)
1063:.\Generated_Source\PSoC4/CapSense_SensingCSX_LL.c ****                 snsRamPtr->raw[1] = 0u;
1064:.\Generated_Source\PSoC4/CapSense_SensingCSX_LL.c ****                 snsRamPtr->raw[2] = 0u;
1065:.\Generated_Source\PSoC4/CapSense_SensingCSX_LL.c ****                 snsRamPtr->idacComp[1] = curIdacMask;
1066:.\Generated_Source\PSoC4/CapSense_SensingCSX_LL.c ****                 snsRamPtr->idacComp[2] = curIdacMask;
1067:.\Generated_Source\PSoC4/CapSense_SensingCSX_LL.c ****             #endif
1068:.\Generated_Source\PSoC4/CapSense_SensingCSX_LL.c ****             snsRamPtr++;
1069:.\Generated_Source\PSoC4/CapSense_SensingCSX_LL.c ****         }
1070:.\Generated_Source\PSoC4/CapSense_SensingCSX_LL.c **** 
1071:.\Generated_Source\PSoC4/CapSense_SensingCSX_LL.c ****         /*  1. Perform binary search for accurate IDAC value for each sensor/node   */
1072:.\Generated_Source\PSoC4/CapSense_SensingCSX_LL.c ****         do
1073:.\Generated_Source\PSoC4/CapSense_SensingCSX_LL.c ****         {
1074:.\Generated_Source\PSoC4/CapSense_SensingCSX_LL.c ****             /*  1. Get access to sensor data    */
1075:.\Generated_Source\PSoC4/CapSense_SensingCSX_LL.c ****             snsRamPtr = (CapSense_RAM_SNS_STRUCT *)CapSense_dsFlash.wdgtArray[widgetIndex].ptr2SnsR
1076:.\Generated_Source\PSoC4/CapSense_SensingCSX_LL.c **** 
1077:.\Generated_Source\PSoC4/CapSense_SensingCSX_LL.c ****             /*  Scan all sensors/nodes in widget    */
1078:.\Generated_Source\PSoC4/CapSense_SensingCSX_LL.c ****             (void)CapSense_SetupWidget(widgetIndex);
1079:.\Generated_Source\PSoC4/CapSense_SensingCSX_LL.c ****             (void)CapSense_Scan();
1080:.\Generated_Source\PSoC4/CapSense_SensingCSX_LL.c ****             while ((*(volatile uint8 *)&CapSense_dsRam.status & CapSense_SW_STS_BUSY) != 0u)
1081:.\Generated_Source\PSoC4/CapSense_SensingCSX_LL.c ****             {
1082:.\Generated_Source\PSoC4/CapSense_SensingCSX_LL.c ****             }
1083:.\Generated_Source\PSoC4/CapSense_SensingCSX_LL.c **** 
1084:.\Generated_Source\PSoC4/CapSense_SensingCSX_LL.c ****             /*  1.2 Check raw count and adjust IDAC, loop through all sensors/nodes */
1085:.\Generated_Source\PSoC4/CapSense_SensingCSX_LL.c ****             for (calibrationIndex = 0u; calibrationIndex < totalSns; calibrationIndex++)
1086:.\Generated_Source\PSoC4/CapSense_SensingCSX_LL.c ****             {
1087:.\Generated_Source\PSoC4/CapSense_SensingCSX_LL.c ****                 /*  1.2.1 Check if current raw count is above target,
1088:.\Generated_Source\PSoC4/CapSense_SensingCSX_LL.c ****                         if yes, clear the MS bit of bit
1089:.\Generated_Source\PSoC4/CapSense_SensingCSX_LL.c ****                         if no, keep the MS bit and set next bit     */
1090:.\Generated_Source\PSoC4/CapSense_SensingCSX_LL.c ****                 if (snsRamPtr->raw[0u] > rawTarget)
1091:.\Generated_Source\PSoC4/CapSense_SensingCSX_LL.c ****                 {
1092:.\Generated_Source\PSoC4/CapSense_SensingCSX_LL.c ****                     snsRamPtr->idacComp[0u] &= (uint8)(~curIdacMask);
1093:.\Generated_Source\PSoC4/CapSense_SensingCSX_LL.c ****                 }
1094:.\Generated_Source\PSoC4/CapSense_SensingCSX_LL.c ****                 snsRamPtr->idacComp[0u] |= nextIdacMask;
1095:.\Generated_Source\PSoC4/CapSense_SensingCSX_LL.c **** 
1096:.\Generated_Source\PSoC4/CapSense_SensingCSX_LL.c ****                 #if (CapSense_MULTI_FREQ_SCAN_EN == CapSense_ENABLE)
1097:.\Generated_Source\PSoC4/CapSense_SensingCSX_LL.c ****                     if (snsRamPtr->raw[1u] > rawTarget)
1098:.\Generated_Source\PSoC4/CapSense_SensingCSX_LL.c ****                     {
1099:.\Generated_Source\PSoC4/CapSense_SensingCSX_LL.c ****                         snsRamPtr->idacComp[1u] &= (uint8)(~curIdacMask);
1100:.\Generated_Source\PSoC4/CapSense_SensingCSX_LL.c ****                     }
1101:.\Generated_Source\PSoC4/CapSense_SensingCSX_LL.c **** 
ARM GAS  C:\Users\Alan\AppData\Local\Temp\ccbGKewn.s 			page 23


1102:.\Generated_Source\PSoC4/CapSense_SensingCSX_LL.c ****                     if (snsRamPtr->raw[2u] > rawTarget)
1103:.\Generated_Source\PSoC4/CapSense_SensingCSX_LL.c ****                     {
1104:.\Generated_Source\PSoC4/CapSense_SensingCSX_LL.c ****                         snsRamPtr->idacComp[2u] &= (uint8)(~curIdacMask);
1105:.\Generated_Source\PSoC4/CapSense_SensingCSX_LL.c ****                     }
1106:.\Generated_Source\PSoC4/CapSense_SensingCSX_LL.c **** 
1107:.\Generated_Source\PSoC4/CapSense_SensingCSX_LL.c ****                     snsRamPtr->idacComp[1u] |= nextIdacMask;
1108:.\Generated_Source\PSoC4/CapSense_SensingCSX_LL.c ****                     snsRamPtr->idacComp[2u] |= nextIdacMask;
1109:.\Generated_Source\PSoC4/CapSense_SensingCSX_LL.c ****                 #endif
1110:.\Generated_Source\PSoC4/CapSense_SensingCSX_LL.c ****                 snsRamPtr++;
1111:.\Generated_Source\PSoC4/CapSense_SensingCSX_LL.c ****             }
1112:.\Generated_Source\PSoC4/CapSense_SensingCSX_LL.c **** 
1113:.\Generated_Source\PSoC4/CapSense_SensingCSX_LL.c ****             /*  Shift both current idac and pre Idac values to right by 1   */
1114:.\Generated_Source\PSoC4/CapSense_SensingCSX_LL.c ****             curIdacMask = nextIdacMask;
1115:.\Generated_Source\PSoC4/CapSense_SensingCSX_LL.c ****             nextIdacMask = nextIdacMask >> 1u;
1116:.\Generated_Source\PSoC4/CapSense_SensingCSX_LL.c ****         }
1117:.\Generated_Source\PSoC4/CapSense_SensingCSX_LL.c ****         while (curIdacMask != 0u);
1118:.\Generated_Source\PSoC4/CapSense_SensingCSX_LL.c ****     }
1119:.\Generated_Source\PSoC4/CapSense_SensingCSX_LL.c **** }
1120:.\Generated_Source\PSoC4/CapSense_SensingCSX_LL.c **** 
1121:.\Generated_Source\PSoC4/CapSense_SensingCSX_LL.c **** #endif /* (CapSense_CSX_IDAC_AUTOCAL_EN == CapSense_ENABLE) */
1122:.\Generated_Source\PSoC4/CapSense_SensingCSX_LL.c **** 
1123:.\Generated_Source\PSoC4/CapSense_SensingCSX_LL.c **** #if(CapSense_ENABLE == CapSense_CSDV2)
1124:.\Generated_Source\PSoC4/CapSense_SensingCSX_LL.c **** /*******************************************************************************
1125:.\Generated_Source\PSoC4/CapSense_SensingCSX_LL.c **** * Function Name: CapSense_SsCSXStartSample
1126:.\Generated_Source\PSoC4/CapSense_SensingCSX_LL.c **** ****************************************************************************//**
1127:.\Generated_Source\PSoC4/CapSense_SensingCSX_LL.c **** *
1128:.\Generated_Source\PSoC4/CapSense_SensingCSX_LL.c **** * \brief
1129:.\Generated_Source\PSoC4/CapSense_SensingCSX_LL.c **** *   Starts scanning for the CSX widget.
1130:.\Generated_Source\PSoC4/CapSense_SensingCSX_LL.c **** *
1131:.\Generated_Source\PSoC4/CapSense_SensingCSX_LL.c **** * \details
1132:.\Generated_Source\PSoC4/CapSense_SensingCSX_LL.c **** *   Starts scanning for the CSX widget.
1133:.\Generated_Source\PSoC4/CapSense_SensingCSX_LL.c **** *
1134:.\Generated_Source\PSoC4/CapSense_SensingCSX_LL.c **** *******************************************************************************/
1135:.\Generated_Source\PSoC4/CapSense_SensingCSX_LL.c **** static void CapSense_SsCSXStartSample (void)
1136:.\Generated_Source\PSoC4/CapSense_SensingCSX_LL.c **** {
 151              		.loc 1 1136 0
 152              		.cfi_startproc
 153 0000 08B5     		push	{r3, lr}
 154              		.cfi_def_cfa_offset 8
 155              		.cfi_offset 3, -8
 156              		.cfi_offset 14, -4
1137:.\Generated_Source\PSoC4/CapSense_SensingCSX_LL.c ****     uint32 tmpRegVal;
1138:.\Generated_Source\PSoC4/CapSense_SensingCSX_LL.c **** 
1139:.\Generated_Source\PSoC4/CapSense_SensingCSX_LL.c ****     tmpRegVal = (uint32)CapSense_curRamSnsPtr->idacComp[CapSense_scanFreqIndex];
 157              		.loc 1 1139 0
 158 0002 344B     		ldr	r3, .L17
 159 0004 1A68     		ldr	r2, [r3]
 160 0006 344B     		ldr	r3, .L17+4
 161 0008 1B78     		ldrb	r3, [r3]
 162 000a D318     		add	r3, r2, r3
 163 000c 5B79     		ldrb	r3, [r3, #5]
 164              	.LVL12:
1140:.\Generated_Source\PSoC4/CapSense_SensingCSX_LL.c ****     tmpRegVal = (tmpRegVal & CapSense_IDAC_MOD_VAL_MASK) | CapSense_DEFAULT_CSD_IDACA_CFG;
 165              		.loc 1 1140 0
 166 000e 334A     		ldr	r2, .L17+8
 167 0010 1343     		orr	r3, r2
 168              	.LVL13:
ARM GAS  C:\Users\Alan\AppData\Local\Temp\ccbGKewn.s 			page 24


1141:.\Generated_Source\PSoC4/CapSense_SensingCSX_LL.c ****     CY_SET_REG32(CapSense_IDAC_MOD_PTR, tmpRegVal);
 169              		.loc 1 1141 0
 170 0012 334A     		ldr	r2, .L17+12
 171 0014 1360     		str	r3, [r2]
1142:.\Generated_Source\PSoC4/CapSense_SensingCSX_LL.c **** 
1143:.\Generated_Source\PSoC4/CapSense_SensingCSX_LL.c ****     /*  Clear scan result holder    */
1144:.\Generated_Source\PSoC4/CapSense_SensingCSX_LL.c ****     CapSense_csxRawCount = 0u;
 172              		.loc 1 1144 0
 173 0016 0022     		mov	r2, #0
 174 0018 324B     		ldr	r3, .L17+16
 175              	.LVL14:
 176 001a 5A80     		strh	r2, [r3, #2]
 177              	.LVL15:
 178              	.LBB6:
 179              	.LBB7:
1145:.\Generated_Source\PSoC4/CapSense_SensingCSX_LL.c ****     CapSense_SsCSXStartSampleExt();
1146:.\Generated_Source\PSoC4/CapSense_SensingCSX_LL.c **** }
1147:.\Generated_Source\PSoC4/CapSense_SensingCSX_LL.c **** #else
1148:.\Generated_Source\PSoC4/CapSense_SensingCSX_LL.c **** /*******************************************************************************
1149:.\Generated_Source\PSoC4/CapSense_SensingCSX_LL.c **** * Function Name: CapSense_SsCSXStartSample
1150:.\Generated_Source\PSoC4/CapSense_SensingCSX_LL.c **** ****************************************************************************//**
1151:.\Generated_Source\PSoC4/CapSense_SensingCSX_LL.c **** *
1152:.\Generated_Source\PSoC4/CapSense_SensingCSX_LL.c **** * \brief
1153:.\Generated_Source\PSoC4/CapSense_SensingCSX_LL.c **** *   Starts scanning for the CSX widget.
1154:.\Generated_Source\PSoC4/CapSense_SensingCSX_LL.c **** *
1155:.\Generated_Source\PSoC4/CapSense_SensingCSX_LL.c **** * \param  widgetIndex The ID of the widget to be calibrated.
1156:.\Generated_Source\PSoC4/CapSense_SensingCSX_LL.c **** *
1157:.\Generated_Source\PSoC4/CapSense_SensingCSX_LL.c **** * \details
1158:.\Generated_Source\PSoC4/CapSense_SensingCSX_LL.c **** *
1159:.\Generated_Source\PSoC4/CapSense_SensingCSX_LL.c **** *******************************************************************************/
1160:.\Generated_Source\PSoC4/CapSense_SensingCSX_LL.c **** static void CapSense_SsCSXStartSample (void)
1161:.\Generated_Source\PSoC4/CapSense_SensingCSX_LL.c **** {
1162:.\Generated_Source\PSoC4/CapSense_SensingCSX_LL.c ****     uint8 critSect;
1163:.\Generated_Source\PSoC4/CapSense_SensingCSX_LL.c **** 
1164:.\Generated_Source\PSoC4/CapSense_SensingCSX_LL.c ****     CY_SET_REG32(CapSense_IDAC_PTR, (CapSense_IDAC_MOD_MODE_VARIABLE |
1165:.\Generated_Source\PSoC4/CapSense_SensingCSX_LL.c ****                                 (uint32)CapSense_curRamSnsPtr->idacComp[CapSense_scanFreqIndex]));
1166:.\Generated_Source\PSoC4/CapSense_SensingCSX_LL.c **** 
1167:.\Generated_Source\PSoC4/CapSense_SensingCSX_LL.c ****     /*  Clear scan result holder    */
1168:.\Generated_Source\PSoC4/CapSense_SensingCSX_LL.c ****     CapSense_csxRawCount = 0u;
1169:.\Generated_Source\PSoC4/CapSense_SensingCSX_LL.c **** 
1170:.\Generated_Source\PSoC4/CapSense_SensingCSX_LL.c ****     /*  Disable interrupts and initiate scan  */
1171:.\Generated_Source\PSoC4/CapSense_SensingCSX_LL.c ****     critSect = CyEnterCriticalSection();
1172:.\Generated_Source\PSoC4/CapSense_SensingCSX_LL.c ****     CapSense_SsCSXStartSampleExt();
1173:.\Generated_Source\PSoC4/CapSense_SensingCSX_LL.c ****     CyExitCriticalSection(critSect);
1174:.\Generated_Source\PSoC4/CapSense_SensingCSX_LL.c **** }
1175:.\Generated_Source\PSoC4/CapSense_SensingCSX_LL.c **** #endif /* (CapSense_ENABLE == CapSense_CSDV2) */
1176:.\Generated_Source\PSoC4/CapSense_SensingCSX_LL.c **** 
1177:.\Generated_Source\PSoC4/CapSense_SensingCSX_LL.c **** 
1178:.\Generated_Source\PSoC4/CapSense_SensingCSX_LL.c **** /*******************************************************************************
1179:.\Generated_Source\PSoC4/CapSense_SensingCSX_LL.c **** * Function Name: CapSense_CSXConnectTx
1180:.\Generated_Source\PSoC4/CapSense_SensingCSX_LL.c **** ****************************************************************************//**
1181:.\Generated_Source\PSoC4/CapSense_SensingCSX_LL.c **** *
1182:.\Generated_Source\PSoC4/CapSense_SensingCSX_LL.c **** * \brief
1183:.\Generated_Source\PSoC4/CapSense_SensingCSX_LL.c **** *   Connect a TX electrode to CSX scanning hardware.
1184:.\Generated_Source\PSoC4/CapSense_SensingCSX_LL.c **** *
1185:.\Generated_Source\PSoC4/CapSense_SensingCSX_LL.c **** * \details
1186:.\Generated_Source\PSoC4/CapSense_SensingCSX_LL.c **** *   This function connects a port pin (Tx electrode)to the CSD_SENSE signal.
ARM GAS  C:\Users\Alan\AppData\Local\Temp\ccbGKewn.s 			page 25


1187:.\Generated_Source\PSoC4/CapSense_SensingCSX_LL.c **** *   It is assumed that the drive mode of the port pin is already set to STRONG in
1188:.\Generated_Source\PSoC4/CapSense_SensingCSX_LL.c **** *   HSIOM_PORT_SELx register.
1189:.\Generated_Source\PSoC4/CapSense_SensingCSX_LL.c **** *   This function can be used for faster execution time when there is only one
1190:.\Generated_Source\PSoC4/CapSense_SensingCSX_LL.c **** *   port pin for an electrode. Not recommended to call from the application layer.
1191:.\Generated_Source\PSoC4/CapSense_SensingCSX_LL.c **** *
1192:.\Generated_Source\PSoC4/CapSense_SensingCSX_LL.c **** * \param  txPtr   The pointer to a register map object that contains CSX TX pin
1193:.\Generated_Source\PSoC4/CapSense_SensingCSX_LL.c **** *                     information.
1194:.\Generated_Source\PSoC4/CapSense_SensingCSX_LL.c **** *
1195:.\Generated_Source\PSoC4/CapSense_SensingCSX_LL.c **** *******************************************************************************/
1196:.\Generated_Source\PSoC4/CapSense_SensingCSX_LL.c **** void CapSense_CSXConnectTx(CapSense_FLASH_IO_STRUCT const *txPtr)
1197:.\Generated_Source\PSoC4/CapSense_SensingCSX_LL.c **** {
1198:.\Generated_Source\PSoC4/CapSense_SensingCSX_LL.c ****     uint32 regValue;
1199:.\Generated_Source\PSoC4/CapSense_SensingCSX_LL.c **** 
1200:.\Generated_Source\PSoC4/CapSense_SensingCSX_LL.c ****     regValue = CY_GET_REG32 (txPtr->pcPtr);
1201:.\Generated_Source\PSoC4/CapSense_SensingCSX_LL.c ****     regValue |= (CapSense_GPIO_STRGDRV << txPtr->shift);
1202:.\Generated_Source\PSoC4/CapSense_SensingCSX_LL.c ****     CY_SET_REG32 (txPtr->pcPtr, regValue);
1203:.\Generated_Source\PSoC4/CapSense_SensingCSX_LL.c **** 
1204:.\Generated_Source\PSoC4/CapSense_SensingCSX_LL.c ****     regValue = CY_GET_REG32 (txPtr->hsiomPtr);
1205:.\Generated_Source\PSoC4/CapSense_SensingCSX_LL.c ****     regValue |= (CapSense_HSIOM_SEL_CSD_SENSE << txPtr->hsiomShift);
1206:.\Generated_Source\PSoC4/CapSense_SensingCSX_LL.c ****     CY_SET_REG32 (txPtr->hsiomPtr, regValue);
1207:.\Generated_Source\PSoC4/CapSense_SensingCSX_LL.c **** }
1208:.\Generated_Source\PSoC4/CapSense_SensingCSX_LL.c **** 
1209:.\Generated_Source\PSoC4/CapSense_SensingCSX_LL.c **** /*******************************************************************************
1210:.\Generated_Source\PSoC4/CapSense_SensingCSX_LL.c **** * Function Name: CapSense_CSXConnectRx
1211:.\Generated_Source\PSoC4/CapSense_SensingCSX_LL.c **** ****************************************************************************//**
1212:.\Generated_Source\PSoC4/CapSense_SensingCSX_LL.c **** *
1213:.\Generated_Source\PSoC4/CapSense_SensingCSX_LL.c **** * \brief
1214:.\Generated_Source\PSoC4/CapSense_SensingCSX_LL.c **** *   Connect an RX electrode to the CSX scanning hardware.
1215:.\Generated_Source\PSoC4/CapSense_SensingCSX_LL.c **** *
1216:.\Generated_Source\PSoC4/CapSense_SensingCSX_LL.c **** * \details
1217:.\Generated_Source\PSoC4/CapSense_SensingCSX_LL.c **** *   This function connects a port pin (Rx electrode)to AMUXBUS-A and sets the drive
1218:.\Generated_Source\PSoC4/CapSense_SensingCSX_LL.c **** *   mode of the port pin to HIgh-Z in the GPIO_PRT_PCx register.
1219:.\Generated_Source\PSoC4/CapSense_SensingCSX_LL.c **** *   This function can be used for faster execution time when there is only
1220:.\Generated_Source\PSoC4/CapSense_SensingCSX_LL.c **** *   one port pin for an electrode. Not recommended to call from the application layer.
1221:.\Generated_Source\PSoC4/CapSense_SensingCSX_LL.c **** *
1222:.\Generated_Source\PSoC4/CapSense_SensingCSX_LL.c **** * \param  rxPtr   The pointer to a register map object that contains CSX RX pin
1223:.\Generated_Source\PSoC4/CapSense_SensingCSX_LL.c **** *                     information.
1224:.\Generated_Source\PSoC4/CapSense_SensingCSX_LL.c **** *
1225:.\Generated_Source\PSoC4/CapSense_SensingCSX_LL.c **** *******************************************************************************/
1226:.\Generated_Source\PSoC4/CapSense_SensingCSX_LL.c **** void CapSense_CSXConnectRx(CapSense_FLASH_IO_STRUCT const *rxPtr)
1227:.\Generated_Source\PSoC4/CapSense_SensingCSX_LL.c **** {
1228:.\Generated_Source\PSoC4/CapSense_SensingCSX_LL.c ****     uint32 regValue;
1229:.\Generated_Source\PSoC4/CapSense_SensingCSX_LL.c **** 
1230:.\Generated_Source\PSoC4/CapSense_SensingCSX_LL.c ****     regValue = CY_GET_REG32 (rxPtr->pcPtr);
1231:.\Generated_Source\PSoC4/CapSense_SensingCSX_LL.c ****     regValue &= ~(CapSense_GPIO_PC_MASK << rxPtr->shift);
1232:.\Generated_Source\PSoC4/CapSense_SensingCSX_LL.c ****     CY_SET_REG32 (rxPtr->pcPtr, regValue);
1233:.\Generated_Source\PSoC4/CapSense_SensingCSX_LL.c **** 
1234:.\Generated_Source\PSoC4/CapSense_SensingCSX_LL.c ****     regValue = CY_GET_REG32 (rxPtr->hsiomPtr);
1235:.\Generated_Source\PSoC4/CapSense_SensingCSX_LL.c ****     regValue |=  (CapSense_HSIOM_SEL_AMUXA << rxPtr->hsiomShift);
1236:.\Generated_Source\PSoC4/CapSense_SensingCSX_LL.c ****     CY_SET_REG32 (rxPtr->hsiomPtr, regValue);
1237:.\Generated_Source\PSoC4/CapSense_SensingCSX_LL.c **** }
1238:.\Generated_Source\PSoC4/CapSense_SensingCSX_LL.c **** 
1239:.\Generated_Source\PSoC4/CapSense_SensingCSX_LL.c **** /*******************************************************************************
1240:.\Generated_Source\PSoC4/CapSense_SensingCSX_LL.c **** * Function Name: CapSense_CSXDisconnectTx
1241:.\Generated_Source\PSoC4/CapSense_SensingCSX_LL.c **** ****************************************************************************//**
1242:.\Generated_Source\PSoC4/CapSense_SensingCSX_LL.c **** *
1243:.\Generated_Source\PSoC4/CapSense_SensingCSX_LL.c **** * \brief
ARM GAS  C:\Users\Alan\AppData\Local\Temp\ccbGKewn.s 			page 26


1244:.\Generated_Source\PSoC4/CapSense_SensingCSX_LL.c **** *   Disconnects a TX electrode from the CSX scanning hardware.
1245:.\Generated_Source\PSoC4/CapSense_SensingCSX_LL.c **** *
1246:.\Generated_Source\PSoC4/CapSense_SensingCSX_LL.c **** * \details
1247:.\Generated_Source\PSoC4/CapSense_SensingCSX_LL.c **** *   This function disconnects a port pin (Tx electrode) from  the CSD_SENSE signal
1248:.\Generated_Source\PSoC4/CapSense_SensingCSX_LL.c **** *   and configures the port pin to the strong drive mode. It is assumed that the data
1249:.\Generated_Source\PSoC4/CapSense_SensingCSX_LL.c **** *   register (GPIO_PRTx_DR) of the port pin is already 0.
1250:.\Generated_Source\PSoC4/CapSense_SensingCSX_LL.c **** *   This API can be used for faster execution time when there is only one port
1251:.\Generated_Source\PSoC4/CapSense_SensingCSX_LL.c **** *   pin for an electrode. Not recommended to call from the application layer.
1252:.\Generated_Source\PSoC4/CapSense_SensingCSX_LL.c **** *
1253:.\Generated_Source\PSoC4/CapSense_SensingCSX_LL.c **** * \param  txPtr   The pointer to a register map object that contains CSX RX pin
1254:.\Generated_Source\PSoC4/CapSense_SensingCSX_LL.c **** *                     information.
1255:.\Generated_Source\PSoC4/CapSense_SensingCSX_LL.c **** *
1256:.\Generated_Source\PSoC4/CapSense_SensingCSX_LL.c **** *******************************************************************************/
1257:.\Generated_Source\PSoC4/CapSense_SensingCSX_LL.c **** void CapSense_CSXDisconnectTx(CapSense_FLASH_IO_STRUCT const *txPtr)
1258:.\Generated_Source\PSoC4/CapSense_SensingCSX_LL.c **** {
1259:.\Generated_Source\PSoC4/CapSense_SensingCSX_LL.c ****     uint32 regValue;
1260:.\Generated_Source\PSoC4/CapSense_SensingCSX_LL.c **** 
1261:.\Generated_Source\PSoC4/CapSense_SensingCSX_LL.c ****     regValue = CY_GET_REG32 (txPtr->hsiomPtr);
1262:.\Generated_Source\PSoC4/CapSense_SensingCSX_LL.c ****     regValue &= ~(txPtr->hsiomMask);
1263:.\Generated_Source\PSoC4/CapSense_SensingCSX_LL.c ****     CY_SET_REG32 (txPtr->hsiomPtr, regValue);
1264:.\Generated_Source\PSoC4/CapSense_SensingCSX_LL.c **** }
1265:.\Generated_Source\PSoC4/CapSense_SensingCSX_LL.c **** 
1266:.\Generated_Source\PSoC4/CapSense_SensingCSX_LL.c **** /*******************************************************************************
1267:.\Generated_Source\PSoC4/CapSense_SensingCSX_LL.c **** * Function Name: CapSense_CSXDisconnectRx
1268:.\Generated_Source\PSoC4/CapSense_SensingCSX_LL.c **** ****************************************************************************//**
1269:.\Generated_Source\PSoC4/CapSense_SensingCSX_LL.c **** *
1270:.\Generated_Source\PSoC4/CapSense_SensingCSX_LL.c **** * \brief
1271:.\Generated_Source\PSoC4/CapSense_SensingCSX_LL.c **** *   Disconnects an RX electrode from the CSX scanning hardware.
1272:.\Generated_Source\PSoC4/CapSense_SensingCSX_LL.c **** *
1273:.\Generated_Source\PSoC4/CapSense_SensingCSX_LL.c **** * \details
1274:.\Generated_Source\PSoC4/CapSense_SensingCSX_LL.c **** *   This function disconnects a port pin (Rx electrode) from  AMUXBUS_A  and
1275:.\Generated_Source\PSoC4/CapSense_SensingCSX_LL.c **** *   configures the port pin to the strong drive mode. It is assumed that the data
1276:.\Generated_Source\PSoC4/CapSense_SensingCSX_LL.c **** *   register (GPIO_PRTx_DR)of the port pin is already 0.
1277:.\Generated_Source\PSoC4/CapSense_SensingCSX_LL.c **** *   This API can be used for faster execution time when there is only one port
1278:.\Generated_Source\PSoC4/CapSense_SensingCSX_LL.c **** *   pin for an electrode. Not recommended to call from the application layer.
1279:.\Generated_Source\PSoC4/CapSense_SensingCSX_LL.c **** *
1280:.\Generated_Source\PSoC4/CapSense_SensingCSX_LL.c **** * \param  rxPtr   The pointer to a register map object that contains CSX RX pin
1281:.\Generated_Source\PSoC4/CapSense_SensingCSX_LL.c **** *                     information.
1282:.\Generated_Source\PSoC4/CapSense_SensingCSX_LL.c **** *
1283:.\Generated_Source\PSoC4/CapSense_SensingCSX_LL.c **** *******************************************************************************/
1284:.\Generated_Source\PSoC4/CapSense_SensingCSX_LL.c **** void CapSense_CSXDisconnectRx(CapSense_FLASH_IO_STRUCT const *rxPtr)
1285:.\Generated_Source\PSoC4/CapSense_SensingCSX_LL.c **** {
1286:.\Generated_Source\PSoC4/CapSense_SensingCSX_LL.c ****     uint32 regValue;
1287:.\Generated_Source\PSoC4/CapSense_SensingCSX_LL.c **** 
1288:.\Generated_Source\PSoC4/CapSense_SensingCSX_LL.c ****     regValue = CY_GET_REG32 (rxPtr->hsiomPtr);
1289:.\Generated_Source\PSoC4/CapSense_SensingCSX_LL.c ****     regValue &= ~(rxPtr->hsiomMask);
1290:.\Generated_Source\PSoC4/CapSense_SensingCSX_LL.c ****     CY_SET_REG32 (rxPtr->hsiomPtr, regValue);
1291:.\Generated_Source\PSoC4/CapSense_SensingCSX_LL.c **** 
1292:.\Generated_Source\PSoC4/CapSense_SensingCSX_LL.c ****     regValue = CY_GET_REG32 (rxPtr->pcPtr);
1293:.\Generated_Source\PSoC4/CapSense_SensingCSX_LL.c ****     regValue &= ~(CapSense_GPIO_PC_MASK << rxPtr->shift);
1294:.\Generated_Source\PSoC4/CapSense_SensingCSX_LL.c ****     regValue |=  (CapSense_GPIO_STRGDRV << rxPtr->shift);
1295:.\Generated_Source\PSoC4/CapSense_SensingCSX_LL.c ****     CY_SET_REG32 (rxPtr->pcPtr, regValue);
1296:.\Generated_Source\PSoC4/CapSense_SensingCSX_LL.c **** 
1297:.\Generated_Source\PSoC4/CapSense_SensingCSX_LL.c ****     regValue = CY_GET_REG32 (rxPtr->drPtr);
1298:.\Generated_Source\PSoC4/CapSense_SensingCSX_LL.c ****     regValue &=  ~(rxPtr->mask);
1299:.\Generated_Source\PSoC4/CapSense_SensingCSX_LL.c ****     CY_SET_REG32 (rxPtr->drPtr, regValue);
1300:.\Generated_Source\PSoC4/CapSense_SensingCSX_LL.c **** }
ARM GAS  C:\Users\Alan\AppData\Local\Temp\ccbGKewn.s 			page 27


1301:.\Generated_Source\PSoC4/CapSense_SensingCSX_LL.c **** 
1302:.\Generated_Source\PSoC4/CapSense_SensingCSX_LL.c **** 
1303:.\Generated_Source\PSoC4/CapSense_SensingCSX_LL.c **** #if(CapSense_ENABLE == CapSense_CSDV2)
1304:.\Generated_Source\PSoC4/CapSense_SensingCSX_LL.c **** 
1305:.\Generated_Source\PSoC4/CapSense_SensingCSX_LL.c ****     /*******************************************************************************
1306:.\Generated_Source\PSoC4/CapSense_SensingCSX_LL.c ****     * Function Name: CapSense_SsCSXScanISR
1307:.\Generated_Source\PSoC4/CapSense_SensingCSX_LL.c ****     ****************************************************************************//**
1308:.\Generated_Source\PSoC4/CapSense_SensingCSX_LL.c ****     *
1309:.\Generated_Source\PSoC4/CapSense_SensingCSX_LL.c ****     * \brief
1310:.\Generated_Source\PSoC4/CapSense_SensingCSX_LL.c ****     *  This is the handler of the WDT interrupt in CPU NVIC. The handler is executed
1311:.\Generated_Source\PSoC4/CapSense_SensingCSX_LL.c ****     *  when normal sample is complete.
1312:.\Generated_Source\PSoC4/CapSense_SensingCSX_LL.c ****     *
1313:.\Generated_Source\PSoC4/CapSense_SensingCSX_LL.c ****     * \details
1314:.\Generated_Source\PSoC4/CapSense_SensingCSX_LL.c ****     *  This handler covers the following functionality:
1315:.\Generated_Source\PSoC4/CapSense_SensingCSX_LL.c ****     *   - Read result of measurement a store it into the corresponding register of
1316:.\Generated_Source\PSoC4/CapSense_SensingCSX_LL.c ****     *     the data structure.
1317:.\Generated_Source\PSoC4/CapSense_SensingCSX_LL.c ****     *   - If the Noise Metric functionality is enabled then check the number of bad
1318:.\Generated_Source\PSoC4/CapSense_SensingCSX_LL.c ****     *     conversions and repeat scan of the current sensor of the number of bad
1319:.\Generated_Source\PSoC4/CapSense_SensingCSX_LL.c ****     *     conversions is greater than Noise Metric Threshold.
1320:.\Generated_Source\PSoC4/CapSense_SensingCSX_LL.c ****     *   - Initiate scan of the next sensor for the multiple sensor scanning mode.
1321:.\Generated_Source\PSoC4/CapSense_SensingCSX_LL.c ****     *   - Update the Status register in the data structure.
1322:.\Generated_Source\PSoC4/CapSense_SensingCSX_LL.c ****     *   - Switch CSDv2 HW IP block to the default state is scanning of all sensors is
1323:.\Generated_Source\PSoC4/CapSense_SensingCSX_LL.c ****     *     completed.
1324:.\Generated_Source\PSoC4/CapSense_SensingCSX_LL.c ****     *
1325:.\Generated_Source\PSoC4/CapSense_SensingCSX_LL.c ****     *******************************************************************************/
1326:.\Generated_Source\PSoC4/CapSense_SensingCSX_LL.c ****     CY_ISR(CapSense_SsCSXScanISR)
1327:.\Generated_Source\PSoC4/CapSense_SensingCSX_LL.c ****     {
1328:.\Generated_Source\PSoC4/CapSense_SensingCSX_LL.c ****     #if(0u != CapSense_CSX_NOISE_METRIC_EN)
1329:.\Generated_Source\PSoC4/CapSense_SensingCSX_LL.c ****         uint32 tmpRegVal;
1330:.\Generated_Source\PSoC4/CapSense_SensingCSX_LL.c ****     #endif /* (0u != CapSense_CSX_NOISE_METRIC_EN) */
1331:.\Generated_Source\PSoC4/CapSense_SensingCSX_LL.c **** 
1332:.\Generated_Source\PSoC4/CapSense_SensingCSX_LL.c ****         CyIntDisable(CapSense_ISR_NUMBER);
1333:.\Generated_Source\PSoC4/CapSense_SensingCSX_LL.c **** 
1334:.\Generated_Source\PSoC4/CapSense_SensingCSX_LL.c ****         CY_SET_REG32(CapSense_INTR_PTR, CapSense_DEFAULT_CSD_INTR_CFG);
1335:.\Generated_Source\PSoC4/CapSense_SensingCSX_LL.c **** 
1336:.\Generated_Source\PSoC4/CapSense_SensingCSX_LL.c ****         CapSense_csxRawCount  = (uint16)(CY_GET_REG32(CapSense_RESULT_VAL1_PTR) &\
1337:.\Generated_Source\PSoC4/CapSense_SensingCSX_LL.c ****                                                              CapSense_RESULT_VAL1_VALUE_MASK);
1338:.\Generated_Source\PSoC4/CapSense_SensingCSX_LL.c **** 
1339:.\Generated_Source\PSoC4/CapSense_SensingCSX_LL.c ****         CapSense_csxRawCount += (uint16)(CY_GET_REG32(CapSense_RESULT_VAL2_PTR) &\
1340:.\Generated_Source\PSoC4/CapSense_SensingCSX_LL.c ****                                                              CapSense_RESULT_VAL2_VALUE_MASK);
1341:.\Generated_Source\PSoC4/CapSense_SensingCSX_LL.c **** 
1342:.\Generated_Source\PSoC4/CapSense_SensingCSX_LL.c ****     #if(0u != CapSense_CSX_NOISE_METRIC_EN)
1343:.\Generated_Source\PSoC4/CapSense_SensingCSX_LL.c ****         tmpRegVal = CY_GET_REG32(CapSense_RESULT_VAL1_PTR) >> CapSense_RESULT_VAL1_BAD_CONVS_SHIFT;
1344:.\Generated_Source\PSoC4/CapSense_SensingCSX_LL.c **** 
1345:.\Generated_Source\PSoC4/CapSense_SensingCSX_LL.c ****         if((tmpRegVal > CapSense_CSX_NOISE_METRIC_TH) && (CapSense_resamplingCyclesCnt > 0uL))
1346:.\Generated_Source\PSoC4/CapSense_SensingCSX_LL.c ****         {
1347:.\Generated_Source\PSoC4/CapSense_SensingCSX_LL.c ****             CY_SET_REG32(CapSense_SEQ_START_PTR, CapSense_SCAN_CSD_SEQ_START_CFG);
1348:.\Generated_Source\PSoC4/CapSense_SensingCSX_LL.c ****             CapSense_resamplingCyclesCnt--;
1349:.\Generated_Source\PSoC4/CapSense_SensingCSX_LL.c ****         }
1350:.\Generated_Source\PSoC4/CapSense_SensingCSX_LL.c ****         else
1351:.\Generated_Source\PSoC4/CapSense_SensingCSX_LL.c ****         {
1352:.\Generated_Source\PSoC4/CapSense_SensingCSX_LL.c ****             CapSense_CSXPostScanApiPtr();
1353:.\Generated_Source\PSoC4/CapSense_SensingCSX_LL.c ****             CapSense_resamplingCyclesCnt = CapSense_RESAMPLING_CYCLES_MAX_NUMBER;
1354:.\Generated_Source\PSoC4/CapSense_SensingCSX_LL.c ****         }
1355:.\Generated_Source\PSoC4/CapSense_SensingCSX_LL.c ****     #else
1356:.\Generated_Source\PSoC4/CapSense_SensingCSX_LL.c ****         CapSense_CSXPostScanApiPtr();
1357:.\Generated_Source\PSoC4/CapSense_SensingCSX_LL.c ****     #endif /* (0u != CapSense_CSX_NOISE_METRIC_EN) */
ARM GAS  C:\Users\Alan\AppData\Local\Temp\ccbGKewn.s 			page 28


1358:.\Generated_Source\PSoC4/CapSense_SensingCSX_LL.c **** 
1359:.\Generated_Source\PSoC4/CapSense_SensingCSX_LL.c ****         if(CapSense_NOT_BUSY == (CapSense_dsRam.status & CapSense_SW_STS_BUSY))
1360:.\Generated_Source\PSoC4/CapSense_SensingCSX_LL.c ****         {
1361:.\Generated_Source\PSoC4/CapSense_SensingCSX_LL.c ****             CY_SET_REG32(CapSense_CONFIG_PTR, CapSense_DEFAULT_CSD_CONFIG_CFG);
1362:.\Generated_Source\PSoC4/CapSense_SensingCSX_LL.c ****             CY_SET_REG32(CapSense_CSDCMP_PTR, CapSense_DEFAULT_CSD_CSDCMP_CFG);
1363:.\Generated_Source\PSoC4/CapSense_SensingCSX_LL.c ****             CY_SET_REG32(CapSense_IDAC_MOD_PTR, CapSense_DEFAULT_CSD_IDACA_CFG);
1364:.\Generated_Source\PSoC4/CapSense_SensingCSX_LL.c ****         }
1365:.\Generated_Source\PSoC4/CapSense_SensingCSX_LL.c **** 
1366:.\Generated_Source\PSoC4/CapSense_SensingCSX_LL.c ****         CyIntEnable(CapSense_ISR_NUMBER);
1367:.\Generated_Source\PSoC4/CapSense_SensingCSX_LL.c ****     }
1368:.\Generated_Source\PSoC4/CapSense_SensingCSX_LL.c **** 
1369:.\Generated_Source\PSoC4/CapSense_SensingCSX_LL.c ****     #if(CapSense_CLK_SOURCE_PRSAUTO == CapSense_CSX_TX_CLK_SOURCE)
1370:.\Generated_Source\PSoC4/CapSense_SensingCSX_LL.c ****         /*******************************************************************************
1371:.\Generated_Source\PSoC4/CapSense_SensingCSX_LL.c ****         * Function Name: CapSense_SsCsxCalcLfsrSize
1372:.\Generated_Source\PSoC4/CapSense_SensingCSX_LL.c ****         ****************************************************************************//**
1373:.\Generated_Source\PSoC4/CapSense_SensingCSX_LL.c ****         *
1374:.\Generated_Source\PSoC4/CapSense_SensingCSX_LL.c ****         * \brief
1375:.\Generated_Source\PSoC4/CapSense_SensingCSX_LL.c ****         *   The function finds SSC polynomial size in the Auto mode.
1376:.\Generated_Source\PSoC4/CapSense_SensingCSX_LL.c ****         *
1377:.\Generated_Source\PSoC4/CapSense_SensingCSX_LL.c ****         * \details
1378:.\Generated_Source\PSoC4/CapSense_SensingCSX_LL.c ****         *   The SSC polynomial size in the Auto mode is found based on the following
1379:.\Generated_Source\PSoC4/CapSense_SensingCSX_LL.c ****         *   requirements:
1380:.\Generated_Source\PSoC4/CapSense_SensingCSX_LL.c ****         *   - LFSR value should be selected such as max clock dither is limited with +/-10%;
1381:.\Generated_Source\PSoC4/CapSense_SensingCSX_LL.c ****         *   - at least one full spread spectrum polynomial should pass during scan time.
1382:.\Generated_Source\PSoC4/CapSense_SensingCSX_LL.c ****         *
1383:.\Generated_Source\PSoC4/CapSense_SensingCSX_LL.c ****         *******************************************************************************/
1384:.\Generated_Source\PSoC4/CapSense_SensingCSX_LL.c ****         CY_INLINE static uint32 CapSense_SsCsxCalcLfsrSize(uint32 convCyclesNum)
1385:.\Generated_Source\PSoC4/CapSense_SensingCSX_LL.c ****         {
1386:.\Generated_Source\PSoC4/CapSense_SensingCSX_LL.c ****             uint32 retVal;
1387:.\Generated_Source\PSoC4/CapSense_SensingCSX_LL.c **** 
1388:.\Generated_Source\PSoC4/CapSense_SensingCSX_LL.c ****             if (convCyclesNum > CapSense_SNSCLK_SSC3_THRESHOLD)
1389:.\Generated_Source\PSoC4/CapSense_SensingCSX_LL.c ****             {
1390:.\Generated_Source\PSoC4/CapSense_SensingCSX_LL.c ****                 retVal = CapSense_CLK_SOURCE_SSC3;
1391:.\Generated_Source\PSoC4/CapSense_SensingCSX_LL.c ****             }
1392:.\Generated_Source\PSoC4/CapSense_SensingCSX_LL.c ****             else if (convCyclesNum > CapSense_SNSCLK_SSC4_THRESHOLD)
1393:.\Generated_Source\PSoC4/CapSense_SensingCSX_LL.c ****             {
1394:.\Generated_Source\PSoC4/CapSense_SensingCSX_LL.c ****                 retVal = CapSense_CLK_SOURCE_SSC4;
1395:.\Generated_Source\PSoC4/CapSense_SensingCSX_LL.c ****             }
1396:.\Generated_Source\PSoC4/CapSense_SensingCSX_LL.c ****             else if (convCyclesNum > CapSense_SNSCLK_SSC5_THRESHOLD)
1397:.\Generated_Source\PSoC4/CapSense_SensingCSX_LL.c ****             {
1398:.\Generated_Source\PSoC4/CapSense_SensingCSX_LL.c ****                 retVal = CapSense_CLK_SOURCE_SSC5;
1399:.\Generated_Source\PSoC4/CapSense_SensingCSX_LL.c ****             }
1400:.\Generated_Source\PSoC4/CapSense_SensingCSX_LL.c ****             else
1401:.\Generated_Source\PSoC4/CapSense_SensingCSX_LL.c ****             {
1402:.\Generated_Source\PSoC4/CapSense_SensingCSX_LL.c ****                 retVal = CapSense_CLK_SOURCE_SSC2;
1403:.\Generated_Source\PSoC4/CapSense_SensingCSX_LL.c ****             }
1404:.\Generated_Source\PSoC4/CapSense_SensingCSX_LL.c **** 
1405:.\Generated_Source\PSoC4/CapSense_SensingCSX_LL.c ****             return (retVal);
1406:.\Generated_Source\PSoC4/CapSense_SensingCSX_LL.c ****         }
1407:.\Generated_Source\PSoC4/CapSense_SensingCSX_LL.c ****     #endif /* (CapSense_CLK_SOURCE_PRSAUTO == CapSense_CSX_TX_CLK_SOURCE) */
1408:.\Generated_Source\PSoC4/CapSense_SensingCSX_LL.c **** 
1409:.\Generated_Source\PSoC4/CapSense_SensingCSX_LL.c **** 
1410:.\Generated_Source\PSoC4/CapSense_SensingCSX_LL.c ****     /*******************************************************************************
1411:.\Generated_Source\PSoC4/CapSense_SensingCSX_LL.c ****     * Function Name: CapSense_SsCSXStartSampleExt
1412:.\Generated_Source\PSoC4/CapSense_SensingCSX_LL.c ****     ****************************************************************************//**
1413:.\Generated_Source\PSoC4/CapSense_SensingCSX_LL.c ****     *
1414:.\Generated_Source\PSoC4/CapSense_SensingCSX_LL.c ****     * \brief
ARM GAS  C:\Users\Alan\AppData\Local\Temp\ccbGKewn.s 			page 29


1415:.\Generated_Source\PSoC4/CapSense_SensingCSX_LL.c ****     *   Starts the CSDV2 sequencer to perform the CSX conversion.
1416:.\Generated_Source\PSoC4/CapSense_SensingCSX_LL.c ****     *   specific widget.
1417:.\Generated_Source\PSoC4/CapSense_SensingCSX_LL.c ****     *
1418:.\Generated_Source\PSoC4/CapSense_SensingCSX_LL.c ****     * \details
1419:.\Generated_Source\PSoC4/CapSense_SensingCSX_LL.c ****     *   This function covers the following functionality:
1420:.\Generated_Source\PSoC4/CapSense_SensingCSX_LL.c ****     *      1. Configures the CSDV2 sequencer to perform the coarse initialization.
1421:.\Generated_Source\PSoC4/CapSense_SensingCSX_LL.c ****     *      2. Waiting for completion of the coarse initialization.
1422:.\Generated_Source\PSoC4/CapSense_SensingCSX_LL.c ****     *      3. Configures the CSDV2 sequencer to perform the normal conversion.
1423:.\Generated_Source\PSoC4/CapSense_SensingCSX_LL.c ****     *      4. Starts the normal conversion
1424:.\Generated_Source\PSoC4/CapSense_SensingCSX_LL.c ****     *
1425:.\Generated_Source\PSoC4/CapSense_SensingCSX_LL.c ****     *******************************************************************************/
1426:.\Generated_Source\PSoC4/CapSense_SensingCSX_LL.c ****     CY_INLINE static void CapSense_SsCSXStartSampleExt(void)
1427:.\Generated_Source\PSoC4/CapSense_SensingCSX_LL.c ****     {
1428:.\Generated_Source\PSoC4/CapSense_SensingCSX_LL.c ****         uint32 filterDelay;
1429:.\Generated_Source\PSoC4/CapSense_SensingCSX_LL.c ****         uint32 watchdogCounter;
1430:.\Generated_Source\PSoC4/CapSense_SensingCSX_LL.c ****         uint32 sampleClkFreqHz;
1431:.\Generated_Source\PSoC4/CapSense_SensingCSX_LL.c **** 
1432:.\Generated_Source\PSoC4/CapSense_SensingCSX_LL.c ****         /* Configure the CSDV2 sequencer to perform the coarse initialization. */
1433:.\Generated_Source\PSoC4/CapSense_SensingCSX_LL.c ****         CY_SET_REG32(CapSense_CONFIG_PTR,           CapSense_DEFAULT_CSD_CONFIG_CFG);
 180              		.loc 1 1433 0
 181 001c 324A     		ldr	r2, .L17+20
 182 001e 334B     		ldr	r3, .L17+24
 183 0020 1A60     		str	r2, [r3]
1434:.\Generated_Source\PSoC4/CapSense_SensingCSX_LL.c ****         CY_SET_REG32(CapSense_HSCMP_PTR,            CapSense_PRECHARGE_CSD_HSCMP_CFG);
 184              		.loc 1 1434 0
 185 0022 0122     		mov	r2, #1
 186 0024 324B     		ldr	r3, .L17+28
 187 0026 1A60     		str	r2, [r3]
1435:.\Generated_Source\PSoC4/CapSense_SensingCSX_LL.c ****         CY_SET_REG32(CapSense_SW_HS_P_SEL_PTR,      CapSense_PRECHARGE_CSD_SW_HS_P_SEL_CFG);
 188              		.loc 1 1435 0
 189 0028 1123     		mov	r3, #17
 190 002a 324A     		ldr	r2, .L17+32
 191 002c 1360     		str	r3, [r2]
1436:.\Generated_Source\PSoC4/CapSense_SensingCSX_LL.c ****         CY_SET_REG32(CapSense_SW_HS_N_SEL_PTR,      CapSense_PRECHARGE_CSD_SW_HS_N_SEL_CFG);
 192              		.loc 1 1436 0
 193 002e 8021     		mov	r1, #128
 194 0030 4904     		lsl	r1, r1, #17
 195 0032 314A     		ldr	r2, .L17+36
 196 0034 1160     		str	r1, [r2]
1437:.\Generated_Source\PSoC4/CapSense_SensingCSX_LL.c ****         CY_SET_REG32(CapSense_SW_DSI_SEL_PTR,       CapSense_PRECHARGE_CSD_SW_DSI_SEL_CFG);
 197              		.loc 1 1437 0
 198 0036 314A     		ldr	r2, .L17+40
 199 0038 1360     		str	r3, [r2]
1438:.\Generated_Source\PSoC4/CapSense_SensingCSX_LL.c ****         CY_SET_REG32(CapSense_SW_SHIELD_SEL_PTR,    CapSense_PRECHARGE_CSD_SW_SHIELD_SEL_CFG);
 200              		.loc 1 1438 0
 201 003a 0622     		mov	r2, #6
 202 003c 304B     		ldr	r3, .L17+44
 203 003e 1A60     		str	r2, [r3]
1439:.\Generated_Source\PSoC4/CapSense_SensingCSX_LL.c ****         CY_SET_REG32(CapSense_SW_FW_MOD_SEL_PTR,    CapSense_PRECHARGE_CSD_SW_FW_MOD_SEL_CFG);
 204              		.loc 1 1439 0
 205 0040 304A     		ldr	r2, .L17+48
 206 0042 314B     		ldr	r3, .L17+52
 207 0044 1A60     		str	r2, [r3]
1440:.\Generated_Source\PSoC4/CapSense_SensingCSX_LL.c ****         CY_SET_REG32(CapSense_SW_FW_TANK_SEL_PTR,   CapSense_PRECHARGE_CSD_SW_FW_TANK_SEL_CFG);
 208              		.loc 1 1440 0
 209 0046 314A     		ldr	r2, .L17+56
 210 0048 314B     		ldr	r3, .L17+60
ARM GAS  C:\Users\Alan\AppData\Local\Temp\ccbGKewn.s 			page 30


 211 004a 1A60     		str	r2, [r3]
1441:.\Generated_Source\PSoC4/CapSense_SensingCSX_LL.c ****         CY_SET_REG32(CapSense_SEQ_START_PTR,        CapSense_PRECHARGE_CSD_SEQ_START_CFG);
 212              		.loc 1 1441 0
 213 004c 314A     		ldr	r2, .L17+64
 214 004e 324B     		ldr	r3, .L17+68
 215 0050 1A60     		str	r2, [r3]
 216              	.LVL16:
1442:.\Generated_Source\PSoC4/CapSense_SensingCSX_LL.c **** 
1443:.\Generated_Source\PSoC4/CapSense_SensingCSX_LL.c ****         /* Wait for the HSCMP trigger and retutn the sequencer to the IDLE state. */
1444:.\Generated_Source\PSoC4/CapSense_SensingCSX_LL.c ****         watchdogCounter = CapSense_CSX_PRECHARGE_WATCHDOG_CYCLES_NUM;
 217              		.loc 1 1444 0
 218 0052 F023     		mov	r3, #240
 219 0054 5B00     		lsl	r3, r3, #1
 220 0056 00E0     		b	.L10
 221              	.LVL17:
 222              	.L12:
1445:.\Generated_Source\PSoC4/CapSense_SensingCSX_LL.c ****         while((0u != (CapSense_SEQ_START_START_MASK & CY_GET_REG32(CapSense_SEQ_START_PTR))) && (0u
1446:.\Generated_Source\PSoC4/CapSense_SensingCSX_LL.c ****         {
1447:.\Generated_Source\PSoC4/CapSense_SensingCSX_LL.c ****             watchdogCounter--;
 223              		.loc 1 1447 0
 224 0058 013B     		sub	r3, r3, #1
 225              	.LVL18:
 226              	.L10:
1445:.\Generated_Source\PSoC4/CapSense_SensingCSX_LL.c ****         while((0u != (CapSense_SEQ_START_START_MASK & CY_GET_REG32(CapSense_SEQ_START_PTR))) && (0u
 227              		.loc 1 1445 0
 228 005a 2F4A     		ldr	r2, .L17+68
 229 005c 1268     		ldr	r2, [r2]
 230 005e D207     		lsl	r2, r2, #31
 231 0060 01D5     		bpl	.L11
 232 0062 002B     		cmp	r3, #0
 233 0064 F8D1     		bne	.L12
 234              	.L11:
1448:.\Generated_Source\PSoC4/CapSense_SensingCSX_LL.c ****         }
1449:.\Generated_Source\PSoC4/CapSense_SensingCSX_LL.c **** 
1450:.\Generated_Source\PSoC4/CapSense_SensingCSX_LL.c ****         /* Reset the sequencer to the IDLE state if HSCMP not triggered till watchdog period is out
1451:.\Generated_Source\PSoC4/CapSense_SensingCSX_LL.c ****         if(0u != (CapSense_SEQ_START_START_MASK & CY_GET_REG32(CapSense_SEQ_START_PTR)))
 235              		.loc 1 1451 0
 236 0066 2C4B     		ldr	r3, .L17+68
 237              	.LVL19:
 238 0068 1B68     		ldr	r3, [r3]
 239 006a DB07     		lsl	r3, r3, #31
 240 006c 03D5     		bpl	.L13
1452:.\Generated_Source\PSoC4/CapSense_SensingCSX_LL.c ****         {
1453:.\Generated_Source\PSoC4/CapSense_SensingCSX_LL.c ****             CY_SET_REG32(CapSense_SEQ_START_PTR,  CapSense_DEFAULT_CSD_SEQ_START_CFG);
 241              		.loc 1 1453 0
 242 006e C222     		mov	r2, #194
 243 0070 9200     		lsl	r2, r2, #2
 244 0072 294B     		ldr	r3, .L17+68
 245 0074 1A60     		str	r2, [r3]
 246              	.L13:
1454:.\Generated_Source\PSoC4/CapSense_SensingCSX_LL.c ****         }
1455:.\Generated_Source\PSoC4/CapSense_SensingCSX_LL.c **** 
1456:.\Generated_Source\PSoC4/CapSense_SensingCSX_LL.c ****         sampleClkFreqHz = CYDEV_BCLK__HFCLK__HZ / (uint32)CapSense_dsRam.modCsxClk;
 247              		.loc 1 1456 0
 248 0076 294B     		ldr	r3, .L17+72
 249 0078 997E     		ldrb	r1, [r3, #26]
 250 007a 2948     		ldr	r0, .L17+76
ARM GAS  C:\Users\Alan\AppData\Local\Temp\ccbGKewn.s 			page 31


 251 007c FFF7FEFF 		bl	__aeabi_uidiv
 252              	.LVL20:
1457:.\Generated_Source\PSoC4/CapSense_SensingCSX_LL.c ****         if(sampleClkFreqHz <= CapSense_MOD_CSD_CLK_12MHZ)
 253              		.loc 1 1457 0
 254 0080 284B     		ldr	r3, .L17+80
 255 0082 9842     		cmp	r0, r3
 256 0084 04D9     		bls	.L15
1458:.\Generated_Source\PSoC4/CapSense_SensingCSX_LL.c ****         {
1459:.\Generated_Source\PSoC4/CapSense_SensingCSX_LL.c ****             filterDelay = CapSense_CONFIG_FILTER_DELAY_12MHZ;
1460:.\Generated_Source\PSoC4/CapSense_SensingCSX_LL.c ****         }
1461:.\Generated_Source\PSoC4/CapSense_SensingCSX_LL.c ****         else if(sampleClkFreqHz <= CapSense_MOD_CSD_CLK_24MHZ)
 257              		.loc 1 1461 0
 258 0086 264B     		ldr	r3, .L17+76
 259 0088 9842     		cmp	r0, r3
 260 008a 03D8     		bhi	.L16
1462:.\Generated_Source\PSoC4/CapSense_SensingCSX_LL.c ****         {
1463:.\Generated_Source\PSoC4/CapSense_SensingCSX_LL.c ****             filterDelay = CapSense_CONFIG_FILTER_DELAY_24MHZ;
 261              		.loc 1 1463 0
 262 008c 3023     		mov	r3, #48
 263 008e 02E0     		b	.L14
 264              	.L15:
1459:.\Generated_Source\PSoC4/CapSense_SensingCSX_LL.c ****         }
 265              		.loc 1 1459 0
 266 0090 2023     		mov	r3, #32
 267 0092 00E0     		b	.L14
 268              	.L16:
1464:.\Generated_Source\PSoC4/CapSense_SensingCSX_LL.c ****         }
1465:.\Generated_Source\PSoC4/CapSense_SensingCSX_LL.c ****         else
1466:.\Generated_Source\PSoC4/CapSense_SensingCSX_LL.c ****         {
1467:.\Generated_Source\PSoC4/CapSense_SensingCSX_LL.c ****             filterDelay = CapSense_CONFIG_FILTER_DELAY_48MHZ;
 269              		.loc 1 1467 0
 270 0094 4023     		mov	r3, #64
 271              	.L14:
 272              	.LVL21:
1468:.\Generated_Source\PSoC4/CapSense_SensingCSX_LL.c ****         }
1469:.\Generated_Source\PSoC4/CapSense_SensingCSX_LL.c **** 
1470:.\Generated_Source\PSoC4/CapSense_SensingCSX_LL.c ****         /* Configure the CSDV2 sequencer to perform the normal conversion. */
1471:.\Generated_Source\PSoC4/CapSense_SensingCSX_LL.c ****         CY_SET_REG32(CapSense_CONFIG_PTR, CapSense_PRESCAN_CSD_CONFIG_CFG | filterDelay);
 273              		.loc 1 1471 0
 274 0096 244A     		ldr	r2, .L17+84
 275 0098 1343     		orr	r3, r2
 276              	.LVL22:
 277 009a 144A     		ldr	r2, .L17+24
 278 009c 1360     		str	r3, [r2]
1472:.\Generated_Source\PSoC4/CapSense_SensingCSX_LL.c ****         CY_SET_REG32(CapSense_CSDCMP_PTR, CapSense_PRESCAN_CSD_CSDCMP_CFG);
 279              		.loc 1 1472 0
 280 009e 234A     		ldr	r2, .L17+88
 281 00a0 234B     		ldr	r3, .L17+92
 282 00a2 1A60     		str	r2, [r3]
1473:.\Generated_Source\PSoC4/CapSense_SensingCSX_LL.c ****         CY_SET_REG32(CapSense_HSCMP_PTR,            CapSense_DEFAULT_CSD_HSCMP_CFG);
 283              		.loc 1 1473 0
 284 00a4 0023     		mov	r3, #0
 285 00a6 1249     		ldr	r1, .L17+28
 286 00a8 0B60     		str	r3, [r1]
1474:.\Generated_Source\PSoC4/CapSense_SensingCSX_LL.c ****         CY_SET_REG32(CapSense_SW_HS_P_SEL_PTR,      CapSense_DEFAULT_CSD_SW_HS_P_SEL_CFG);
 287              		.loc 1 1474 0
 288 00aa 1249     		ldr	r1, .L17+32
ARM GAS  C:\Users\Alan\AppData\Local\Temp\ccbGKewn.s 			page 32


 289 00ac 0B60     		str	r3, [r1]
1475:.\Generated_Source\PSoC4/CapSense_SensingCSX_LL.c ****         CY_SET_REG32(CapSense_SW_HS_N_SEL_PTR,      CapSense_DEFAULT_CSD_SW_HS_N_SEL_CFG);
 290              		.loc 1 1475 0
 291 00ae 1249     		ldr	r1, .L17+36
 292 00b0 0B60     		str	r3, [r1]
1476:.\Generated_Source\PSoC4/CapSense_SensingCSX_LL.c ****         CY_SET_REG32(CapSense_SW_DSI_SEL_PTR,       CapSense_DEFAULT_CSD_SW_DSI_SEL_CFG);
 293              		.loc 1 1476 0
 294 00b2 2320     		mov	r0, #35
 295              	.LVL23:
 296 00b4 1149     		ldr	r1, .L17+40
 297 00b6 0860     		str	r0, [r1]
1477:.\Generated_Source\PSoC4/CapSense_SensingCSX_LL.c ****         CY_SET_REG32(CapSense_SW_SHIELD_SEL_PTR,    CapSense_DEFAULT_CSD_SW_SHIELD_SEL_CFG);
 298              		.loc 1 1477 0
 299 00b8 1149     		ldr	r1, .L17+44
 300 00ba 0B60     		str	r3, [r1]
1478:.\Generated_Source\PSoC4/CapSense_SensingCSX_LL.c ****         CY_SET_REG32(CapSense_SW_FW_MOD_SEL_PTR,    CapSense_DEFAULT_CSD_SW_FW_MOD_SEL_CFG);
 301              		.loc 1 1478 0
 302 00bc 1249     		ldr	r1, .L17+52
 303 00be 0B60     		str	r3, [r1]
1479:.\Generated_Source\PSoC4/CapSense_SensingCSX_LL.c ****         CY_SET_REG32(CapSense_SW_FW_TANK_SEL_PTR,   CapSense_DEFAULT_CSD_SW_FW_TANK_SEL_CFG);
 304              		.loc 1 1479 0
 305 00c0 1349     		ldr	r1, .L17+60
 306 00c2 0B60     		str	r3, [r1]
1480:.\Generated_Source\PSoC4/CapSense_SensingCSX_LL.c ****         CY_SET_REG32(CapSense_INTR_PTR,             CapSense_DEFAULT_CSD_INTR_CFG);
 307              		.loc 1 1480 0
 308 00c4 8321     		mov	r1, #131
 309 00c6 4900     		lsl	r1, r1, #1
 310 00c8 1A4B     		ldr	r3, .L17+96
 311 00ca 1960     		str	r1, [r3]
1481:.\Generated_Source\PSoC4/CapSense_SensingCSX_LL.c **** 
1482:.\Generated_Source\PSoC4/CapSense_SensingCSX_LL.c ****         /* Start the normal conversion. */
1483:.\Generated_Source\PSoC4/CapSense_SensingCSX_LL.c ****         CY_SET_REG32(CapSense_SEQ_START_PTR, CapSense_SCAN_CSD_SEQ_START_CFG);
 312              		.loc 1 1483 0
 313 00cc 124B     		ldr	r3, .L17+68
 314 00ce 1A60     		str	r2, [r3]
 315              	.LBE7:
 316              	.LBE6:
1146:.\Generated_Source\PSoC4/CapSense_SensingCSX_LL.c **** #else
 317              		.loc 1 1146 0
 318              		@ sp needed
 319 00d0 08BD     		pop	{r3, pc}
 320              	.L18:
 321 00d2 C046     		.align	2
 322              	.L17:
 323 00d4 00000000 		.word	CapSense_curRamSnsPtr
 324 00d8 00000000 		.word	CapSense_scanFreqIndex
 325 00dc 800E4301 		.word	21171840
 326 00e0 C0010B40 		.word	1074463168
 327 00e4 00000000 		.word	.LANCHOR0
 328 00e8 20100480 		.word	-2147217376
 329 00ec 00000B40 		.word	1074462720
 330 00f0 80010B40 		.word	1074463104
 331 00f4 80020B40 		.word	1074463360
 332 00f8 84020B40 		.word	1074463364
 333 00fc C0020B40 		.word	1074463424
 334 0100 88020B40 		.word	1074463368
 335 0104 01010100 		.word	65793
ARM GAS  C:\Users\Alan\AppData\Local\Temp\ccbGKewn.s 			page 33


 336 0108 B0020B40 		.word	1074463408
 337 010c 10100000 		.word	4112
 338 0110 B4020B40 		.word	1074463412
 339 0114 03030000 		.word	771
 340 0118 40030B40 		.word	1074463552
 341 011c 00000000 		.word	CapSense_dsRam
 342 0120 00366E01 		.word	24000000
 343 0124 001BB700 		.word	12000000
 344 0128 00100C80 		.word	-2146693120
 345 012c 01030000 		.word	769
 346 0130 8C010B40 		.word	1074463116
 347 0134 F0000B40 		.word	1074462960
 348              		.cfi_endproc
 349              	.LFE11:
 350              		.size	CapSense_SsCSXStartSample, .-CapSense_SsCSXStartSample
 351              		.section	.text.CapSense_SsCSXScanISR,"ax",%progbits
 352              		.align	2
 353              		.global	CapSense_SsCSXScanISR
 354              		.code	16
 355              		.thumb_func
 356              		.type	CapSense_SsCSXScanISR, %function
 357              	CapSense_SsCSXScanISR:
 358              	.LFB16:
1327:.\Generated_Source\PSoC4/CapSense_SensingCSX_LL.c ****     #if(0u != CapSense_CSX_NOISE_METRIC_EN)
 359              		.loc 1 1327 0
 360              		.cfi_startproc
 361 0000 08B5     		push	{r3, lr}
 362              		.cfi_def_cfa_offset 8
 363              		.cfi_offset 3, -8
 364              		.cfi_offset 14, -4
1332:.\Generated_Source\PSoC4/CapSense_SensingCSX_LL.c **** 
 365              		.loc 1 1332 0
 366 0002 0A20     		mov	r0, #10
 367 0004 FFF7FEFF 		bl	CyIntDisable
 368              	.LVL24:
1334:.\Generated_Source\PSoC4/CapSense_SensingCSX_LL.c **** 
 369              		.loc 1 1334 0
 370 0008 8322     		mov	r2, #131
 371 000a 5200     		lsl	r2, r2, #1
 372 000c 104B     		ldr	r3, .L21
 373 000e 1A60     		str	r2, [r3]
1336:.\Generated_Source\PSoC4/CapSense_SensingCSX_LL.c ****                                                              CapSense_RESULT_VAL1_VALUE_MASK);
 374              		.loc 1 1336 0
 375 0010 104B     		ldr	r3, .L21+4
 376 0012 1B68     		ldr	r3, [r3]
 377 0014 9BB2     		uxth	r3, r3
 378 0016 104A     		ldr	r2, .L21+8
 379 0018 5380     		strh	r3, [r2, #2]
1339:.\Generated_Source\PSoC4/CapSense_SensingCSX_LL.c ****                                                              CapSense_RESULT_VAL2_VALUE_MASK);
 380              		.loc 1 1339 0
 381 001a 104B     		ldr	r3, .L21+12
 382 001c 1968     		ldr	r1, [r3]
 383 001e 5388     		ldrh	r3, [r2, #2]
 384 0020 CB18     		add	r3, r1, r3
 385 0022 9BB2     		uxth	r3, r3
 386 0024 5380     		strh	r3, [r2, #2]
1356:.\Generated_Source\PSoC4/CapSense_SensingCSX_LL.c ****     #endif /* (0u != CapSense_CSX_NOISE_METRIC_EN) */
ARM GAS  C:\Users\Alan\AppData\Local\Temp\ccbGKewn.s 			page 34


 387              		.loc 1 1356 0
 388 0026 0E4B     		ldr	r3, .L21+16
 389 0028 1B68     		ldr	r3, [r3]
 390 002a 9847     		blx	r3
 391              	.LVL25:
1359:.\Generated_Source\PSoC4/CapSense_SensingCSX_LL.c ****         {
 392              		.loc 1 1359 0
 393 002c 0D4B     		ldr	r3, .L21+20
 394 002e 9B68     		ldr	r3, [r3, #8]
 395 0030 1B06     		lsl	r3, r3, #24
 396 0032 09D4     		bmi	.L20
1361:.\Generated_Source\PSoC4/CapSense_SensingCSX_LL.c ****             CY_SET_REG32(CapSense_CSDCMP_PTR, CapSense_DEFAULT_CSD_CSDCMP_CFG);
 397              		.loc 1 1361 0
 398 0034 0C4A     		ldr	r2, .L21+24
 399 0036 0D4B     		ldr	r3, .L21+28
 400 0038 1A60     		str	r2, [r3]
1362:.\Generated_Source\PSoC4/CapSense_SensingCSX_LL.c ****             CY_SET_REG32(CapSense_IDAC_MOD_PTR, CapSense_DEFAULT_CSD_IDACA_CFG);
 401              		.loc 1 1362 0
 402 003a C022     		mov	r2, #192
 403 003c 9200     		lsl	r2, r2, #2
 404 003e 0C4B     		ldr	r3, .L21+32
 405 0040 1A60     		str	r2, [r3]
1363:.\Generated_Source\PSoC4/CapSense_SensingCSX_LL.c ****         }
 406              		.loc 1 1363 0
 407 0042 0C4A     		ldr	r2, .L21+36
 408 0044 0C4B     		ldr	r3, .L21+40
 409 0046 1A60     		str	r2, [r3]
 410              	.L20:
1366:.\Generated_Source\PSoC4/CapSense_SensingCSX_LL.c ****     }
 411              		.loc 1 1366 0
 412 0048 0A20     		mov	r0, #10
 413 004a FFF7FEFF 		bl	CyIntEnable
 414              	.LVL26:
1367:.\Generated_Source\PSoC4/CapSense_SensingCSX_LL.c **** 
 415              		.loc 1 1367 0
 416              		@ sp needed
 417 004e 08BD     		pop	{r3, pc}
 418              	.L22:
 419              		.align	2
 420              	.L21:
 421 0050 F0000B40 		.word	1074462960
 422 0054 D0000B40 		.word	1074462928
 423 0058 00000000 		.word	.LANCHOR0
 424 005c D4000B40 		.word	1074462932
 425 0060 00000000 		.word	.LANCHOR1
 426 0064 00000000 		.word	CapSense_dsRam
 427 0068 20100480 		.word	-2147217376
 428 006c 00000B40 		.word	1074462720
 429 0070 8C010B40 		.word	1074463116
 430 0074 800E4301 		.word	21171840
 431 0078 C0010B40 		.word	1074463168
 432              		.cfi_endproc
 433              	.LFE16:
 434              		.size	CapSense_SsCSXScanISR, .-CapSense_SsCSXScanISR
 435              		.section	.text.CapSense_CSXInitialize,"ax",%progbits
 436              		.align	2
 437              		.global	CapSense_CSXInitialize
ARM GAS  C:\Users\Alan\AppData\Local\Temp\ccbGKewn.s 			page 35


 438              		.code	16
 439              		.thumb_func
 440              		.type	CapSense_CSXInitialize, %function
 441              	CapSense_CSXInitialize:
 442              	.LFB1:
 152:.\Generated_Source\PSoC4/CapSense_SensingCSX_LL.c ****     #if(CapSense_ENABLE == CapSense_CSDV2)
 443              		.loc 1 152 0
 444              		.cfi_startproc
 445 0000 10B5     		push	{r4, lr}
 446              		.cfi_def_cfa_offset 8
 447              		.cfi_offset 4, -8
 448              		.cfi_offset 14, -4
 449              	.LBB10:
 450              	.LBB11:
1484:.\Generated_Source\PSoC4/CapSense_SensingCSX_LL.c ****     }
1485:.\Generated_Source\PSoC4/CapSense_SensingCSX_LL.c **** 
1486:.\Generated_Source\PSoC4/CapSense_SensingCSX_LL.c ****     /*******************************************************************************
1487:.\Generated_Source\PSoC4/CapSense_SensingCSX_LL.c ****     * Function Name: CapSense_CSXV2HwSetup
1488:.\Generated_Source\PSoC4/CapSense_SensingCSX_LL.c ****     ****************************************************************************//**
1489:.\Generated_Source\PSoC4/CapSense_SensingCSX_LL.c ****     *
1490:.\Generated_Source\PSoC4/CapSense_SensingCSX_LL.c ****     * \brief
1491:.\Generated_Source\PSoC4/CapSense_SensingCSX_LL.c ****     *   Loads the CSDV2 HW IPm block configuration required for scanning sensors in a
1492:.\Generated_Source\PSoC4/CapSense_SensingCSX_LL.c ****     *   specific widget.
1493:.\Generated_Source\PSoC4/CapSense_SensingCSX_LL.c ****     *
1494:.\Generated_Source\PSoC4/CapSense_SensingCSX_LL.c ****     * \details
1495:.\Generated_Source\PSoC4/CapSense_SensingCSX_LL.c ****     *   This function covers the following functionality:
1496:.\Generated_Source\PSoC4/CapSense_SensingCSX_LL.c ****     *      1. Enable CSDV2 HW IP block.
1497:.\Generated_Source\PSoC4/CapSense_SensingCSX_LL.c ****     *      2. Enable the sense modulator output.
1498:.\Generated_Source\PSoC4/CapSense_SensingCSX_LL.c ****     *      3. Enable the CSDCMP comparator.
1499:.\Generated_Source\PSoC4/CapSense_SensingCSX_LL.c ****     *      4. Configure the SenseClock divider and thr size of the LFSR polynome.
1500:.\Generated_Source\PSoC4/CapSense_SensingCSX_LL.c ****     *      5. Configure the ModClk divider.
1501:.\Generated_Source\PSoC4/CapSense_SensingCSX_LL.c ****     *
1502:.\Generated_Source\PSoC4/CapSense_SensingCSX_LL.c ****     *******************************************************************************/
1503:.\Generated_Source\PSoC4/CapSense_SensingCSX_LL.c ****     CY_INLINE static void CapSense_CSXV2HwSetup(void)
1504:.\Generated_Source\PSoC4/CapSense_SensingCSX_LL.c ****     {
1505:.\Generated_Source\PSoC4/CapSense_SensingCSX_LL.c ****         uint32 tmpRegVal;
1506:.\Generated_Source\PSoC4/CapSense_SensingCSX_LL.c ****         uint32 snsClkVal;
1507:.\Generated_Source\PSoC4/CapSense_SensingCSX_LL.c **** 
1508:.\Generated_Source\PSoC4/CapSense_SensingCSX_LL.c ****         CapSense_RAM_WD_BASE_STRUCT * curRamWdgtBasePtr;
1509:.\Generated_Source\PSoC4/CapSense_SensingCSX_LL.c ****         curRamWdgtBasePtr = (CapSense_RAM_WD_BASE_STRUCT *)CapSense_curFlashWdgtPtr->ptr2WdgtRam;
1510:.\Generated_Source\PSoC4/CapSense_SensingCSX_LL.c **** 
1511:.\Generated_Source\PSoC4/CapSense_SensingCSX_LL.c ****         #if (0u != CapSense_CSX_COMMON_TX_CLK_EN)
1512:.\Generated_Source\PSoC4/CapSense_SensingCSX_LL.c ****             snsClkVal = (uint32)CapSense_dsRam.snsCsxClk;
1513:.\Generated_Source\PSoC4/CapSense_SensingCSX_LL.c ****         #else
1514:.\Generated_Source\PSoC4/CapSense_SensingCSX_LL.c ****             snsClkVal = (uint32)curRamWdgtBasePtr->snsClk;
1515:.\Generated_Source\PSoC4/CapSense_SensingCSX_LL.c ****         #endif /* (0u != CapSense_CSX_COMMON_TX_CLK_EN) */
1516:.\Generated_Source\PSoC4/CapSense_SensingCSX_LL.c **** 
1517:.\Generated_Source\PSoC4/CapSense_SensingCSX_LL.c ****         CY_SET_REG32(CapSense_SEQ_NORM_CNT_PTR, (uint32)curRamWdgtBasePtr->resolution);
1518:.\Generated_Source\PSoC4/CapSense_SensingCSX_LL.c **** 
1519:.\Generated_Source\PSoC4/CapSense_SensingCSX_LL.c ****         CapSense_csxScanPeriod  = LO16((uint32)curRamWdgtBasePtr->resolution * (uint32)snsClkVal);
1520:.\Generated_Source\PSoC4/CapSense_SensingCSX_LL.c ****         CapSense_csxScanPeriod -= LO16((uint32)curRamWdgtBasePtr->resolution * CapSense_CSX_DEADBAN
1521:.\Generated_Source\PSoC4/CapSense_SensingCSX_LL.c **** 
1522:.\Generated_Source\PSoC4/CapSense_SensingCSX_LL.c ****         #if(CapSense_CLK_SOURCE_PRSAUTO == CapSense_CSX_TX_CLK_SOURCE)
1523:.\Generated_Source\PSoC4/CapSense_SensingCSX_LL.c ****             tmpRegVal = CapSense_SsCsxCalcLfsrSize(snsClkVal);
1524:.\Generated_Source\PSoC4/CapSense_SensingCSX_LL.c ****         #else
1525:.\Generated_Source\PSoC4/CapSense_SensingCSX_LL.c ****             tmpRegVal = CapSense_CSX_TX_CLK_SOURCE;
1526:.\Generated_Source\PSoC4/CapSense_SensingCSX_LL.c ****         #endif /* (CapSense_CLK_SOURCE_PRSAUTO == CapSense_CSX_SNS_CLK_SOURCE) */
ARM GAS  C:\Users\Alan\AppData\Local\Temp\ccbGKewn.s 			page 36


1527:.\Generated_Source\PSoC4/CapSense_SensingCSX_LL.c **** 
1528:.\Generated_Source\PSoC4/CapSense_SensingCSX_LL.c ****         snsClkVal = (snsClkVal - 1uL) & CapSense_SENSE_PERIOD_SENSE_DIV_MASK;
1529:.\Generated_Source\PSoC4/CapSense_SensingCSX_LL.c ****         tmpRegVal = (tmpRegVal << CapSense_SENSE_PERIOD_LFSR_SIZE_SHIFT) | snsClkVal;
1530:.\Generated_Source\PSoC4/CapSense_SensingCSX_LL.c ****         CY_SET_REG32(CapSense_SENSE_PERIOD_PTR, tmpRegVal);
1531:.\Generated_Source\PSoC4/CapSense_SensingCSX_LL.c ****         CapSense_ConfigureModClkClock((uint32)CapSense_dsRam.modCsxClk);
1532:.\Generated_Source\PSoC4/CapSense_SensingCSX_LL.c ****     }
1533:.\Generated_Source\PSoC4/CapSense_SensingCSX_LL.c **** 
1534:.\Generated_Source\PSoC4/CapSense_SensingCSX_LL.c **** 
1535:.\Generated_Source\PSoC4/CapSense_SensingCSX_LL.c ****     /*******************************************************************************
1536:.\Generated_Source\PSoC4/CapSense_SensingCSX_LL.c ****     * Function Name: CapSense_CSXV2HwInit
1537:.\Generated_Source\PSoC4/CapSense_SensingCSX_LL.c ****     ****************************************************************************//**
1538:.\Generated_Source\PSoC4/CapSense_SensingCSX_LL.c ****     *
1539:.\Generated_Source\PSoC4/CapSense_SensingCSX_LL.c ****     * \brief
1540:.\Generated_Source\PSoC4/CapSense_SensingCSX_LL.c ****     *   Performs the CSDV2 HW IP block initialization required for the CSX operation
1541:.\Generated_Source\PSoC4/CapSense_SensingCSX_LL.c ****     *   of the CapSense component.
1542:.\Generated_Source\PSoC4/CapSense_SensingCSX_LL.c ****     *
1543:.\Generated_Source\PSoC4/CapSense_SensingCSX_LL.c ****     * \details
1544:.\Generated_Source\PSoC4/CapSense_SensingCSX_LL.c ****     *   This function covers the following functionality:
1545:.\Generated_Source\PSoC4/CapSense_SensingCSX_LL.c ****     *      1. Set-up the internal interconnect for CSDV2 HW IP block operation in the
1546:.\Generated_Source\PSoC4/CapSense_SensingCSX_LL.c ****     *         CSX mode;
1547:.\Generated_Source\PSoC4/CapSense_SensingCSX_LL.c ****     *      2. Reset the CSDV2 HW sequencer to the IDLE state;
1548:.\Generated_Source\PSoC4/CapSense_SensingCSX_LL.c ****     *      3. Connect CintA and CintB to the AMUXBUS-A and configure appropriate GPIOs
1549:.\Generated_Source\PSoC4/CapSense_SensingCSX_LL.c ****     *         to the High-Z Analog mode.
1550:.\Generated_Source\PSoC4/CapSense_SensingCSX_LL.c ****     *
1551:.\Generated_Source\PSoC4/CapSense_SensingCSX_LL.c ****     *******************************************************************************/
1552:.\Generated_Source\PSoC4/CapSense_SensingCSX_LL.c ****     CY_INLINE static void CapSense_CSXV2HwInit(void)
1553:.\Generated_Source\PSoC4/CapSense_SensingCSX_LL.c ****     {
1554:.\Generated_Source\PSoC4/CapSense_SensingCSX_LL.c ****         uint8  interruptState;
1555:.\Generated_Source\PSoC4/CapSense_SensingCSX_LL.c ****         uint32 tmpRegVal;
1556:.\Generated_Source\PSoC4/CapSense_SensingCSX_LL.c **** 
1557:.\Generated_Source\PSoC4/CapSense_SensingCSX_LL.c ****         CY_SET_REG32(CapSense_INTR_PTR,             CapSense_DEFAULT_CSD_INTR_CFG);
 451              		.loc 1 1557 0
 452 0002 8322     		mov	r2, #131
 453 0004 5200     		lsl	r2, r2, #1
 454 0006 3F4B     		ldr	r3, .L24
 455 0008 1A60     		str	r2, [r3]
1558:.\Generated_Source\PSoC4/CapSense_SensingCSX_LL.c ****         CY_SET_REG32(CapSense_INTR_SET_PTR,         CapSense_DEFAULT_CSD_INTR_SET_CFG);
 456              		.loc 1 1558 0
 457 000a 0023     		mov	r3, #0
 458 000c 3E4A     		ldr	r2, .L24+4
 459 000e 1360     		str	r3, [r2]
1559:.\Generated_Source\PSoC4/CapSense_SensingCSX_LL.c ****         CY_SET_REG32(CapSense_INTR_MASK_PTR,        CapSense_DEFAULT_CSD_INTR_MASK_CFG);
 460              		.loc 1 1559 0
 461 0010 0221     		mov	r1, #2
 462 0012 3E4A     		ldr	r2, .L24+8
 463 0014 1160     		str	r1, [r2]
1560:.\Generated_Source\PSoC4/CapSense_SensingCSX_LL.c ****         CY_SET_REG32(CapSense_HSCMP_PTR,            CapSense_DEFAULT_CSD_HSCMP_CFG);
 464              		.loc 1 1560 0
 465 0016 3E4A     		ldr	r2, .L24+12
 466 0018 1360     		str	r3, [r2]
1561:.\Generated_Source\PSoC4/CapSense_SensingCSX_LL.c ****         CY_SET_REG32(CapSense_AMBUF_PTR,            CapSense_DEFAULT_CSD_AMBUF_CFG);
 467              		.loc 1 1561 0
 468 001a 3E4A     		ldr	r2, .L24+16
 469 001c 1360     		str	r3, [r2]
1562:.\Generated_Source\PSoC4/CapSense_SensingCSX_LL.c ****         CY_SET_REG32(CapSense_REFGEN_PTR,           CapSense_DEFAULT_CSD_REFGEN_CFG);
 470              		.loc 1 1562 0
 471 001e 3E49     		ldr	r1, .L24+20
ARM GAS  C:\Users\Alan\AppData\Local\Temp\ccbGKewn.s 			page 37


 472 0020 3E4A     		ldr	r2, .L24+24
 473 0022 1160     		str	r1, [r2]
1563:.\Generated_Source\PSoC4/CapSense_SensingCSX_LL.c ****         CY_SET_REG32(CapSense_CSDCMP_PTR,           CapSense_DEFAULT_CSD_CSDCMP_CFG);
 474              		.loc 1 1563 0
 475 0024 C021     		mov	r1, #192
 476 0026 8900     		lsl	r1, r1, #2
 477 0028 3D4A     		ldr	r2, .L24+28
 478 002a 1160     		str	r1, [r2]
1564:.\Generated_Source\PSoC4/CapSense_SensingCSX_LL.c ****         CY_SET_REG32(CapSense_IDAC_MOD_PTR,         CapSense_DEFAULT_CSD_IDACA_CFG);
 479              		.loc 1 1564 0
 480 002c 3D49     		ldr	r1, .L24+32
 481 002e 3E4A     		ldr	r2, .L24+36
 482 0030 1160     		str	r1, [r2]
1565:.\Generated_Source\PSoC4/CapSense_SensingCSX_LL.c **** 
1566:.\Generated_Source\PSoC4/CapSense_SensingCSX_LL.c ****         #if((0u != CapSense_ADC_EN) || (0u != CapSense_IDACB_USED))
1567:.\Generated_Source\PSoC4/CapSense_SensingCSX_LL.c ****             CY_SET_REG32(CapSense_IDAC_COMP_PTR,    CapSense_DEFAULT_CSD_IDACB_CFG);
1568:.\Generated_Source\PSoC4/CapSense_SensingCSX_LL.c ****         #endif /* (0u != CapSense_ADC_EN) || (0u != CapSense_IDACB_USED) */
1569:.\Generated_Source\PSoC4/CapSense_SensingCSX_LL.c **** 
1570:.\Generated_Source\PSoC4/CapSense_SensingCSX_LL.c ****         CY_SET_REG32(CapSense_SW_RES_PTR,           CapSense_DEFAULT_CSD_SW_RES_CFG);
 483              		.loc 1 1570 0
 484 0032 3E4A     		ldr	r2, .L24+40
 485 0034 1360     		str	r3, [r2]
1571:.\Generated_Source\PSoC4/CapSense_SensingCSX_LL.c ****         CY_SET_REG32(CapSense_SENSE_PERIOD_PTR,     CapSense_DEFAULT_CSD_SENSE_PERIOD_CFG);
 486              		.loc 1 1571 0
 487 0036 5021     		mov	r1, #80
 488 0038 3D4A     		ldr	r2, .L24+44
 489 003a 1160     		str	r1, [r2]
1572:.\Generated_Source\PSoC4/CapSense_SensingCSX_LL.c ****         CY_SET_REG32(CapSense_SENSE_DUTY_PTR,       CapSense_DEFAULT_CSD_SENSE_DUTY_CFG);
 490              		.loc 1 1572 0
 491 003c 3D4A     		ldr	r2, .L24+48
 492 003e 1360     		str	r3, [r2]
1573:.\Generated_Source\PSoC4/CapSense_SensingCSX_LL.c ****         CY_SET_REG32(CapSense_SW_HS_P_SEL_PTR,      CapSense_DEFAULT_CSD_SW_HS_P_SEL_CFG);
 493              		.loc 1 1573 0
 494 0040 3D4A     		ldr	r2, .L24+52
 495 0042 1360     		str	r3, [r2]
1574:.\Generated_Source\PSoC4/CapSense_SensingCSX_LL.c ****         CY_SET_REG32(CapSense_SW_HS_N_SEL_PTR,      CapSense_DEFAULT_CSD_SW_HS_N_SEL_CFG);
 496              		.loc 1 1574 0
 497 0044 3D4A     		ldr	r2, .L24+56
 498 0046 1360     		str	r3, [r2]
1575:.\Generated_Source\PSoC4/CapSense_SensingCSX_LL.c ****         CY_SET_REG32(CapSense_SW_SHIELD_SEL_PTR,    CapSense_DEFAULT_CSD_SW_SHIELD_SEL_CFG);
 499              		.loc 1 1575 0
 500 0048 3D4A     		ldr	r2, .L24+60
 501 004a 1360     		str	r3, [r2]
1576:.\Generated_Source\PSoC4/CapSense_SensingCSX_LL.c ****         CY_SET_REG32(CapSense_SW_AMUXBUF_SEL_PTR,   CapSense_DEFAULT_CSD_SW_AMUXBUF_SEL_CFG);
 502              		.loc 1 1576 0
 503 004c 3D4A     		ldr	r2, .L24+64
 504 004e 1360     		str	r3, [r2]
1577:.\Generated_Source\PSoC4/CapSense_SensingCSX_LL.c **** 
1578:.\Generated_Source\PSoC4/CapSense_SensingCSX_LL.c ****         tmpRegVal = CY_GET_REG32(CapSense_SW_BYP_SEL_PTR);
 505              		.loc 1 1578 0
 506 0050 3D49     		ldr	r1, .L24+68
 507 0052 0A68     		ldr	r2, [r1]
 508              	.LVL27:
1579:.\Generated_Source\PSoC4/CapSense_SensingCSX_LL.c ****         tmpRegVal |= CapSense_DEFAULT_CSD_SW_BYP_SEL_CFG;
 509              		.loc 1 1579 0
 510 0054 8020     		mov	r0, #128
 511 0056 4001     		lsl	r0, r0, #5
ARM GAS  C:\Users\Alan\AppData\Local\Temp\ccbGKewn.s 			page 38


 512 0058 0243     		orr	r2, r0
 513              	.LVL28:
1580:.\Generated_Source\PSoC4/CapSense_SensingCSX_LL.c ****         CY_SET_REG32(CapSense_SW_BYP_SEL_PTR,       tmpRegVal);
 514              		.loc 1 1580 0
 515 005a 0A60     		str	r2, [r1]
1581:.\Generated_Source\PSoC4/CapSense_SensingCSX_LL.c **** 
1582:.\Generated_Source\PSoC4/CapSense_SensingCSX_LL.c ****         CY_SET_REG32(CapSense_SW_CMP_P_SEL_PTR,     CapSense_DEFAULT_CSD_SW_CMP_P_SEL_CFG);
 516              		.loc 1 1582 0
 517 005c 3221     		mov	r1, #50
 518 005e 3B4A     		ldr	r2, .L24+72
 519              	.LVL29:
 520 0060 1160     		str	r1, [r2]
 521              	.LVL30:
1583:.\Generated_Source\PSoC4/CapSense_SensingCSX_LL.c ****         CY_SET_REG32(CapSense_SW_CMP_N_SEL_PTR,     CapSense_DEFAULT_CSD_SW_CMP_N_SEL_CFG);
 522              		.loc 1 1583 0
 523 0062 8021     		mov	r1, #128
 524 0064 4904     		lsl	r1, r1, #17
 525 0066 3A4A     		ldr	r2, .L24+76
 526 0068 1160     		str	r1, [r2]
1584:.\Generated_Source\PSoC4/CapSense_SensingCSX_LL.c **** 
1585:.\Generated_Source\PSoC4/CapSense_SensingCSX_LL.c ****         tmpRegVal = CY_GET_REG32(CapSense_SW_REFGEN_SEL_PTR);
 527              		.loc 1 1585 0
 528 006a 3A49     		ldr	r1, .L24+80
 529 006c 0A68     		ldr	r2, [r1]
 530              	.LVL31:
1586:.\Generated_Source\PSoC4/CapSense_SensingCSX_LL.c ****         tmpRegVal |= CapSense_DEFAULT_CSD_SW_REFGEN_SEL_CFG;
 531              		.loc 1 1586 0
 532 006e 8020     		mov	r0, #128
 533 0070 4005     		lsl	r0, r0, #21
 534 0072 0243     		orr	r2, r0
 535              	.LVL32:
1587:.\Generated_Source\PSoC4/CapSense_SensingCSX_LL.c ****         CY_SET_REG32(CapSense_SW_REFGEN_SEL_PTR,    tmpRegVal);
 536              		.loc 1 1587 0
 537 0074 0A60     		str	r2, [r1]
1588:.\Generated_Source\PSoC4/CapSense_SensingCSX_LL.c **** 
1589:.\Generated_Source\PSoC4/CapSense_SensingCSX_LL.c ****         CY_SET_REG32(CapSense_SW_FW_MOD_SEL_PTR,    CapSense_DEFAULT_CSD_SW_FW_MOD_SEL_CFG);
 538              		.loc 1 1589 0
 539 0076 384A     		ldr	r2, .L24+84
 540              	.LVL33:
 541 0078 1360     		str	r3, [r2]
 542              	.LVL34:
1590:.\Generated_Source\PSoC4/CapSense_SensingCSX_LL.c ****         CY_SET_REG32(CapSense_SW_FW_TANK_SEL_PTR,   CapSense_DEFAULT_CSD_SW_FW_TANK_SEL_CFG);
 543              		.loc 1 1590 0
 544 007a 384A     		ldr	r2, .L24+88
 545 007c 1360     		str	r3, [r2]
1591:.\Generated_Source\PSoC4/CapSense_SensingCSX_LL.c ****         CY_SET_REG32(CapSense_SW_DSI_SEL_PTR,       CapSense_DEFAULT_CSD_SW_DSI_SEL_CFG);
 546              		.loc 1 1591 0
 547 007e 2321     		mov	r1, #35
 548 0080 374A     		ldr	r2, .L24+92
 549 0082 1160     		str	r1, [r2]
1592:.\Generated_Source\PSoC4/CapSense_SensingCSX_LL.c ****         CY_SET_REG32(CapSense_SEQ_TIME_PTR,         CapSense_DEFAULT_CSD_SEQ_TIME_CFG);
 550              		.loc 1 1592 0
 551 0084 2239     		sub	r1, r1, #34
 552 0086 374A     		ldr	r2, .L24+96
 553 0088 1160     		str	r1, [r2]
1593:.\Generated_Source\PSoC4/CapSense_SensingCSX_LL.c ****         CY_SET_REG32(CapSense_SEQ_INIT_CNT_PTR,     CapSense_DEFAULT_CSD_SEQ_INIT_CNT_CFG);
 554              		.loc 1 1593 0
ARM GAS  C:\Users\Alan\AppData\Local\Temp\ccbGKewn.s 			page 39


 555 008a 1331     		add	r1, r1, #19
 556 008c 364A     		ldr	r2, .L24+100
 557 008e 1160     		str	r1, [r2]
1594:.\Generated_Source\PSoC4/CapSense_SensingCSX_LL.c ****         CY_SET_REG32(CapSense_SEQ_NORM_CNT_PTR,     CapSense_DEFAULT_CSD_SEQ_NORM_CNT_CFG);
 558              		.loc 1 1594 0
 559 0090 364A     		ldr	r2, .L24+104
 560 0092 1360     		str	r3, [r2]
1595:.\Generated_Source\PSoC4/CapSense_SensingCSX_LL.c ****         CY_SET_REG32(CapSense_ADC_CTL_PTR,          CapSense_DEFAULT_CSD_ADC_CTL_CFG);
 561              		.loc 1 1595 0
 562 0094 364A     		ldr	r2, .L24+108
 563 0096 1360     		str	r3, [r2]
1596:.\Generated_Source\PSoC4/CapSense_SensingCSX_LL.c ****         CY_SET_REG32(CapSense_SEQ_START_PTR,        CapSense_DEFAULT_CSD_SEQ_START_CFG);
 564              		.loc 1 1596 0
 565 0098 C222     		mov	r2, #194
 566 009a 9200     		lsl	r2, r2, #2
 567 009c 354B     		ldr	r3, .L24+112
 568 009e 1A60     		str	r2, [r3]
1597:.\Generated_Source\PSoC4/CapSense_SensingCSX_LL.c **** 
1598:.\Generated_Source\PSoC4/CapSense_SensingCSX_LL.c ****         interruptState = CyEnterCriticalSection();
 569              		.loc 1 1598 0
 570 00a0 FFF7FEFF 		bl	CyEnterCriticalSection
 571              	.LVL35:
1599:.\Generated_Source\PSoC4/CapSense_SensingCSX_LL.c ****         tmpRegVal = CY_GET_REG32(CapSense_CintA_PC_PTR);
 572              		.loc 1 1599 0
 573 00a4 344C     		ldr	r4, .L24+116
 574 00a6 2368     		ldr	r3, [r4]
 575              	.LVL36:
1600:.\Generated_Source\PSoC4/CapSense_SensingCSX_LL.c ****         tmpRegVal &= (~CapSense_GPIO_PC_MASK << (CapSense_CintA_SHIFT * CapSense_GPIO_PC_BIT_SIZE )
 576              		.loc 1 1600 0
 577 00a8 5B0A     		lsr	r3, r3, #9
 578              	.LVL37:
 579 00aa 5B02     		lsl	r3, r3, #9
 580              	.LVL38:
1601:.\Generated_Source\PSoC4/CapSense_SensingCSX_LL.c ****         CY_SET_REG32(CapSense_CintA_PC_PTR, tmpRegVal);
 581              		.loc 1 1601 0
 582 00ac 2360     		str	r3, [r4]
1602:.\Generated_Source\PSoC4/CapSense_SensingCSX_LL.c ****         CyExitCriticalSection(interruptState);
 583              		.loc 1 1602 0
 584 00ae FFF7FEFF 		bl	CyExitCriticalSection
 585              	.LVL39:
1603:.\Generated_Source\PSoC4/CapSense_SensingCSX_LL.c **** 
1604:.\Generated_Source\PSoC4/CapSense_SensingCSX_LL.c ****         interruptState = CyEnterCriticalSection();
 586              		.loc 1 1604 0
 587 00b2 FFF7FEFF 		bl	CyEnterCriticalSection
 588              	.LVL40:
1605:.\Generated_Source\PSoC4/CapSense_SensingCSX_LL.c ****         tmpRegVal = CY_GET_REG32(CapSense_CintB_PC_PTR);
 589              		.loc 1 1605 0
 590 00b6 2368     		ldr	r3, [r4]
 591              	.LVL41:
1606:.\Generated_Source\PSoC4/CapSense_SensingCSX_LL.c ****         tmpRegVal &= (~CapSense_GPIO_PC_MASK << (CapSense_CintB__SHIFT * CapSense_GPIO_PC_BIT_SIZE 
 592              		.loc 1 1606 0
 593 00b8 1B0B     		lsr	r3, r3, #12
 594              	.LVL42:
 595 00ba 1B03     		lsl	r3, r3, #12
 596              	.LVL43:
1607:.\Generated_Source\PSoC4/CapSense_SensingCSX_LL.c ****         CY_SET_REG32(CapSense_CintB_PC_PTR, tmpRegVal);
 597              		.loc 1 1607 0
ARM GAS  C:\Users\Alan\AppData\Local\Temp\ccbGKewn.s 			page 40


 598 00bc 2360     		str	r3, [r4]
1608:.\Generated_Source\PSoC4/CapSense_SensingCSX_LL.c ****         CyExitCriticalSection(interruptState);
 599              		.loc 1 1608 0
 600 00be FFF7FEFF 		bl	CyExitCriticalSection
 601              	.LVL44:
1609:.\Generated_Source\PSoC4/CapSense_SensingCSX_LL.c **** 
1610:.\Generated_Source\PSoC4/CapSense_SensingCSX_LL.c ****         /* Connect CintA_tank pin to AMUXBUS-A using HSIOM registers. */
1611:.\Generated_Source\PSoC4/CapSense_SensingCSX_LL.c ****         interruptState = CyEnterCriticalSection();
 602              		.loc 1 1611 0
 603 00c2 FFF7FEFF 		bl	CyEnterCriticalSection
 604              	.LVL45:
1612:.\Generated_Source\PSoC4/CapSense_SensingCSX_LL.c ****         tmpRegVal = CY_GET_REG32(CapSense_CintA_HSIOM_PTR);
 605              		.loc 1 1612 0
 606 00c6 2D4C     		ldr	r4, .L24+120
 607 00c8 2268     		ldr	r2, [r4]
 608              	.LVL46:
1613:.\Generated_Source\PSoC4/CapSense_SensingCSX_LL.c ****         tmpRegVal &= ~CapSense_CintA_HSIOM_MASK;
 609              		.loc 1 1613 0
 610 00ca 2D4B     		ldr	r3, .L24+124
 611 00cc 1340     		and	r3, r2
 612              	.LVL47:
1614:.\Generated_Source\PSoC4/CapSense_SensingCSX_LL.c ****         tmpRegVal |= (CapSense_HSIOM_SEL_AMUXA << CapSense_CintA_HSIOM_SHIFT);
 613              		.loc 1 1614 0
 614 00ce C022     		mov	r2, #192
 615 00d0 D200     		lsl	r2, r2, #3
 616 00d2 1343     		orr	r3, r2
 617              	.LVL48:
1615:.\Generated_Source\PSoC4/CapSense_SensingCSX_LL.c ****         CY_SET_REG32(CapSense_CintA_HSIOM_PTR, tmpRegVal);
 618              		.loc 1 1615 0
 619 00d4 2360     		str	r3, [r4]
1616:.\Generated_Source\PSoC4/CapSense_SensingCSX_LL.c ****         CyExitCriticalSection(interruptState);
 620              		.loc 1 1616 0
 621 00d6 FFF7FEFF 		bl	CyExitCriticalSection
 622              	.LVL49:
1617:.\Generated_Source\PSoC4/CapSense_SensingCSX_LL.c **** 
1618:.\Generated_Source\PSoC4/CapSense_SensingCSX_LL.c ****         /* Connect CintB to AMUXBUS-A using HSIOM registers. */
1619:.\Generated_Source\PSoC4/CapSense_SensingCSX_LL.c ****         interruptState = CyEnterCriticalSection();
 623              		.loc 1 1619 0
 624 00da FFF7FEFF 		bl	CyEnterCriticalSection
 625              	.LVL50:
1620:.\Generated_Source\PSoC4/CapSense_SensingCSX_LL.c ****         tmpRegVal = CY_GET_REG32(CapSense_CintB_HSIOM_PTR);
 626              		.loc 1 1620 0
 627 00de 2268     		ldr	r2, [r4]
 628              	.LVL51:
1621:.\Generated_Source\PSoC4/CapSense_SensingCSX_LL.c ****         tmpRegVal &= ~CapSense_CintB_HSIOM_MASK;
 629              		.loc 1 1621 0
 630 00e0 284B     		ldr	r3, .L24+128
 631 00e2 1340     		and	r3, r2
 632              	.LVL52:
1622:.\Generated_Source\PSoC4/CapSense_SensingCSX_LL.c ****         tmpRegVal |= (CapSense_HSIOM_SEL_AMUXA << CapSense_CintB_HSIOM_SHIFT);
 633              		.loc 1 1622 0
 634 00e4 C022     		mov	r2, #192
 635 00e6 D201     		lsl	r2, r2, #7
 636 00e8 1343     		orr	r3, r2
 637              	.LVL53:
1623:.\Generated_Source\PSoC4/CapSense_SensingCSX_LL.c ****         CY_SET_REG32(CapSense_CintB_HSIOM_PTR, tmpRegVal);
 638              		.loc 1 1623 0
ARM GAS  C:\Users\Alan\AppData\Local\Temp\ccbGKewn.s 			page 41


 639 00ea 2360     		str	r3, [r4]
1624:.\Generated_Source\PSoC4/CapSense_SensingCSX_LL.c ****         CyExitCriticalSection(interruptState);
 640              		.loc 1 1624 0
 641 00ec FFF7FEFF 		bl	CyExitCriticalSection
 642              	.LVL54:
1625:.\Generated_Source\PSoC4/CapSense_SensingCSX_LL.c **** 
1626:.\Generated_Source\PSoC4/CapSense_SensingCSX_LL.c ****         CapSense_ConfigureModClkClock((uint32)CapSense_dsRam.modCsxClk);
 643              		.loc 1 1626 0
 644 00f0 254B     		ldr	r3, .L24+132
 645 00f2 987E     		ldrb	r0, [r3, #26]
 646 00f4 FFF7FEFF 		bl	CapSense_ConfigureModClkClock
 647              	.LVL55:
 648              	.LBE11:
 649              	.LBE10:
 157:.\Generated_Source\PSoC4/CapSense_SensingCSX_LL.c **** 
 650              		.loc 1 157 0
 651 00f8 FFF7FEFF 		bl	CapSense_SsSetIOsInDefaultState
 652              	.LVL56:
 225:.\Generated_Source\PSoC4/CapSense_SensingCSX_LL.c **** }
 653              		.loc 1 225 0
 654 00fc 2348     		ldr	r0, .L24+136
 655 00fe FFF7FEFF 		bl	CapSense_IsrInitialize
 656              	.LVL57:
 226:.\Generated_Source\PSoC4/CapSense_SensingCSX_LL.c **** 
 657              		.loc 1 226 0
 658              		@ sp needed
 659 0102 10BD     		pop	{r4, pc}
 660              	.L25:
 661              		.align	2
 662              	.L24:
 663 0104 F0000B40 		.word	1074462960
 664 0108 F4000B40 		.word	1074462964
 665 010c F8000B40 		.word	1074462968
 666 0110 80010B40 		.word	1074463104
 667 0114 84010B40 		.word	1074463108
 668 0118 411F1E00 		.word	1974081
 669 011c 88010B40 		.word	1074463112
 670 0120 8C010B40 		.word	1074463116
 671 0124 800E4301 		.word	21171840
 672 0128 C0010B40 		.word	1074463168
 673 012c F0010B40 		.word	1074463216
 674 0130 00020B40 		.word	1074463232
 675 0134 04020B40 		.word	1074463236
 676 0138 80020B40 		.word	1074463360
 677 013c 84020B40 		.word	1074463364
 678 0140 88020B40 		.word	1074463368
 679 0144 90020B40 		.word	1074463376
 680 0148 94020B40 		.word	1074463380
 681 014c A0020B40 		.word	1074463392
 682 0150 A4020B40 		.word	1074463396
 683 0154 A8020B40 		.word	1074463400
 684 0158 B0020B40 		.word	1074463408
 685 015c B4020B40 		.word	1074463412
 686 0160 C0020B40 		.word	1074463424
 687 0164 00030B40 		.word	1074463488
 688 0168 10030B40 		.word	1074463504
 689 016c 14030B40 		.word	1074463508
ARM GAS  C:\Users\Alan\AppData\Local\Temp\ccbGKewn.s 			page 42


 690 0170 20030B40 		.word	1074463520
 691 0174 40030B40 		.word	1074463552
 692 0178 08040440 		.word	1074005000
 693 017c 00040240 		.word	1073873920
 694 0180 FFF0FFFF 		.word	-3841
 695 0184 FF0FFFFF 		.word	-61441
 696 0188 00000000 		.word	CapSense_dsRam
 697 018c 00000000 		.word	CapSense_SsCSXScanISR
 698              		.cfi_endproc
 699              	.LFE1:
 700              		.size	CapSense_CSXInitialize, .-CapSense_CSXInitialize
 701              		.section	.text.CapSense_CSXScanExt,"ax",%progbits
 702              		.align	2
 703              		.global	CapSense_CSXScanExt
 704              		.code	16
 705              		.thumb_func
 706              		.type	CapSense_CSXScanExt, %function
 707              	CapSense_CSXScanExt:
 708              	.LFB6:
 611:.\Generated_Source\PSoC4/CapSense_SensingCSX_LL.c ****     /*  If frequency hopping is enabled, reset hopping channel counter  */
 709              		.loc 1 611 0
 710              		.cfi_startproc
 711 0000 08B5     		push	{r3, lr}
 712              		.cfi_def_cfa_offset 8
 713              		.cfi_offset 3, -8
 714              		.cfi_offset 14, -4
 618:.\Generated_Source\PSoC4/CapSense_SensingCSX_LL.c ****     CapSense_SsCSXStartSample();
 715              		.loc 1 618 0
 716 0002 044A     		ldr	r2, .L27
 717 0004 8023     		mov	r3, #128
 718 0006 9168     		ldr	r1, [r2, #8]
 719 0008 0B43     		orr	r3, r1
 720 000a 9360     		str	r3, [r2, #8]
 619:.\Generated_Source\PSoC4/CapSense_SensingCSX_LL.c **** }
 721              		.loc 1 619 0
 722 000c FFF7FEFF 		bl	CapSense_SsCSXStartSample
 723              	.LVL58:
 620:.\Generated_Source\PSoC4/CapSense_SensingCSX_LL.c **** 
 724              		.loc 1 620 0
 725              		@ sp needed
 726 0010 08BD     		pop	{r3, pc}
 727              	.L28:
 728 0012 C046     		.align	2
 729              	.L27:
 730 0014 00000000 		.word	CapSense_dsRam
 731              		.cfi_endproc
 732              	.LFE6:
 733              		.size	CapSense_CSXScanExt, .-CapSense_CSXScanExt
 734              		.section	.text.CapSense_CSXCalibrateWidget,"ax",%progbits
 735              		.align	2
 736              		.global	CapSense_CSXCalibrateWidget
 737              		.code	16
 738              		.thumb_func
 739              		.type	CapSense_CSXCalibrateWidget, %function
 740              	CapSense_CSXCalibrateWidget:
 741              	.LFB10:
1017:.\Generated_Source\PSoC4/CapSense_SensingCSX_LL.c ****     /*  Declare and initialise ptr to widget and sensor structures        */
ARM GAS  C:\Users\Alan\AppData\Local\Temp\ccbGKewn.s 			page 43


 742              		.loc 1 1017 0
 743              		.cfi_startproc
 744              	.LVL59:
 745 0000 F0B5     		push	{r4, r5, r6, r7, lr}
 746              		.cfi_def_cfa_offset 20
 747              		.cfi_offset 4, -20
 748              		.cfi_offset 5, -16
 749              		.cfi_offset 6, -12
 750              		.cfi_offset 7, -8
 751              		.cfi_offset 14, -4
 752 0002 83B0     		sub	sp, sp, #12
 753              		.cfi_def_cfa_offset 32
 754 0004 0190     		str	r0, [sp, #4]
1019:.\Generated_Source\PSoC4/CapSense_SensingCSX_LL.c ****     CapSense_RAM_WD_BASE_STRUCT *ptrWdgt = (CapSense_RAM_WD_BASE_STRUCT *)
 755              		.loc 1 1019 0
 756 0006 C600     		lsl	r6, r0, #3
 757 0008 331A     		sub	r3, r6, r0
 758 000a 9B00     		lsl	r3, r3, #2
 759 000c 244E     		ldr	r6, .L38
 760 000e F618     		add	r6, r6, r3
 761 0010 B368     		ldr	r3, [r6, #8]
 762 0012 1D1C     		mov	r5, r3
 763 0014 0093     		str	r3, [sp]
 764              	.LVL60:
1020:.\Generated_Source\PSoC4/CapSense_SensingCSX_LL.c ****                                           CapSense_dsFlash.wdgtArray[widgetIndex].ptr2WdgtRam;
 765              		.loc 1 1020 0
 766 0016 7768     		ldr	r7, [r6, #4]
 767              	.LVL61:
1035:.\Generated_Source\PSoC4/CapSense_SensingCSX_LL.c ****         #endif /* (0u != CapSense_CSX_COMMON_TX_CLK_EN) */
 768              		.loc 1 1035 0
 769 0018 BB7A     		ldrb	r3, [r7, #10]
 770              	.LVL62:
1038:.\Generated_Source\PSoC4/CapSense_SensingCSX_LL.c ****         CapSense_csxScanPeriod -= LO16((uint32)ptrWdgt->resolution * CapSense_CSX_DEADBAND_CYCLES_N
 771              		.loc 1 1038 0
 772 001a 3A88     		ldrh	r2, [r7]
 773 001c 5343     		mul	r3, r2
 774              	.LVL63:
 775 001e 9BB2     		uxth	r3, r3
 776 0020 2048     		ldr	r0, .L38+4
 777              	.LVL64:
 778 0022 0380     		strh	r3, [r0]
 779              	.LVL65:
1039:.\Generated_Source\PSoC4/CapSense_SensingCSX_LL.c ****         rawTarget = CapSense_csxScanPeriod;
 780              		.loc 1 1039 0
 781 0024 0288     		ldrh	r2, [r0]
 782 0026 3B88     		ldrh	r3, [r7]
 783 0028 5B00     		lsl	r3, r3, #1
 784 002a D31A     		sub	r3, r2, r3
 785 002c 9BB2     		uxth	r3, r3
 786 002e 0380     		strh	r3, [r0]
1040:.\Generated_Source\PSoC4/CapSense_SensingCSX_LL.c ****     #else
 787              		.loc 1 1040 0
 788 0030 0088     		ldrh	r0, [r0]
 789              	.LVL66:
1047:.\Generated_Source\PSoC4/CapSense_SensingCSX_LL.c ****     rawTarget = (rawTarget / CapSense_PERCENTAGE_100);
 790              		.loc 1 1047 0
 791 0032 4843     		mul	r0, r1
ARM GAS  C:\Users\Alan\AppData\Local\Temp\ccbGKewn.s 			page 44


 792              	.LVL67:
1048:.\Generated_Source\PSoC4/CapSense_SensingCSX_LL.c **** 
 793              		.loc 1 1048 0
 794 0034 6421     		mov	r1, #100
 795              	.LVL68:
 796 0036 FFF7FEFF 		bl	__aeabi_uidiv
 797              	.LVL69:
 798 003a 041C     		mov	r4, r0
 799              	.LVL70:
1054:.\Generated_Source\PSoC4/CapSense_SensingCSX_LL.c ****                     (uint32)CapSense_dsFlash.wdgtArray[widgetIndex].numRows);
 800              		.loc 1 1054 0
 801 003c 737E     		ldrb	r3, [r6, #25]
1055:.\Generated_Source\PSoC4/CapSense_SensingCSX_LL.c **** 
 802              		.loc 1 1055 0
 803 003e B77E     		ldrb	r7, [r6, #26]
 804              	.LVL71:
1054:.\Generated_Source\PSoC4/CapSense_SensingCSX_LL.c ****                     (uint32)CapSense_dsFlash.wdgtArray[widgetIndex].numRows);
 805              		.loc 1 1054 0
 806 0040 5F43     		mul	r7, r3
 807              	.LVL72:
1019:.\Generated_Source\PSoC4/CapSense_SensingCSX_LL.c ****     CapSense_RAM_WD_BASE_STRUCT *ptrWdgt = (CapSense_RAM_WD_BASE_STRUCT *)
 808              		.loc 1 1019 0
 809 0042 2B1C     		mov	r3, r5
1058:.\Generated_Source\PSoC4/CapSense_SensingCSX_LL.c ****         {
 810              		.loc 1 1058 0
 811 0044 0022     		mov	r2, #0
 812 0046 05E0     		b	.L30
 813              	.LVL73:
 814              	.L31:
1060:.\Generated_Source\PSoC4/CapSense_SensingCSX_LL.c ****             snsRamPtr->idacComp[0u] = curIdacMask;
 815              		.loc 1 1060 0 discriminator 3
 816 0048 0021     		mov	r1, #0
 817 004a 1980     		strh	r1, [r3]
1061:.\Generated_Source\PSoC4/CapSense_SensingCSX_LL.c ****             #if (CapSense_MULTI_FREQ_SCAN_EN == CapSense_ENABLE)
 818              		.loc 1 1061 0 discriminator 3
 819 004c 4031     		add	r1, r1, #64
 820 004e 5971     		strb	r1, [r3, #5]
1068:.\Generated_Source\PSoC4/CapSense_SensingCSX_LL.c ****         }
 821              		.loc 1 1068 0 discriminator 3
 822 0050 0A33     		add	r3, r3, #10
 823              	.LVL74:
1058:.\Generated_Source\PSoC4/CapSense_SensingCSX_LL.c ****         {
 824              		.loc 1 1058 0 discriminator 3
 825 0052 0132     		add	r2, r2, #1
 826              	.LVL75:
 827              	.L30:
1058:.\Generated_Source\PSoC4/CapSense_SensingCSX_LL.c ****         {
 828              		.loc 1 1058 0 is_stmt 0 discriminator 1
 829 0054 BA42     		cmp	r2, r7
 830 0056 F7D3     		bcc	.L31
 831 0058 2026     		mov	r6, #32
 832              	.LVL76:
 833 005a 4025     		mov	r5, #64
 834 005c 00E0     		b	.L36
 835              	.LVL77:
 836              	.L37:
1115:.\Generated_Source\PSoC4/CapSense_SensingCSX_LL.c ****         }
ARM GAS  C:\Users\Alan\AppData\Local\Temp\ccbGKewn.s 			page 45


 837              		.loc 1 1115 0 is_stmt 1
 838 005e 1E1C     		mov	r6, r3
 839              	.LVL78:
 840              	.L36:
1078:.\Generated_Source\PSoC4/CapSense_SensingCSX_LL.c ****             (void)CapSense_Scan();
 841              		.loc 1 1078 0
 842 0060 0198     		ldr	r0, [sp, #4]
 843 0062 FFF7FEFF 		bl	CapSense_SetupWidget
 844              	.LVL79:
1079:.\Generated_Source\PSoC4/CapSense_SensingCSX_LL.c ****             while ((*(volatile uint8 *)&CapSense_dsRam.status & CapSense_SW_STS_BUSY) != 0u)
 845              		.loc 1 1079 0
 846 0066 FFF7FEFF 		bl	CapSense_Scan
 847              	.LVL80:
 848              	.L32:
1080:.\Generated_Source\PSoC4/CapSense_SensingCSX_LL.c ****             {
 849              		.loc 1 1080 0 discriminator 1
 850 006a 0F4B     		ldr	r3, .L38+8
 851 006c 1B7A     		ldrb	r3, [r3, #8]
 852 006e 5BB2     		sxtb	r3, r3
 853 0070 002B     		cmp	r3, #0
 854 0072 FADB     		blt	.L32
 855 0074 009B     		ldr	r3, [sp]
 856 0076 0021     		mov	r1, #0
 857 0078 0AE0     		b	.L33
 858              	.LVL81:
 859              	.L35:
1090:.\Generated_Source\PSoC4/CapSense_SensingCSX_LL.c ****                 {
 860              		.loc 1 1090 0
 861 007a 1A88     		ldrh	r2, [r3]
 862 007c A242     		cmp	r2, r4
 863 007e 02D9     		bls	.L34
1092:.\Generated_Source\PSoC4/CapSense_SensingCSX_LL.c ****                 }
 864              		.loc 1 1092 0
 865 0080 5A79     		ldrb	r2, [r3, #5]
 866 0082 AA43     		bic	r2, r5
 867 0084 5A71     		strb	r2, [r3, #5]
 868              	.L34:
1094:.\Generated_Source\PSoC4/CapSense_SensingCSX_LL.c **** 
 869              		.loc 1 1094 0 discriminator 2
 870 0086 5A79     		ldrb	r2, [r3, #5]
 871 0088 3243     		orr	r2, r6
 872 008a 5A71     		strb	r2, [r3, #5]
1110:.\Generated_Source\PSoC4/CapSense_SensingCSX_LL.c ****             }
 873              		.loc 1 1110 0 discriminator 2
 874 008c 0A33     		add	r3, r3, #10
 875              	.LVL82:
1085:.\Generated_Source\PSoC4/CapSense_SensingCSX_LL.c ****             {
 876              		.loc 1 1085 0 discriminator 2
 877 008e 0131     		add	r1, r1, #1
 878              	.LVL83:
 879              	.L33:
1085:.\Generated_Source\PSoC4/CapSense_SensingCSX_LL.c ****             {
 880              		.loc 1 1085 0 is_stmt 0 discriminator 1
 881 0090 B942     		cmp	r1, r7
 882 0092 F2D3     		bcc	.L35
 883              	.LVL84:
1115:.\Generated_Source\PSoC4/CapSense_SensingCSX_LL.c ****         }
ARM GAS  C:\Users\Alan\AppData\Local\Temp\ccbGKewn.s 			page 46


 884              		.loc 1 1115 0 is_stmt 1
 885 0094 7308     		lsr	r3, r6, #1
 886              	.LVL85:
 887 0096 DBB2     		uxtb	r3, r3
 888              	.LVL86:
1114:.\Generated_Source\PSoC4/CapSense_SensingCSX_LL.c ****             nextIdacMask = nextIdacMask >> 1u;
 889              		.loc 1 1114 0
 890 0098 351E     		sub	r5, r6, #0
1117:.\Generated_Source\PSoC4/CapSense_SensingCSX_LL.c ****     }
 891              		.loc 1 1117 0
 892 009a E0D1     		bne	.L37
1119:.\Generated_Source\PSoC4/CapSense_SensingCSX_LL.c **** 
 893              		.loc 1 1119 0
 894 009c 03B0     		add	sp, sp, #12
 895              		@ sp needed
 896              	.LVL87:
 897              	.LVL88:
 898              	.LVL89:
 899 009e F0BD     		pop	{r4, r5, r6, r7, pc}
 900              	.L39:
 901              		.align	2
 902              	.L38:
 903 00a0 00000000 		.word	CapSense_dsFlash
 904 00a4 00000000 		.word	.LANCHOR0
 905 00a8 00000000 		.word	CapSense_dsRam
 906              		.cfi_endproc
 907              	.LFE10:
 908              		.size	CapSense_CSXCalibrateWidget, .-CapSense_CSXCalibrateWidget
 909              		.section	.text.CapSense_CSXConnectTx,"ax",%progbits
 910              		.align	2
 911              		.global	CapSense_CSXConnectTx
 912              		.code	16
 913              		.thumb_func
 914              		.type	CapSense_CSXConnectTx, %function
 915              	CapSense_CSXConnectTx:
 916              	.LFB12:
1197:.\Generated_Source\PSoC4/CapSense_SensingCSX_LL.c ****     uint32 regValue;
 917              		.loc 1 1197 0
 918              		.cfi_startproc
 919              	.LVL90:
 920 0000 10B5     		push	{r4, lr}
 921              		.cfi_def_cfa_offset 8
 922              		.cfi_offset 4, -8
 923              		.cfi_offset 14, -4
1200:.\Generated_Source\PSoC4/CapSense_SensingCSX_LL.c ****     regValue |= (CapSense_GPIO_STRGDRV << txPtr->shift);
 924              		.loc 1 1200 0
 925 0002 4168     		ldr	r1, [r0, #4]
 926 0004 0A68     		ldr	r2, [r1]
 927              	.LVL91:
1201:.\Generated_Source\PSoC4/CapSense_SensingCSX_LL.c ****     CY_SET_REG32 (txPtr->pcPtr, regValue);
 928              		.loc 1 1201 0
 929 0006 847E     		ldrb	r4, [r0, #26]
 930 0008 0623     		mov	r3, #6
 931 000a A340     		lsl	r3, r3, r4
 932 000c 1343     		orr	r3, r2
 933              	.LVL92:
1202:.\Generated_Source\PSoC4/CapSense_SensingCSX_LL.c **** 
ARM GAS  C:\Users\Alan\AppData\Local\Temp\ccbGKewn.s 			page 47


 934              		.loc 1 1202 0
 935 000e 0B60     		str	r3, [r1]
1204:.\Generated_Source\PSoC4/CapSense_SensingCSX_LL.c ****     regValue |= (CapSense_HSIOM_SEL_CSD_SENSE << txPtr->hsiomShift);
 936              		.loc 1 1204 0
 937 0010 0168     		ldr	r1, [r0]
 938 0012 0A68     		ldr	r2, [r1]
 939              	.LVL93:
1205:.\Generated_Source\PSoC4/CapSense_SensingCSX_LL.c ****     CY_SET_REG32 (txPtr->hsiomPtr, regValue);
 940              		.loc 1 1205 0
 941 0014 007E     		ldrb	r0, [r0, #24]
 942              	.LVL94:
 943 0016 0423     		mov	r3, #4
 944 0018 8340     		lsl	r3, r3, r0
 945 001a 1343     		orr	r3, r2
 946              	.LVL95:
1206:.\Generated_Source\PSoC4/CapSense_SensingCSX_LL.c **** }
 947              		.loc 1 1206 0
 948 001c 0B60     		str	r3, [r1]
1207:.\Generated_Source\PSoC4/CapSense_SensingCSX_LL.c **** 
 949              		.loc 1 1207 0
 950              		@ sp needed
 951 001e 10BD     		pop	{r4, pc}
 952              		.cfi_endproc
 953              	.LFE12:
 954              		.size	CapSense_CSXConnectTx, .-CapSense_CSXConnectTx
 955              		.section	.text.CapSense_CSXConnectRx,"ax",%progbits
 956              		.align	2
 957              		.global	CapSense_CSXConnectRx
 958              		.code	16
 959              		.thumb_func
 960              		.type	CapSense_CSXConnectRx, %function
 961              	CapSense_CSXConnectRx:
 962              	.LFB13:
1227:.\Generated_Source\PSoC4/CapSense_SensingCSX_LL.c ****     uint32 regValue;
 963              		.loc 1 1227 0
 964              		.cfi_startproc
 965              	.LVL96:
 966 0000 10B5     		push	{r4, lr}
 967              		.cfi_def_cfa_offset 8
 968              		.cfi_offset 4, -8
 969              		.cfi_offset 14, -4
1230:.\Generated_Source\PSoC4/CapSense_SensingCSX_LL.c ****     regValue &= ~(CapSense_GPIO_PC_MASK << rxPtr->shift);
 970              		.loc 1 1230 0
 971 0002 4168     		ldr	r1, [r0, #4]
 972 0004 0B68     		ldr	r3, [r1]
 973              	.LVL97:
1231:.\Generated_Source\PSoC4/CapSense_SensingCSX_LL.c ****     CY_SET_REG32 (rxPtr->pcPtr, regValue);
 974              		.loc 1 1231 0
 975 0006 847E     		ldrb	r4, [r0, #26]
 976 0008 0722     		mov	r2, #7
 977 000a A240     		lsl	r2, r2, r4
 978 000c 9343     		bic	r3, r2
 979              	.LVL98:
1232:.\Generated_Source\PSoC4/CapSense_SensingCSX_LL.c **** 
 980              		.loc 1 1232 0
 981 000e 0B60     		str	r3, [r1]
1234:.\Generated_Source\PSoC4/CapSense_SensingCSX_LL.c ****     regValue |=  (CapSense_HSIOM_SEL_AMUXA << rxPtr->hsiomShift);
ARM GAS  C:\Users\Alan\AppData\Local\Temp\ccbGKewn.s 			page 48


 982              		.loc 1 1234 0
 983 0010 0168     		ldr	r1, [r0]
 984 0012 0A68     		ldr	r2, [r1]
 985              	.LVL99:
1235:.\Generated_Source\PSoC4/CapSense_SensingCSX_LL.c ****     CY_SET_REG32 (rxPtr->hsiomPtr, regValue);
 986              		.loc 1 1235 0
 987 0014 007E     		ldrb	r0, [r0, #24]
 988              	.LVL100:
 989 0016 0623     		mov	r3, #6
 990 0018 8340     		lsl	r3, r3, r0
 991 001a 1343     		orr	r3, r2
 992              	.LVL101:
1236:.\Generated_Source\PSoC4/CapSense_SensingCSX_LL.c **** }
 993              		.loc 1 1236 0
 994 001c 0B60     		str	r3, [r1]
1237:.\Generated_Source\PSoC4/CapSense_SensingCSX_LL.c **** 
 995              		.loc 1 1237 0
 996              		@ sp needed
 997 001e 10BD     		pop	{r4, pc}
 998              		.cfi_endproc
 999              	.LFE13:
 1000              		.size	CapSense_CSXConnectRx, .-CapSense_CSXConnectRx
 1001              		.section	.text.CapSense_CSXScan,"ax",%progbits
 1002              		.align	2
 1003              		.global	CapSense_CSXScan
 1004              		.code	16
 1005              		.thumb_func
 1006              		.type	CapSense_CSXScan, %function
 1007              	CapSense_CSXScan:
 1008              	.LFB5:
 499:.\Generated_Source\PSoC4/CapSense_SensingCSX_LL.c ****     #if (CapSense_CSX_GANGED_SNS_EN == 1u)
 1009              		.loc 1 499 0
 1010              		.cfi_startproc
 1011 0000 10B5     		push	{r4, lr}
 1012              		.cfi_def_cfa_offset 8
 1013              		.cfi_offset 4, -8
 1014              		.cfi_offset 14, -4
 505:.\Generated_Source\PSoC4/CapSense_SensingCSX_LL.c **** 
 1015              		.loc 1 505 0
 1016 0002 104B     		ldr	r3, .L43
 1017 0004 1B68     		ldr	r3, [r3]
 1018 0006 104A     		ldr	r2, .L43+4
 1019 0008 9968     		ldr	r1, [r3, #8]
 1020 000a 1160     		str	r1, [r2]
 509:.\Generated_Source\PSoC4/CapSense_SensingCSX_LL.c ****     CapSense_curWdgtTotalRx  = CapSense_curFlashWdgtPtr->numCols;
 1021              		.loc 1 509 0
 1022 000c 9A7E     		ldrb	r2, [r3, #26]
 1023 000e 0F4C     		ldr	r4, .L43+8
 1024 0010 A280     		strh	r2, [r4, #4]
 510:.\Generated_Source\PSoC4/CapSense_SensingCSX_LL.c **** 
 1025              		.loc 1 510 0
 1026 0012 587E     		ldrb	r0, [r3, #25]
 1027 0014 E080     		strh	r0, [r4, #6]
 554:.\Generated_Source\PSoC4/CapSense_SensingCSX_LL.c ****             CapSense_curTxIOPtr = CapSense_curRxIOPtr;
 1028              		.loc 1 554 0
 1029 0016 1A68     		ldr	r2, [r3]
 1030 0018 A260     		str	r2, [r4, #8]
ARM GAS  C:\Users\Alan\AppData\Local\Temp\ccbGKewn.s 			page 49


 556:.\Generated_Source\PSoC4/CapSense_SensingCSX_LL.c **** 
 1031              		.loc 1 556 0
 1032 001a C300     		lsl	r3, r0, #3
 1033 001c 181A     		sub	r0, r3, r0
 1034 001e 8000     		lsl	r0, r0, #2
 1035 0020 1018     		add	r0, r2, r0
 1036 0022 E060     		str	r0, [r4, #12]
 559:.\Generated_Source\PSoC4/CapSense_SensingCSX_LL.c ****             CapSense_CSXConnectRx(CapSense_curRxIOPtr);
 1037              		.loc 1 559 0
 1038 0024 FFF7FEFF 		bl	CapSense_CSXConnectTx
 1039              	.LVL102:
 560:.\Generated_Source\PSoC4/CapSense_SensingCSX_LL.c **** 
 1040              		.loc 1 560 0
 1041 0028 A068     		ldr	r0, [r4, #8]
 1042 002a FFF7FEFF 		bl	CapSense_CSXConnectRx
 1043              	.LVL103:
 563:.\Generated_Source\PSoC4/CapSense_SensingCSX_LL.c ****         }
 1044              		.loc 1 563 0
 1045 002e 084A     		ldr	r2, .L43+12
 1046 0030 084B     		ldr	r3, .L43+16
 1047 0032 1A60     		str	r2, [r3]
 572:.\Generated_Source\PSoC4/CapSense_SensingCSX_LL.c ****     CapSense_SsCSXStartSample();
 1048              		.loc 1 572 0
 1049 0034 084A     		ldr	r2, .L43+20
 1050 0036 8023     		mov	r3, #128
 1051 0038 9168     		ldr	r1, [r2, #8]
 1052 003a 0B43     		orr	r3, r1
 1053 003c 9360     		str	r3, [r2, #8]
 573:.\Generated_Source\PSoC4/CapSense_SensingCSX_LL.c **** }
 1054              		.loc 1 573 0
 1055 003e FFF7FEFF 		bl	CapSense_SsCSXStartSample
 1056              	.LVL104:
 574:.\Generated_Source\PSoC4/CapSense_SensingCSX_LL.c **** 
 1057              		.loc 1 574 0
 1058              		@ sp needed
 1059 0042 10BD     		pop	{r4, pc}
 1060              	.L44:
 1061              		.align	2
 1062              	.L43:
 1063 0044 00000000 		.word	CapSense_curFlashWdgtPtr
 1064 0048 00000000 		.word	CapSense_curRamSnsPtr
 1065 004c 00000000 		.word	.LANCHOR0
 1066 0050 00000000 		.word	CapSense_SsCSXPostMultiScan
 1067 0054 00000000 		.word	.LANCHOR1
 1068 0058 00000000 		.word	CapSense_dsRam
 1069              		.cfi_endproc
 1070              	.LFE5:
 1071              		.size	CapSense_CSXScan, .-CapSense_CSXScan
 1072              		.section	.text.CapSense_CSXDisconnectTx,"ax",%progbits
 1073              		.align	2
 1074              		.global	CapSense_CSXDisconnectTx
 1075              		.code	16
 1076              		.thumb_func
 1077              		.type	CapSense_CSXDisconnectTx, %function
 1078              	CapSense_CSXDisconnectTx:
 1079              	.LFB14:
1258:.\Generated_Source\PSoC4/CapSense_SensingCSX_LL.c ****     uint32 regValue;
ARM GAS  C:\Users\Alan\AppData\Local\Temp\ccbGKewn.s 			page 50


 1080              		.loc 1 1258 0
 1081              		.cfi_startproc
 1082              	.LVL105:
1261:.\Generated_Source\PSoC4/CapSense_SensingCSX_LL.c ****     regValue &= ~(txPtr->hsiomMask);
 1083              		.loc 1 1261 0
 1084 0000 0268     		ldr	r2, [r0]
 1085 0002 1368     		ldr	r3, [r2]
 1086              	.LVL106:
1262:.\Generated_Source\PSoC4/CapSense_SensingCSX_LL.c ****     CY_SET_REG32 (txPtr->hsiomPtr, regValue);
 1087              		.loc 1 1262 0
 1088 0004 0169     		ldr	r1, [r0, #16]
 1089 0006 8B43     		bic	r3, r1
 1090              	.LVL107:
1263:.\Generated_Source\PSoC4/CapSense_SensingCSX_LL.c **** }
 1091              		.loc 1 1263 0
 1092 0008 1360     		str	r3, [r2]
1264:.\Generated_Source\PSoC4/CapSense_SensingCSX_LL.c **** 
 1093              		.loc 1 1264 0
 1094              		@ sp needed
 1095 000a 7047     		bx	lr
 1096              		.cfi_endproc
 1097              	.LFE14:
 1098              		.size	CapSense_CSXDisconnectTx, .-CapSense_CSXDisconnectTx
 1099              		.section	.text.CapSense_CSXDisconnectRx,"ax",%progbits
 1100              		.align	2
 1101              		.global	CapSense_CSXDisconnectRx
 1102              		.code	16
 1103              		.thumb_func
 1104              		.type	CapSense_CSXDisconnectRx, %function
 1105              	CapSense_CSXDisconnectRx:
 1106              	.LFB15:
1285:.\Generated_Source\PSoC4/CapSense_SensingCSX_LL.c ****     uint32 regValue;
 1107              		.loc 1 1285 0
 1108              		.cfi_startproc
 1109              	.LVL108:
 1110 0000 10B5     		push	{r4, lr}
 1111              		.cfi_def_cfa_offset 8
 1112              		.cfi_offset 4, -8
 1113              		.cfi_offset 14, -4
1288:.\Generated_Source\PSoC4/CapSense_SensingCSX_LL.c ****     regValue &= ~(rxPtr->hsiomMask);
 1114              		.loc 1 1288 0
 1115 0002 0268     		ldr	r2, [r0]
 1116 0004 1368     		ldr	r3, [r2]
 1117              	.LVL109:
1289:.\Generated_Source\PSoC4/CapSense_SensingCSX_LL.c ****     CY_SET_REG32 (rxPtr->hsiomPtr, regValue);
 1118              		.loc 1 1289 0
 1119 0006 0169     		ldr	r1, [r0, #16]
 1120 0008 8B43     		bic	r3, r1
 1121              	.LVL110:
1290:.\Generated_Source\PSoC4/CapSense_SensingCSX_LL.c **** 
 1122              		.loc 1 1290 0
 1123 000a 1360     		str	r3, [r2]
1292:.\Generated_Source\PSoC4/CapSense_SensingCSX_LL.c ****     regValue &= ~(CapSense_GPIO_PC_MASK << rxPtr->shift);
 1124              		.loc 1 1292 0
 1125 000c 4168     		ldr	r1, [r0, #4]
 1126 000e 0B68     		ldr	r3, [r1]
 1127              	.LVL111:
ARM GAS  C:\Users\Alan\AppData\Local\Temp\ccbGKewn.s 			page 51


1293:.\Generated_Source\PSoC4/CapSense_SensingCSX_LL.c ****     regValue |=  (CapSense_GPIO_STRGDRV << rxPtr->shift);
 1128              		.loc 1 1293 0
 1129 0010 847E     		ldrb	r4, [r0, #26]
 1130 0012 0722     		mov	r2, #7
 1131 0014 A240     		lsl	r2, r2, r4
 1132 0016 9343     		bic	r3, r2
 1133              	.LVL112:
 1134 0018 1A1C     		mov	r2, r3
 1135              	.LVL113:
1294:.\Generated_Source\PSoC4/CapSense_SensingCSX_LL.c ****     CY_SET_REG32 (rxPtr->pcPtr, regValue);
 1136              		.loc 1 1294 0
 1137 001a 0623     		mov	r3, #6
 1138 001c A340     		lsl	r3, r3, r4
 1139 001e 1343     		orr	r3, r2
 1140              	.LVL114:
1295:.\Generated_Source\PSoC4/CapSense_SensingCSX_LL.c **** 
 1141              		.loc 1 1295 0
 1142 0020 0B60     		str	r3, [r1]
1297:.\Generated_Source\PSoC4/CapSense_SensingCSX_LL.c ****     regValue &=  ~(rxPtr->mask);
 1143              		.loc 1 1297 0
 1144 0022 8268     		ldr	r2, [r0, #8]
 1145 0024 1368     		ldr	r3, [r2]
 1146              	.LVL115:
1298:.\Generated_Source\PSoC4/CapSense_SensingCSX_LL.c ****     CY_SET_REG32 (rxPtr->drPtr, regValue);
 1147              		.loc 1 1298 0
 1148 0026 4169     		ldr	r1, [r0, #20]
 1149 0028 8B43     		bic	r3, r1
 1150              	.LVL116:
1299:.\Generated_Source\PSoC4/CapSense_SensingCSX_LL.c **** }
 1151              		.loc 1 1299 0
 1152 002a 1360     		str	r3, [r2]
1300:.\Generated_Source\PSoC4/CapSense_SensingCSX_LL.c **** 
 1153              		.loc 1 1300 0
 1154              		@ sp needed
 1155 002c 10BD     		pop	{r4, pc}
 1156              		.cfi_endproc
 1157              	.LFE15:
 1158              		.size	CapSense_CSXDisconnectRx, .-CapSense_CSXDisconnectRx
 1159 002e C046     		.section	.text.CapSense_SsCSXPostMultiScan,"ax",%progbits
 1160              		.align	2
 1161              		.code	16
 1162              		.thumb_func
 1163              		.type	CapSense_SsCSXPostMultiScan, %function
 1164              	CapSense_SsCSXPostMultiScan:
 1165              	.LFB8:
 682:.\Generated_Source\PSoC4/CapSense_SensingCSX_LL.c ****     #ifdef CapSense_ENTRY_CALLBACK
 1166              		.loc 1 682 0
 1167              		.cfi_startproc
 1168 0000 10B5     		push	{r4, lr}
 1169              		.cfi_def_cfa_offset 8
 1170              		.cfi_offset 4, -8
 1171              		.cfi_offset 14, -4
 688:.\Generated_Source\PSoC4/CapSense_SensingCSX_LL.c ****                              (CapSense_csxScanPeriod - CapSense_csxRawCount);
 1172              		.loc 1 688 0
 1173 0002 2C4B     		ldr	r3, .L52
 1174 0004 1968     		ldr	r1, [r3]
 1175 0006 2C4B     		ldr	r3, .L52+4
ARM GAS  C:\Users\Alan\AppData\Local\Temp\ccbGKewn.s 			page 52


 1176 0008 1B78     		ldrb	r3, [r3]
 1177 000a 2C4C     		ldr	r4, .L52+8
 1178 000c 2288     		ldrh	r2, [r4]
 1179 000e 6088     		ldrh	r0, [r4, #2]
 1180 0010 5B00     		lsl	r3, r3, #1
 1181 0012 121A     		sub	r2, r2, r0
 1182 0014 5A52     		strh	r2, [r3, r1]
 712:.\Generated_Source\PSoC4/CapSense_SensingCSX_LL.c **** 
 1183              		.loc 1 712 0
 1184 0016 E068     		ldr	r0, [r4, #12]
 1185 0018 FFF7FEFF 		bl	CapSense_CSXDisconnectTx
 1186              	.LVL117:
 716:.\Generated_Source\PSoC4/CapSense_SensingCSX_LL.c ****             if (CapSense_curWdgtTotalTx > 0u)
 1187              		.loc 1 716 0
 1188 001c A388     		ldrh	r3, [r4, #4]
 1189 001e 013B     		sub	r3, r3, #1
 1190 0020 9BB2     		uxth	r3, r3
 1191 0022 A380     		strh	r3, [r4, #4]
 717:.\Generated_Source\PSoC4/CapSense_SensingCSX_LL.c ****             {
 1192              		.loc 1 717 0
 1193 0024 002B     		cmp	r3, #0
 1194 0026 0CD0     		beq	.L48
 722:.\Generated_Source\PSoC4/CapSense_SensingCSX_LL.c ****                 CapSense_CSXConnectTx (CapSense_curTxIOPtr);
 1195              		.loc 1 722 0
 1196 0028 244B     		ldr	r3, .L52+8
 1197 002a D868     		ldr	r0, [r3, #12]
 1198 002c 1C30     		add	r0, r0, #28
 1199 002e D860     		str	r0, [r3, #12]
 723:.\Generated_Source\PSoC4/CapSense_SensingCSX_LL.c ****                 CapSense_curRamSnsPtr++;
 1200              		.loc 1 723 0
 1201 0030 FFF7FEFF 		bl	CapSense_CSXConnectTx
 1202              	.LVL118:
 724:.\Generated_Source\PSoC4/CapSense_SensingCSX_LL.c **** 
 1203              		.loc 1 724 0
 1204 0034 1F4A     		ldr	r2, .L52
 1205 0036 1368     		ldr	r3, [r2]
 1206 0038 0A33     		add	r3, r3, #10
 1207 003a 1360     		str	r3, [r2]
 727:.\Generated_Source\PSoC4/CapSense_SensingCSX_LL.c ****             }
 1208              		.loc 1 727 0
 1209 003c FFF7FEFF 		bl	CapSense_SsCSXStartSample
 1210              	.LVL119:
 1211 0040 37E0     		b	.L47
 1212              	.L48:
 733:.\Generated_Source\PSoC4/CapSense_SensingCSX_LL.c ****                 if (CapSense_curWdgtTotalRx > 0u)
 1213              		.loc 1 733 0
 1214 0042 1E4A     		ldr	r2, .L52+8
 1215 0044 D388     		ldrh	r3, [r2, #6]
 1216 0046 013B     		sub	r3, r3, #1
 1217 0048 9BB2     		uxth	r3, r3
 1218 004a D380     		strh	r3, [r2, #6]
 734:.\Generated_Source\PSoC4/CapSense_SensingCSX_LL.c ****                 {
 1219              		.loc 1 734 0
 1220 004c 002B     		cmp	r3, #0
 1221 004e 1DD0     		beq	.L50
 741:.\Generated_Source\PSoC4/CapSense_SensingCSX_LL.c ****                     CapSense_curRxIOPtr++;
 1222              		.loc 1 741 0
ARM GAS  C:\Users\Alan\AppData\Local\Temp\ccbGKewn.s 			page 53


 1223 0050 141C     		mov	r4, r2
 1224 0052 9068     		ldr	r0, [r2, #8]
 1225 0054 FFF7FEFF 		bl	CapSense_CSXDisconnectRx
 1226              	.LVL120:
 742:.\Generated_Source\PSoC4/CapSense_SensingCSX_LL.c ****                     CapSense_CSXConnectRx(CapSense_curRxIOPtr);
 1227              		.loc 1 742 0
 1228 0058 A068     		ldr	r0, [r4, #8]
 1229 005a 1C30     		add	r0, r0, #28
 1230 005c A060     		str	r0, [r4, #8]
 743:.\Generated_Source\PSoC4/CapSense_SensingCSX_LL.c ****                     CapSense_curWdgtTotalTx  = CapSense_curFlashWdgtPtr->numRows;
 1231              		.loc 1 743 0
 1232 005e FFF7FEFF 		bl	CapSense_CSXConnectRx
 1233              	.LVL121:
 744:.\Generated_Source\PSoC4/CapSense_SensingCSX_LL.c ****                     CapSense_curTxIOPtr = (CapSense_FLASH_IO_STRUCT const *)CapSense_curFlashWdgtPt
 1234              		.loc 1 744 0
 1235 0062 174B     		ldr	r3, .L52+12
 1236 0064 1A68     		ldr	r2, [r3]
 1237 0066 937E     		ldrb	r3, [r2, #26]
 1238 0068 A380     		strh	r3, [r4, #4]
 745:.\Generated_Source\PSoC4/CapSense_SensingCSX_LL.c ****                     CapSense_curTxIOPtr = & CapSense_curTxIOPtr[(CapSense_curFlashWdgtPtr->numCols)
 1239              		.loc 1 745 0
 1240 006a 1068     		ldr	r0, [r2]
 1241 006c E060     		str	r0, [r4, #12]
 746:.\Generated_Source\PSoC4/CapSense_SensingCSX_LL.c ****                     CapSense_CSXConnectTx(CapSense_curTxIOPtr);
 1242              		.loc 1 746 0
 1243 006e 537E     		ldrb	r3, [r2, #25]
 1244 0070 DA00     		lsl	r2, r3, #3
 1245 0072 D31A     		sub	r3, r2, r3
 1246 0074 9B00     		lsl	r3, r3, #2
 1247 0076 C018     		add	r0, r0, r3
 1248 0078 E060     		str	r0, [r4, #12]
 747:.\Generated_Source\PSoC4/CapSense_SensingCSX_LL.c **** 
 1249              		.loc 1 747 0
 1250 007a FFF7FEFF 		bl	CapSense_CSXConnectTx
 1251              	.LVL122:
 750:.\Generated_Source\PSoC4/CapSense_SensingCSX_LL.c **** 
 1252              		.loc 1 750 0
 1253 007e 0D4A     		ldr	r2, .L52
 1254 0080 1368     		ldr	r3, [r2]
 1255 0082 0A33     		add	r3, r3, #10
 1256 0084 1360     		str	r3, [r2]
 753:.\Generated_Source\PSoC4/CapSense_SensingCSX_LL.c ****                 }
 1257              		.loc 1 753 0
 1258 0086 FFF7FEFF 		bl	CapSense_SsCSXStartSample
 1259              	.LVL123:
 1260 008a 12E0     		b	.L47
 1261              	.L50:
 758:.\Generated_Source\PSoC4/CapSense_SensingCSX_LL.c **** 
 1262              		.loc 1 758 0
 1263 008c 0B4B     		ldr	r3, .L52+8
 1264 008e 9868     		ldr	r0, [r3, #8]
 1265 0090 FFF7FEFF 		bl	CapSense_CSXDisconnectRx
 1266              	.LVL124:
 761:.\Generated_Source\PSoC4/CapSense_SensingCSX_LL.c ****                     {
 1267              		.loc 1 761 0
 1268 0094 0B4B     		ldr	r3, .L52+16
 1269 0096 1B78     		ldrb	r3, [r3]
ARM GAS  C:\Users\Alan\AppData\Local\Temp\ccbGKewn.s 			page 54


 1270 0098 002B     		cmp	r3, #0
 1271 009a 02D0     		beq	.L51
 763:.\Generated_Source\PSoC4/CapSense_SensingCSX_LL.c ****                     }
 1272              		.loc 1 763 0
 1273 009c FFF7FEFF 		bl	CapSense_PostAllWidgetsScan
 1274              	.LVL125:
 1275 00a0 07E0     		b	.L47
 1276              	.L51:
 770:.\Generated_Source\PSoC4/CapSense_SensingCSX_LL.c ****                         CapSense_dsRam.status &= ~CapSense_SW_STS_BUSY;
 1277              		.loc 1 770 0
 1278 00a2 094B     		ldr	r3, .L52+20
 1279 00a4 DA88     		ldrh	r2, [r3, #6]
 1280 00a6 0132     		add	r2, r2, #1
 1281 00a8 DA80     		strh	r2, [r3, #6]
 771:.\Generated_Source\PSoC4/CapSense_SensingCSX_LL.c ****                     }
 1282              		.loc 1 771 0
 1283 00aa 8022     		mov	r2, #128
 1284 00ac 9968     		ldr	r1, [r3, #8]
 1285 00ae 9143     		bic	r1, r2
 1286 00b0 9960     		str	r1, [r3, #8]
 1287              	.L47:
 780:.\Generated_Source\PSoC4/CapSense_SensingCSX_LL.c **** 
 1288              		.loc 1 780 0
 1289              		@ sp needed
 1290 00b2 10BD     		pop	{r4, pc}
 1291              	.L53:
 1292              		.align	2
 1293              	.L52:
 1294 00b4 00000000 		.word	CapSense_curRamSnsPtr
 1295 00b8 00000000 		.word	CapSense_scanFreqIndex
 1296 00bc 00000000 		.word	.LANCHOR0
 1297 00c0 00000000 		.word	CapSense_curFlashWdgtPtr
 1298 00c4 00000000 		.word	CapSense_requestScanAllWidget
 1299 00c8 00000000 		.word	CapSense_dsRam
 1300              		.cfi_endproc
 1301              	.LFE8:
 1302              		.size	CapSense_SsCSXPostMultiScan, .-CapSense_SsCSXPostMultiScan
 1303              		.section	.text.CapSense_CSXElectrodeCheck,"ax",%progbits
 1304              		.align	2
 1305              		.global	CapSense_CSXElectrodeCheck
 1306              		.code	16
 1307              		.thumb_func
 1308              		.type	CapSense_CSXElectrodeCheck, %function
 1309              	CapSense_CSXElectrodeCheck:
 1310              	.LFB2:
 243:.\Generated_Source\PSoC4/CapSense_SensingCSX_LL.c ****     #if (0u != CapSense_CSX_GANGED_SNS_EN)
 1311              		.loc 1 243 0
 1312              		.cfi_startproc
 1313 0000 10B5     		push	{r4, lr}
 1314              		.cfi_def_cfa_offset 8
 1315              		.cfi_offset 4, -8
 1316              		.cfi_offset 14, -4
 248:.\Generated_Source\PSoC4/CapSense_SensingCSX_LL.c ****     {
 1317              		.loc 1 248 0
 1318 0002 074B     		ldr	r3, .L56
 1319 0004 1B8A     		ldrh	r3, [r3, #16]
 1320 0006 002B     		cmp	r3, #0
ARM GAS  C:\Users\Alan\AppData\Local\Temp\ccbGKewn.s 			page 55


 1321 0008 08D0     		beq	.L54
 287:.\Generated_Source\PSoC4/CapSense_SensingCSX_LL.c ****             CapSense_CSXDisconnectRx(CapSense_curRxIOPtr);
 1322              		.loc 1 287 0
 1323 000a 054C     		ldr	r4, .L56
 1324 000c E068     		ldr	r0, [r4, #12]
 1325 000e FFF7FEFF 		bl	CapSense_CSXDisconnectTx
 1326              	.LVL126:
 288:.\Generated_Source\PSoC4/CapSense_SensingCSX_LL.c ****         #endif
 1327              		.loc 1 288 0
 1328 0012 A068     		ldr	r0, [r4, #8]
 1329 0014 FFF7FEFF 		bl	CapSense_CSXDisconnectRx
 1330              	.LVL127:
 290:.\Generated_Source\PSoC4/CapSense_SensingCSX_LL.c ****     }
 1331              		.loc 1 290 0
 1332 0018 0023     		mov	r3, #0
 1333 001a 2382     		strh	r3, [r4, #16]
 1334              	.L54:
 292:.\Generated_Source\PSoC4/CapSense_SensingCSX_LL.c **** 
 1335              		.loc 1 292 0
 1336              		@ sp needed
 1337 001c 10BD     		pop	{r4, pc}
 1338              	.L57:
 1339 001e C046     		.align	2
 1340              	.L56:
 1341 0020 00000000 		.word	.LANCHOR0
 1342              		.cfi_endproc
 1343              	.LFE2:
 1344              		.size	CapSense_CSXElectrodeCheck, .-CapSense_CSXElectrodeCheck
 1345              		.section	.text.CapSense_CSXSetupWidget,"ax",%progbits
 1346              		.align	2
 1347              		.global	CapSense_CSXSetupWidget
 1348              		.code	16
 1349              		.thumb_func
 1350              		.type	CapSense_CSXSetupWidget, %function
 1351              	CapSense_CSXSetupWidget:
 1352              	.LFB3:
 322:.\Generated_Source\PSoC4/CapSense_SensingCSX_LL.c ****     /*  Configure hardware block */
 1353              		.loc 1 322 0
 1354              		.cfi_startproc
 1355              	.LVL128:
 1356 0000 10B5     		push	{r4, lr}
 1357              		.cfi_def_cfa_offset 8
 1358              		.cfi_offset 4, -8
 1359              		.cfi_offset 14, -4
 1360 0002 041C     		mov	r4, r0
 357:.\Generated_Source\PSoC4/CapSense_SensingCSX_LL.c ****         CapSense_curFlashWdgtPtr = &CapSense_dsFlash.wdgtArray[widgetIndex];
 1361              		.loc 1 357 0
 1362 0004 FFF7FEFF 		bl	CapSense_CSXElectrodeCheck
 1363              	.LVL129:
 358:.\Generated_Source\PSoC4/CapSense_SensingCSX_LL.c ****         CapSense_CSXV2HwSetup();
 1364              		.loc 1 358 0
 1365 0008 E000     		lsl	r0, r4, #3
 1366 000a 001B     		sub	r0, r0, r4
 1367 000c 8000     		lsl	r0, r0, #2
 1368 000e 164B     		ldr	r3, .L63
 1369 0010 C018     		add	r0, r0, r3
 1370 0012 164B     		ldr	r3, .L63+4
ARM GAS  C:\Users\Alan\AppData\Local\Temp\ccbGKewn.s 			page 56


 1371 0014 1860     		str	r0, [r3]
 1372              	.LBB16:
 1373              	.LBB17:
1509:.\Generated_Source\PSoC4/CapSense_SensingCSX_LL.c **** 
 1374              		.loc 1 1509 0
 1375 0016 4068     		ldr	r0, [r0, #4]
 1376              	.LVL130:
1514:.\Generated_Source\PSoC4/CapSense_SensingCSX_LL.c ****         #endif /* (0u != CapSense_CSX_COMMON_TX_CLK_EN) */
 1377              		.loc 1 1514 0
 1378 0018 837A     		ldrb	r3, [r0, #10]
 1379              	.LVL131:
1517:.\Generated_Source\PSoC4/CapSense_SensingCSX_LL.c **** 
 1380              		.loc 1 1517 0
 1381 001a 0188     		ldrh	r1, [r0]
 1382 001c 144A     		ldr	r2, .L63+8
 1383 001e 1160     		str	r1, [r2]
1519:.\Generated_Source\PSoC4/CapSense_SensingCSX_LL.c ****         CapSense_csxScanPeriod -= LO16((uint32)curRamWdgtBasePtr->resolution * CapSense_CSX_DEADBAN
 1384              		.loc 1 1519 0
 1385 0020 0288     		ldrh	r2, [r0]
 1386 0022 5A43     		mul	r2, r3
 1387 0024 92B2     		uxth	r2, r2
 1388 0026 134C     		ldr	r4, .L63+12
 1389              	.LVL132:
 1390 0028 2280     		strh	r2, [r4]
1520:.\Generated_Source\PSoC4/CapSense_SensingCSX_LL.c **** 
 1391              		.loc 1 1520 0
 1392 002a 2188     		ldrh	r1, [r4]
 1393 002c 0288     		ldrh	r2, [r0]
 1394 002e 5200     		lsl	r2, r2, #1
 1395 0030 8A1A     		sub	r2, r1, r2
 1396 0032 92B2     		uxth	r2, r2
 1397 0034 2280     		strh	r2, [r4]
 1398              	.LVL133:
 1399              	.LBB18:
 1400              	.LBB19:
1388:.\Generated_Source\PSoC4/CapSense_SensingCSX_LL.c ****             {
 1401              		.loc 1 1388 0
 1402 0036 1E2B     		cmp	r3, #30
 1403 0038 05D8     		bhi	.L60
1392:.\Generated_Source\PSoC4/CapSense_SensingCSX_LL.c ****             {
 1404              		.loc 1 1392 0
 1405 003a 462B     		cmp	r3, #70
 1406 003c 05D8     		bhi	.L61
1396:.\Generated_Source\PSoC4/CapSense_SensingCSX_LL.c ****             {
 1407              		.loc 1 1396 0
 1408 003e 962B     		cmp	r3, #150
 1409 0040 05D9     		bls	.L62
1398:.\Generated_Source\PSoC4/CapSense_SensingCSX_LL.c ****             }
 1410              		.loc 1 1398 0
 1411 0042 0422     		mov	r2, #4
 1412 0044 04E0     		b	.L59
 1413              	.L60:
1390:.\Generated_Source\PSoC4/CapSense_SensingCSX_LL.c ****             }
 1414              		.loc 1 1390 0
 1415 0046 0222     		mov	r2, #2
 1416 0048 02E0     		b	.L59
 1417              	.L61:
ARM GAS  C:\Users\Alan\AppData\Local\Temp\ccbGKewn.s 			page 57


1394:.\Generated_Source\PSoC4/CapSense_SensingCSX_LL.c ****             }
 1418              		.loc 1 1394 0
 1419 004a 0322     		mov	r2, #3
 1420 004c 00E0     		b	.L59
 1421              	.L62:
1402:.\Generated_Source\PSoC4/CapSense_SensingCSX_LL.c ****             }
 1422              		.loc 1 1402 0
 1423 004e 0122     		mov	r2, #1
 1424              	.L59:
 1425              	.LVL134:
 1426              	.LBE19:
 1427              	.LBE18:
1528:.\Generated_Source\PSoC4/CapSense_SensingCSX_LL.c ****         tmpRegVal = (tmpRegVal << CapSense_SENSE_PERIOD_LFSR_SIZE_SHIFT) | snsClkVal;
 1428              		.loc 1 1528 0
 1429 0050 013B     		sub	r3, r3, #1
 1430              	.LVL135:
 1431 0052 1B05     		lsl	r3, r3, #20
 1432              	.LVL136:
 1433 0054 1B0D     		lsr	r3, r3, #20
 1434              	.LVL137:
1529:.\Generated_Source\PSoC4/CapSense_SensingCSX_LL.c ****         CY_SET_REG32(CapSense_SENSE_PERIOD_PTR, tmpRegVal);
 1435              		.loc 1 1529 0
 1436 0056 1204     		lsl	r2, r2, #16
 1437              	.LVL138:
 1438 0058 1343     		orr	r3, r2
 1439              	.LVL139:
1530:.\Generated_Source\PSoC4/CapSense_SensingCSX_LL.c ****         CapSense_ConfigureModClkClock((uint32)CapSense_dsRam.modCsxClk);
 1440              		.loc 1 1530 0
 1441 005a 074A     		ldr	r2, .L63+16
 1442 005c 1360     		str	r3, [r2]
1531:.\Generated_Source\PSoC4/CapSense_SensingCSX_LL.c ****     }
 1443              		.loc 1 1531 0
 1444 005e 074B     		ldr	r3, .L63+20
 1445              	.LVL140:
 1446 0060 987E     		ldrb	r0, [r3, #26]
 1447              	.LVL141:
 1448 0062 FFF7FEFF 		bl	CapSense_ConfigureModClkClock
 1449              	.LVL142:
 1450              	.LBE17:
 1451              	.LBE16:
 361:.\Generated_Source\PSoC4/CapSense_SensingCSX_LL.c **** 
 1452              		.loc 1 361 0
 1453              		@ sp needed
 1454 0066 10BD     		pop	{r4, pc}
 1455              	.L64:
 1456              		.align	2
 1457              	.L63:
 1458 0068 00000000 		.word	CapSense_dsFlash
 1459 006c 00000000 		.word	CapSense_curFlashWdgtPtr
 1460 0070 14030B40 		.word	1074463508
 1461 0074 00000000 		.word	.LANCHOR0
 1462 0078 00020B40 		.word	1074463232
 1463 007c 00000000 		.word	CapSense_dsRam
 1464              		.cfi_endproc
 1465              	.LFE3:
 1466              		.size	CapSense_CSXSetupWidget, .-CapSense_CSXSetupWidget
 1467              		.global	__aeabi_uidivmod
ARM GAS  C:\Users\Alan\AppData\Local\Temp\ccbGKewn.s 			page 58


 1468              		.section	.text.CapSense_CSXSetupWidgetExt,"ax",%progbits
 1469              		.align	2
 1470              		.global	CapSense_CSXSetupWidgetExt
 1471              		.code	16
 1472              		.thumb_func
 1473              		.type	CapSense_CSXSetupWidgetExt, %function
 1474              	CapSense_CSXSetupWidgetExt:
 1475              	.LFB4:
 386:.\Generated_Source\PSoC4/CapSense_SensingCSX_LL.c ****     uint32 txIndex;
 1476              		.loc 1 386 0
 1477              		.cfi_startproc
 1478              	.LVL143:
 1479 0000 F8B5     		push	{r3, r4, r5, r6, r7, lr}
 1480              		.cfi_def_cfa_offset 24
 1481              		.cfi_offset 3, -24
 1482              		.cfi_offset 4, -20
 1483              		.cfi_offset 5, -16
 1484              		.cfi_offset 6, -12
 1485              		.cfi_offset 7, -8
 1486              		.cfi_offset 14, -4
 1487 0002 0C1C     		mov	r4, r1
 405:.\Generated_Source\PSoC4/CapSense_SensingCSX_LL.c **** 
 1488              		.loc 1 405 0
 1489 0004 FFF7FEFF 		bl	CapSense_CSXSetupWidget
 1490              	.LVL144:
 408:.\Generated_Source\PSoC4/CapSense_SensingCSX_LL.c ****     CapSense_curRamSnsPtr = &CapSense_curRamSnsPtr[snsIndex];
 1491              		.loc 1 408 0
 1492 0008 164B     		ldr	r3, .L66
 1493 000a 1D68     		ldr	r5, [r3]
 409:.\Generated_Source\PSoC4/CapSense_SensingCSX_LL.c **** 
 1494              		.loc 1 409 0
 1495 000c A300     		lsl	r3, r4, #2
 1496 000e 1B19     		add	r3, r3, r4
 1497 0010 5B00     		lsl	r3, r3, #1
 1498 0012 AA68     		ldr	r2, [r5, #8]
 1499 0014 9446     		mov	ip, r2
 1500 0016 6344     		add	r3, r3, ip
 1501 0018 134A     		ldr	r2, .L66+4
 1502 001a 1360     		str	r3, [r2]
 414:.\Generated_Source\PSoC4/CapSense_SensingCSX_LL.c ****     txIndex = snsIndex % CapSense_curFlashWdgtPtr->numRows;
 1503              		.loc 1 414 0
 1504 001c AF7E     		ldrb	r7, [r5, #26]
 1505 001e 201C     		mov	r0, r4
 1506 0020 391C     		mov	r1, r7
 1507 0022 FFF7FEFF 		bl	__aeabi_uidiv
 1508              	.LVL145:
 1509 0026 061C     		mov	r6, r0
 1510              	.LVL146:
 415:.\Generated_Source\PSoC4/CapSense_SensingCSX_LL.c **** 
 1511              		.loc 1 415 0
 1512 0028 201C     		mov	r0, r4
 1513              	.LVL147:
 1514 002a 391C     		mov	r1, r7
 1515 002c FFF7FEFF 		bl	__aeabi_uidivmod
 1516              	.LVL148:
 461:.\Generated_Source\PSoC4/CapSense_SensingCSX_LL.c ****             CapSense_curRxIOPtr = &CapSense_curRxIOPtr[rxIndex];
 1517              		.loc 1 461 0
ARM GAS  C:\Users\Alan\AppData\Local\Temp\ccbGKewn.s 			page 59


 1518 0030 2A68     		ldr	r2, [r5]
 1519 0032 0E4C     		ldr	r4, .L66+8
 1520              	.LVL149:
 462:.\Generated_Source\PSoC4/CapSense_SensingCSX_LL.c **** 
 1521              		.loc 1 462 0
 1522 0034 F300     		lsl	r3, r6, #3
 1523 0036 9B1B     		sub	r3, r3, r6
 1524 0038 9B00     		lsl	r3, r3, #2
 1525 003a D318     		add	r3, r2, r3
 1526 003c A360     		str	r3, [r4, #8]
 464:.\Generated_Source\PSoC4/CapSense_SensingCSX_LL.c ****             CapSense_curTxIOPtr = &CapSense_curTxIOPtr[(CapSense_curFlashWdgtPtr->numCols + txIndex
 1527              		.loc 1 464 0
 1528 003e E260     		str	r2, [r4, #12]
 465:.\Generated_Source\PSoC4/CapSense_SensingCSX_LL.c **** 
 1529              		.loc 1 465 0
 1530 0040 687E     		ldrb	r0, [r5, #25]
 1531 0042 4018     		add	r0, r0, r1
 1532 0044 C300     		lsl	r3, r0, #3
 1533 0046 181A     		sub	r0, r3, r0
 1534 0048 8000     		lsl	r0, r0, #2
 1535 004a 1018     		add	r0, r2, r0
 1536 004c E060     		str	r0, [r4, #12]
 468:.\Generated_Source\PSoC4/CapSense_SensingCSX_LL.c ****             CapSense_CSXConnectRx(CapSense_curRxIOPtr);
 1537              		.loc 1 468 0
 1538 004e FFF7FEFF 		bl	CapSense_CSXConnectTx
 1539              	.LVL150:
 469:.\Generated_Source\PSoC4/CapSense_SensingCSX_LL.c ****             CapSense_eleCsxDisconnectFlag = CapSense_DISCONNECT_IO_FLAG;
 1540              		.loc 1 469 0
 1541 0052 A068     		ldr	r0, [r4, #8]
 1542 0054 FFF7FEFF 		bl	CapSense_CSXConnectRx
 1543              	.LVL151:
 470:.\Generated_Source\PSoC4/CapSense_SensingCSX_LL.c **** 
 1544              		.loc 1 470 0
 1545 0058 0123     		mov	r3, #1
 1546 005a 2382     		strh	r3, [r4, #16]
 473:.\Generated_Source\PSoC4/CapSense_SensingCSX_LL.c ****         }
 1547              		.loc 1 473 0
 1548 005c 044A     		ldr	r2, .L66+12
 1549 005e 054B     		ldr	r3, .L66+16
 1550 0060 1A60     		str	r2, [r3]
 475:.\Generated_Source\PSoC4/CapSense_SensingCSX_LL.c **** 
 1551              		.loc 1 475 0
 1552              		@ sp needed
 1553              	.LVL152:
 1554 0062 F8BD     		pop	{r3, r4, r5, r6, r7, pc}
 1555              	.L67:
 1556              		.align	2
 1557              	.L66:
 1558 0064 00000000 		.word	CapSense_curFlashWdgtPtr
 1559 0068 00000000 		.word	CapSense_curRamSnsPtr
 1560 006c 00000000 		.word	.LANCHOR0
 1561 0070 00000000 		.word	CapSense_SsCSXPostSingleScan
 1562 0074 00000000 		.word	.LANCHOR1
 1563              		.cfi_endproc
 1564              	.LFE4:
 1565              		.size	CapSense_CSXSetupWidgetExt, .-CapSense_CSXSetupWidgetExt
 1566              		.global	CapSense_CSXPostScanApiPtr
ARM GAS  C:\Users\Alan\AppData\Local\Temp\ccbGKewn.s 			page 60


 1567              		.global	CapSense_resamplingCyclesCnt
 1568              		.global	CapSense_csxRawCount
 1569              		.global	CapSense_csxScanPeriod
 1570              		.data
 1571              		.align	2
 1572              		.set	.LANCHOR1,. + 0
 1573              		.type	CapSense_CSXPostScanApiPtr, %object
 1574              		.size	CapSense_CSXPostScanApiPtr, 4
 1575              	CapSense_CSXPostScanApiPtr:
 1576 0000 00000000 		.word	CapSense_SsCSXPostMultiScan
 1577              		.type	CapSense_resamplingCyclesCnt, %object
 1578              		.size	CapSense_resamplingCyclesCnt, 4
 1579              	CapSense_resamplingCyclesCnt:
 1580 0004 01000000 		.word	1
 1581              		.bss
 1582              		.align	2
 1583              		.set	.LANCHOR0,. + 0
 1584              		.type	CapSense_csxScanPeriod, %object
 1585              		.size	CapSense_csxScanPeriod, 2
 1586              	CapSense_csxScanPeriod:
 1587 0000 0000     		.space	2
 1588              		.type	CapSense_csxRawCount, %object
 1589              		.size	CapSense_csxRawCount, 2
 1590              	CapSense_csxRawCount:
 1591 0002 0000     		.space	2
 1592              		.type	CapSense_curWdgtTotalTx, %object
 1593              		.size	CapSense_curWdgtTotalTx, 2
 1594              	CapSense_curWdgtTotalTx:
 1595 0004 0000     		.space	2
 1596              		.type	CapSense_curWdgtTotalRx, %object
 1597              		.size	CapSense_curWdgtTotalRx, 2
 1598              	CapSense_curWdgtTotalRx:
 1599 0006 0000     		.space	2
 1600              		.type	CapSense_curRxIOPtr, %object
 1601              		.size	CapSense_curRxIOPtr, 4
 1602              	CapSense_curRxIOPtr:
 1603 0008 00000000 		.space	4
 1604              		.type	CapSense_curTxIOPtr, %object
 1605              		.size	CapSense_curTxIOPtr, 4
 1606              	CapSense_curTxIOPtr:
 1607 000c 00000000 		.space	4
 1608              		.type	CapSense_eleCsxDisconnectFlag, %object
 1609              		.size	CapSense_eleCsxDisconnectFlag, 2
 1610              	CapSense_eleCsxDisconnectFlag:
 1611 0010 0000     		.space	2
 1612 0012 0000     		.text
 1613              	.Letext0:
 1614              		.file 2 "Generated_Source\\PSoC4/cytypes.h"
 1615              		.file 3 ".\\Generated_Source\\PSoC4\\CapSense_Configuration.h"
 1616              		.file 4 ".\\Generated_Source\\PSoC4\\CapSense_Structure.h"
 1617              		.file 5 ".\\Generated_Source\\PSoC4\\CapSense_Sensing.h"
 1618              		.file 6 ".\\Generated_Source\\PSoC4\\CyLib.h"
 1619              		.section	.debug_info,"",%progbits
 1620              	.Ldebug_info0:
 1621 0000 4D0D0000 		.4byte	0xd4d
 1622 0004 0400     		.2byte	0x4
 1623 0006 00000000 		.4byte	.Ldebug_abbrev0
ARM GAS  C:\Users\Alan\AppData\Local\Temp\ccbGKewn.s 			page 61


 1624 000a 04       		.byte	0x4
 1625 000b 01       		.uleb128 0x1
 1626 000c 0C0A0000 		.4byte	.LASF153
 1627 0010 01       		.byte	0x1
 1628 0011 D8040000 		.4byte	.LASF154
 1629 0015 B9060000 		.4byte	.LASF155
 1630 0019 00000000 		.4byte	.Ldebug_ranges0+0
 1631 001d 00000000 		.4byte	0
 1632 0021 00000000 		.4byte	.Ldebug_line0
 1633 0025 02       		.uleb128 0x2
 1634 0026 01       		.byte	0x1
 1635 0027 06       		.byte	0x6
 1636 0028 15020000 		.4byte	.LASF0
 1637 002c 02       		.uleb128 0x2
 1638 002d 01       		.byte	0x1
 1639 002e 08       		.byte	0x8
 1640 002f 4D070000 		.4byte	.LASF1
 1641 0033 02       		.uleb128 0x2
 1642 0034 02       		.byte	0x2
 1643 0035 05       		.byte	0x5
 1644 0036 5B070000 		.4byte	.LASF2
 1645 003a 02       		.uleb128 0x2
 1646 003b 02       		.byte	0x2
 1647 003c 07       		.byte	0x7
 1648 003d 94040000 		.4byte	.LASF3
 1649 0041 02       		.uleb128 0x2
 1650 0042 04       		.byte	0x4
 1651 0043 05       		.byte	0x5
 1652 0044 64020000 		.4byte	.LASF4
 1653 0048 02       		.uleb128 0x2
 1654 0049 04       		.byte	0x4
 1655 004a 07       		.byte	0x7
 1656 004b 19040000 		.4byte	.LASF5
 1657 004f 02       		.uleb128 0x2
 1658 0050 08       		.byte	0x8
 1659 0051 05       		.byte	0x5
 1660 0052 07020000 		.4byte	.LASF6
 1661 0056 02       		.uleb128 0x2
 1662 0057 08       		.byte	0x8
 1663 0058 07       		.byte	0x7
 1664 0059 13010000 		.4byte	.LASF7
 1665 005d 03       		.uleb128 0x3
 1666 005e 04       		.byte	0x4
 1667 005f 05       		.byte	0x5
 1668 0060 696E7400 		.ascii	"int\000"
 1669 0064 02       		.uleb128 0x2
 1670 0065 04       		.byte	0x4
 1671 0066 07       		.byte	0x7
 1672 0067 BF030000 		.4byte	.LASF8
 1673 006b 04       		.uleb128 0x4
 1674 006c AD020000 		.4byte	.LASF9
 1675 0070 02       		.byte	0x2
 1676 0071 9801     		.2byte	0x198
 1677 0073 2C000000 		.4byte	0x2c
 1678 0077 04       		.uleb128 0x4
 1679 0078 0A000000 		.4byte	.LASF10
 1680 007c 02       		.byte	0x2
ARM GAS  C:\Users\Alan\AppData\Local\Temp\ccbGKewn.s 			page 62


 1681 007d 9901     		.2byte	0x199
 1682 007f 3A000000 		.4byte	0x3a
 1683 0083 04       		.uleb128 0x4
 1684 0084 48030000 		.4byte	.LASF11
 1685 0088 02       		.byte	0x2
 1686 0089 9A01     		.2byte	0x19a
 1687 008b 48000000 		.4byte	0x48
 1688 008f 02       		.uleb128 0x2
 1689 0090 04       		.byte	0x4
 1690 0091 04       		.byte	0x4
 1691 0092 76060000 		.4byte	.LASF12
 1692 0096 02       		.uleb128 0x2
 1693 0097 08       		.byte	0x8
 1694 0098 04       		.byte	0x4
 1695 0099 C0020000 		.4byte	.LASF13
 1696 009d 02       		.uleb128 0x2
 1697 009e 01       		.byte	0x1
 1698 009f 08       		.byte	0x8
 1699 00a0 3D080000 		.4byte	.LASF14
 1700 00a4 04       		.uleb128 0x4
 1701 00a5 56090000 		.4byte	.LASF15
 1702 00a9 02       		.byte	0x2
 1703 00aa 3A02     		.2byte	0x23a
 1704 00ac 48000000 		.4byte	0x48
 1705 00b0 05       		.uleb128 0x5
 1706 00b1 77000000 		.4byte	0x77
 1707 00b5 04       		.uleb128 0x4
 1708 00b6 89050000 		.4byte	.LASF16
 1709 00ba 02       		.byte	0x2
 1710 00bb 4402     		.2byte	0x244
 1711 00bd C1000000 		.4byte	0xc1
 1712 00c1 05       		.uleb128 0x5
 1713 00c2 83000000 		.4byte	0x83
 1714 00c6 04       		.uleb128 0x4
 1715 00c7 42080000 		.4byte	.LASF17
 1716 00cb 02       		.byte	0x2
 1717 00cc 5402     		.2byte	0x254
 1718 00ce D2000000 		.4byte	0xd2
 1719 00d2 06       		.uleb128 0x6
 1720 00d3 04       		.byte	0x4
 1721 00d4 D8000000 		.4byte	0xd8
 1722 00d8 07       		.uleb128 0x7
 1723 00d9 02       		.uleb128 0x2
 1724 00da 04       		.byte	0x4
 1725 00db 07       		.byte	0x7
 1726 00dc B6050000 		.4byte	.LASF18
 1727 00e0 08       		.uleb128 0x8
 1728 00e1 04       		.byte	0x4
 1729 00e2 09       		.uleb128 0x9
 1730 00e3 A3010000 		.4byte	.LASF19
 1731 00e7 03       		.byte	0x3
 1732 00e8 DA       		.byte	0xda
 1733 00e9 77000000 		.4byte	0x77
 1734 00ed 09       		.uleb128 0x9
 1735 00ee 46010000 		.4byte	.LASF20
 1736 00f2 03       		.byte	0x3
 1737 00f3 DE       		.byte	0xde
ARM GAS  C:\Users\Alan\AppData\Local\Temp\ccbGKewn.s 			page 63


 1738 00f4 6B000000 		.4byte	0x6b
 1739 00f8 0A       		.uleb128 0xa
 1740 00f9 01       		.byte	0x1
 1741 00fa 04       		.byte	0x4
 1742 00fb 5D       		.byte	0x5d
 1743 00fc 13010000 		.4byte	0x113
 1744 0100 0B       		.uleb128 0xb
 1745 0101 C3040000 		.4byte	.LASF21
 1746 0105 00       		.sleb128 0
 1747 0106 0B       		.uleb128 0xb
 1748 0107 8B070000 		.4byte	.LASF22
 1749 010b 01       		.sleb128 1
 1750 010c 0B       		.uleb128 0xb
 1751 010d C1000000 		.4byte	.LASF23
 1752 0111 02       		.sleb128 2
 1753 0112 00       		.byte	0
 1754 0113 09       		.uleb128 0x9
 1755 0114 E2020000 		.4byte	.LASF24
 1756 0118 04       		.byte	0x4
 1757 0119 61       		.byte	0x61
 1758 011a F8000000 		.4byte	0xf8
 1759 011e 0C       		.uleb128 0xc
 1760 011f 0C       		.byte	0xc
 1761 0120 04       		.byte	0x4
 1762 0121 7B       		.byte	0x7b
 1763 0122 93010000 		.4byte	0x193
 1764 0126 0D       		.uleb128 0xd
 1765 0127 C7070000 		.4byte	.LASF25
 1766 012b 04       		.byte	0x4
 1767 012c 81       		.byte	0x81
 1768 012d 77000000 		.4byte	0x77
 1769 0131 00       		.byte	0
 1770 0132 0D       		.uleb128 0xd
 1771 0133 84090000 		.4byte	.LASF26
 1772 0137 04       		.byte	0x4
 1773 0138 86       		.byte	0x86
 1774 0139 E2000000 		.4byte	0xe2
 1775 013d 02       		.byte	0x2
 1776 013e 0D       		.uleb128 0xd
 1777 013f 9E0A0000 		.4byte	.LASF27
 1778 0143 04       		.byte	0x4
 1779 0144 8B       		.byte	0x8b
 1780 0145 6B000000 		.4byte	0x6b
 1781 0149 04       		.byte	0x4
 1782 014a 0D       		.uleb128 0xd
 1783 014b F7050000 		.4byte	.LASF28
 1784 014f 04       		.byte	0x4
 1785 0150 90       		.byte	0x90
 1786 0151 6B000000 		.4byte	0x6b
 1787 0155 05       		.byte	0x5
 1788 0156 0D       		.uleb128 0xd
 1789 0157 4F030000 		.4byte	.LASF29
 1790 015b 04       		.byte	0x4
 1791 015c 95       		.byte	0x95
 1792 015d 6B000000 		.4byte	0x6b
 1793 0161 06       		.byte	0x6
 1794 0162 0D       		.uleb128 0xd
ARM GAS  C:\Users\Alan\AppData\Local\Temp\ccbGKewn.s 			page 64


 1795 0163 93080000 		.4byte	.LASF30
 1796 0167 04       		.byte	0x4
 1797 0168 9A       		.byte	0x9a
 1798 0169 6B000000 		.4byte	0x6b
 1799 016d 07       		.byte	0x7
 1800 016e 0D       		.uleb128 0xd
 1801 016f 77040000 		.4byte	.LASF31
 1802 0173 04       		.byte	0x4
 1803 0174 A0       		.byte	0xa0
 1804 0175 ED000000 		.4byte	0xed
 1805 0179 08       		.byte	0x8
 1806 017a 0D       		.uleb128 0xd
 1807 017b 92060000 		.4byte	.LASF32
 1808 017f 04       		.byte	0x4
 1809 0180 A5       		.byte	0xa5
 1810 0181 6B000000 		.4byte	0x6b
 1811 0185 09       		.byte	0x9
 1812 0186 0D       		.uleb128 0xd
 1813 0187 70080000 		.4byte	.LASF33
 1814 018b 04       		.byte	0x4
 1815 018c AC       		.byte	0xac
 1816 018d 6B000000 		.4byte	0x6b
 1817 0191 0A       		.byte	0xa
 1818 0192 00       		.byte	0
 1819 0193 09       		.uleb128 0x9
 1820 0194 77080000 		.4byte	.LASF34
 1821 0198 04       		.byte	0x4
 1822 0199 AD       		.byte	0xad
 1823 019a 1E010000 		.4byte	0x11e
 1824 019e 0C       		.uleb128 0xc
 1825 019f 0C       		.byte	0xc
 1826 01a0 04       		.byte	0x4
 1827 01a1 B2       		.byte	0xb2
 1828 01a2 13020000 		.4byte	0x213
 1829 01a6 0D       		.uleb128 0xd
 1830 01a7 C7070000 		.4byte	.LASF25
 1831 01ab 04       		.byte	0x4
 1832 01ac B8       		.byte	0xb8
 1833 01ad 77000000 		.4byte	0x77
 1834 01b1 00       		.byte	0
 1835 01b2 0D       		.uleb128 0xd
 1836 01b3 84090000 		.4byte	.LASF26
 1837 01b7 04       		.byte	0x4
 1838 01b8 BD       		.byte	0xbd
 1839 01b9 E2000000 		.4byte	0xe2
 1840 01bd 02       		.byte	0x2
 1841 01be 0D       		.uleb128 0xd
 1842 01bf 9E0A0000 		.4byte	.LASF27
 1843 01c3 04       		.byte	0x4
 1844 01c4 C2       		.byte	0xc2
 1845 01c5 6B000000 		.4byte	0x6b
 1846 01c9 04       		.byte	0x4
 1847 01ca 0D       		.uleb128 0xd
 1848 01cb F7050000 		.4byte	.LASF28
 1849 01cf 04       		.byte	0x4
 1850 01d0 C7       		.byte	0xc7
 1851 01d1 6B000000 		.4byte	0x6b
ARM GAS  C:\Users\Alan\AppData\Local\Temp\ccbGKewn.s 			page 65


 1852 01d5 05       		.byte	0x5
 1853 01d6 0D       		.uleb128 0xd
 1854 01d7 4F030000 		.4byte	.LASF29
 1855 01db 04       		.byte	0x4
 1856 01dc CC       		.byte	0xcc
 1857 01dd 6B000000 		.4byte	0x6b
 1858 01e1 06       		.byte	0x6
 1859 01e2 0D       		.uleb128 0xd
 1860 01e3 93080000 		.4byte	.LASF30
 1861 01e7 04       		.byte	0x4
 1862 01e8 D1       		.byte	0xd1
 1863 01e9 6B000000 		.4byte	0x6b
 1864 01ed 07       		.byte	0x7
 1865 01ee 0D       		.uleb128 0xd
 1866 01ef 77040000 		.4byte	.LASF31
 1867 01f3 04       		.byte	0x4
 1868 01f4 D7       		.byte	0xd7
 1869 01f5 ED000000 		.4byte	0xed
 1870 01f9 08       		.byte	0x8
 1871 01fa 0D       		.uleb128 0xd
 1872 01fb 92060000 		.4byte	.LASF32
 1873 01ff 04       		.byte	0x4
 1874 0200 DC       		.byte	0xdc
 1875 0201 6B000000 		.4byte	0x6b
 1876 0205 09       		.byte	0x9
 1877 0206 0D       		.uleb128 0xd
 1878 0207 70080000 		.4byte	.LASF33
 1879 020b 04       		.byte	0x4
 1880 020c E3       		.byte	0xe3
 1881 020d 6B000000 		.4byte	0x6b
 1882 0211 0A       		.byte	0xa
 1883 0212 00       		.byte	0
 1884 0213 09       		.uleb128 0x9
 1885 0214 4A050000 		.4byte	.LASF35
 1886 0218 04       		.byte	0x4
 1887 0219 E4       		.byte	0xe4
 1888 021a 9E010000 		.4byte	0x19e
 1889 021e 0C       		.uleb128 0xc
 1890 021f 24       		.byte	0x24
 1891 0220 04       		.byte	0x4
 1892 0221 EA       		.byte	0xea
 1893 0222 4B020000 		.4byte	0x24b
 1894 0226 0D       		.uleb128 0xd
 1895 0227 29020000 		.4byte	.LASF36
 1896 022b 04       		.byte	0x4
 1897 022c EF       		.byte	0xef
 1898 022d 13020000 		.4byte	0x213
 1899 0231 00       		.byte	0
 1900 0232 0D       		.uleb128 0xd
 1901 0233 31020000 		.4byte	.LASF37
 1902 0237 04       		.byte	0x4
 1903 0238 F4       		.byte	0xf4
 1904 0239 13020000 		.4byte	0x213
 1905 023d 0C       		.byte	0xc
 1906 023e 0D       		.uleb128 0xd
 1907 023f 39020000 		.4byte	.LASF38
 1908 0243 04       		.byte	0x4
ARM GAS  C:\Users\Alan\AppData\Local\Temp\ccbGKewn.s 			page 66


 1909 0244 F9       		.byte	0xf9
 1910 0245 13020000 		.4byte	0x213
 1911 0249 18       		.byte	0x18
 1912 024a 00       		.byte	0
 1913 024b 09       		.uleb128 0x9
 1914 024c D3090000 		.4byte	.LASF39
 1915 0250 04       		.byte	0x4
 1916 0251 FA       		.byte	0xfa
 1917 0252 1E020000 		.4byte	0x21e
 1918 0256 0E       		.uleb128 0xe
 1919 0257 0A       		.byte	0xa
 1920 0258 04       		.byte	0x4
 1921 0259 0001     		.2byte	0x100
 1922 025b AE020000 		.4byte	0x2ae
 1923 025f 0F       		.uleb128 0xf
 1924 0260 72617700 		.ascii	"raw\000"
 1925 0264 04       		.byte	0x4
 1926 0265 0501     		.2byte	0x105
 1927 0267 AE020000 		.4byte	0x2ae
 1928 026b 00       		.byte	0
 1929 026c 10       		.uleb128 0x10
 1930 026d BA030000 		.4byte	.LASF40
 1931 0271 04       		.byte	0x4
 1932 0272 0A01     		.2byte	0x10a
 1933 0274 AE020000 		.4byte	0x2ae
 1934 0278 02       		.byte	0x2
 1935 0279 10       		.uleb128 0x10
 1936 027a 87030000 		.4byte	.LASF41
 1937 027e 04       		.byte	0x4
 1938 027f 1001     		.2byte	0x110
 1939 0281 BE020000 		.4byte	0x2be
 1940 0285 04       		.byte	0x4
 1941 0286 10       		.uleb128 0x10
 1942 0287 AA080000 		.4byte	.LASF42
 1943 028b 04       		.byte	0x4
 1944 028c 1601     		.2byte	0x116
 1945 028e BE020000 		.4byte	0x2be
 1946 0292 05       		.byte	0x5
 1947 0293 10       		.uleb128 0x10
 1948 0294 41010000 		.4byte	.LASF43
 1949 0298 04       		.byte	0x4
 1950 0299 1B01     		.2byte	0x11b
 1951 029b E2000000 		.4byte	0xe2
 1952 029f 06       		.byte	0x6
 1953 02a0 10       		.uleb128 0x10
 1954 02a1 B3080000 		.4byte	.LASF44
 1955 02a5 04       		.byte	0x4
 1956 02a6 2001     		.2byte	0x120
 1957 02a8 CE020000 		.4byte	0x2ce
 1958 02ac 08       		.byte	0x8
 1959 02ad 00       		.byte	0
 1960 02ae 11       		.uleb128 0x11
 1961 02af 77000000 		.4byte	0x77
 1962 02b3 BE020000 		.4byte	0x2be
 1963 02b7 12       		.uleb128 0x12
 1964 02b8 D9000000 		.4byte	0xd9
 1965 02bc 00       		.byte	0
ARM GAS  C:\Users\Alan\AppData\Local\Temp\ccbGKewn.s 			page 67


 1966 02bd 00       		.byte	0
 1967 02be 11       		.uleb128 0x11
 1968 02bf 6B000000 		.4byte	0x6b
 1969 02c3 CE020000 		.4byte	0x2ce
 1970 02c7 12       		.uleb128 0x12
 1971 02c8 D9000000 		.4byte	0xd9
 1972 02cc 00       		.byte	0
 1973 02cd 00       		.byte	0
 1974 02ce 11       		.uleb128 0x11
 1975 02cf ED000000 		.4byte	0xed
 1976 02d3 DE020000 		.4byte	0x2de
 1977 02d7 12       		.uleb128 0x12
 1978 02d8 D9000000 		.4byte	0xd9
 1979 02dc 00       		.byte	0
 1980 02dd 00       		.byte	0
 1981 02de 04       		.uleb128 0x4
 1982 02df FB000000 		.4byte	.LASF45
 1983 02e3 04       		.byte	0x4
 1984 02e4 2101     		.2byte	0x121
 1985 02e6 56020000 		.4byte	0x256
 1986 02ea 0E       		.uleb128 0xe
 1987 02eb 1E       		.byte	0x1e
 1988 02ec 04       		.byte	0x4
 1989 02ed 2701     		.2byte	0x127
 1990 02ef 1B030000 		.4byte	0x31b
 1991 02f3 10       		.uleb128 0x10
 1992 02f4 29020000 		.4byte	.LASF36
 1993 02f8 04       		.byte	0x4
 1994 02f9 2C01     		.2byte	0x12c
 1995 02fb 1B030000 		.4byte	0x31b
 1996 02ff 00       		.byte	0
 1997 0300 10       		.uleb128 0x10
 1998 0301 31020000 		.4byte	.LASF37
 1999 0305 04       		.byte	0x4
 2000 0306 3101     		.2byte	0x131
 2001 0308 1B030000 		.4byte	0x31b
 2002 030c 0A       		.byte	0xa
 2003 030d 10       		.uleb128 0x10
 2004 030e 39020000 		.4byte	.LASF38
 2005 0312 04       		.byte	0x4
 2006 0313 3601     		.2byte	0x136
 2007 0315 1B030000 		.4byte	0x31b
 2008 0319 14       		.byte	0x14
 2009 031a 00       		.byte	0
 2010 031b 11       		.uleb128 0x11
 2011 031c DE020000 		.4byte	0x2de
 2012 0320 2B030000 		.4byte	0x32b
 2013 0324 12       		.uleb128 0x12
 2014 0325 D9000000 		.4byte	0xd9
 2015 0329 00       		.byte	0
 2016 032a 00       		.byte	0
 2017 032b 04       		.uleb128 0x4
 2018 032c 9C060000 		.4byte	.LASF46
 2019 0330 04       		.byte	0x4
 2020 0331 3701     		.2byte	0x137
 2021 0333 EA020000 		.4byte	0x2ea
 2022 0337 0E       		.uleb128 0xe
ARM GAS  C:\Users\Alan\AppData\Local\Temp\ccbGKewn.s 			page 68


 2023 0338 64       		.byte	0x64
 2024 0339 04       		.byte	0x4
 2025 033a 3D01     		.2byte	0x13d
 2026 033c 11040000 		.4byte	0x411
 2027 0340 10       		.uleb128 0x10
 2028 0341 0A050000 		.4byte	.LASF47
 2029 0345 04       		.byte	0x4
 2030 0346 4301     		.2byte	0x143
 2031 0348 77000000 		.4byte	0x77
 2032 034c 00       		.byte	0
 2033 034d 10       		.uleb128 0x10
 2034 034e 41050000 		.4byte	.LASF48
 2035 0352 04       		.byte	0x4
 2036 0353 4801     		.2byte	0x148
 2037 0355 77000000 		.4byte	0x77
 2038 0359 02       		.byte	0x2
 2039 035a 10       		.uleb128 0x10
 2040 035b 6D060000 		.4byte	.LASF49
 2041 035f 04       		.byte	0x4
 2042 0360 4E01     		.2byte	0x14e
 2043 0362 77000000 		.4byte	0x77
 2044 0366 04       		.byte	0x4
 2045 0367 10       		.uleb128 0x10
 2046 0368 33060000 		.4byte	.LASF50
 2047 036c 04       		.byte	0x4
 2048 036d 5301     		.2byte	0x153
 2049 036f 77000000 		.4byte	0x77
 2050 0373 06       		.byte	0x6
 2051 0374 10       		.uleb128 0x10
 2052 0375 2C090000 		.4byte	.LASF51
 2053 0379 04       		.byte	0x4
 2054 037a 5801     		.2byte	0x158
 2055 037c 83000000 		.4byte	0x83
 2056 0380 08       		.byte	0x8
 2057 0381 10       		.uleb128 0x10
 2058 0382 3F040000 		.4byte	.LASF52
 2059 0386 04       		.byte	0x4
 2060 0387 5E01     		.2byte	0x15e
 2061 0389 11040000 		.4byte	0x411
 2062 038d 0C       		.byte	0xc
 2063 038e 10       		.uleb128 0x10
 2064 038f 97030000 		.4byte	.LASF53
 2065 0393 04       		.byte	0x4
 2066 0394 6401     		.2byte	0x164
 2067 0396 11040000 		.4byte	0x411
 2068 039a 10       		.byte	0x10
 2069 039b 10       		.uleb128 0x10
 2070 039c 5A020000 		.4byte	.LASF54
 2071 03a0 04       		.byte	0x4
 2072 03a1 7201     		.2byte	0x172
 2073 03a3 21040000 		.4byte	0x421
 2074 03a7 14       		.byte	0x14
 2075 03a8 10       		.uleb128 0x10
 2076 03a9 2A050000 		.4byte	.LASF55
 2077 03ad 04       		.byte	0x4
 2078 03ae 7701     		.2byte	0x177
 2079 03b0 77000000 		.4byte	0x77
ARM GAS  C:\Users\Alan\AppData\Local\Temp\ccbGKewn.s 			page 69


 2080 03b4 18       		.byte	0x18
 2081 03b5 10       		.uleb128 0x10
 2082 03b6 00000000 		.4byte	.LASF56
 2083 03ba 04       		.byte	0x4
 2084 03bb 7C01     		.2byte	0x17c
 2085 03bd 6B000000 		.4byte	0x6b
 2086 03c1 1A       		.byte	0x1a
 2087 03c2 10       		.uleb128 0x10
 2088 03c3 D2070000 		.4byte	.LASF57
 2089 03c7 04       		.byte	0x4
 2090 03c8 8101     		.2byte	0x181
 2091 03ca 4B020000 		.4byte	0x24b
 2092 03ce 1C       		.byte	0x1c
 2093 03cf 10       		.uleb128 0x10
 2094 03d0 21020000 		.4byte	.LASF58
 2095 03d4 04       		.byte	0x4
 2096 03d5 8601     		.2byte	0x186
 2097 03d7 2B030000 		.4byte	0x32b
 2098 03db 40       		.byte	0x40
 2099 03dc 10       		.uleb128 0x10
 2100 03dd E3030000 		.4byte	.LASF59
 2101 03e1 04       		.byte	0x4
 2102 03e2 8B01     		.2byte	0x18b
 2103 03e4 6B000000 		.4byte	0x6b
 2104 03e8 5E       		.byte	0x5e
 2105 03e9 10       		.uleb128 0x10
 2106 03ea 82010000 		.4byte	.LASF60
 2107 03ee 04       		.byte	0x4
 2108 03ef 9001     		.2byte	0x190
 2109 03f1 6B000000 		.4byte	0x6b
 2110 03f5 5F       		.byte	0x5f
 2111 03f6 10       		.uleb128 0x10
 2112 03f7 EF090000 		.4byte	.LASF61
 2113 03fb 04       		.byte	0x4
 2114 03fc 9501     		.2byte	0x195
 2115 03fe 77000000 		.4byte	0x77
 2116 0402 60       		.byte	0x60
 2117 0403 10       		.uleb128 0x10
 2118 0404 FD020000 		.4byte	.LASF62
 2119 0408 04       		.byte	0x4
 2120 0409 9A01     		.2byte	0x19a
 2121 040b AE020000 		.4byte	0x2ae
 2122 040f 62       		.byte	0x62
 2123 0410 00       		.byte	0
 2124 0411 11       		.uleb128 0x11
 2125 0412 83000000 		.4byte	0x83
 2126 0416 21040000 		.4byte	0x421
 2127 041a 12       		.uleb128 0x12
 2128 041b D9000000 		.4byte	0xd9
 2129 041f 00       		.byte	0
 2130 0420 00       		.byte	0
 2131 0421 11       		.uleb128 0x11
 2132 0422 6B000000 		.4byte	0x6b
 2133 0426 31040000 		.4byte	0x431
 2134 042a 12       		.uleb128 0x12
 2135 042b D9000000 		.4byte	0xd9
 2136 042f 02       		.byte	0x2
ARM GAS  C:\Users\Alan\AppData\Local\Temp\ccbGKewn.s 			page 70


 2137 0430 00       		.byte	0
 2138 0431 04       		.uleb128 0x4
 2139 0432 0A070000 		.4byte	.LASF63
 2140 0436 04       		.byte	0x4
 2141 0437 9B01     		.2byte	0x19b
 2142 0439 37030000 		.4byte	0x337
 2143 043d 0E       		.uleb128 0xe
 2144 043e 1C       		.byte	0x1c
 2145 043f 04       		.byte	0x4
 2146 0440 A101     		.2byte	0x1a1
 2147 0442 BC040000 		.4byte	0x4bc
 2148 0446 10       		.uleb128 0x10
 2149 0447 79010000 		.4byte	.LASF64
 2150 044b 04       		.byte	0x4
 2151 044c A601     		.2byte	0x1a6
 2152 044e BC040000 		.4byte	0x4bc
 2153 0452 00       		.byte	0
 2154 0453 10       		.uleb128 0x10
 2155 0454 CD090000 		.4byte	.LASF65
 2156 0458 04       		.byte	0x4
 2157 0459 AB01     		.2byte	0x1ab
 2158 045b BC040000 		.4byte	0x4bc
 2159 045f 04       		.byte	0x4
 2160 0460 10       		.uleb128 0x10
 2161 0461 6A080000 		.4byte	.LASF66
 2162 0465 04       		.byte	0x4
 2163 0466 B001     		.2byte	0x1b0
 2164 0468 BC040000 		.4byte	0x4bc
 2165 046c 08       		.byte	0x8
 2166 046d 10       		.uleb128 0x10
 2167 046e 91020000 		.4byte	.LASF67
 2168 0472 04       		.byte	0x4
 2169 0473 B501     		.2byte	0x1b5
 2170 0475 BC040000 		.4byte	0x4bc
 2171 0479 0C       		.byte	0xc
 2172 047a 10       		.uleb128 0x10
 2173 047b 020A0000 		.4byte	.LASF68
 2174 047f 04       		.byte	0x4
 2175 0480 BA01     		.2byte	0x1ba
 2176 0482 83000000 		.4byte	0x83
 2177 0486 10       		.byte	0x10
 2178 0487 10       		.uleb128 0x10
 2179 0488 6F030000 		.4byte	.LASF69
 2180 048c 04       		.byte	0x4
 2181 048d BF01     		.2byte	0x1bf
 2182 048f 83000000 		.4byte	0x83
 2183 0493 14       		.byte	0x14
 2184 0494 10       		.uleb128 0x10
 2185 0495 A7070000 		.4byte	.LASF70
 2186 0499 04       		.byte	0x4
 2187 049a C401     		.2byte	0x1c4
 2188 049c 6B000000 		.4byte	0x6b
 2189 04a0 18       		.byte	0x18
 2190 04a1 10       		.uleb128 0x10
 2191 04a2 40030000 		.4byte	.LASF71
 2192 04a6 04       		.byte	0x4
 2193 04a7 C901     		.2byte	0x1c9
ARM GAS  C:\Users\Alan\AppData\Local\Temp\ccbGKewn.s 			page 71


 2194 04a9 6B000000 		.4byte	0x6b
 2195 04ad 19       		.byte	0x19
 2196 04ae 10       		.uleb128 0x10
 2197 04af 13030000 		.4byte	.LASF72
 2198 04b3 04       		.byte	0x4
 2199 04b4 CE01     		.2byte	0x1ce
 2200 04b6 6B000000 		.4byte	0x6b
 2201 04ba 1A       		.byte	0x1a
 2202 04bb 00       		.byte	0
 2203 04bc 06       		.uleb128 0x6
 2204 04bd 04       		.byte	0x4
 2205 04be B5000000 		.4byte	0xb5
 2206 04c2 04       		.uleb128 0x4
 2207 04c3 F3080000 		.4byte	.LASF73
 2208 04c7 04       		.byte	0x4
 2209 04c8 CF01     		.2byte	0x1cf
 2210 04ca 3D040000 		.4byte	0x43d
 2211 04ce 0E       		.uleb128 0xe
 2212 04cf 1C       		.byte	0x1c
 2213 04d0 04       		.byte	0x4
 2214 04d1 FA01     		.2byte	0x1fa
 2215 04d3 5A050000 		.4byte	0x55a
 2216 04d7 10       		.uleb128 0x10
 2217 04d8 2A010000 		.4byte	.LASF74
 2218 04dc 04       		.byte	0x4
 2219 04dd 0302     		.2byte	0x203
 2220 04df 5A050000 		.4byte	0x55a
 2221 04e3 00       		.byte	0
 2222 04e4 10       		.uleb128 0x10
 2223 04e5 35050000 		.4byte	.LASF75
 2224 04e9 04       		.byte	0x4
 2225 04ea 0902     		.2byte	0x209
 2226 04ec E0000000 		.4byte	0xe0
 2227 04f0 04       		.byte	0x4
 2228 04f1 10       		.uleb128 0x10
 2229 04f2 86020000 		.4byte	.LASF76
 2230 04f6 04       		.byte	0x4
 2231 04f7 0F02     		.2byte	0x20f
 2232 04f9 61050000 		.4byte	0x561
 2233 04fd 08       		.byte	0x8
 2234 04fe 10       		.uleb128 0x10
 2235 04ff 7B070000 		.4byte	.LASF77
 2236 0503 04       		.byte	0x4
 2237 0504 1402     		.2byte	0x214
 2238 0506 E0000000 		.4byte	0xe0
 2239 050a 0C       		.byte	0xc
 2240 050b 10       		.uleb128 0x10
 2241 050c CD080000 		.4byte	.LASF78
 2242 0510 04       		.byte	0x4
 2243 0511 1B02     		.2byte	0x21b
 2244 0513 67050000 		.4byte	0x567
 2245 0517 10       		.byte	0x10
 2246 0518 10       		.uleb128 0x10
 2247 0519 EA050000 		.4byte	.LASF79
 2248 051d 04       		.byte	0x4
 2249 051e 2002     		.2byte	0x220
 2250 0520 77000000 		.4byte	0x77
ARM GAS  C:\Users\Alan\AppData\Local\Temp\ccbGKewn.s 			page 72


 2251 0524 14       		.byte	0x14
 2252 0525 10       		.uleb128 0x10
 2253 0526 C1080000 		.4byte	.LASF80
 2254 052a 04       		.byte	0x4
 2255 052b 2702     		.2byte	0x227
 2256 052d 77000000 		.4byte	0x77
 2257 0531 16       		.byte	0x16
 2258 0532 10       		.uleb128 0x10
 2259 0533 00060000 		.4byte	.LASF81
 2260 0537 04       		.byte	0x4
 2261 0538 3202     		.2byte	0x232
 2262 053a 6B000000 		.4byte	0x6b
 2263 053e 18       		.byte	0x18
 2264 053f 10       		.uleb128 0x10
 2265 0540 AE050000 		.4byte	.LASF82
 2266 0544 04       		.byte	0x4
 2267 0545 3A02     		.2byte	0x23a
 2268 0547 6B000000 		.4byte	0x6b
 2269 054b 19       		.byte	0x19
 2270 054c 10       		.uleb128 0x10
 2271 054d 8F030000 		.4byte	.LASF83
 2272 0551 04       		.byte	0x4
 2273 0552 4102     		.2byte	0x241
 2274 0554 6B000000 		.4byte	0x6b
 2275 0558 1A       		.byte	0x1a
 2276 0559 00       		.byte	0
 2277 055a 06       		.uleb128 0x6
 2278 055b 04       		.byte	0x4
 2279 055c 60050000 		.4byte	0x560
 2280 0560 13       		.uleb128 0x13
 2281 0561 06       		.uleb128 0x6
 2282 0562 04       		.byte	0x4
 2283 0563 DE020000 		.4byte	0x2de
 2284 0567 06       		.uleb128 0x6
 2285 0568 04       		.byte	0x4
 2286 0569 6B000000 		.4byte	0x6b
 2287 056d 04       		.uleb128 0x4
 2288 056e 87000000 		.4byte	.LASF84
 2289 0572 04       		.byte	0x4
 2290 0573 4202     		.2byte	0x242
 2291 0575 CE040000 		.4byte	0x4ce
 2292 0579 0E       		.uleb128 0xe
 2293 057a 54       		.byte	0x54
 2294 057b 04       		.byte	0x4
 2295 057c 4802     		.2byte	0x248
 2296 057e 90050000 		.4byte	0x590
 2297 0582 10       		.uleb128 0x10
 2298 0583 33090000 		.4byte	.LASF85
 2299 0587 04       		.byte	0x4
 2300 0588 4D02     		.2byte	0x24d
 2301 058a 90050000 		.4byte	0x590
 2302 058e 00       		.byte	0
 2303 058f 00       		.byte	0
 2304 0590 11       		.uleb128 0x11
 2305 0591 6D050000 		.4byte	0x56d
 2306 0595 A0050000 		.4byte	0x5a0
 2307 0599 12       		.uleb128 0x12
ARM GAS  C:\Users\Alan\AppData\Local\Temp\ccbGKewn.s 			page 73


 2308 059a D9000000 		.4byte	0xd9
 2309 059e 02       		.byte	0x2
 2310 059f 00       		.byte	0
 2311 05a0 04       		.uleb128 0x4
 2312 05a1 DD080000 		.4byte	.LASF86
 2313 05a5 04       		.byte	0x4
 2314 05a6 4E02     		.2byte	0x24e
 2315 05a8 79050000 		.4byte	0x579
 2316 05ac 14       		.uleb128 0x14
 2317 05ad D0010000 		.4byte	.LASF156
 2318 05b1 01       		.byte	0x1
 2319 05b2 6805     		.2byte	0x568
 2320 05b4 83000000 		.4byte	0x83
 2321 05b8 03       		.byte	0x3
 2322 05b9 D6050000 		.4byte	0x5d6
 2323 05bd 15       		.uleb128 0x15
 2324 05be 5C000000 		.4byte	.LASF157
 2325 05c2 01       		.byte	0x1
 2326 05c3 6805     		.2byte	0x568
 2327 05c5 83000000 		.4byte	0x83
 2328 05c9 16       		.uleb128 0x16
 2329 05ca 11000000 		.4byte	.LASF90
 2330 05ce 01       		.byte	0x1
 2331 05cf 6A05     		.2byte	0x56a
 2332 05d1 83000000 		.4byte	0x83
 2333 05d5 00       		.byte	0
 2334 05d6 17       		.uleb128 0x17
 2335 05d7 F9030000 		.4byte	.LASF94
 2336 05db 01       		.byte	0x1
 2337 05dc 8002     		.2byte	0x280
 2338 05de 00000000 		.4byte	.LFB7
 2339 05e2 40000000 		.4byte	.LFE7-.LFB7
 2340 05e6 01       		.uleb128 0x1
 2341 05e7 9C       		.byte	0x9c
 2342 05e8 1D060000 		.4byte	0x61d
 2343 05ec 18       		.uleb128 0x18
 2344 05ed 0D030000 		.4byte	.LASF87
 2345 05f1 01       		.byte	0x1
 2346 05f2 8202     		.2byte	0x282
 2347 05f4 1D060000 		.4byte	0x61d
 2348 05f8 00000000 		.4byte	.LLST0
 2349 05fc 18       		.uleb128 0x18
 2350 05fd 37010000 		.4byte	.LASF88
 2351 0601 01       		.byte	0x1
 2352 0602 8302     		.2byte	0x283
 2353 0604 83000000 		.4byte	0x83
 2354 0608 13000000 		.4byte	.LLST1
 2355 060c 18       		.uleb128 0x18
 2356 060d 7E030000 		.4byte	.LASF89
 2357 0611 01       		.byte	0x1
 2358 0612 8402     		.2byte	0x284
 2359 0614 83000000 		.4byte	0x83
 2360 0618 32000000 		.4byte	.LLST2
 2361 061c 00       		.byte	0
 2362 061d 06       		.uleb128 0x6
 2363 061e 04       		.byte	0x4
 2364 061f 23060000 		.4byte	0x623
ARM GAS  C:\Users\Alan\AppData\Local\Temp\ccbGKewn.s 			page 74


 2365 0623 19       		.uleb128 0x19
 2366 0624 C2040000 		.4byte	0x4c2
 2367 0628 1A       		.uleb128 0x1a
 2368 0629 6A000000 		.4byte	.LASF158
 2369 062d 01       		.byte	0x1
 2370 062e BC03     		.2byte	0x3bc
 2371 0630 00000000 		.4byte	.LFB9
 2372 0634 38000000 		.4byte	.LFE9-.LFB9
 2373 0638 01       		.uleb128 0x1
 2374 0639 9C       		.byte	0x9c
 2375 063a 1B       		.uleb128 0x1b
 2376 063b 67090000 		.4byte	.LASF97
 2377 063f 01       		.byte	0x1
 2378 0640 9205     		.2byte	0x592
 2379 0642 03       		.byte	0x3
 2380 0643 6C060000 		.4byte	0x66c
 2381 0647 16       		.uleb128 0x16
 2382 0648 AA090000 		.4byte	.LASF91
 2383 064c 01       		.byte	0x1
 2384 064d 9405     		.2byte	0x594
 2385 064f 83000000 		.4byte	0x83
 2386 0653 16       		.uleb128 0x16
 2387 0654 13050000 		.4byte	.LASF92
 2388 0658 01       		.byte	0x1
 2389 0659 9505     		.2byte	0x595
 2390 065b 83000000 		.4byte	0x83
 2391 065f 16       		.uleb128 0x16
 2392 0660 2D080000 		.4byte	.LASF93
 2393 0664 01       		.byte	0x1
 2394 0665 9605     		.2byte	0x596
 2395 0667 83000000 		.4byte	0x83
 2396 066b 00       		.byte	0
 2397 066c 1C       		.uleb128 0x1c
 2398 066d DB070000 		.4byte	.LASF95
 2399 0671 01       		.byte	0x1
 2400 0672 6F04     		.2byte	0x46f
 2401 0674 00000000 		.4byte	.LFB11
 2402 0678 38010000 		.4byte	.LFE11-.LFB11
 2403 067c 01       		.uleb128 0x1
 2404 067d 9C       		.byte	0x9c
 2405 067e C9060000 		.4byte	0x6c9
 2406 0682 18       		.uleb128 0x18
 2407 0683 4A040000 		.4byte	.LASF96
 2408 0687 01       		.byte	0x1
 2409 0688 7104     		.2byte	0x471
 2410 068a 83000000 		.4byte	0x83
 2411 068e 5B000000 		.4byte	.LLST3
 2412 0692 1D       		.uleb128 0x1d
 2413 0693 3A060000 		.4byte	0x63a
 2414 0697 1C000000 		.4byte	.LBB6
 2415 069b B4000000 		.4byte	.LBE6-.LBB6
 2416 069f 01       		.byte	0x1
 2417 06a0 7904     		.2byte	0x479
 2418 06a2 1E       		.uleb128 0x1e
 2419 06a3 1C000000 		.4byte	.LBB7
 2420 06a7 B4000000 		.4byte	.LBE7-.LBB7
 2421 06ab 1F       		.uleb128 0x1f
ARM GAS  C:\Users\Alan\AppData\Local\Temp\ccbGKewn.s 			page 75


 2422 06ac 47060000 		.4byte	0x647
 2423 06b0 8D000000 		.4byte	.LLST4
 2424 06b4 1F       		.uleb128 0x1f
 2425 06b5 53060000 		.4byte	0x653
 2426 06b9 A0000000 		.4byte	.LLST5
 2427 06bd 1F       		.uleb128 0x1f
 2428 06be 5F060000 		.4byte	0x65f
 2429 06c2 C1000000 		.4byte	.LLST6
 2430 06c6 00       		.byte	0
 2431 06c7 00       		.byte	0
 2432 06c8 00       		.byte	0
 2433 06c9 20       		.uleb128 0x20
 2434 06ca 97020000 		.4byte	.LASF100
 2435 06ce 01       		.byte	0x1
 2436 06cf 2E05     		.2byte	0x52e
 2437 06d1 00000000 		.4byte	.LFB16
 2438 06d5 7C000000 		.4byte	.LFE16-.LFB16
 2439 06d9 01       		.uleb128 0x1
 2440 06da 9C       		.byte	0x9c
 2441 06db 02070000 		.4byte	0x702
 2442 06df 21       		.uleb128 0x21
 2443 06e0 08000000 		.4byte	.LVL24
 2444 06e4 C90C0000 		.4byte	0xcc9
 2445 06e8 F2060000 		.4byte	0x6f2
 2446 06ec 22       		.uleb128 0x22
 2447 06ed 01       		.uleb128 0x1
 2448 06ee 50       		.byte	0x50
 2449 06ef 01       		.uleb128 0x1
 2450 06f0 3A       		.byte	0x3a
 2451 06f1 00       		.byte	0
 2452 06f2 23       		.uleb128 0x23
 2453 06f3 4E000000 		.4byte	.LVL26
 2454 06f7 DA0C0000 		.4byte	0xcda
 2455 06fb 22       		.uleb128 0x22
 2456 06fc 01       		.uleb128 0x1
 2457 06fd 50       		.byte	0x50
 2458 06fe 01       		.uleb128 0x1
 2459 06ff 3A       		.byte	0x3a
 2460 0700 00       		.byte	0
 2461 0701 00       		.byte	0
 2462 0702 1B       		.uleb128 0x1b
 2463 0703 BB010000 		.4byte	.LASF98
 2464 0707 01       		.byte	0x1
 2465 0708 1006     		.2byte	0x610
 2466 070a 03       		.byte	0x3
 2467 070b 28070000 		.4byte	0x728
 2468 070f 16       		.uleb128 0x16
 2469 0710 24060000 		.4byte	.LASF99
 2470 0714 01       		.byte	0x1
 2471 0715 1206     		.2byte	0x612
 2472 0717 6B000000 		.4byte	0x6b
 2473 071b 16       		.uleb128 0x16
 2474 071c 4A040000 		.4byte	.LASF96
 2475 0720 01       		.byte	0x1
 2476 0721 1306     		.2byte	0x613
 2477 0723 83000000 		.4byte	0x83
 2478 0727 00       		.byte	0
ARM GAS  C:\Users\Alan\AppData\Local\Temp\ccbGKewn.s 			page 76


 2479 0728 24       		.uleb128 0x24
 2480 0729 B6090000 		.4byte	.LASF101
 2481 072d 01       		.byte	0x1
 2482 072e 97       		.byte	0x97
 2483 072f 00000000 		.4byte	.LFB1
 2484 0733 90010000 		.4byte	.LFE1-.LFB1
 2485 0737 01       		.uleb128 0x1
 2486 0738 9C       		.byte	0x9c
 2487 0739 DB070000 		.4byte	0x7db
 2488 073d 25       		.uleb128 0x25
 2489 073e 02070000 		.4byte	0x702
 2490 0742 02000000 		.4byte	.LBB10
 2491 0746 F6000000 		.4byte	.LBE10-.LBB10
 2492 074a 01       		.byte	0x1
 2493 074b 9B       		.byte	0x9b
 2494 074c BE070000 		.4byte	0x7be
 2495 0750 1E       		.uleb128 0x1e
 2496 0751 02000000 		.4byte	.LBB11
 2497 0755 F6000000 		.4byte	.LBE11-.LBB11
 2498 0759 1F       		.uleb128 0x1f
 2499 075a 0F070000 		.4byte	0x70f
 2500 075e D4000000 		.4byte	.LLST7
 2501 0762 1F       		.uleb128 0x1f
 2502 0763 1B070000 		.4byte	0x71b
 2503 0767 08010000 		.4byte	.LLST8
 2504 076b 26       		.uleb128 0x26
 2505 076c A4000000 		.4byte	.LVL35
 2506 0770 EB0C0000 		.4byte	0xceb
 2507 0774 26       		.uleb128 0x26
 2508 0775 B2000000 		.4byte	.LVL39
 2509 0779 F60C0000 		.4byte	0xcf6
 2510 077d 26       		.uleb128 0x26
 2511 077e B6000000 		.4byte	.LVL40
 2512 0782 EB0C0000 		.4byte	0xceb
 2513 0786 26       		.uleb128 0x26
 2514 0787 C2000000 		.4byte	.LVL44
 2515 078b F60C0000 		.4byte	0xcf6
 2516 078f 26       		.uleb128 0x26
 2517 0790 C6000000 		.4byte	.LVL45
 2518 0794 EB0C0000 		.4byte	0xceb
 2519 0798 26       		.uleb128 0x26
 2520 0799 DA000000 		.4byte	.LVL49
 2521 079d F60C0000 		.4byte	0xcf6
 2522 07a1 26       		.uleb128 0x26
 2523 07a2 DE000000 		.4byte	.LVL50
 2524 07a6 EB0C0000 		.4byte	0xceb
 2525 07aa 26       		.uleb128 0x26
 2526 07ab F0000000 		.4byte	.LVL54
 2527 07af F60C0000 		.4byte	0xcf6
 2528 07b3 26       		.uleb128 0x26
 2529 07b4 F8000000 		.4byte	.LVL55
 2530 07b8 070D0000 		.4byte	0xd07
 2531 07bc 00       		.byte	0
 2532 07bd 00       		.byte	0
 2533 07be 26       		.uleb128 0x26
 2534 07bf FC000000 		.4byte	.LVL56
 2535 07c3 D6050000 		.4byte	0x5d6
ARM GAS  C:\Users\Alan\AppData\Local\Temp\ccbGKewn.s 			page 77


 2536 07c7 23       		.uleb128 0x23
 2537 07c8 02010000 		.4byte	.LVL57
 2538 07cc 180D0000 		.4byte	0xd18
 2539 07d0 22       		.uleb128 0x22
 2540 07d1 01       		.uleb128 0x1
 2541 07d2 50       		.byte	0x50
 2542 07d3 05       		.uleb128 0x5
 2543 07d4 03       		.byte	0x3
 2544 07d5 00000000 		.4byte	CapSense_SsCSXScanISR
 2545 07d9 00       		.byte	0
 2546 07da 00       		.byte	0
 2547 07db 27       		.uleb128 0x27
 2548 07dc 19080000 		.4byte	.LASF102
 2549 07e0 01       		.byte	0x1
 2550 07e1 6202     		.2byte	0x262
 2551 07e3 00000000 		.4byte	.LFB6
 2552 07e7 18000000 		.4byte	.LFE6-.LFB6
 2553 07eb 01       		.uleb128 0x1
 2554 07ec 9C       		.byte	0x9c
 2555 07ed FB070000 		.4byte	0x7fb
 2556 07f1 26       		.uleb128 0x26
 2557 07f2 10000000 		.4byte	.LVL58
 2558 07f6 6C060000 		.4byte	0x66c
 2559 07fa 00       		.byte	0
 2560 07fb 20       		.uleb128 0x20
 2561 07fc 40000000 		.4byte	.LASF103
 2562 0800 01       		.byte	0x1
 2563 0801 F803     		.2byte	0x3f8
 2564 0803 00000000 		.4byte	.LFB10
 2565 0807 AC000000 		.4byte	.LFE10-.LFB10
 2566 080b 01       		.uleb128 0x1
 2567 080c 9C       		.byte	0x9c
 2568 080d C0080000 		.4byte	0x8c0
 2569 0811 28       		.uleb128 0x28
 2570 0812 7A020000 		.4byte	.LASF104
 2571 0816 01       		.byte	0x1
 2572 0817 F803     		.2byte	0x3f8
 2573 0819 83000000 		.4byte	0x83
 2574 081d 99010000 		.4byte	.LLST9
 2575 0821 28       		.uleb128 0x28
 2576 0822 23050000 		.4byte	.LASF105
 2577 0826 01       		.byte	0x1
 2578 0827 F803     		.2byte	0x3f8
 2579 0829 77000000 		.4byte	0x77
 2580 082d B8010000 		.4byte	.LLST10
 2581 0831 18       		.uleb128 0x18
 2582 0832 22090000 		.4byte	.LASF106
 2583 0836 01       		.byte	0x1
 2584 0837 FB03     		.2byte	0x3fb
 2585 0839 61050000 		.4byte	0x561
 2586 083d D9010000 		.4byte	.LLST11
 2587 0841 18       		.uleb128 0x18
 2588 0842 8C040000 		.4byte	.LASF107
 2589 0846 01       		.byte	0x1
 2590 0847 FC03     		.2byte	0x3fc
 2591 0849 C0080000 		.4byte	0x8c0
 2592 084d 19020000 		.4byte	.LLST12
ARM GAS  C:\Users\Alan\AppData\Local\Temp\ccbGKewn.s 			page 78


 2593 0851 18       		.uleb128 0x18
 2594 0852 9E080000 		.4byte	.LASF108
 2595 0856 01       		.byte	0x1
 2596 0857 0204     		.2byte	0x402
 2597 0859 6B000000 		.4byte	0x6b
 2598 085d 38020000 		.4byte	.LLST13
 2599 0861 18       		.uleb128 0x18
 2600 0862 B3020000 		.4byte	.LASF109
 2601 0866 01       		.byte	0x1
 2602 0867 0304     		.2byte	0x403
 2603 0869 6B000000 		.4byte	0x6b
 2604 086d 6E020000 		.4byte	.LLST14
 2605 0871 18       		.uleb128 0x18
 2606 0872 3C070000 		.4byte	.LASF110
 2607 0876 01       		.byte	0x1
 2608 0877 0404     		.2byte	0x404
 2609 0879 83000000 		.4byte	0x83
 2610 087d A4020000 		.4byte	.LLST15
 2611 0881 18       		.uleb128 0x18
 2612 0882 19030000 		.4byte	.LASF111
 2613 0886 01       		.byte	0x1
 2614 0887 0404     		.2byte	0x404
 2615 0889 83000000 		.4byte	0x83
 2616 088d D9020000 		.4byte	.LLST16
 2617 0891 18       		.uleb128 0x18
 2618 0892 74030000 		.4byte	.LASF112
 2619 0896 01       		.byte	0x1
 2620 0897 0504     		.2byte	0x405
 2621 0899 83000000 		.4byte	0x83
 2622 089d EC020000 		.4byte	.LLST17
 2623 08a1 21       		.uleb128 0x21
 2624 08a2 66000000 		.4byte	.LVL79
 2625 08a6 290D0000 		.4byte	0xd29
 2626 08aa B6080000 		.4byte	0x8b6
 2627 08ae 22       		.uleb128 0x22
 2628 08af 01       		.uleb128 0x1
 2629 08b0 50       		.byte	0x50
 2630 08b1 03       		.uleb128 0x3
 2631 08b2 91       		.byte	0x91
 2632 08b3 64       		.sleb128 -28
 2633 08b4 06       		.byte	0x6
 2634 08b5 00       		.byte	0
 2635 08b6 26       		.uleb128 0x26
 2636 08b7 6A000000 		.4byte	.LVL80
 2637 08bb 3E0D0000 		.4byte	0xd3e
 2638 08bf 00       		.byte	0
 2639 08c0 06       		.uleb128 0x6
 2640 08c1 04       		.byte	0x4
 2641 08c2 93010000 		.4byte	0x193
 2642 08c6 27       		.uleb128 0x27
 2643 08c7 0C090000 		.4byte	.LASF113
 2644 08cb 01       		.byte	0x1
 2645 08cc AC04     		.2byte	0x4ac
 2646 08ce 00000000 		.4byte	.LFB12
 2647 08d2 20000000 		.4byte	.LFE12-.LFB12
 2648 08d6 01       		.uleb128 0x1
 2649 08d7 9C       		.byte	0x9c
ARM GAS  C:\Users\Alan\AppData\Local\Temp\ccbGKewn.s 			page 79


 2650 08d8 FD080000 		.4byte	0x8fd
 2651 08dc 28       		.uleb128 0x28
 2652 08dd 8F050000 		.4byte	.LASF114
 2653 08e1 01       		.byte	0x1
 2654 08e2 AC04     		.2byte	0x4ac
 2655 08e4 1D060000 		.4byte	0x61d
 2656 08e8 48030000 		.4byte	.LLST18
 2657 08ec 18       		.uleb128 0x18
 2658 08ed 7E030000 		.4byte	.LASF89
 2659 08f1 01       		.byte	0x1
 2660 08f2 AE04     		.2byte	0x4ae
 2661 08f4 83000000 		.4byte	0x83
 2662 08f8 69030000 		.4byte	.LLST19
 2663 08fc 00       		.byte	0
 2664 08fd 27       		.uleb128 0x27
 2665 08fe 7C060000 		.4byte	.LASF115
 2666 0902 01       		.byte	0x1
 2667 0903 CA04     		.2byte	0x4ca
 2668 0905 00000000 		.4byte	.LFB13
 2669 0909 20000000 		.4byte	.LFE13-.LFB13
 2670 090d 01       		.uleb128 0x1
 2671 090e 9C       		.byte	0x9c
 2672 090f 34090000 		.4byte	0x934
 2673 0913 28       		.uleb128 0x28
 2674 0914 F3030000 		.4byte	.LASF116
 2675 0918 01       		.byte	0x1
 2676 0919 CA04     		.2byte	0x4ca
 2677 091b 1D060000 		.4byte	0x61d
 2678 091f 9D030000 		.4byte	.LLST20
 2679 0923 18       		.uleb128 0x18
 2680 0924 7E030000 		.4byte	.LASF89
 2681 0928 01       		.byte	0x1
 2682 0929 CC04     		.2byte	0x4cc
 2683 092b 83000000 		.4byte	0x83
 2684 092f BE030000 		.4byte	.LLST21
 2685 0933 00       		.byte	0
 2686 0934 27       		.uleb128 0x27
 2687 0935 78050000 		.4byte	.LASF117
 2688 0939 01       		.byte	0x1
 2689 093a F201     		.2byte	0x1f2
 2690 093c 00000000 		.4byte	.LFB5
 2691 0940 5C000000 		.4byte	.LFE5-.LFB5
 2692 0944 01       		.uleb128 0x1
 2693 0945 9C       		.byte	0x9c
 2694 0946 66090000 		.4byte	0x966
 2695 094a 26       		.uleb128 0x26
 2696 094b 28000000 		.4byte	.LVL102
 2697 094f C6080000 		.4byte	0x8c6
 2698 0953 26       		.uleb128 0x26
 2699 0954 2E000000 		.4byte	.LVL103
 2700 0958 FD080000 		.4byte	0x8fd
 2701 095c 26       		.uleb128 0x26
 2702 095d 42000000 		.4byte	.LVL104
 2703 0961 6C060000 		.4byte	0x66c
 2704 0965 00       		.byte	0
 2705 0966 27       		.uleb128 0x27
 2706 0967 41020000 		.4byte	.LASF118
ARM GAS  C:\Users\Alan\AppData\Local\Temp\ccbGKewn.s 			page 80


 2707 096b 01       		.byte	0x1
 2708 096c E904     		.2byte	0x4e9
 2709 096e 00000000 		.4byte	.LFB14
 2710 0972 0C000000 		.4byte	.LFE14-.LFB14
 2711 0976 01       		.uleb128 0x1
 2712 0977 9C       		.byte	0x9c
 2713 0978 99090000 		.4byte	0x999
 2714 097c 29       		.uleb128 0x29
 2715 097d 8F050000 		.4byte	.LASF114
 2716 0981 01       		.byte	0x1
 2717 0982 E904     		.2byte	0x4e9
 2718 0984 1D060000 		.4byte	0x61d
 2719 0988 01       		.uleb128 0x1
 2720 0989 50       		.byte	0x50
 2721 098a 2A       		.uleb128 0x2a
 2722 098b 7E030000 		.4byte	.LASF89
 2723 098f 01       		.byte	0x1
 2724 0990 EB04     		.2byte	0x4eb
 2725 0992 83000000 		.4byte	0x83
 2726 0996 01       		.uleb128 0x1
 2727 0997 53       		.byte	0x53
 2728 0998 00       		.byte	0
 2729 0999 27       		.uleb128 0x27
 2730 099a 3D090000 		.4byte	.LASF119
 2731 099e 01       		.byte	0x1
 2732 099f 0405     		.2byte	0x504
 2733 09a1 00000000 		.4byte	.LFB15
 2734 09a5 2E000000 		.4byte	.LFE15-.LFB15
 2735 09a9 01       		.uleb128 0x1
 2736 09aa 9C       		.byte	0x9c
 2737 09ab CE090000 		.4byte	0x9ce
 2738 09af 29       		.uleb128 0x29
 2739 09b0 F3030000 		.4byte	.LASF116
 2740 09b4 01       		.byte	0x1
 2741 09b5 0405     		.2byte	0x504
 2742 09b7 1D060000 		.4byte	0x61d
 2743 09bb 01       		.uleb128 0x1
 2744 09bc 50       		.byte	0x50
 2745 09bd 18       		.uleb128 0x18
 2746 09be 7E030000 		.4byte	.LASF89
 2747 09c2 01       		.byte	0x1
 2748 09c3 0605     		.2byte	0x506
 2749 09c5 83000000 		.4byte	0x83
 2750 09c9 E7030000 		.4byte	.LLST22
 2751 09cd 00       		.byte	0
 2752 09ce 17       		.uleb128 0x17
 2753 09cf EB010000 		.4byte	.LASF120
 2754 09d3 01       		.byte	0x1
 2755 09d4 A902     		.2byte	0x2a9
 2756 09d6 00000000 		.4byte	.LFB8
 2757 09da CC000000 		.4byte	.LFE8-.LFB8
 2758 09de 01       		.uleb128 0x1
 2759 09df 9C       		.byte	0x9c
 2760 09e0 360A0000 		.4byte	0xa36
 2761 09e4 26       		.uleb128 0x26
 2762 09e5 1C000000 		.4byte	.LVL117
 2763 09e9 66090000 		.4byte	0x966
ARM GAS  C:\Users\Alan\AppData\Local\Temp\ccbGKewn.s 			page 81


 2764 09ed 26       		.uleb128 0x26
 2765 09ee 34000000 		.4byte	.LVL118
 2766 09f2 C6080000 		.4byte	0x8c6
 2767 09f6 26       		.uleb128 0x26
 2768 09f7 40000000 		.4byte	.LVL119
 2769 09fb 6C060000 		.4byte	0x66c
 2770 09ff 26       		.uleb128 0x26
 2771 0a00 58000000 		.4byte	.LVL120
 2772 0a04 99090000 		.4byte	0x999
 2773 0a08 26       		.uleb128 0x26
 2774 0a09 62000000 		.4byte	.LVL121
 2775 0a0d FD080000 		.4byte	0x8fd
 2776 0a11 26       		.uleb128 0x26
 2777 0a12 7E000000 		.4byte	.LVL122
 2778 0a16 C6080000 		.4byte	0x8c6
 2779 0a1a 26       		.uleb128 0x26
 2780 0a1b 8A000000 		.4byte	.LVL123
 2781 0a1f 6C060000 		.4byte	0x66c
 2782 0a23 26       		.uleb128 0x26
 2783 0a24 94000000 		.4byte	.LVL124
 2784 0a28 99090000 		.4byte	0x999
 2785 0a2c 26       		.uleb128 0x26
 2786 0a2d A0000000 		.4byte	.LVL125
 2787 0a31 490D0000 		.4byte	0xd49
 2788 0a35 00       		.byte	0
 2789 0a36 24       		.uleb128 0x24
 2790 0a37 09060000 		.4byte	.LASF121
 2791 0a3b 01       		.byte	0x1
 2792 0a3c F2       		.byte	0xf2
 2793 0a3d 00000000 		.4byte	.LFB2
 2794 0a41 24000000 		.4byte	.LFE2-.LFB2
 2795 0a45 01       		.uleb128 0x1
 2796 0a46 9C       		.byte	0x9c
 2797 0a47 5E0A0000 		.4byte	0xa5e
 2798 0a4b 26       		.uleb128 0x26
 2799 0a4c 12000000 		.4byte	.LVL126
 2800 0a50 66090000 		.4byte	0x966
 2801 0a54 26       		.uleb128 0x26
 2802 0a55 18000000 		.4byte	.LVL127
 2803 0a59 99090000 		.4byte	0x999
 2804 0a5d 00       		.byte	0
 2805 0a5e 1B       		.uleb128 0x1b
 2806 0a5f 65070000 		.4byte	.LASF122
 2807 0a63 01       		.byte	0x1
 2808 0a64 DF05     		.2byte	0x5df
 2809 0a66 03       		.byte	0x3
 2810 0a67 900A0000 		.4byte	0xa90
 2811 0a6b 16       		.uleb128 0x16
 2812 0a6c 4A040000 		.4byte	.LASF96
 2813 0a70 01       		.byte	0x1
 2814 0a71 E105     		.2byte	0x5e1
 2815 0a73 83000000 		.4byte	0x83
 2816 0a77 16       		.uleb128 0x16
 2817 0a78 82040000 		.4byte	.LASF123
 2818 0a7c 01       		.byte	0x1
 2819 0a7d E205     		.2byte	0x5e2
 2820 0a7f 83000000 		.4byte	0x83
ARM GAS  C:\Users\Alan\AppData\Local\Temp\ccbGKewn.s 			page 82


 2821 0a83 16       		.uleb128 0x16
 2822 0a84 2E000000 		.4byte	.LASF124
 2823 0a88 01       		.byte	0x1
 2824 0a89 E405     		.2byte	0x5e4
 2825 0a8b C0080000 		.4byte	0x8c0
 2826 0a8f 00       		.byte	0
 2827 0a90 27       		.uleb128 0x27
 2828 0a91 61010000 		.4byte	.LASF125
 2829 0a95 01       		.byte	0x1
 2830 0a96 4101     		.2byte	0x141
 2831 0a98 00000000 		.4byte	.LFB3
 2832 0a9c 80000000 		.4byte	.LFE3-.LFB3
 2833 0aa0 01       		.uleb128 0x1
 2834 0aa1 9C       		.byte	0x9c
 2835 0aa2 340B0000 		.4byte	0xb34
 2836 0aa6 28       		.uleb128 0x28
 2837 0aa7 7A020000 		.4byte	.LASF104
 2838 0aab 01       		.byte	0x1
 2839 0aac 4101     		.2byte	0x141
 2840 0aae 83000000 		.4byte	0x83
 2841 0ab2 10040000 		.4byte	.LLST23
 2842 0ab6 2B       		.uleb128 0x2b
 2843 0ab7 5E0A0000 		.4byte	0xa5e
 2844 0abb 16000000 		.4byte	.LBB16
 2845 0abf 50000000 		.4byte	.LBE16-.LBB16
 2846 0ac3 01       		.byte	0x1
 2847 0ac4 6701     		.2byte	0x167
 2848 0ac6 2A0B0000 		.4byte	0xb2a
 2849 0aca 1E       		.uleb128 0x1e
 2850 0acb 16000000 		.4byte	.LBB17
 2851 0acf 50000000 		.4byte	.LBE17-.LBB17
 2852 0ad3 1F       		.uleb128 0x1f
 2853 0ad4 6B0A0000 		.4byte	0xa6b
 2854 0ad8 3C040000 		.4byte	.LLST24
 2855 0adc 1F       		.uleb128 0x1f
 2856 0add 770A0000 		.4byte	0xa77
 2857 0ae1 5B040000 		.4byte	.LLST25
 2858 0ae5 1F       		.uleb128 0x1f
 2859 0ae6 830A0000 		.4byte	0xa83
 2860 0aea 86040000 		.4byte	.LLST26
 2861 0aee 2B       		.uleb128 0x2b
 2862 0aef AC050000 		.4byte	0x5ac
 2863 0af3 36000000 		.4byte	.LBB18
 2864 0af7 1A000000 		.4byte	.LBE18-.LBB18
 2865 0afb 01       		.byte	0x1
 2866 0afc F305     		.2byte	0x5f3
 2867 0afe 1F0B0000 		.4byte	0xb1f
 2868 0b02 2C       		.uleb128 0x2c
 2869 0b03 BD050000 		.4byte	0x5bd
 2870 0b07 99040000 		.4byte	.LLST27
 2871 0b0b 1E       		.uleb128 0x1e
 2872 0b0c 36000000 		.4byte	.LBB19
 2873 0b10 1A000000 		.4byte	.LBE19-.LBB19
 2874 0b14 1F       		.uleb128 0x1f
 2875 0b15 C9050000 		.4byte	0x5c9
 2876 0b19 B9040000 		.4byte	.LLST28
 2877 0b1d 00       		.byte	0
ARM GAS  C:\Users\Alan\AppData\Local\Temp\ccbGKewn.s 			page 83


 2878 0b1e 00       		.byte	0
 2879 0b1f 26       		.uleb128 0x26
 2880 0b20 66000000 		.4byte	.LVL142
 2881 0b24 070D0000 		.4byte	0xd07
 2882 0b28 00       		.byte	0
 2883 0b29 00       		.byte	0
 2884 0b2a 26       		.uleb128 0x26
 2885 0b2b 08000000 		.4byte	.LVL129
 2886 0b2f 360A0000 		.4byte	0xa36
 2887 0b33 00       		.byte	0
 2888 0b34 20       		.uleb128 0x20
 2889 0b35 C7020000 		.4byte	.LASF126
 2890 0b39 01       		.byte	0x1
 2891 0b3a 8101     		.2byte	0x181
 2892 0b3c 00000000 		.4byte	.LFB4
 2893 0b40 78000000 		.4byte	.LFE4-.LFB4
 2894 0b44 01       		.uleb128 0x1
 2895 0b45 9C       		.byte	0x9c
 2896 0b46 B20B0000 		.4byte	0xbb2
 2897 0b4a 28       		.uleb128 0x28
 2898 0b4b 7A020000 		.4byte	.LASF104
 2899 0b4f 01       		.byte	0x1
 2900 0b50 8101     		.2byte	0x181
 2901 0b52 83000000 		.4byte	0x83
 2902 0b56 CC040000 		.4byte	.LLST29
 2903 0b5a 28       		.uleb128 0x28
 2904 0b5b B8000000 		.4byte	.LASF127
 2905 0b5f 01       		.byte	0x1
 2906 0b60 8101     		.2byte	0x181
 2907 0b62 83000000 		.4byte	0x83
 2908 0b66 ED040000 		.4byte	.LLST30
 2909 0b6a 18       		.uleb128 0x18
 2910 0b6b 56060000 		.4byte	.LASF128
 2911 0b6f 01       		.byte	0x1
 2912 0b70 8301     		.2byte	0x183
 2913 0b72 83000000 		.4byte	0x83
 2914 0b76 19050000 		.4byte	.LLST31
 2915 0b7a 18       		.uleb128 0x18
 2916 0b7b 5F090000 		.4byte	.LASF129
 2917 0b7f 01       		.byte	0x1
 2918 0b80 8401     		.2byte	0x184
 2919 0b82 83000000 		.4byte	0x83
 2920 0b86 2C050000 		.4byte	.LLST32
 2921 0b8a 21       		.uleb128 0x21
 2922 0b8b 08000000 		.4byte	.LVL144
 2923 0b8f 900A0000 		.4byte	0xa90
 2924 0b93 9F0B0000 		.4byte	0xb9f
 2925 0b97 22       		.uleb128 0x22
 2926 0b98 01       		.uleb128 0x1
 2927 0b99 50       		.byte	0x50
 2928 0b9a 03       		.uleb128 0x3
 2929 0b9b F3       		.byte	0xf3
 2930 0b9c 01       		.uleb128 0x1
 2931 0b9d 50       		.byte	0x50
 2932 0b9e 00       		.byte	0
 2933 0b9f 26       		.uleb128 0x26
 2934 0ba0 52000000 		.4byte	.LVL150
ARM GAS  C:\Users\Alan\AppData\Local\Temp\ccbGKewn.s 			page 84


 2935 0ba4 C6080000 		.4byte	0x8c6
 2936 0ba8 26       		.uleb128 0x26
 2937 0ba9 58000000 		.4byte	.LVL151
 2938 0bad FD080000 		.4byte	0x8fd
 2939 0bb1 00       		.byte	0
 2940 0bb2 2D       		.uleb128 0x2d
 2941 0bb3 BF050000 		.4byte	.LASF130
 2942 0bb7 01       		.byte	0x1
 2943 0bb8 66       		.byte	0x66
 2944 0bb9 1D060000 		.4byte	0x61d
 2945 0bbd 05       		.uleb128 0x5
 2946 0bbe 03       		.byte	0x3
 2947 0bbf 0C000000 		.4byte	CapSense_curTxIOPtr
 2948 0bc3 2D       		.uleb128 0x2d
 2949 0bc4 2B040000 		.4byte	.LASF131
 2950 0bc8 01       		.byte	0x1
 2951 0bc9 68       		.byte	0x68
 2952 0bca 1D060000 		.4byte	0x61d
 2953 0bce 05       		.uleb128 0x5
 2954 0bcf 03       		.byte	0x3
 2955 0bd0 08000000 		.4byte	CapSense_curRxIOPtr
 2956 0bd4 2D       		.uleb128 0x2d
 2957 0bd5 A0000000 		.4byte	.LASF132
 2958 0bd9 01       		.byte	0x1
 2959 0bda 6D       		.byte	0x6d
 2960 0bdb 77000000 		.4byte	0x77
 2961 0bdf 05       		.uleb128 0x5
 2962 0be0 03       		.byte	0x3
 2963 0be1 06000000 		.4byte	CapSense_curWdgtTotalRx
 2964 0be5 2D       		.uleb128 0x2d
 2965 0be6 A2030000 		.4byte	.LASF133
 2966 0bea 01       		.byte	0x1
 2967 0beb 6F       		.byte	0x6f
 2968 0bec 77000000 		.4byte	0x77
 2969 0bf0 05       		.uleb128 0x5
 2970 0bf1 03       		.byte	0x3
 2971 0bf2 04000000 		.4byte	CapSense_curWdgtTotalTx
 2972 0bf6 2D       		.uleb128 0x2d
 2973 0bf7 DD000000 		.4byte	.LASF134
 2974 0bfb 01       		.byte	0x1
 2975 0bfc 71       		.byte	0x71
 2976 0bfd 77000000 		.4byte	0x77
 2977 0c01 05       		.uleb128 0x5
 2978 0c02 03       		.byte	0x3
 2979 0c03 10000000 		.4byte	CapSense_eleCsxDisconnectFlag
 2980 0c07 2E       		.uleb128 0x2e
 2981 0c08 5E060000 		.4byte	.LASF135
 2982 0c0c 04       		.byte	0x4
 2983 0c0d 7703     		.2byte	0x377
 2984 0c0f 31040000 		.4byte	0x431
 2985 0c13 2E       		.uleb128 0x2e
 2986 0c14 92010000 		.4byte	.LASF136
 2987 0c18 04       		.byte	0x4
 2988 0c19 7803     		.2byte	0x378
 2989 0c1b 1F0C0000 		.4byte	0xc1f
 2990 0c1f 19       		.uleb128 0x19
 2991 0c20 A0050000 		.4byte	0x5a0
ARM GAS  C:\Users\Alan\AppData\Local\Temp\ccbGKewn.s 			page 85


 2992 0c24 11       		.uleb128 0x11
 2993 0c25 C2040000 		.4byte	0x4c2
 2994 0c29 340C0000 		.4byte	0xc34
 2995 0c2d 12       		.uleb128 0x12
 2996 0c2e D9000000 		.4byte	0xd9
 2997 0c32 05       		.byte	0x5
 2998 0c33 00       		.byte	0
 2999 0c34 2E       		.uleb128 0x2e
 3000 0c35 68050000 		.4byte	.LASF137
 3001 0c39 04       		.byte	0x4
 3002 0c3a 7903     		.2byte	0x379
 3003 0c3c 400C0000 		.4byte	0xc40
 3004 0c40 19       		.uleb128 0x19
 3005 0c41 240C0000 		.4byte	0xc24
 3006 0c45 2F       		.uleb128 0x2f
 3007 0c46 D3050000 		.4byte	.LASF138
 3008 0c4a 01       		.byte	0x1
 3009 0c4b 55       		.byte	0x55
 3010 0c4c B0000000 		.4byte	0xb0
 3011 0c50 05       		.uleb128 0x5
 3012 0c51 03       		.byte	0x3
 3013 0c52 00000000 		.4byte	CapSense_csxScanPeriod
 3014 0c56 2F       		.uleb128 0x2f
 3015 0c57 5A030000 		.4byte	.LASF139
 3016 0c5b 01       		.byte	0x1
 3017 0c5c 57       		.byte	0x57
 3018 0c5d B0000000 		.4byte	0xb0
 3019 0c61 05       		.uleb128 0x5
 3020 0c62 03       		.byte	0x3
 3021 0c63 00000000 		.4byte	CapSense_csxRawCount
 3022 0c67 2F       		.uleb128 0x2f
 3023 0c68 8D090000 		.4byte	.LASF140
 3024 0c6c 01       		.byte	0x1
 3025 0c6d 5A       		.byte	0x5a
 3026 0c6e C1000000 		.4byte	0xc1
 3027 0c72 05       		.uleb128 0x5
 3028 0c73 03       		.byte	0x3
 3029 0c74 00000000 		.4byte	CapSense_resamplingCyclesCnt
 3030 0c78 2F       		.uleb128 0x2f
 3031 0c79 4F080000 		.4byte	.LASF141
 3032 0c7d 01       		.byte	0x1
 3033 0c7e 6A       		.byte	0x6a
 3034 0c7f D2000000 		.4byte	0xd2
 3035 0c83 05       		.uleb128 0x5
 3036 0c84 03       		.byte	0x3
 3037 0c85 00000000 		.4byte	CapSense_CSXPostScanApiPtr
 3038 0c89 2E       		.uleb128 0x2e
 3039 0c8a CC030000 		.4byte	.LASF142
 3040 0c8e 05       		.byte	0x5
 3041 0c8f DF04     		.2byte	0x4df
 3042 0c91 950C0000 		.4byte	0xc95
 3043 0c95 19       		.uleb128 0x19
 3044 0c96 6B000000 		.4byte	0x6b
 3045 0c9a 2E       		.uleb128 0x2e
 3046 0c9b 22030000 		.4byte	.LASF143
 3047 0c9f 05       		.byte	0x5
 3048 0ca0 E404     		.2byte	0x4e4
ARM GAS  C:\Users\Alan\AppData\Local\Temp\ccbGKewn.s 			page 86


 3049 0ca2 6B000000 		.4byte	0x6b
 3050 0ca6 2E       		.uleb128 0x2e
 3051 0ca7 F5070000 		.4byte	.LASF144
 3052 0cab 05       		.byte	0x5
 3053 0cac E504     		.2byte	0x4e5
 3054 0cae 61050000 		.4byte	0x561
 3055 0cb2 2E       		.uleb128 0x2e
 3056 0cb3 95050000 		.4byte	.LASF145
 3057 0cb7 05       		.byte	0x5
 3058 0cb8 E804     		.2byte	0x4e8
 3059 0cba BE0C0000 		.4byte	0xcbe
 3060 0cbe 06       		.uleb128 0x6
 3061 0cbf 04       		.byte	0x4
 3062 0cc0 C40C0000 		.4byte	0xcc4
 3063 0cc4 19       		.uleb128 0x19
 3064 0cc5 6D050000 		.4byte	0x56d
 3065 0cc9 30       		.uleb128 0x30
 3066 0cca 6D020000 		.4byte	.LASF146
 3067 0cce 06       		.byte	0x6
 3068 0ccf C3       		.byte	0xc3
 3069 0cd0 DA0C0000 		.4byte	0xcda
 3070 0cd4 31       		.uleb128 0x31
 3071 0cd5 6B000000 		.4byte	0x6b
 3072 0cd9 00       		.byte	0
 3073 0cda 30       		.uleb128 0x30
 3074 0cdb 54040000 		.4byte	.LASF147
 3075 0cdf 06       		.byte	0x6
 3076 0ce0 C1       		.byte	0xc1
 3077 0ce1 EB0C0000 		.4byte	0xceb
 3078 0ce5 31       		.uleb128 0x31
 3079 0ce6 6B000000 		.4byte	0x6b
 3080 0cea 00       		.byte	0
 3081 0ceb 32       		.uleb128 0x32
 3082 0cec 60040000 		.4byte	.LASF151
 3083 0cf0 06       		.byte	0x6
 3084 0cf1 E3       		.byte	0xe3
 3085 0cf2 6B000000 		.4byte	0x6b
 3086 0cf6 30       		.uleb128 0x30
 3087 0cf7 18000000 		.4byte	.LASF148
 3088 0cfb 06       		.byte	0x6
 3089 0cfc E4       		.byte	0xe4
 3090 0cfd 070D0000 		.4byte	0xd07
 3091 0d01 31       		.uleb128 0x31
 3092 0d02 6B000000 		.4byte	0x6b
 3093 0d06 00       		.byte	0
 3094 0d07 30       		.uleb128 0x30
 3095 0d08 1E070000 		.4byte	.LASF149
 3096 0d0c 05       		.byte	0x5
 3097 0d0d 7D       		.byte	0x7d
 3098 0d0e 180D0000 		.4byte	0xd18
 3099 0d12 31       		.uleb128 0x31
 3100 0d13 83000000 		.4byte	0x83
 3101 0d17 00       		.byte	0
 3102 0d18 30       		.uleb128 0x30
 3103 0d19 3F060000 		.4byte	.LASF150
 3104 0d1d 05       		.byte	0x5
 3105 0d1e 80       		.byte	0x80
ARM GAS  C:\Users\Alan\AppData\Local\Temp\ccbGKewn.s 			page 87


 3106 0d1f 290D0000 		.4byte	0xd29
 3107 0d23 31       		.uleb128 0x31
 3108 0d24 C6000000 		.4byte	0xc6
 3109 0d28 00       		.byte	0
 3110 0d29 33       		.uleb128 0x33
 3111 0d2a B2070000 		.4byte	.LASF159
 3112 0d2e 05       		.byte	0x5
 3113 0d2f 5A       		.byte	0x5a
 3114 0d30 A4000000 		.4byte	0xa4
 3115 0d34 3E0D0000 		.4byte	0xd3e
 3116 0d38 31       		.uleb128 0x31
 3117 0d39 83000000 		.4byte	0x83
 3118 0d3d 00       		.byte	0
 3119 0d3e 32       		.uleb128 0x32
 3120 0d3f 0B080000 		.4byte	.LASF152
 3121 0d43 05       		.byte	0x5
 3122 0d44 5B       		.byte	0x5b
 3123 0d45 A4000000 		.4byte	0xa4
 3124 0d49 34       		.uleb128 0x34
 3125 0d4a A7040000 		.4byte	.LASF160
 3126 0d4e 05       		.byte	0x5
 3127 0d4f 81       		.byte	0x81
 3128 0d50 00       		.byte	0
 3129              		.section	.debug_abbrev,"",%progbits
 3130              	.Ldebug_abbrev0:
 3131 0000 01       		.uleb128 0x1
 3132 0001 11       		.uleb128 0x11
 3133 0002 01       		.byte	0x1
 3134 0003 25       		.uleb128 0x25
 3135 0004 0E       		.uleb128 0xe
 3136 0005 13       		.uleb128 0x13
 3137 0006 0B       		.uleb128 0xb
 3138 0007 03       		.uleb128 0x3
 3139 0008 0E       		.uleb128 0xe
 3140 0009 1B       		.uleb128 0x1b
 3141 000a 0E       		.uleb128 0xe
 3142 000b 55       		.uleb128 0x55
 3143 000c 17       		.uleb128 0x17
 3144 000d 11       		.uleb128 0x11
 3145 000e 01       		.uleb128 0x1
 3146 000f 10       		.uleb128 0x10
 3147 0010 17       		.uleb128 0x17
 3148 0011 00       		.byte	0
 3149 0012 00       		.byte	0
 3150 0013 02       		.uleb128 0x2
 3151 0014 24       		.uleb128 0x24
 3152 0015 00       		.byte	0
 3153 0016 0B       		.uleb128 0xb
 3154 0017 0B       		.uleb128 0xb
 3155 0018 3E       		.uleb128 0x3e
 3156 0019 0B       		.uleb128 0xb
 3157 001a 03       		.uleb128 0x3
 3158 001b 0E       		.uleb128 0xe
 3159 001c 00       		.byte	0
 3160 001d 00       		.byte	0
 3161 001e 03       		.uleb128 0x3
 3162 001f 24       		.uleb128 0x24
ARM GAS  C:\Users\Alan\AppData\Local\Temp\ccbGKewn.s 			page 88


 3163 0020 00       		.byte	0
 3164 0021 0B       		.uleb128 0xb
 3165 0022 0B       		.uleb128 0xb
 3166 0023 3E       		.uleb128 0x3e
 3167 0024 0B       		.uleb128 0xb
 3168 0025 03       		.uleb128 0x3
 3169 0026 08       		.uleb128 0x8
 3170 0027 00       		.byte	0
 3171 0028 00       		.byte	0
 3172 0029 04       		.uleb128 0x4
 3173 002a 16       		.uleb128 0x16
 3174 002b 00       		.byte	0
 3175 002c 03       		.uleb128 0x3
 3176 002d 0E       		.uleb128 0xe
 3177 002e 3A       		.uleb128 0x3a
 3178 002f 0B       		.uleb128 0xb
 3179 0030 3B       		.uleb128 0x3b
 3180 0031 05       		.uleb128 0x5
 3181 0032 49       		.uleb128 0x49
 3182 0033 13       		.uleb128 0x13
 3183 0034 00       		.byte	0
 3184 0035 00       		.byte	0
 3185 0036 05       		.uleb128 0x5
 3186 0037 35       		.uleb128 0x35
 3187 0038 00       		.byte	0
 3188 0039 49       		.uleb128 0x49
 3189 003a 13       		.uleb128 0x13
 3190 003b 00       		.byte	0
 3191 003c 00       		.byte	0
 3192 003d 06       		.uleb128 0x6
 3193 003e 0F       		.uleb128 0xf
 3194 003f 00       		.byte	0
 3195 0040 0B       		.uleb128 0xb
 3196 0041 0B       		.uleb128 0xb
 3197 0042 49       		.uleb128 0x49
 3198 0043 13       		.uleb128 0x13
 3199 0044 00       		.byte	0
 3200 0045 00       		.byte	0
 3201 0046 07       		.uleb128 0x7
 3202 0047 15       		.uleb128 0x15
 3203 0048 00       		.byte	0
 3204 0049 27       		.uleb128 0x27
 3205 004a 19       		.uleb128 0x19
 3206 004b 00       		.byte	0
 3207 004c 00       		.byte	0
 3208 004d 08       		.uleb128 0x8
 3209 004e 0F       		.uleb128 0xf
 3210 004f 00       		.byte	0
 3211 0050 0B       		.uleb128 0xb
 3212 0051 0B       		.uleb128 0xb
 3213 0052 00       		.byte	0
 3214 0053 00       		.byte	0
 3215 0054 09       		.uleb128 0x9
 3216 0055 16       		.uleb128 0x16
 3217 0056 00       		.byte	0
 3218 0057 03       		.uleb128 0x3
 3219 0058 0E       		.uleb128 0xe
ARM GAS  C:\Users\Alan\AppData\Local\Temp\ccbGKewn.s 			page 89


 3220 0059 3A       		.uleb128 0x3a
 3221 005a 0B       		.uleb128 0xb
 3222 005b 3B       		.uleb128 0x3b
 3223 005c 0B       		.uleb128 0xb
 3224 005d 49       		.uleb128 0x49
 3225 005e 13       		.uleb128 0x13
 3226 005f 00       		.byte	0
 3227 0060 00       		.byte	0
 3228 0061 0A       		.uleb128 0xa
 3229 0062 04       		.uleb128 0x4
 3230 0063 01       		.byte	0x1
 3231 0064 0B       		.uleb128 0xb
 3232 0065 0B       		.uleb128 0xb
 3233 0066 3A       		.uleb128 0x3a
 3234 0067 0B       		.uleb128 0xb
 3235 0068 3B       		.uleb128 0x3b
 3236 0069 0B       		.uleb128 0xb
 3237 006a 01       		.uleb128 0x1
 3238 006b 13       		.uleb128 0x13
 3239 006c 00       		.byte	0
 3240 006d 00       		.byte	0
 3241 006e 0B       		.uleb128 0xb
 3242 006f 28       		.uleb128 0x28
 3243 0070 00       		.byte	0
 3244 0071 03       		.uleb128 0x3
 3245 0072 0E       		.uleb128 0xe
 3246 0073 1C       		.uleb128 0x1c
 3247 0074 0D       		.uleb128 0xd
 3248 0075 00       		.byte	0
 3249 0076 00       		.byte	0
 3250 0077 0C       		.uleb128 0xc
 3251 0078 13       		.uleb128 0x13
 3252 0079 01       		.byte	0x1
 3253 007a 0B       		.uleb128 0xb
 3254 007b 0B       		.uleb128 0xb
 3255 007c 3A       		.uleb128 0x3a
 3256 007d 0B       		.uleb128 0xb
 3257 007e 3B       		.uleb128 0x3b
 3258 007f 0B       		.uleb128 0xb
 3259 0080 01       		.uleb128 0x1
 3260 0081 13       		.uleb128 0x13
 3261 0082 00       		.byte	0
 3262 0083 00       		.byte	0
 3263 0084 0D       		.uleb128 0xd
 3264 0085 0D       		.uleb128 0xd
 3265 0086 00       		.byte	0
 3266 0087 03       		.uleb128 0x3
 3267 0088 0E       		.uleb128 0xe
 3268 0089 3A       		.uleb128 0x3a
 3269 008a 0B       		.uleb128 0xb
 3270 008b 3B       		.uleb128 0x3b
 3271 008c 0B       		.uleb128 0xb
 3272 008d 49       		.uleb128 0x49
 3273 008e 13       		.uleb128 0x13
 3274 008f 38       		.uleb128 0x38
 3275 0090 0B       		.uleb128 0xb
 3276 0091 00       		.byte	0
ARM GAS  C:\Users\Alan\AppData\Local\Temp\ccbGKewn.s 			page 90


 3277 0092 00       		.byte	0
 3278 0093 0E       		.uleb128 0xe
 3279 0094 13       		.uleb128 0x13
 3280 0095 01       		.byte	0x1
 3281 0096 0B       		.uleb128 0xb
 3282 0097 0B       		.uleb128 0xb
 3283 0098 3A       		.uleb128 0x3a
 3284 0099 0B       		.uleb128 0xb
 3285 009a 3B       		.uleb128 0x3b
 3286 009b 05       		.uleb128 0x5
 3287 009c 01       		.uleb128 0x1
 3288 009d 13       		.uleb128 0x13
 3289 009e 00       		.byte	0
 3290 009f 00       		.byte	0
 3291 00a0 0F       		.uleb128 0xf
 3292 00a1 0D       		.uleb128 0xd
 3293 00a2 00       		.byte	0
 3294 00a3 03       		.uleb128 0x3
 3295 00a4 08       		.uleb128 0x8
 3296 00a5 3A       		.uleb128 0x3a
 3297 00a6 0B       		.uleb128 0xb
 3298 00a7 3B       		.uleb128 0x3b
 3299 00a8 05       		.uleb128 0x5
 3300 00a9 49       		.uleb128 0x49
 3301 00aa 13       		.uleb128 0x13
 3302 00ab 38       		.uleb128 0x38
 3303 00ac 0B       		.uleb128 0xb
 3304 00ad 00       		.byte	0
 3305 00ae 00       		.byte	0
 3306 00af 10       		.uleb128 0x10
 3307 00b0 0D       		.uleb128 0xd
 3308 00b1 00       		.byte	0
 3309 00b2 03       		.uleb128 0x3
 3310 00b3 0E       		.uleb128 0xe
 3311 00b4 3A       		.uleb128 0x3a
 3312 00b5 0B       		.uleb128 0xb
 3313 00b6 3B       		.uleb128 0x3b
 3314 00b7 05       		.uleb128 0x5
 3315 00b8 49       		.uleb128 0x49
 3316 00b9 13       		.uleb128 0x13
 3317 00ba 38       		.uleb128 0x38
 3318 00bb 0B       		.uleb128 0xb
 3319 00bc 00       		.byte	0
 3320 00bd 00       		.byte	0
 3321 00be 11       		.uleb128 0x11
 3322 00bf 01       		.uleb128 0x1
 3323 00c0 01       		.byte	0x1
 3324 00c1 49       		.uleb128 0x49
 3325 00c2 13       		.uleb128 0x13
 3326 00c3 01       		.uleb128 0x1
 3327 00c4 13       		.uleb128 0x13
 3328 00c5 00       		.byte	0
 3329 00c6 00       		.byte	0
 3330 00c7 12       		.uleb128 0x12
 3331 00c8 21       		.uleb128 0x21
 3332 00c9 00       		.byte	0
 3333 00ca 49       		.uleb128 0x49
ARM GAS  C:\Users\Alan\AppData\Local\Temp\ccbGKewn.s 			page 91


 3334 00cb 13       		.uleb128 0x13
 3335 00cc 2F       		.uleb128 0x2f
 3336 00cd 0B       		.uleb128 0xb
 3337 00ce 00       		.byte	0
 3338 00cf 00       		.byte	0
 3339 00d0 13       		.uleb128 0x13
 3340 00d1 26       		.uleb128 0x26
 3341 00d2 00       		.byte	0
 3342 00d3 00       		.byte	0
 3343 00d4 00       		.byte	0
 3344 00d5 14       		.uleb128 0x14
 3345 00d6 2E       		.uleb128 0x2e
 3346 00d7 01       		.byte	0x1
 3347 00d8 03       		.uleb128 0x3
 3348 00d9 0E       		.uleb128 0xe
 3349 00da 3A       		.uleb128 0x3a
 3350 00db 0B       		.uleb128 0xb
 3351 00dc 3B       		.uleb128 0x3b
 3352 00dd 05       		.uleb128 0x5
 3353 00de 27       		.uleb128 0x27
 3354 00df 19       		.uleb128 0x19
 3355 00e0 49       		.uleb128 0x49
 3356 00e1 13       		.uleb128 0x13
 3357 00e2 20       		.uleb128 0x20
 3358 00e3 0B       		.uleb128 0xb
 3359 00e4 01       		.uleb128 0x1
 3360 00e5 13       		.uleb128 0x13
 3361 00e6 00       		.byte	0
 3362 00e7 00       		.byte	0
 3363 00e8 15       		.uleb128 0x15
 3364 00e9 05       		.uleb128 0x5
 3365 00ea 00       		.byte	0
 3366 00eb 03       		.uleb128 0x3
 3367 00ec 0E       		.uleb128 0xe
 3368 00ed 3A       		.uleb128 0x3a
 3369 00ee 0B       		.uleb128 0xb
 3370 00ef 3B       		.uleb128 0x3b
 3371 00f0 05       		.uleb128 0x5
 3372 00f1 49       		.uleb128 0x49
 3373 00f2 13       		.uleb128 0x13
 3374 00f3 00       		.byte	0
 3375 00f4 00       		.byte	0
 3376 00f5 16       		.uleb128 0x16
 3377 00f6 34       		.uleb128 0x34
 3378 00f7 00       		.byte	0
 3379 00f8 03       		.uleb128 0x3
 3380 00f9 0E       		.uleb128 0xe
 3381 00fa 3A       		.uleb128 0x3a
 3382 00fb 0B       		.uleb128 0xb
 3383 00fc 3B       		.uleb128 0x3b
 3384 00fd 05       		.uleb128 0x5
 3385 00fe 49       		.uleb128 0x49
 3386 00ff 13       		.uleb128 0x13
 3387 0100 00       		.byte	0
 3388 0101 00       		.byte	0
 3389 0102 17       		.uleb128 0x17
 3390 0103 2E       		.uleb128 0x2e
ARM GAS  C:\Users\Alan\AppData\Local\Temp\ccbGKewn.s 			page 92


 3391 0104 01       		.byte	0x1
 3392 0105 03       		.uleb128 0x3
 3393 0106 0E       		.uleb128 0xe
 3394 0107 3A       		.uleb128 0x3a
 3395 0108 0B       		.uleb128 0xb
 3396 0109 3B       		.uleb128 0x3b
 3397 010a 05       		.uleb128 0x5
 3398 010b 27       		.uleb128 0x27
 3399 010c 19       		.uleb128 0x19
 3400 010d 11       		.uleb128 0x11
 3401 010e 01       		.uleb128 0x1
 3402 010f 12       		.uleb128 0x12
 3403 0110 06       		.uleb128 0x6
 3404 0111 40       		.uleb128 0x40
 3405 0112 18       		.uleb128 0x18
 3406 0113 9742     		.uleb128 0x2117
 3407 0115 19       		.uleb128 0x19
 3408 0116 01       		.uleb128 0x1
 3409 0117 13       		.uleb128 0x13
 3410 0118 00       		.byte	0
 3411 0119 00       		.byte	0
 3412 011a 18       		.uleb128 0x18
 3413 011b 34       		.uleb128 0x34
 3414 011c 00       		.byte	0
 3415 011d 03       		.uleb128 0x3
 3416 011e 0E       		.uleb128 0xe
 3417 011f 3A       		.uleb128 0x3a
 3418 0120 0B       		.uleb128 0xb
 3419 0121 3B       		.uleb128 0x3b
 3420 0122 05       		.uleb128 0x5
 3421 0123 49       		.uleb128 0x49
 3422 0124 13       		.uleb128 0x13
 3423 0125 02       		.uleb128 0x2
 3424 0126 17       		.uleb128 0x17
 3425 0127 00       		.byte	0
 3426 0128 00       		.byte	0
 3427 0129 19       		.uleb128 0x19
 3428 012a 26       		.uleb128 0x26
 3429 012b 00       		.byte	0
 3430 012c 49       		.uleb128 0x49
 3431 012d 13       		.uleb128 0x13
 3432 012e 00       		.byte	0
 3433 012f 00       		.byte	0
 3434 0130 1A       		.uleb128 0x1a
 3435 0131 2E       		.uleb128 0x2e
 3436 0132 00       		.byte	0
 3437 0133 03       		.uleb128 0x3
 3438 0134 0E       		.uleb128 0xe
 3439 0135 3A       		.uleb128 0x3a
 3440 0136 0B       		.uleb128 0xb
 3441 0137 3B       		.uleb128 0x3b
 3442 0138 05       		.uleb128 0x5
 3443 0139 27       		.uleb128 0x27
 3444 013a 19       		.uleb128 0x19
 3445 013b 11       		.uleb128 0x11
 3446 013c 01       		.uleb128 0x1
 3447 013d 12       		.uleb128 0x12
ARM GAS  C:\Users\Alan\AppData\Local\Temp\ccbGKewn.s 			page 93


 3448 013e 06       		.uleb128 0x6
 3449 013f 40       		.uleb128 0x40
 3450 0140 18       		.uleb128 0x18
 3451 0141 9742     		.uleb128 0x2117
 3452 0143 19       		.uleb128 0x19
 3453 0144 00       		.byte	0
 3454 0145 00       		.byte	0
 3455 0146 1B       		.uleb128 0x1b
 3456 0147 2E       		.uleb128 0x2e
 3457 0148 01       		.byte	0x1
 3458 0149 03       		.uleb128 0x3
 3459 014a 0E       		.uleb128 0xe
 3460 014b 3A       		.uleb128 0x3a
 3461 014c 0B       		.uleb128 0xb
 3462 014d 3B       		.uleb128 0x3b
 3463 014e 05       		.uleb128 0x5
 3464 014f 27       		.uleb128 0x27
 3465 0150 19       		.uleb128 0x19
 3466 0151 20       		.uleb128 0x20
 3467 0152 0B       		.uleb128 0xb
 3468 0153 01       		.uleb128 0x1
 3469 0154 13       		.uleb128 0x13
 3470 0155 00       		.byte	0
 3471 0156 00       		.byte	0
 3472 0157 1C       		.uleb128 0x1c
 3473 0158 2E       		.uleb128 0x2e
 3474 0159 01       		.byte	0x1
 3475 015a 03       		.uleb128 0x3
 3476 015b 0E       		.uleb128 0xe
 3477 015c 3A       		.uleb128 0x3a
 3478 015d 0B       		.uleb128 0xb
 3479 015e 3B       		.uleb128 0x3b
 3480 015f 05       		.uleb128 0x5
 3481 0160 27       		.uleb128 0x27
 3482 0161 19       		.uleb128 0x19
 3483 0162 11       		.uleb128 0x11
 3484 0163 01       		.uleb128 0x1
 3485 0164 12       		.uleb128 0x12
 3486 0165 06       		.uleb128 0x6
 3487 0166 40       		.uleb128 0x40
 3488 0167 18       		.uleb128 0x18
 3489 0168 9642     		.uleb128 0x2116
 3490 016a 19       		.uleb128 0x19
 3491 016b 01       		.uleb128 0x1
 3492 016c 13       		.uleb128 0x13
 3493 016d 00       		.byte	0
 3494 016e 00       		.byte	0
 3495 016f 1D       		.uleb128 0x1d
 3496 0170 1D       		.uleb128 0x1d
 3497 0171 01       		.byte	0x1
 3498 0172 31       		.uleb128 0x31
 3499 0173 13       		.uleb128 0x13
 3500 0174 11       		.uleb128 0x11
 3501 0175 01       		.uleb128 0x1
 3502 0176 12       		.uleb128 0x12
 3503 0177 06       		.uleb128 0x6
 3504 0178 58       		.uleb128 0x58
ARM GAS  C:\Users\Alan\AppData\Local\Temp\ccbGKewn.s 			page 94


 3505 0179 0B       		.uleb128 0xb
 3506 017a 59       		.uleb128 0x59
 3507 017b 05       		.uleb128 0x5
 3508 017c 00       		.byte	0
 3509 017d 00       		.byte	0
 3510 017e 1E       		.uleb128 0x1e
 3511 017f 0B       		.uleb128 0xb
 3512 0180 01       		.byte	0x1
 3513 0181 11       		.uleb128 0x11
 3514 0182 01       		.uleb128 0x1
 3515 0183 12       		.uleb128 0x12
 3516 0184 06       		.uleb128 0x6
 3517 0185 00       		.byte	0
 3518 0186 00       		.byte	0
 3519 0187 1F       		.uleb128 0x1f
 3520 0188 34       		.uleb128 0x34
 3521 0189 00       		.byte	0
 3522 018a 31       		.uleb128 0x31
 3523 018b 13       		.uleb128 0x13
 3524 018c 02       		.uleb128 0x2
 3525 018d 17       		.uleb128 0x17
 3526 018e 00       		.byte	0
 3527 018f 00       		.byte	0
 3528 0190 20       		.uleb128 0x20
 3529 0191 2E       		.uleb128 0x2e
 3530 0192 01       		.byte	0x1
 3531 0193 3F       		.uleb128 0x3f
 3532 0194 19       		.uleb128 0x19
 3533 0195 03       		.uleb128 0x3
 3534 0196 0E       		.uleb128 0xe
 3535 0197 3A       		.uleb128 0x3a
 3536 0198 0B       		.uleb128 0xb
 3537 0199 3B       		.uleb128 0x3b
 3538 019a 05       		.uleb128 0x5
 3539 019b 27       		.uleb128 0x27
 3540 019c 19       		.uleb128 0x19
 3541 019d 11       		.uleb128 0x11
 3542 019e 01       		.uleb128 0x1
 3543 019f 12       		.uleb128 0x12
 3544 01a0 06       		.uleb128 0x6
 3545 01a1 40       		.uleb128 0x40
 3546 01a2 18       		.uleb128 0x18
 3547 01a3 9642     		.uleb128 0x2116
 3548 01a5 19       		.uleb128 0x19
 3549 01a6 01       		.uleb128 0x1
 3550 01a7 13       		.uleb128 0x13
 3551 01a8 00       		.byte	0
 3552 01a9 00       		.byte	0
 3553 01aa 21       		.uleb128 0x21
 3554 01ab 898201   		.uleb128 0x4109
 3555 01ae 01       		.byte	0x1
 3556 01af 11       		.uleb128 0x11
 3557 01b0 01       		.uleb128 0x1
 3558 01b1 31       		.uleb128 0x31
 3559 01b2 13       		.uleb128 0x13
 3560 01b3 01       		.uleb128 0x1
 3561 01b4 13       		.uleb128 0x13
ARM GAS  C:\Users\Alan\AppData\Local\Temp\ccbGKewn.s 			page 95


 3562 01b5 00       		.byte	0
 3563 01b6 00       		.byte	0
 3564 01b7 22       		.uleb128 0x22
 3565 01b8 8A8201   		.uleb128 0x410a
 3566 01bb 00       		.byte	0
 3567 01bc 02       		.uleb128 0x2
 3568 01bd 18       		.uleb128 0x18
 3569 01be 9142     		.uleb128 0x2111
 3570 01c0 18       		.uleb128 0x18
 3571 01c1 00       		.byte	0
 3572 01c2 00       		.byte	0
 3573 01c3 23       		.uleb128 0x23
 3574 01c4 898201   		.uleb128 0x4109
 3575 01c7 01       		.byte	0x1
 3576 01c8 11       		.uleb128 0x11
 3577 01c9 01       		.uleb128 0x1
 3578 01ca 31       		.uleb128 0x31
 3579 01cb 13       		.uleb128 0x13
 3580 01cc 00       		.byte	0
 3581 01cd 00       		.byte	0
 3582 01ce 24       		.uleb128 0x24
 3583 01cf 2E       		.uleb128 0x2e
 3584 01d0 01       		.byte	0x1
 3585 01d1 3F       		.uleb128 0x3f
 3586 01d2 19       		.uleb128 0x19
 3587 01d3 03       		.uleb128 0x3
 3588 01d4 0E       		.uleb128 0xe
 3589 01d5 3A       		.uleb128 0x3a
 3590 01d6 0B       		.uleb128 0xb
 3591 01d7 3B       		.uleb128 0x3b
 3592 01d8 0B       		.uleb128 0xb
 3593 01d9 27       		.uleb128 0x27
 3594 01da 19       		.uleb128 0x19
 3595 01db 11       		.uleb128 0x11
 3596 01dc 01       		.uleb128 0x1
 3597 01dd 12       		.uleb128 0x12
 3598 01de 06       		.uleb128 0x6
 3599 01df 40       		.uleb128 0x40
 3600 01e0 18       		.uleb128 0x18
 3601 01e1 9742     		.uleb128 0x2117
 3602 01e3 19       		.uleb128 0x19
 3603 01e4 01       		.uleb128 0x1
 3604 01e5 13       		.uleb128 0x13
 3605 01e6 00       		.byte	0
 3606 01e7 00       		.byte	0
 3607 01e8 25       		.uleb128 0x25
 3608 01e9 1D       		.uleb128 0x1d
 3609 01ea 01       		.byte	0x1
 3610 01eb 31       		.uleb128 0x31
 3611 01ec 13       		.uleb128 0x13
 3612 01ed 11       		.uleb128 0x11
 3613 01ee 01       		.uleb128 0x1
 3614 01ef 12       		.uleb128 0x12
 3615 01f0 06       		.uleb128 0x6
 3616 01f1 58       		.uleb128 0x58
 3617 01f2 0B       		.uleb128 0xb
 3618 01f3 59       		.uleb128 0x59
ARM GAS  C:\Users\Alan\AppData\Local\Temp\ccbGKewn.s 			page 96


 3619 01f4 0B       		.uleb128 0xb
 3620 01f5 01       		.uleb128 0x1
 3621 01f6 13       		.uleb128 0x13
 3622 01f7 00       		.byte	0
 3623 01f8 00       		.byte	0
 3624 01f9 26       		.uleb128 0x26
 3625 01fa 898201   		.uleb128 0x4109
 3626 01fd 00       		.byte	0
 3627 01fe 11       		.uleb128 0x11
 3628 01ff 01       		.uleb128 0x1
 3629 0200 31       		.uleb128 0x31
 3630 0201 13       		.uleb128 0x13
 3631 0202 00       		.byte	0
 3632 0203 00       		.byte	0
 3633 0204 27       		.uleb128 0x27
 3634 0205 2E       		.uleb128 0x2e
 3635 0206 01       		.byte	0x1
 3636 0207 3F       		.uleb128 0x3f
 3637 0208 19       		.uleb128 0x19
 3638 0209 03       		.uleb128 0x3
 3639 020a 0E       		.uleb128 0xe
 3640 020b 3A       		.uleb128 0x3a
 3641 020c 0B       		.uleb128 0xb
 3642 020d 3B       		.uleb128 0x3b
 3643 020e 05       		.uleb128 0x5
 3644 020f 27       		.uleb128 0x27
 3645 0210 19       		.uleb128 0x19
 3646 0211 11       		.uleb128 0x11
 3647 0212 01       		.uleb128 0x1
 3648 0213 12       		.uleb128 0x12
 3649 0214 06       		.uleb128 0x6
 3650 0215 40       		.uleb128 0x40
 3651 0216 18       		.uleb128 0x18
 3652 0217 9742     		.uleb128 0x2117
 3653 0219 19       		.uleb128 0x19
 3654 021a 01       		.uleb128 0x1
 3655 021b 13       		.uleb128 0x13
 3656 021c 00       		.byte	0
 3657 021d 00       		.byte	0
 3658 021e 28       		.uleb128 0x28
 3659 021f 05       		.uleb128 0x5
 3660 0220 00       		.byte	0
 3661 0221 03       		.uleb128 0x3
 3662 0222 0E       		.uleb128 0xe
 3663 0223 3A       		.uleb128 0x3a
 3664 0224 0B       		.uleb128 0xb
 3665 0225 3B       		.uleb128 0x3b
 3666 0226 05       		.uleb128 0x5
 3667 0227 49       		.uleb128 0x49
 3668 0228 13       		.uleb128 0x13
 3669 0229 02       		.uleb128 0x2
 3670 022a 17       		.uleb128 0x17
 3671 022b 00       		.byte	0
 3672 022c 00       		.byte	0
 3673 022d 29       		.uleb128 0x29
 3674 022e 05       		.uleb128 0x5
 3675 022f 00       		.byte	0
ARM GAS  C:\Users\Alan\AppData\Local\Temp\ccbGKewn.s 			page 97


 3676 0230 03       		.uleb128 0x3
 3677 0231 0E       		.uleb128 0xe
 3678 0232 3A       		.uleb128 0x3a
 3679 0233 0B       		.uleb128 0xb
 3680 0234 3B       		.uleb128 0x3b
 3681 0235 05       		.uleb128 0x5
 3682 0236 49       		.uleb128 0x49
 3683 0237 13       		.uleb128 0x13
 3684 0238 02       		.uleb128 0x2
 3685 0239 18       		.uleb128 0x18
 3686 023a 00       		.byte	0
 3687 023b 00       		.byte	0
 3688 023c 2A       		.uleb128 0x2a
 3689 023d 34       		.uleb128 0x34
 3690 023e 00       		.byte	0
 3691 023f 03       		.uleb128 0x3
 3692 0240 0E       		.uleb128 0xe
 3693 0241 3A       		.uleb128 0x3a
 3694 0242 0B       		.uleb128 0xb
 3695 0243 3B       		.uleb128 0x3b
 3696 0244 05       		.uleb128 0x5
 3697 0245 49       		.uleb128 0x49
 3698 0246 13       		.uleb128 0x13
 3699 0247 02       		.uleb128 0x2
 3700 0248 18       		.uleb128 0x18
 3701 0249 00       		.byte	0
 3702 024a 00       		.byte	0
 3703 024b 2B       		.uleb128 0x2b
 3704 024c 1D       		.uleb128 0x1d
 3705 024d 01       		.byte	0x1
 3706 024e 31       		.uleb128 0x31
 3707 024f 13       		.uleb128 0x13
 3708 0250 11       		.uleb128 0x11
 3709 0251 01       		.uleb128 0x1
 3710 0252 12       		.uleb128 0x12
 3711 0253 06       		.uleb128 0x6
 3712 0254 58       		.uleb128 0x58
 3713 0255 0B       		.uleb128 0xb
 3714 0256 59       		.uleb128 0x59
 3715 0257 05       		.uleb128 0x5
 3716 0258 01       		.uleb128 0x1
 3717 0259 13       		.uleb128 0x13
 3718 025a 00       		.byte	0
 3719 025b 00       		.byte	0
 3720 025c 2C       		.uleb128 0x2c
 3721 025d 05       		.uleb128 0x5
 3722 025e 00       		.byte	0
 3723 025f 31       		.uleb128 0x31
 3724 0260 13       		.uleb128 0x13
 3725 0261 02       		.uleb128 0x2
 3726 0262 17       		.uleb128 0x17
 3727 0263 00       		.byte	0
 3728 0264 00       		.byte	0
 3729 0265 2D       		.uleb128 0x2d
 3730 0266 34       		.uleb128 0x34
 3731 0267 00       		.byte	0
 3732 0268 03       		.uleb128 0x3
ARM GAS  C:\Users\Alan\AppData\Local\Temp\ccbGKewn.s 			page 98


 3733 0269 0E       		.uleb128 0xe
 3734 026a 3A       		.uleb128 0x3a
 3735 026b 0B       		.uleb128 0xb
 3736 026c 3B       		.uleb128 0x3b
 3737 026d 0B       		.uleb128 0xb
 3738 026e 49       		.uleb128 0x49
 3739 026f 13       		.uleb128 0x13
 3740 0270 02       		.uleb128 0x2
 3741 0271 18       		.uleb128 0x18
 3742 0272 00       		.byte	0
 3743 0273 00       		.byte	0
 3744 0274 2E       		.uleb128 0x2e
 3745 0275 34       		.uleb128 0x34
 3746 0276 00       		.byte	0
 3747 0277 03       		.uleb128 0x3
 3748 0278 0E       		.uleb128 0xe
 3749 0279 3A       		.uleb128 0x3a
 3750 027a 0B       		.uleb128 0xb
 3751 027b 3B       		.uleb128 0x3b
 3752 027c 05       		.uleb128 0x5
 3753 027d 49       		.uleb128 0x49
 3754 027e 13       		.uleb128 0x13
 3755 027f 3F       		.uleb128 0x3f
 3756 0280 19       		.uleb128 0x19
 3757 0281 3C       		.uleb128 0x3c
 3758 0282 19       		.uleb128 0x19
 3759 0283 00       		.byte	0
 3760 0284 00       		.byte	0
 3761 0285 2F       		.uleb128 0x2f
 3762 0286 34       		.uleb128 0x34
 3763 0287 00       		.byte	0
 3764 0288 03       		.uleb128 0x3
 3765 0289 0E       		.uleb128 0xe
 3766 028a 3A       		.uleb128 0x3a
 3767 028b 0B       		.uleb128 0xb
 3768 028c 3B       		.uleb128 0x3b
 3769 028d 0B       		.uleb128 0xb
 3770 028e 49       		.uleb128 0x49
 3771 028f 13       		.uleb128 0x13
 3772 0290 3F       		.uleb128 0x3f
 3773 0291 19       		.uleb128 0x19
 3774 0292 02       		.uleb128 0x2
 3775 0293 18       		.uleb128 0x18
 3776 0294 00       		.byte	0
 3777 0295 00       		.byte	0
 3778 0296 30       		.uleb128 0x30
 3779 0297 2E       		.uleb128 0x2e
 3780 0298 01       		.byte	0x1
 3781 0299 3F       		.uleb128 0x3f
 3782 029a 19       		.uleb128 0x19
 3783 029b 03       		.uleb128 0x3
 3784 029c 0E       		.uleb128 0xe
 3785 029d 3A       		.uleb128 0x3a
 3786 029e 0B       		.uleb128 0xb
 3787 029f 3B       		.uleb128 0x3b
 3788 02a0 0B       		.uleb128 0xb
 3789 02a1 27       		.uleb128 0x27
ARM GAS  C:\Users\Alan\AppData\Local\Temp\ccbGKewn.s 			page 99


 3790 02a2 19       		.uleb128 0x19
 3791 02a3 3C       		.uleb128 0x3c
 3792 02a4 19       		.uleb128 0x19
 3793 02a5 01       		.uleb128 0x1
 3794 02a6 13       		.uleb128 0x13
 3795 02a7 00       		.byte	0
 3796 02a8 00       		.byte	0
 3797 02a9 31       		.uleb128 0x31
 3798 02aa 05       		.uleb128 0x5
 3799 02ab 00       		.byte	0
 3800 02ac 49       		.uleb128 0x49
 3801 02ad 13       		.uleb128 0x13
 3802 02ae 00       		.byte	0
 3803 02af 00       		.byte	0
 3804 02b0 32       		.uleb128 0x32
 3805 02b1 2E       		.uleb128 0x2e
 3806 02b2 00       		.byte	0
 3807 02b3 3F       		.uleb128 0x3f
 3808 02b4 19       		.uleb128 0x19
 3809 02b5 03       		.uleb128 0x3
 3810 02b6 0E       		.uleb128 0xe
 3811 02b7 3A       		.uleb128 0x3a
 3812 02b8 0B       		.uleb128 0xb
 3813 02b9 3B       		.uleb128 0x3b
 3814 02ba 0B       		.uleb128 0xb
 3815 02bb 27       		.uleb128 0x27
 3816 02bc 19       		.uleb128 0x19
 3817 02bd 49       		.uleb128 0x49
 3818 02be 13       		.uleb128 0x13
 3819 02bf 3C       		.uleb128 0x3c
 3820 02c0 19       		.uleb128 0x19
 3821 02c1 00       		.byte	0
 3822 02c2 00       		.byte	0
 3823 02c3 33       		.uleb128 0x33
 3824 02c4 2E       		.uleb128 0x2e
 3825 02c5 01       		.byte	0x1
 3826 02c6 3F       		.uleb128 0x3f
 3827 02c7 19       		.uleb128 0x19
 3828 02c8 03       		.uleb128 0x3
 3829 02c9 0E       		.uleb128 0xe
 3830 02ca 3A       		.uleb128 0x3a
 3831 02cb 0B       		.uleb128 0xb
 3832 02cc 3B       		.uleb128 0x3b
 3833 02cd 0B       		.uleb128 0xb
 3834 02ce 27       		.uleb128 0x27
 3835 02cf 19       		.uleb128 0x19
 3836 02d0 49       		.uleb128 0x49
 3837 02d1 13       		.uleb128 0x13
 3838 02d2 3C       		.uleb128 0x3c
 3839 02d3 19       		.uleb128 0x19
 3840 02d4 01       		.uleb128 0x1
 3841 02d5 13       		.uleb128 0x13
 3842 02d6 00       		.byte	0
 3843 02d7 00       		.byte	0
 3844 02d8 34       		.uleb128 0x34
 3845 02d9 2E       		.uleb128 0x2e
 3846 02da 00       		.byte	0
ARM GAS  C:\Users\Alan\AppData\Local\Temp\ccbGKewn.s 			page 100


 3847 02db 3F       		.uleb128 0x3f
 3848 02dc 19       		.uleb128 0x19
 3849 02dd 03       		.uleb128 0x3
 3850 02de 0E       		.uleb128 0xe
 3851 02df 3A       		.uleb128 0x3a
 3852 02e0 0B       		.uleb128 0xb
 3853 02e1 3B       		.uleb128 0x3b
 3854 02e2 0B       		.uleb128 0xb
 3855 02e3 27       		.uleb128 0x27
 3856 02e4 19       		.uleb128 0x19
 3857 02e5 3C       		.uleb128 0x3c
 3858 02e6 19       		.uleb128 0x19
 3859 02e7 00       		.byte	0
 3860 02e8 00       		.byte	0
 3861 02e9 00       		.byte	0
 3862              		.section	.debug_loc,"",%progbits
 3863              	.Ldebug_loc0:
 3864              	.LLST0:
 3865 0000 08000000 		.4byte	.LVL1
 3866 0004 40000000 		.4byte	.LFE7
 3867 0008 0100     		.2byte	0x1
 3868 000a 53       		.byte	0x53
 3869 000b 00000000 		.4byte	0
 3870 000f 00000000 		.4byte	0
 3871              	.LLST1:
 3872 0013 02000000 		.4byte	.LVL0
 3873 0017 08000000 		.4byte	.LVL1
 3874 001b 0200     		.2byte	0x2
 3875 001d 30       		.byte	0x30
 3876 001e 9F       		.byte	0x9f
 3877 001f 08000000 		.4byte	.LVL1
 3878 0023 40000000 		.4byte	.LFE7
 3879 0027 0100     		.2byte	0x1
 3880 0029 50       		.byte	0x50
 3881 002a 00000000 		.4byte	0
 3882 002e 00000000 		.4byte	0
 3883              	.LLST2:
 3884 0032 0C000000 		.4byte	.LVL2
 3885 0036 1E000000 		.4byte	.LVL5
 3886 003a 0100     		.2byte	0x1
 3887 003c 52       		.byte	0x52
 3888 003d 20000000 		.4byte	.LVL6
 3889 0041 26000000 		.4byte	.LVL7
 3890 0045 0100     		.2byte	0x1
 3891 0047 51       		.byte	0x51
 3892 0048 26000000 		.4byte	.LVL7
 3893 004c 36000000 		.4byte	.LVL11
 3894 0050 0100     		.2byte	0x1
 3895 0052 52       		.byte	0x52
 3896 0053 00000000 		.4byte	0
 3897 0057 00000000 		.4byte	0
 3898              	.LLST3:
 3899 005b 0E000000 		.4byte	.LVL12
 3900 005f 12000000 		.4byte	.LVL13
 3901 0063 0600     		.2byte	0x6
 3902 0065 73       		.byte	0x73
 3903 0066 00       		.sleb128 0
ARM GAS  C:\Users\Alan\AppData\Local\Temp\ccbGKewn.s 			page 101


 3904 0067 08       		.byte	0x8
 3905 0068 FF       		.byte	0xff
 3906 0069 1A       		.byte	0x1a
 3907 006a 9F       		.byte	0x9f
 3908 006b 12000000 		.4byte	.LVL13
 3909 006f 1A000000 		.4byte	.LVL14
 3910 0073 0100     		.2byte	0x1
 3911 0075 53       		.byte	0x53
 3912 0076 1A000000 		.4byte	.LVL14
 3913 007a 1C000000 		.4byte	.LVL15
 3914 007e 0500     		.2byte	0x5
 3915 0080 0C       		.byte	0xc
 3916 0081 C0010B40 		.4byte	0x400b01c0
 3917 0085 00000000 		.4byte	0
 3918 0089 00000000 		.4byte	0
 3919              	.LLST4:
 3920 008d 96000000 		.4byte	.LVL21
 3921 0091 9A000000 		.4byte	.LVL22
 3922 0095 0100     		.2byte	0x1
 3923 0097 53       		.byte	0x53
 3924 0098 00000000 		.4byte	0
 3925 009c 00000000 		.4byte	0
 3926              	.LLST5:
 3927 00a0 52000000 		.4byte	.LVL16
 3928 00a4 58000000 		.4byte	.LVL17
 3929 00a8 0400     		.2byte	0x4
 3930 00aa 0A       		.byte	0xa
 3931 00ab E001     		.2byte	0x1e0
 3932 00ad 9F       		.byte	0x9f
 3933 00ae 58000000 		.4byte	.LVL17
 3934 00b2 68000000 		.4byte	.LVL19
 3935 00b6 0100     		.2byte	0x1
 3936 00b8 53       		.byte	0x53
 3937 00b9 00000000 		.4byte	0
 3938 00bd 00000000 		.4byte	0
 3939              	.LLST6:
 3940 00c1 80000000 		.4byte	.LVL20
 3941 00c5 B4000000 		.4byte	.LVL23
 3942 00c9 0100     		.2byte	0x1
 3943 00cb 50       		.byte	0x50
 3944 00cc 00000000 		.4byte	0
 3945 00d0 00000000 		.4byte	0
 3946              	.LLST7:
 3947 00d4 A4000000 		.4byte	.LVL35
 3948 00d8 B1000000 		.4byte	.LVL39-1
 3949 00dc 0100     		.2byte	0x1
 3950 00de 50       		.byte	0x50
 3951 00df B6000000 		.4byte	.LVL40
 3952 00e3 C1000000 		.4byte	.LVL44-1
 3953 00e7 0100     		.2byte	0x1
 3954 00e9 50       		.byte	0x50
 3955 00ea C6000000 		.4byte	.LVL45
 3956 00ee D9000000 		.4byte	.LVL49-1
 3957 00f2 0100     		.2byte	0x1
 3958 00f4 50       		.byte	0x50
 3959 00f5 DE000000 		.4byte	.LVL50
 3960 00f9 EF000000 		.4byte	.LVL54-1
ARM GAS  C:\Users\Alan\AppData\Local\Temp\ccbGKewn.s 			page 102


 3961 00fd 0100     		.2byte	0x1
 3962 00ff 50       		.byte	0x50
 3963 0100 00000000 		.4byte	0
 3964 0104 00000000 		.4byte	0
 3965              	.LLST8:
 3966 0108 54000000 		.4byte	.LVL27
 3967 010c 60000000 		.4byte	.LVL29
 3968 0110 0100     		.2byte	0x1
 3969 0112 52       		.byte	0x52
 3970 0113 60000000 		.4byte	.LVL29
 3971 0117 62000000 		.4byte	.LVL30
 3972 011b 0500     		.2byte	0x5
 3973 011d 0C       		.byte	0xc
 3974 011e 94020B40 		.4byte	0x400b0294
 3975 0122 6E000000 		.4byte	.LVL31
 3976 0126 78000000 		.4byte	.LVL33
 3977 012a 0100     		.2byte	0x1
 3978 012c 52       		.byte	0x52
 3979 012d 78000000 		.4byte	.LVL33
 3980 0131 7A000000 		.4byte	.LVL34
 3981 0135 0200     		.2byte	0x2
 3982 0137 71       		.byte	0x71
 3983 0138 00       		.sleb128 0
 3984 0139 A8000000 		.4byte	.LVL36
 3985 013d AA000000 		.4byte	.LVL37
 3986 0141 0100     		.2byte	0x1
 3987 0143 53       		.byte	0x53
 3988 0144 AC000000 		.4byte	.LVL38
 3989 0148 B1000000 		.4byte	.LVL39-1
 3990 014c 0100     		.2byte	0x1
 3991 014e 53       		.byte	0x53
 3992 014f B8000000 		.4byte	.LVL41
 3993 0153 BA000000 		.4byte	.LVL42
 3994 0157 0100     		.2byte	0x1
 3995 0159 53       		.byte	0x53
 3996 015a BC000000 		.4byte	.LVL43
 3997 015e C1000000 		.4byte	.LVL44-1
 3998 0162 0100     		.2byte	0x1
 3999 0164 53       		.byte	0x53
 4000 0165 CA000000 		.4byte	.LVL46
 4001 0169 CE000000 		.4byte	.LVL47
 4002 016d 0100     		.2byte	0x1
 4003 016f 52       		.byte	0x52
 4004 0170 CE000000 		.4byte	.LVL47
 4005 0174 D9000000 		.4byte	.LVL49-1
 4006 0178 0100     		.2byte	0x1
 4007 017a 53       		.byte	0x53
 4008 017b E0000000 		.4byte	.LVL51
 4009 017f E4000000 		.4byte	.LVL52
 4010 0183 0100     		.2byte	0x1
 4011 0185 52       		.byte	0x52
 4012 0186 E4000000 		.4byte	.LVL52
 4013 018a EF000000 		.4byte	.LVL54-1
 4014 018e 0100     		.2byte	0x1
 4015 0190 53       		.byte	0x53
 4016 0191 00000000 		.4byte	0
 4017 0195 00000000 		.4byte	0
ARM GAS  C:\Users\Alan\AppData\Local\Temp\ccbGKewn.s 			page 103


 4018              	.LLST9:
 4019 0199 00000000 		.4byte	.LVL59
 4020 019d 22000000 		.4byte	.LVL64
 4021 01a1 0100     		.2byte	0x1
 4022 01a3 50       		.byte	0x50
 4023 01a4 22000000 		.4byte	.LVL64
 4024 01a8 AC000000 		.4byte	.LFE10
 4025 01ac 0200     		.2byte	0x2
 4026 01ae 91       		.byte	0x91
 4027 01af 64       		.sleb128 -28
 4028 01b0 00000000 		.4byte	0
 4029 01b4 00000000 		.4byte	0
 4030              	.LLST10:
 4031 01b8 00000000 		.4byte	.LVL59
 4032 01bc 36000000 		.4byte	.LVL68
 4033 01c0 0100     		.2byte	0x1
 4034 01c2 51       		.byte	0x51
 4035 01c3 36000000 		.4byte	.LVL68
 4036 01c7 AC000000 		.4byte	.LFE10
 4037 01cb 0400     		.2byte	0x4
 4038 01cd F3       		.byte	0xf3
 4039 01ce 01       		.uleb128 0x1
 4040 01cf 51       		.byte	0x51
 4041 01d0 9F       		.byte	0x9f
 4042 01d1 00000000 		.4byte	0
 4043 01d5 00000000 		.4byte	0
 4044              	.LLST11:
 4045 01d9 16000000 		.4byte	.LVL60
 4046 01dd 1A000000 		.4byte	.LVL62
 4047 01e1 0100     		.2byte	0x1
 4048 01e3 53       		.byte	0x53
 4049 01e4 1A000000 		.4byte	.LVL62
 4050 01e8 48000000 		.4byte	.LVL73
 4051 01ec 0100     		.2byte	0x1
 4052 01ee 55       		.byte	0x55
 4053 01ef 48000000 		.4byte	.LVL73
 4054 01f3 5E000000 		.4byte	.LVL77
 4055 01f7 0100     		.2byte	0x1
 4056 01f9 53       		.byte	0x53
 4057 01fa 60000000 		.4byte	.LVL78
 4058 01fe 7A000000 		.4byte	.LVL81
 4059 0202 0200     		.2byte	0x2
 4060 0204 7D       		.byte	0x7d
 4061 0205 00       		.sleb128 0
 4062 0206 7A000000 		.4byte	.LVL81
 4063 020a 96000000 		.4byte	.LVL85
 4064 020e 0100     		.2byte	0x1
 4065 0210 53       		.byte	0x53
 4066 0211 00000000 		.4byte	0
 4067 0215 00000000 		.4byte	0
 4068              	.LLST12:
 4069 0219 18000000 		.4byte	.LVL61
 4070 021d 40000000 		.4byte	.LVL71
 4071 0221 0100     		.2byte	0x1
 4072 0223 57       		.byte	0x57
 4073 0224 40000000 		.4byte	.LVL71
 4074 0228 5A000000 		.4byte	.LVL76
ARM GAS  C:\Users\Alan\AppData\Local\Temp\ccbGKewn.s 			page 104


 4075 022c 0200     		.2byte	0x2
 4076 022e 76       		.byte	0x76
 4077 022f 04       		.sleb128 4
 4078 0230 00000000 		.4byte	0
 4079 0234 00000000 		.4byte	0
 4080              	.LLST13:
 4081 0238 18000000 		.4byte	.LVL61
 4082 023c 5E000000 		.4byte	.LVL77
 4083 0240 0300     		.2byte	0x3
 4084 0242 08       		.byte	0x8
 4085 0243 40       		.byte	0x40
 4086 0244 9F       		.byte	0x9f
 4087 0245 5E000000 		.4byte	.LVL77
 4088 0249 60000000 		.4byte	.LVL78
 4089 024d 0100     		.2byte	0x1
 4090 024f 56       		.byte	0x56
 4091 0250 60000000 		.4byte	.LVL78
 4092 0254 94000000 		.4byte	.LVL84
 4093 0258 0100     		.2byte	0x1
 4094 025a 55       		.byte	0x55
 4095 025b 94000000 		.4byte	.LVL84
 4096 025f 9E000000 		.4byte	.LVL88
 4097 0263 0100     		.2byte	0x1
 4098 0265 56       		.byte	0x56
 4099 0266 00000000 		.4byte	0
 4100 026a 00000000 		.4byte	0
 4101              	.LLST14:
 4102 026e 18000000 		.4byte	.LVL61
 4103 0272 5E000000 		.4byte	.LVL77
 4104 0276 0300     		.2byte	0x3
 4105 0278 08       		.byte	0x8
 4106 0279 20       		.byte	0x20
 4107 027a 9F       		.byte	0x9f
 4108 027b 5E000000 		.4byte	.LVL77
 4109 027f 60000000 		.4byte	.LVL78
 4110 0283 0100     		.2byte	0x1
 4111 0285 53       		.byte	0x53
 4112 0286 60000000 		.4byte	.LVL78
 4113 028a 98000000 		.4byte	.LVL86
 4114 028e 0100     		.2byte	0x1
 4115 0290 56       		.byte	0x56
 4116 0291 98000000 		.4byte	.LVL86
 4117 0295 AC000000 		.4byte	.LFE10
 4118 0299 0100     		.2byte	0x1
 4119 029b 53       		.byte	0x53
 4120 029c 00000000 		.4byte	0
 4121 02a0 00000000 		.4byte	0
 4122              	.LLST15:
 4123 02a4 42000000 		.4byte	.LVL72
 4124 02a8 48000000 		.4byte	.LVL73
 4125 02ac 0200     		.2byte	0x2
 4126 02ae 30       		.byte	0x30
 4127 02af 9F       		.byte	0x9f
 4128 02b0 48000000 		.4byte	.LVL73
 4129 02b4 5E000000 		.4byte	.LVL77
 4130 02b8 0100     		.2byte	0x1
 4131 02ba 52       		.byte	0x52
ARM GAS  C:\Users\Alan\AppData\Local\Temp\ccbGKewn.s 			page 105


 4132 02bb 5E000000 		.4byte	.LVL77
 4133 02bf 60000000 		.4byte	.LVL78
 4134 02c3 0100     		.2byte	0x1
 4135 02c5 51       		.byte	0x51
 4136 02c6 7A000000 		.4byte	.LVL81
 4137 02ca AC000000 		.4byte	.LFE10
 4138 02ce 0100     		.2byte	0x1
 4139 02d0 51       		.byte	0x51
 4140 02d1 00000000 		.4byte	0
 4141 02d5 00000000 		.4byte	0
 4142              	.LLST16:
 4143 02d9 42000000 		.4byte	.LVL72
 4144 02dd 9E000000 		.4byte	.LVL89
 4145 02e1 0100     		.2byte	0x1
 4146 02e3 57       		.byte	0x57
 4147 02e4 00000000 		.4byte	0
 4148 02e8 00000000 		.4byte	0
 4149              	.LLST17:
 4150 02ec 1A000000 		.4byte	.LVL62
 4151 02f0 1E000000 		.4byte	.LVL63
 4152 02f4 0600     		.2byte	0x6
 4153 02f6 73       		.byte	0x73
 4154 02f7 00       		.sleb128 0
 4155 02f8 08       		.byte	0x8
 4156 02f9 FF       		.byte	0xff
 4157 02fa 1A       		.byte	0x1a
 4158 02fb 9F       		.byte	0x9f
 4159 02fc 1E000000 		.4byte	.LVL63
 4160 0300 24000000 		.4byte	.LVL65
 4161 0304 0800     		.2byte	0x8
 4162 0306 77       		.byte	0x77
 4163 0307 0A       		.sleb128 10
 4164 0308 94       		.byte	0x94
 4165 0309 01       		.byte	0x1
 4166 030a 08       		.byte	0x8
 4167 030b FF       		.byte	0xff
 4168 030c 1A       		.byte	0x1a
 4169 030d 9F       		.byte	0x9f
 4170 030e 32000000 		.4byte	.LVL66
 4171 0312 34000000 		.4byte	.LVL67
 4172 0316 0700     		.2byte	0x7
 4173 0318 70       		.byte	0x70
 4174 0319 00       		.sleb128 0
 4175 031a 0A       		.byte	0xa
 4176 031b FFFF     		.2byte	0xffff
 4177 031d 1A       		.byte	0x1a
 4178 031e 9F       		.byte	0x9f
 4179 031f 34000000 		.4byte	.LVL67
 4180 0323 39000000 		.4byte	.LVL69-1
 4181 0327 0100     		.2byte	0x1
 4182 0329 50       		.byte	0x50
 4183 032a 3C000000 		.4byte	.LVL70
 4184 032e 5E000000 		.4byte	.LVL77
 4185 0332 0100     		.2byte	0x1
 4186 0334 50       		.byte	0x50
 4187 0335 5E000000 		.4byte	.LVL77
 4188 0339 9E000000 		.4byte	.LVL87
ARM GAS  C:\Users\Alan\AppData\Local\Temp\ccbGKewn.s 			page 106


 4189 033d 0100     		.2byte	0x1
 4190 033f 54       		.byte	0x54
 4191 0340 00000000 		.4byte	0
 4192 0344 00000000 		.4byte	0
 4193              	.LLST18:
 4194 0348 00000000 		.4byte	.LVL90
 4195 034c 16000000 		.4byte	.LVL94
 4196 0350 0100     		.2byte	0x1
 4197 0352 50       		.byte	0x50
 4198 0353 16000000 		.4byte	.LVL94
 4199 0357 20000000 		.4byte	.LFE12
 4200 035b 0400     		.2byte	0x4
 4201 035d F3       		.byte	0xf3
 4202 035e 01       		.uleb128 0x1
 4203 035f 50       		.byte	0x50
 4204 0360 9F       		.byte	0x9f
 4205 0361 00000000 		.4byte	0
 4206 0365 00000000 		.4byte	0
 4207              	.LLST19:
 4208 0369 06000000 		.4byte	.LVL91
 4209 036d 0E000000 		.4byte	.LVL92
 4210 0371 0100     		.2byte	0x1
 4211 0373 52       		.byte	0x52
 4212 0374 0E000000 		.4byte	.LVL92
 4213 0378 14000000 		.4byte	.LVL93
 4214 037c 0100     		.2byte	0x1
 4215 037e 53       		.byte	0x53
 4216 037f 14000000 		.4byte	.LVL93
 4217 0383 1C000000 		.4byte	.LVL95
 4218 0387 0100     		.2byte	0x1
 4219 0389 52       		.byte	0x52
 4220 038a 1C000000 		.4byte	.LVL95
 4221 038e 20000000 		.4byte	.LFE12
 4222 0392 0100     		.2byte	0x1
 4223 0394 53       		.byte	0x53
 4224 0395 00000000 		.4byte	0
 4225 0399 00000000 		.4byte	0
 4226              	.LLST20:
 4227 039d 00000000 		.4byte	.LVL96
 4228 03a1 16000000 		.4byte	.LVL100
 4229 03a5 0100     		.2byte	0x1
 4230 03a7 50       		.byte	0x50
 4231 03a8 16000000 		.4byte	.LVL100
 4232 03ac 20000000 		.4byte	.LFE13
 4233 03b0 0400     		.2byte	0x4
 4234 03b2 F3       		.byte	0xf3
 4235 03b3 01       		.uleb128 0x1
 4236 03b4 50       		.byte	0x50
 4237 03b5 9F       		.byte	0x9f
 4238 03b6 00000000 		.4byte	0
 4239 03ba 00000000 		.4byte	0
 4240              	.LLST21:
 4241 03be 06000000 		.4byte	.LVL97
 4242 03c2 14000000 		.4byte	.LVL99
 4243 03c6 0100     		.2byte	0x1
 4244 03c8 53       		.byte	0x53
 4245 03c9 14000000 		.4byte	.LVL99
ARM GAS  C:\Users\Alan\AppData\Local\Temp\ccbGKewn.s 			page 107


 4246 03cd 1C000000 		.4byte	.LVL101
 4247 03d1 0100     		.2byte	0x1
 4248 03d3 52       		.byte	0x52
 4249 03d4 1C000000 		.4byte	.LVL101
 4250 03d8 20000000 		.4byte	.LFE13
 4251 03dc 0100     		.2byte	0x1
 4252 03de 53       		.byte	0x53
 4253 03df 00000000 		.4byte	0
 4254 03e3 00000000 		.4byte	0
 4255              	.LLST22:
 4256 03e7 06000000 		.4byte	.LVL109
 4257 03eb 18000000 		.4byte	.LVL112
 4258 03ef 0100     		.2byte	0x1
 4259 03f1 53       		.byte	0x53
 4260 03f2 1A000000 		.4byte	.LVL113
 4261 03f6 20000000 		.4byte	.LVL114
 4262 03fa 0100     		.2byte	0x1
 4263 03fc 52       		.byte	0x52
 4264 03fd 20000000 		.4byte	.LVL114
 4265 0401 2E000000 		.4byte	.LFE15
 4266 0405 0100     		.2byte	0x1
 4267 0407 53       		.byte	0x53
 4268 0408 00000000 		.4byte	0
 4269 040c 00000000 		.4byte	0
 4270              	.LLST23:
 4271 0410 00000000 		.4byte	.LVL128
 4272 0414 07000000 		.4byte	.LVL129-1
 4273 0418 0100     		.2byte	0x1
 4274 041a 50       		.byte	0x50
 4275 041b 07000000 		.4byte	.LVL129-1
 4276 041f 28000000 		.4byte	.LVL132
 4277 0423 0100     		.2byte	0x1
 4278 0425 54       		.byte	0x54
 4279 0426 28000000 		.4byte	.LVL132
 4280 042a 80000000 		.4byte	.LFE3
 4281 042e 0400     		.2byte	0x4
 4282 0430 F3       		.byte	0xf3
 4283 0431 01       		.uleb128 0x1
 4284 0432 50       		.byte	0x50
 4285 0433 9F       		.byte	0x9f
 4286 0434 00000000 		.4byte	0
 4287 0438 00000000 		.4byte	0
 4288              	.LLST24:
 4289 043c 5A000000 		.4byte	.LVL139
 4290 0440 60000000 		.4byte	.LVL140
 4291 0444 0100     		.2byte	0x1
 4292 0446 53       		.byte	0x53
 4293 0447 60000000 		.4byte	.LVL140
 4294 044b 65000000 		.4byte	.LVL142-1
 4295 044f 0200     		.2byte	0x2
 4296 0451 72       		.byte	0x72
 4297 0452 00       		.sleb128 0
 4298 0453 00000000 		.4byte	0
 4299 0457 00000000 		.4byte	0
 4300              	.LLST25:
 4301 045b 1A000000 		.4byte	.LVL131
 4302 045f 52000000 		.4byte	.LVL135
ARM GAS  C:\Users\Alan\AppData\Local\Temp\ccbGKewn.s 			page 108


 4303 0463 0100     		.2byte	0x1
 4304 0465 53       		.byte	0x53
 4305 0466 52000000 		.4byte	.LVL135
 4306 046a 54000000 		.4byte	.LVL136
 4307 046e 0300     		.2byte	0x3
 4308 0470 73       		.byte	0x73
 4309 0471 01       		.sleb128 1
 4310 0472 9F       		.byte	0x9f
 4311 0473 56000000 		.4byte	.LVL137
 4312 0477 5A000000 		.4byte	.LVL139
 4313 047b 0100     		.2byte	0x1
 4314 047d 53       		.byte	0x53
 4315 047e 00000000 		.4byte	0
 4316 0482 00000000 		.4byte	0
 4317              	.LLST26:
 4318 0486 18000000 		.4byte	.LVL130
 4319 048a 62000000 		.4byte	.LVL141
 4320 048e 0100     		.2byte	0x1
 4321 0490 50       		.byte	0x50
 4322 0491 00000000 		.4byte	0
 4323 0495 00000000 		.4byte	0
 4324              	.LLST27:
 4325 0499 36000000 		.4byte	.LVL133
 4326 049d 52000000 		.4byte	.LVL135
 4327 04a1 0100     		.2byte	0x1
 4328 04a3 53       		.byte	0x53
 4329 04a4 52000000 		.4byte	.LVL135
 4330 04a8 54000000 		.4byte	.LVL136
 4331 04ac 0300     		.2byte	0x3
 4332 04ae 73       		.byte	0x73
 4333 04af 01       		.sleb128 1
 4334 04b0 9F       		.byte	0x9f
 4335 04b1 00000000 		.4byte	0
 4336 04b5 00000000 		.4byte	0
 4337              	.LLST28:
 4338 04b9 50000000 		.4byte	.LVL134
 4339 04bd 58000000 		.4byte	.LVL138
 4340 04c1 0100     		.2byte	0x1
 4341 04c3 52       		.byte	0x52
 4342 04c4 00000000 		.4byte	0
 4343 04c8 00000000 		.4byte	0
 4344              	.LLST29:
 4345 04cc 00000000 		.4byte	.LVL143
 4346 04d0 07000000 		.4byte	.LVL144-1
 4347 04d4 0100     		.2byte	0x1
 4348 04d6 50       		.byte	0x50
 4349 04d7 07000000 		.4byte	.LVL144-1
 4350 04db 78000000 		.4byte	.LFE4
 4351 04df 0400     		.2byte	0x4
 4352 04e1 F3       		.byte	0xf3
 4353 04e2 01       		.uleb128 0x1
 4354 04e3 50       		.byte	0x50
 4355 04e4 9F       		.byte	0x9f
 4356 04e5 00000000 		.4byte	0
 4357 04e9 00000000 		.4byte	0
 4358              	.LLST30:
 4359 04ed 00000000 		.4byte	.LVL143
ARM GAS  C:\Users\Alan\AppData\Local\Temp\ccbGKewn.s 			page 109


 4360 04f1 07000000 		.4byte	.LVL144-1
 4361 04f5 0100     		.2byte	0x1
 4362 04f7 51       		.byte	0x51
 4363 04f8 07000000 		.4byte	.LVL144-1
 4364 04fc 34000000 		.4byte	.LVL149
 4365 0500 0100     		.2byte	0x1
 4366 0502 54       		.byte	0x54
 4367 0503 34000000 		.4byte	.LVL149
 4368 0507 78000000 		.4byte	.LFE4
 4369 050b 0400     		.2byte	0x4
 4370 050d F3       		.byte	0xf3
 4371 050e 01       		.uleb128 0x1
 4372 050f 51       		.byte	0x51
 4373 0510 9F       		.byte	0x9f
 4374 0511 00000000 		.4byte	0
 4375 0515 00000000 		.4byte	0
 4376              	.LLST31:
 4377 0519 30000000 		.4byte	.LVL148
 4378 051d 51000000 		.4byte	.LVL150-1
 4379 0521 0100     		.2byte	0x1
 4380 0523 51       		.byte	0x51
 4381 0524 00000000 		.4byte	0
 4382 0528 00000000 		.4byte	0
 4383              	.LLST32:
 4384 052c 28000000 		.4byte	.LVL146
 4385 0530 2A000000 		.4byte	.LVL147
 4386 0534 0100     		.2byte	0x1
 4387 0536 50       		.byte	0x50
 4388 0537 2A000000 		.4byte	.LVL147
 4389 053b 62000000 		.4byte	.LVL152
 4390 053f 0100     		.2byte	0x1
 4391 0541 56       		.byte	0x56
 4392 0542 00000000 		.4byte	0
 4393 0546 00000000 		.4byte	0
 4394              		.section	.debug_aranges,"",%progbits
 4395 0000 94000000 		.4byte	0x94
 4396 0004 0200     		.2byte	0x2
 4397 0006 00000000 		.4byte	.Ldebug_info0
 4398 000a 04       		.byte	0x4
 4399 000b 00       		.byte	0
 4400 000c 0000     		.2byte	0
 4401 000e 0000     		.2byte	0
 4402 0010 00000000 		.4byte	.LFB7
 4403 0014 40000000 		.4byte	.LFE7-.LFB7
 4404 0018 00000000 		.4byte	.LFB9
 4405 001c 38000000 		.4byte	.LFE9-.LFB9
 4406 0020 00000000 		.4byte	.LFB11
 4407 0024 38010000 		.4byte	.LFE11-.LFB11
 4408 0028 00000000 		.4byte	.LFB16
 4409 002c 7C000000 		.4byte	.LFE16-.LFB16
 4410 0030 00000000 		.4byte	.LFB1
 4411 0034 90010000 		.4byte	.LFE1-.LFB1
 4412 0038 00000000 		.4byte	.LFB6
 4413 003c 18000000 		.4byte	.LFE6-.LFB6
 4414 0040 00000000 		.4byte	.LFB10
 4415 0044 AC000000 		.4byte	.LFE10-.LFB10
 4416 0048 00000000 		.4byte	.LFB12
ARM GAS  C:\Users\Alan\AppData\Local\Temp\ccbGKewn.s 			page 110


 4417 004c 20000000 		.4byte	.LFE12-.LFB12
 4418 0050 00000000 		.4byte	.LFB13
 4419 0054 20000000 		.4byte	.LFE13-.LFB13
 4420 0058 00000000 		.4byte	.LFB5
 4421 005c 5C000000 		.4byte	.LFE5-.LFB5
 4422 0060 00000000 		.4byte	.LFB14
 4423 0064 0C000000 		.4byte	.LFE14-.LFB14
 4424 0068 00000000 		.4byte	.LFB15
 4425 006c 2E000000 		.4byte	.LFE15-.LFB15
 4426 0070 00000000 		.4byte	.LFB8
 4427 0074 CC000000 		.4byte	.LFE8-.LFB8
 4428 0078 00000000 		.4byte	.LFB2
 4429 007c 24000000 		.4byte	.LFE2-.LFB2
 4430 0080 00000000 		.4byte	.LFB3
 4431 0084 80000000 		.4byte	.LFE3-.LFB3
 4432 0088 00000000 		.4byte	.LFB4
 4433 008c 78000000 		.4byte	.LFE4-.LFB4
 4434 0090 00000000 		.4byte	0
 4435 0094 00000000 		.4byte	0
 4436              		.section	.debug_ranges,"",%progbits
 4437              	.Ldebug_ranges0:
 4438 0000 00000000 		.4byte	.LFB7
 4439 0004 40000000 		.4byte	.LFE7
 4440 0008 00000000 		.4byte	.LFB9
 4441 000c 38000000 		.4byte	.LFE9
 4442 0010 00000000 		.4byte	.LFB11
 4443 0014 38010000 		.4byte	.LFE11
 4444 0018 00000000 		.4byte	.LFB16
 4445 001c 7C000000 		.4byte	.LFE16
 4446 0020 00000000 		.4byte	.LFB1
 4447 0024 90010000 		.4byte	.LFE1
 4448 0028 00000000 		.4byte	.LFB6
 4449 002c 18000000 		.4byte	.LFE6
 4450 0030 00000000 		.4byte	.LFB10
 4451 0034 AC000000 		.4byte	.LFE10
 4452 0038 00000000 		.4byte	.LFB12
 4453 003c 20000000 		.4byte	.LFE12
 4454 0040 00000000 		.4byte	.LFB13
 4455 0044 20000000 		.4byte	.LFE13
 4456 0048 00000000 		.4byte	.LFB5
 4457 004c 5C000000 		.4byte	.LFE5
 4458 0050 00000000 		.4byte	.LFB14
 4459 0054 0C000000 		.4byte	.LFE14
 4460 0058 00000000 		.4byte	.LFB15
 4461 005c 2E000000 		.4byte	.LFE15
 4462 0060 00000000 		.4byte	.LFB8
 4463 0064 CC000000 		.4byte	.LFE8
 4464 0068 00000000 		.4byte	.LFB2
 4465 006c 24000000 		.4byte	.LFE2
 4466 0070 00000000 		.4byte	.LFB3
 4467 0074 80000000 		.4byte	.LFE3
 4468 0078 00000000 		.4byte	.LFB4
 4469 007c 78000000 		.4byte	.LFE4
 4470 0080 00000000 		.4byte	0
 4471 0084 00000000 		.4byte	0
 4472              		.section	.debug_line,"",%progbits
 4473              	.Ldebug_line0:
ARM GAS  C:\Users\Alan\AppData\Local\Temp\ccbGKewn.s 			page 111


 4474 0000 7B030000 		.section	.debug_str,"MS",%progbits,1
 4474      0200C100 
 4474      00000201 
 4474      FB0E0D00 
 4474      01010101 
 4475              	.LASF56:
 4476 0000 6D6F6443 		.ascii	"modCsxClk\000"
 4476      7378436C 
 4476      6B00
 4477              	.LASF10:
 4478 000a 75696E74 		.ascii	"uint16\000"
 4478      313600
 4479              	.LASF90:
 4480 0011 72657456 		.ascii	"retVal\000"
 4480      616C00
 4481              	.LASF148:
 4482 0018 43794578 		.ascii	"CyExitCriticalSection\000"
 4482      69744372 
 4482      69746963 
 4482      616C5365 
 4482      6374696F 
 4483              	.LASF124:
 4484 002e 63757252 		.ascii	"curRamWdgtBasePtr\000"
 4484      616D5764 
 4484      67744261 
 4484      73655074 
 4484      7200
 4485              	.LASF103:
 4486 0040 43617053 		.ascii	"CapSense_CSXCalibrateWidget\000"
 4486      656E7365 
 4486      5F435358 
 4486      43616C69 
 4486      62726174 
 4487              	.LASF157:
 4488 005c 636F6E76 		.ascii	"convCyclesNum\000"
 4488      4379636C 
 4488      65734E75 
 4488      6D00
 4489              	.LASF158:
 4490 006a 43617053 		.ascii	"CapSense_SsCSXPostSingleScan\000"
 4490      656E7365 
 4490      5F537343 
 4490      5358506F 
 4490      73745369 
 4491              	.LASF84:
 4492 0087 43617053 		.ascii	"CapSense_FLASH_WD_STRUCT\000"
 4492      656E7365 
 4492      5F464C41 
 4492      53485F57 
 4492      445F5354 
 4493              	.LASF132:
 4494 00a0 43617053 		.ascii	"CapSense_curWdgtTotalRx\000"
 4494      656E7365 
 4494      5F637572 
 4494      57646774 
 4494      546F7461 
 4495              	.LASF127:
ARM GAS  C:\Users\Alan\AppData\Local\Temp\ccbGKewn.s 			page 112


 4496 00b8 736E7349 		.ascii	"snsIndex\000"
 4496      6E646578 
 4496      00
 4497              	.LASF23:
 4498 00c1 43617053 		.ascii	"CapSense_SENSE_METHOD_CSX_E\000"
 4498      656E7365 
 4498      5F53454E 
 4498      53455F4D 
 4498      4554484F 
 4499              	.LASF134:
 4500 00dd 43617053 		.ascii	"CapSense_eleCsxDisconnectFlag\000"
 4500      656E7365 
 4500      5F656C65 
 4500      43737844 
 4500      6973636F 
 4501              	.LASF45:
 4502 00fb 43617053 		.ascii	"CapSense_RAM_SNS_STRUCT\000"
 4502      656E7365 
 4502      5F52414D 
 4502      5F534E53 
 4502      5F535452 
 4503              	.LASF7:
 4504 0113 6C6F6E67 		.ascii	"long long unsigned int\000"
 4504      206C6F6E 
 4504      6720756E 
 4504      7369676E 
 4504      65642069 
 4505              	.LASF74:
 4506 012a 70747232 		.ascii	"ptr2SnsFlash\000"
 4506      536E7346 
 4506      6C617368 
 4506      00
 4507              	.LASF88:
 4508 0137 6C6F6F70 		.ascii	"loopIndex\000"
 4508      496E6465 
 4508      7800
 4509              	.LASF43:
 4510 0141 64696666 		.ascii	"diff\000"
 4510      00
 4511              	.LASF20:
 4512 0146 43617053 		.ascii	"CapSense_LOW_BSLN_RST_TYPE\000"
 4512      656E7365 
 4512      5F4C4F57 
 4512      5F42534C 
 4512      4E5F5253 
 4513              	.LASF125:
 4514 0161 43617053 		.ascii	"CapSense_CSXSetupWidget\000"
 4514      656E7365 
 4514      5F435358 
 4514      53657475 
 4514      70576964 
 4515              	.LASF64:
 4516 0179 6873696F 		.ascii	"hsiomPtr\000"
 4516      6D507472 
 4516      00
 4517              	.LASF60:
 4518 0182 736E7254 		.ascii	"snrTestSensorId\000"
ARM GAS  C:\Users\Alan\AppData\Local\Temp\ccbGKewn.s 			page 113


 4518      65737453 
 4518      656E736F 
 4518      72496400 
 4519              	.LASF136:
 4520 0192 43617053 		.ascii	"CapSense_dsFlash\000"
 4520      656E7365 
 4520      5F647346 
 4520      6C617368 
 4520      00
 4521              	.LASF19:
 4522 01a3 43617053 		.ascii	"CapSense_THRESHOLD_TYPE\000"
 4522      656E7365 
 4522      5F544852 
 4522      4553484F 
 4522      4C445F54 
 4523              	.LASF98:
 4524 01bb 43617053 		.ascii	"CapSense_CSXV2HwInit\000"
 4524      656E7365 
 4524      5F435358 
 4524      56324877 
 4524      496E6974 
 4525              	.LASF156:
 4526 01d0 43617053 		.ascii	"CapSense_SsCsxCalcLfsrSize\000"
 4526      656E7365 
 4526      5F537343 
 4526      73784361 
 4526      6C634C66 
 4527              	.LASF120:
 4528 01eb 43617053 		.ascii	"CapSense_SsCSXPostMultiScan\000"
 4528      656E7365 
 4528      5F537343 
 4528      5358506F 
 4528      73744D75 
 4529              	.LASF6:
 4530 0207 6C6F6E67 		.ascii	"long long int\000"
 4530      206C6F6E 
 4530      6720696E 
 4530      7400
 4531              	.LASF0:
 4532 0215 7369676E 		.ascii	"signed char\000"
 4532      65642063 
 4532      68617200 
 4533              	.LASF58:
 4534 0221 736E734C 		.ascii	"snsList\000"
 4534      69737400 
 4535              	.LASF36:
 4536 0229 62757474 		.ascii	"button0\000"
 4536      6F6E3000 
 4537              	.LASF37:
 4538 0231 62757474 		.ascii	"button1\000"
 4538      6F6E3100 
 4539              	.LASF38:
 4540 0239 62757474 		.ascii	"button2\000"
 4540      6F6E3200 
 4541              	.LASF118:
 4542 0241 43617053 		.ascii	"CapSense_CSXDisconnectTx\000"
 4542      656E7365 
ARM GAS  C:\Users\Alan\AppData\Local\Temp\ccbGKewn.s 			page 114


 4542      5F435358 
 4542      44697363 
 4542      6F6E6E65 
 4543              	.LASF54:
 4544 025a 736E7353 		.ascii	"snsStatus\000"
 4544      74617475 
 4544      7300
 4545              	.LASF4:
 4546 0264 6C6F6E67 		.ascii	"long int\000"
 4546      20696E74 
 4546      00
 4547              	.LASF146:
 4548 026d 4379496E 		.ascii	"CyIntDisable\000"
 4548      74446973 
 4548      61626C65 
 4548      00
 4549              	.LASF104:
 4550 027a 77696467 		.ascii	"widgetIndex\000"
 4550      6574496E 
 4550      64657800 
 4551              	.LASF76:
 4552 0286 70747232 		.ascii	"ptr2SnsRam\000"
 4552      536E7352 
 4552      616D00
 4553              	.LASF67:
 4554 0291 70735074 		.ascii	"psPtr\000"
 4554      7200
 4555              	.LASF100:
 4556 0297 43617053 		.ascii	"CapSense_SsCSXScanISR\000"
 4556      656E7365 
 4556      5F537343 
 4556      53585363 
 4556      616E4953 
 4557              	.LASF9:
 4558 02ad 75696E74 		.ascii	"uint8\000"
 4558      3800
 4559              	.LASF109:
 4560 02b3 6E657874 		.ascii	"nextIdacMask\000"
 4560      49646163 
 4560      4D61736B 
 4560      00
 4561              	.LASF13:
 4562 02c0 646F7562 		.ascii	"double\000"
 4562      6C6500
 4563              	.LASF126:
 4564 02c7 43617053 		.ascii	"CapSense_CSXSetupWidgetExt\000"
 4564      656E7365 
 4564      5F435358 
 4564      53657475 
 4564      70576964 
 4565              	.LASF24:
 4566 02e2 43617053 		.ascii	"CapSense_SENSE_METHOD_ENUM\000"
 4566      656E7365 
 4566      5F53454E 
 4566      53455F4D 
 4566      4554484F 
 4567              	.LASF62:
ARM GAS  C:\Users\Alan\AppData\Local\Temp\ccbGKewn.s 			page 115


 4568 02fd 736E7254 		.ascii	"snrTestRawCount\000"
 4568      65737452 
 4568      6177436F 
 4568      756E7400 
 4569              	.LASF87:
 4570 030d 696F5074 		.ascii	"ioPtr\000"
 4570      7200
 4571              	.LASF72:
 4572 0313 73686966 		.ascii	"shift\000"
 4572      7400
 4573              	.LASF111:
 4574 0319 746F7461 		.ascii	"totalSns\000"
 4574      6C536E73 
 4574      00
 4575              	.LASF143:
 4576 0322 43617053 		.ascii	"CapSense_requestScanAllWidget\000"
 4576      656E7365 
 4576      5F726571 
 4576      75657374 
 4576      5363616E 
 4577              	.LASF71:
 4578 0340 64725368 		.ascii	"drShift\000"
 4578      69667400 
 4579              	.LASF11:
 4580 0348 75696E74 		.ascii	"uint32\000"
 4580      333200
 4581              	.LASF29:
 4582 034f 68797374 		.ascii	"hysteresis\000"
 4582      65726573 
 4582      697300
 4583              	.LASF139:
 4584 035a 43617053 		.ascii	"CapSense_csxRawCount\000"
 4584      656E7365 
 4584      5F637378 
 4584      52617743 
 4584      6F756E74 
 4585              	.LASF69:
 4586 036f 6D61736B 		.ascii	"mask\000"
 4586      00
 4587              	.LASF112:
 4588 0374 72617754 		.ascii	"rawTarget\000"
 4588      61726765 
 4588      7400
 4589              	.LASF89:
 4590 037e 72656756 		.ascii	"regValue\000"
 4590      616C7565 
 4590      00
 4591              	.LASF41:
 4592 0387 62736C6E 		.ascii	"bslnExt\000"
 4592      45787400 
 4593              	.LASF83:
 4594 038f 6E756D52 		.ascii	"numRows\000"
 4594      6F777300 
 4595              	.LASF53:
 4596 0397 77646774 		.ascii	"wdgtStatus\000"
 4596      53746174 
 4596      757300
ARM GAS  C:\Users\Alan\AppData\Local\Temp\ccbGKewn.s 			page 116


 4597              	.LASF133:
 4598 03a2 43617053 		.ascii	"CapSense_curWdgtTotalTx\000"
 4598      656E7365 
 4598      5F637572 
 4598      57646774 
 4598      546F7461 
 4599              	.LASF40:
 4600 03ba 62736C6E 		.ascii	"bsln\000"
 4600      00
 4601              	.LASF8:
 4602 03bf 756E7369 		.ascii	"unsigned int\000"
 4602      676E6564 
 4602      20696E74 
 4602      00
 4603              	.LASF142:
 4604 03cc 43617053 		.ascii	"CapSense_scanFreqIndex\000"
 4604      656E7365 
 4604      5F736361 
 4604      6E467265 
 4604      71496E64 
 4605              	.LASF59:
 4606 03e3 736E7254 		.ascii	"snrTestWidgetId\000"
 4606      65737457 
 4606      69646765 
 4606      74496400 
 4607              	.LASF116:
 4608 03f3 72785074 		.ascii	"rxPtr\000"
 4608      7200
 4609              	.LASF94:
 4610 03f9 43617053 		.ascii	"CapSense_SsSetIOsInDefaultState\000"
 4610      656E7365 
 4610      5F537353 
 4610      6574494F 
 4610      73496E44 
 4611              	.LASF5:
 4612 0419 6C6F6E67 		.ascii	"long unsigned int\000"
 4612      20756E73 
 4612      69676E65 
 4612      6420696E 
 4612      7400
 4613              	.LASF131:
 4614 042b 43617053 		.ascii	"CapSense_curRxIOPtr\000"
 4614      656E7365 
 4614      5F637572 
 4614      5278494F 
 4614      50747200 
 4615              	.LASF52:
 4616 043f 77646774 		.ascii	"wdgtEnable\000"
 4616      456E6162 
 4616      6C6500
 4617              	.LASF96:
 4618 044a 746D7052 		.ascii	"tmpRegVal\000"
 4618      65675661 
 4618      6C00
 4619              	.LASF147:
 4620 0454 4379496E 		.ascii	"CyIntEnable\000"
 4620      74456E61 
ARM GAS  C:\Users\Alan\AppData\Local\Temp\ccbGKewn.s 			page 117


 4620      626C6500 
 4621              	.LASF151:
 4622 0460 4379456E 		.ascii	"CyEnterCriticalSection\000"
 4622      74657243 
 4622      72697469 
 4622      63616C53 
 4622      65637469 
 4623              	.LASF31:
 4624 0477 6C6F7742 		.ascii	"lowBslnRst\000"
 4624      736C6E52 
 4624      737400
 4625              	.LASF123:
 4626 0482 736E7343 		.ascii	"snsClkVal\000"
 4626      6C6B5661 
 4626      6C00
 4627              	.LASF107:
 4628 048c 70747257 		.ascii	"ptrWdgt\000"
 4628      64677400 
 4629              	.LASF3:
 4630 0494 73686F72 		.ascii	"short unsigned int\000"
 4630      7420756E 
 4630      7369676E 
 4630      65642069 
 4630      6E7400
 4631              	.LASF160:
 4632 04a7 43617053 		.ascii	"CapSense_PostAllWidgetsScan\000"
 4632      656E7365 
 4632      5F506F73 
 4632      74416C6C 
 4632      57696467 
 4633              	.LASF21:
 4634 04c3 43617053 		.ascii	"CapSense_UNDEFINED_E\000"
 4634      656E7365 
 4634      5F554E44 
 4634      4546494E 
 4634      45445F45 
 4635              	.LASF154:
 4636 04d8 2E5C4765 		.ascii	".\\Generated_Source\\PSoC4\\CapSense_SensingCSX_LL."
 4636      6E657261 
 4636      7465645F 
 4636      536F7572 
 4636      63655C50 
 4637 0508 6300     		.ascii	"c\000"
 4638              	.LASF47:
 4639 050a 636F6E66 		.ascii	"configId\000"
 4639      69674964 
 4639      00
 4640              	.LASF92:
 4641 0513 77617463 		.ascii	"watchdogCounter\000"
 4641      68646F67 
 4641      436F756E 
 4641      74657200 
 4642              	.LASF105:
 4643 0523 74617267 		.ascii	"target\000"
 4643      657400
 4644              	.LASF55:
 4645 052a 63736430 		.ascii	"csd0Config\000"
ARM GAS  C:\Users\Alan\AppData\Local\Temp\ccbGKewn.s 			page 118


 4645      436F6E66 
 4645      696700
 4646              	.LASF75:
 4647 0535 70747232 		.ascii	"ptr2WdgtRam\000"
 4647      57646774 
 4647      52616D00 
 4648              	.LASF48:
 4649 0541 64657669 		.ascii	"deviceId\000"
 4649      63654964 
 4649      00
 4650              	.LASF35:
 4651 054a 43617053 		.ascii	"CapSense_RAM_WD_BUTTON_STRUCT\000"
 4651      656E7365 
 4651      5F52414D 
 4651      5F57445F 
 4651      42555454 
 4652              	.LASF137:
 4653 0568 43617053 		.ascii	"CapSense_ioList\000"
 4653      656E7365 
 4653      5F696F4C 
 4653      69737400 
 4654              	.LASF117:
 4655 0578 43617053 		.ascii	"CapSense_CSXScan\000"
 4655      656E7365 
 4655      5F435358 
 4655      5363616E 
 4655      00
 4656              	.LASF16:
 4657 0589 72656733 		.ascii	"reg32\000"
 4657      3200
 4658              	.LASF114:
 4659 058f 74785074 		.ascii	"txPtr\000"
 4659      7200
 4660              	.LASF145:
 4661 0595 43617053 		.ascii	"CapSense_curFlashWdgtPtr\000"
 4661      656E7365 
 4661      5F637572 
 4661      466C6173 
 4661      68576467 
 4662              	.LASF82:
 4663 05ae 6E756D43 		.ascii	"numCols\000"
 4663      6F6C7300 
 4664              	.LASF18:
 4665 05b6 73697A65 		.ascii	"sizetype\000"
 4665      74797065 
 4665      00
 4666              	.LASF130:
 4667 05bf 43617053 		.ascii	"CapSense_curTxIOPtr\000"
 4667      656E7365 
 4667      5F637572 
 4667      5478494F 
 4667      50747200 
 4668              	.LASF138:
 4669 05d3 43617053 		.ascii	"CapSense_csxScanPeriod\000"
 4669      656E7365 
 4669      5F637378 
 4669      5363616E 
ARM GAS  C:\Users\Alan\AppData\Local\Temp\ccbGKewn.s 			page 119


 4669      50657269 
 4670              	.LASF79:
 4671 05ea 73746174 		.ascii	"staticConfig\000"
 4671      6963436F 
 4671      6E666967 
 4671      00
 4672              	.LASF28:
 4673 05f7 6E4E6F69 		.ascii	"nNoiseTh\000"
 4673      73655468 
 4673      00
 4674              	.LASF81:
 4675 0600 77646774 		.ascii	"wdgtType\000"
 4675      54797065 
 4675      00
 4676              	.LASF121:
 4677 0609 43617053 		.ascii	"CapSense_CSXElectrodeCheck\000"
 4677      656E7365 
 4677      5F435358 
 4677      456C6563 
 4677      74726F64 
 4678              	.LASF99:
 4679 0624 696E7465 		.ascii	"interruptState\000"
 4679      72727570 
 4679      74537461 
 4679      746500
 4680              	.LASF50:
 4681 0633 7363616E 		.ascii	"scanCounter\000"
 4681      436F756E 
 4681      74657200 
 4682              	.LASF150:
 4683 063f 43617053 		.ascii	"CapSense_IsrInitialize\000"
 4683      656E7365 
 4683      5F497372 
 4683      496E6974 
 4683      69616C69 
 4684              	.LASF128:
 4685 0656 7478496E 		.ascii	"txIndex\000"
 4685      64657800 
 4686              	.LASF135:
 4687 065e 43617053 		.ascii	"CapSense_dsRam\000"
 4687      656E7365 
 4687      5F647352 
 4687      616D00
 4688              	.LASF49:
 4689 066d 74756E65 		.ascii	"tunerCmd\000"
 4689      72436D64 
 4689      00
 4690              	.LASF12:
 4691 0676 666C6F61 		.ascii	"float\000"
 4691      7400
 4692              	.LASF115:
 4693 067c 43617053 		.ascii	"CapSense_CSXConnectRx\000"
 4693      656E7365 
 4693      5F435358 
 4693      436F6E6E 
 4693      65637452 
 4694              	.LASF32:
ARM GAS  C:\Users\Alan\AppData\Local\Temp\ccbGKewn.s 			page 120


 4695 0692 62736C6E 		.ascii	"bslnCoeff\000"
 4695      436F6566 
 4695      6600
 4696              	.LASF46:
 4697 069c 43617053 		.ascii	"CapSense_RAM_SNS_LIST_STRUCT\000"
 4697      656E7365 
 4697      5F52414D 
 4697      5F534E53 
 4697      5F4C4953 
 4698              	.LASF155:
 4699 06b9 5C5C766D 		.ascii	"\\\\vmware-host\\Shared Folders\\Documents\\PSoC Cr"
 4699      77617265 
 4699      2D686F73 
 4699      745C5368 
 4699      61726564 
 4700 06e7 6561746F 		.ascii	"eator\\SmartIO\\SmartIOCountUp.cydsn\000"
 4700      725C536D 
 4700      61727449 
 4700      4F5C536D 
 4700      61727449 
 4701              	.LASF63:
 4702 070a 43617053 		.ascii	"CapSense_RAM_STRUCT\000"
 4702      656E7365 
 4702      5F52414D 
 4702      5F535452 
 4702      55435400 
 4703              	.LASF149:
 4704 071e 43617053 		.ascii	"CapSense_ConfigureModClkClock\000"
 4704      656E7365 
 4704      5F436F6E 
 4704      66696775 
 4704      72654D6F 
 4705              	.LASF110:
 4706 073c 63616C69 		.ascii	"calibrationIndex\000"
 4706      62726174 
 4706      696F6E49 
 4706      6E646578 
 4706      00
 4707              	.LASF1:
 4708 074d 756E7369 		.ascii	"unsigned char\000"
 4708      676E6564 
 4708      20636861 
 4708      7200
 4709              	.LASF2:
 4710 075b 73686F72 		.ascii	"short int\000"
 4710      7420696E 
 4710      7400
 4711              	.LASF122:
 4712 0765 43617053 		.ascii	"CapSense_CSXV2HwSetup\000"
 4712      656E7365 
 4712      5F435358 
 4712      56324877 
 4712      53657475 
 4713              	.LASF77:
 4714 077b 70747232 		.ascii	"ptr2FltrHistory\000"
 4714      466C7472 
 4714      48697374 
ARM GAS  C:\Users\Alan\AppData\Local\Temp\ccbGKewn.s 			page 121


 4714      6F727900 
 4715              	.LASF22:
 4716 078b 43617053 		.ascii	"CapSense_SENSE_METHOD_CSD_E\000"
 4716      656E7365 
 4716      5F53454E 
 4716      53455F4D 
 4716      4554484F 
 4717              	.LASF70:
 4718 07a7 6873696F 		.ascii	"hsiomShift\000"
 4718      6D536869 
 4718      667400
 4719              	.LASF159:
 4720 07b2 43617053 		.ascii	"CapSense_SetupWidget\000"
 4720      656E7365 
 4720      5F536574 
 4720      75705769 
 4720      64676574 
 4721              	.LASF25:
 4722 07c7 7265736F 		.ascii	"resolution\000"
 4722      6C757469 
 4722      6F6E00
 4723              	.LASF57:
 4724 07d2 77646774 		.ascii	"wdgtList\000"
 4724      4C697374 
 4724      00
 4725              	.LASF95:
 4726 07db 43617053 		.ascii	"CapSense_SsCSXStartSample\000"
 4726      656E7365 
 4726      5F537343 
 4726      53585374 
 4726      61727453 
 4727              	.LASF144:
 4728 07f5 43617053 		.ascii	"CapSense_curRamSnsPtr\000"
 4728      656E7365 
 4728      5F637572 
 4728      52616D53 
 4728      6E735074 
 4729              	.LASF152:
 4730 080b 43617053 		.ascii	"CapSense_Scan\000"
 4730      656E7365 
 4730      5F536361 
 4730      6E00
 4731              	.LASF102:
 4732 0819 43617053 		.ascii	"CapSense_CSXScanExt\000"
 4732      656E7365 
 4732      5F435358 
 4732      5363616E 
 4732      45787400 
 4733              	.LASF93:
 4734 082d 73616D70 		.ascii	"sampleClkFreqHz\000"
 4734      6C65436C 
 4734      6B467265 
 4734      71487A00 
 4735              	.LASF14:
 4736 083d 63686172 		.ascii	"char\000"
 4736      00
 4737              	.LASF17:
ARM GAS  C:\Users\Alan\AppData\Local\Temp\ccbGKewn.s 			page 122


 4738 0842 63796973 		.ascii	"cyisraddress\000"
 4738      72616464 
 4738      72657373 
 4738      00
 4739              	.LASF141:
 4740 084f 43617053 		.ascii	"CapSense_CSXPostScanApiPtr\000"
 4740      656E7365 
 4740      5F435358 
 4740      506F7374 
 4740      5363616E 
 4741              	.LASF66:
 4742 086a 64725074 		.ascii	"drPtr\000"
 4742      7200
 4743              	.LASF33:
 4744 0870 736E7343 		.ascii	"snsClk\000"
 4744      6C6B00
 4745              	.LASF34:
 4746 0877 43617053 		.ascii	"CapSense_RAM_WD_BASE_STRUCT\000"
 4746      656E7365 
 4746      5F52414D 
 4746      5F57445F 
 4746      42415345 
 4747              	.LASF30:
 4748 0893 6F6E4465 		.ascii	"onDebounce\000"
 4748      626F756E 
 4748      636500
 4749              	.LASF108:
 4750 089e 63757249 		.ascii	"curIdacMask\000"
 4750      6461634D 
 4750      61736B00 
 4751              	.LASF42:
 4752 08aa 69646163 		.ascii	"idacComp\000"
 4752      436F6D70 
 4752      00
 4753              	.LASF44:
 4754 08b3 6E656742 		.ascii	"negBslnRstCnt\000"
 4754      736C6E52 
 4754      7374436E 
 4754      7400
 4755              	.LASF80:
 4756 08c1 746F7461 		.ascii	"totalNumSns\000"
 4756      6C4E756D 
 4756      536E7300 
 4757              	.LASF78:
 4758 08cd 70747232 		.ascii	"ptr2DebounceArr\000"
 4758      4465626F 
 4758      756E6365 
 4758      41727200 
 4759              	.LASF86:
 4760 08dd 43617053 		.ascii	"CapSense_FLASH_STRUCT\000"
 4760      656E7365 
 4760      5F464C41 
 4760      53485F53 
 4760      54525543 
 4761              	.LASF73:
 4762 08f3 43617053 		.ascii	"CapSense_FLASH_IO_STRUCT\000"
 4762      656E7365 
ARM GAS  C:\Users\Alan\AppData\Local\Temp\ccbGKewn.s 			page 123


 4762      5F464C41 
 4762      53485F49 
 4762      4F5F5354 
 4763              	.LASF113:
 4764 090c 43617053 		.ascii	"CapSense_CSXConnectTx\000"
 4764      656E7365 
 4764      5F435358 
 4764      436F6E6E 
 4764      65637454 
 4765              	.LASF106:
 4766 0922 736E7352 		.ascii	"snsRamPtr\000"
 4766      616D5074 
 4766      7200
 4767              	.LASF51:
 4768 092c 73746174 		.ascii	"status\000"
 4768      757300
 4769              	.LASF85:
 4770 0933 77646774 		.ascii	"wdgtArray\000"
 4770      41727261 
 4770      7900
 4771              	.LASF119:
 4772 093d 43617053 		.ascii	"CapSense_CSXDisconnectRx\000"
 4772      656E7365 
 4772      5F435358 
 4772      44697363 
 4772      6F6E6E65 
 4773              	.LASF15:
 4774 0956 63797374 		.ascii	"cystatus\000"
 4774      61747573 
 4774      00
 4775              	.LASF129:
 4776 095f 7278496E 		.ascii	"rxIndex\000"
 4776      64657800 
 4777              	.LASF97:
 4778 0967 43617053 		.ascii	"CapSense_SsCSXStartSampleExt\000"
 4778      656E7365 
 4778      5F537343 
 4778      53585374 
 4778      61727453 
 4779              	.LASF26:
 4780 0984 66696E67 		.ascii	"fingerTh\000"
 4780      65725468 
 4780      00
 4781              	.LASF140:
 4782 098d 43617053 		.ascii	"CapSense_resamplingCyclesCnt\000"
 4782      656E7365 
 4782      5F726573 
 4782      616D706C 
 4782      696E6743 
 4783              	.LASF91:
 4784 09aa 66696C74 		.ascii	"filterDelay\000"
 4784      65724465 
 4784      6C617900 
 4785              	.LASF101:
 4786 09b6 43617053 		.ascii	"CapSense_CSXInitialize\000"
 4786      656E7365 
 4786      5F435358 
ARM GAS  C:\Users\Alan\AppData\Local\Temp\ccbGKewn.s 			page 124


 4786      496E6974 
 4786      69616C69 
 4787              	.LASF65:
 4788 09cd 70635074 		.ascii	"pcPtr\000"
 4788      7200
 4789              	.LASF39:
 4790 09d3 43617053 		.ascii	"CapSense_RAM_WD_LIST_STRUCT\000"
 4790      656E7365 
 4790      5F52414D 
 4790      5F57445F 
 4790      4C495354 
 4791              	.LASF61:
 4792 09ef 736E7254 		.ascii	"snrTestScanCounter\000"
 4792      65737453 
 4792      63616E43 
 4792      6F756E74 
 4792      657200
 4793              	.LASF68:
 4794 0a02 6873696F 		.ascii	"hsiomMask\000"
 4794      6D4D6173 
 4794      6B00
 4795              	.LASF153:
 4796 0a0c 474E5520 		.ascii	"GNU C 4.9.3 20150303 (release) [ARM/embedded-4_9-br"
 4796      4320342E 
 4796      392E3320 
 4796      32303135 
 4796      30333033 
 4797 0a3f 616E6368 		.ascii	"anch revision 221220] -mcpu=cortex-m0plus -mthumb -"
 4797      20726576 
 4797      6973696F 
 4797      6E203232 
 4797      31323230 
 4798 0a72 67202D4F 		.ascii	"g -Og -ffunction-sections -ffat-lto-objects\000"
 4798      67202D66 
 4798      66756E63 
 4798      74696F6E 
 4798      2D736563 
 4799              	.LASF27:
 4800 0a9e 6E6F6973 		.ascii	"noiseTh\000"
 4800      65546800 
 4801              		.ident	"GCC: (GNU Tools for ARM Embedded Processors) 4.9.3 20150303 (release) [ARM/embedded-4_9-br
