ARM GAS  C:\Users\Alan\AppData\Local\Temp\ccs0grLt.s 			page 1


   1              		.cpu cortex-m0plus
   2              		.fpu softvfp
   3              		.eabi_attribute 20, 1
   4              		.eabi_attribute 21, 1
   5              		.eabi_attribute 23, 3
   6              		.eabi_attribute 24, 1
   7              		.eabi_attribute 25, 1
   8              		.eabi_attribute 26, 1
   9              		.eabi_attribute 30, 1
  10              		.eabi_attribute 34, 0
  11              		.eabi_attribute 18, 4
  12              		.code	16
  13              		.file	"CyFlash.c"
  14              		.text
  15              	.Ltext0:
  16              		.cfi_sections	.debug_frame
  17              		.section	.text.CySysFlashClockBackup,"ax",%progbits
  18              		.align	2
  19              		.code	16
  20              		.thumb_func
  21              		.type	CySysFlashClockBackup, %function
  22              	CySysFlashClockBackup:
  23              	.LFB4:
  24              		.file 1 ".\\Generated_Source\\PSoC4\\CyFlash.c"
   1:.\Generated_Source\PSoC4/CyFlash.c **** /***************************************************************************//**
   2:.\Generated_Source\PSoC4/CyFlash.c **** * \file CyFlash.c
   3:.\Generated_Source\PSoC4/CyFlash.c **** * \version 5.40
   4:.\Generated_Source\PSoC4/CyFlash.c **** *
   5:.\Generated_Source\PSoC4/CyFlash.c **** * \brief Provides an API for the FLASH.
   6:.\Generated_Source\PSoC4/CyFlash.c **** *
   7:.\Generated_Source\PSoC4/CyFlash.c **** * \note This code is endian agnostic.
   8:.\Generated_Source\PSoC4/CyFlash.c **** *
   9:.\Generated_Source\PSoC4/CyFlash.c **** * \note Documentation of the API's in this file is located in the System
  10:.\Generated_Source\PSoC4/CyFlash.c **** * Reference Guide provided with PSoC Creator.
  11:.\Generated_Source\PSoC4/CyFlash.c **** *
  12:.\Generated_Source\PSoC4/CyFlash.c **** ********************************************************************************
  13:.\Generated_Source\PSoC4/CyFlash.c **** * \copyright
  14:.\Generated_Source\PSoC4/CyFlash.c **** * Copyright 2010-2016, Cypress Semiconductor Corporation.  All rights reserved.
  15:.\Generated_Source\PSoC4/CyFlash.c **** * You may use this file only in accordance with the license, terms, conditions,
  16:.\Generated_Source\PSoC4/CyFlash.c **** * disclaimers, and limitations in the end user license agreement accompanying
  17:.\Generated_Source\PSoC4/CyFlash.c **** * the software package with which this file was provided.
  18:.\Generated_Source\PSoC4/CyFlash.c **** *******************************************************************************/
  19:.\Generated_Source\PSoC4/CyFlash.c **** 
  20:.\Generated_Source\PSoC4/CyFlash.c **** #include "CyFlash.h"
  21:.\Generated_Source\PSoC4/CyFlash.c **** 
  22:.\Generated_Source\PSoC4/CyFlash.c **** 
  23:.\Generated_Source\PSoC4/CyFlash.c **** /*******************************************************************************
  24:.\Generated_Source\PSoC4/CyFlash.c **** * Cypress identified a defect with the Flash write functionality of the
  25:.\Generated_Source\PSoC4/CyFlash.c **** * PSoC 4000, PSoC 4100, and PSoC 4200 devices. The CySysFlashWriteRow() function
  26:.\Generated_Source\PSoC4/CyFlash.c **** * now checks the data to be written and, if necessary, modifies it to have a
  27:.\Generated_Source\PSoC4/CyFlash.c **** * non-zero checksum. After writing to Flash, the modified data is replaced
  28:.\Generated_Source\PSoC4/CyFlash.c **** * (Flash program) with the correct (original) data.
  29:.\Generated_Source\PSoC4/CyFlash.c **** *******************************************************************************/
  30:.\Generated_Source\PSoC4/CyFlash.c **** #define CY_FLASH_CHECKSUM_WORKAROUND    (CY_PSOC4_4000 || CY_PSOC4_4100 || CY_PSOC4_4200)
  31:.\Generated_Source\PSoC4/CyFlash.c **** 
  32:.\Generated_Source\PSoC4/CyFlash.c **** #if (CY_IP_FM || ((!CY_PSOC4_4000) && CY_IP_SPCIF_SYNCHRONOUS) || (!CY_IP_FM) && CY_PSOC4_4000)
  33:.\Generated_Source\PSoC4/CyFlash.c ****     static CY_SYS_FLASH_CLOCK_BACKUP_STRUCT cySysFlashBackup;
ARM GAS  C:\Users\Alan\AppData\Local\Temp\ccs0grLt.s 			page 2


  34:.\Generated_Source\PSoC4/CyFlash.c **** #endif /* (CY_IP_FM || ((!CY_PSOC4_4000) && CY_IP_SPCIF_SYNCHRONOUS) || (!CY_IP_FM) && CY_PSOC4_400
  35:.\Generated_Source\PSoC4/CyFlash.c **** 
  36:.\Generated_Source\PSoC4/CyFlash.c **** static cystatus CySysFlashClockBackup(void);
  37:.\Generated_Source\PSoC4/CyFlash.c **** static cystatus CySysFlashClockRestore(void);
  38:.\Generated_Source\PSoC4/CyFlash.c **** #if(CY_IP_SPCIF_SYNCHRONOUS)
  39:.\Generated_Source\PSoC4/CyFlash.c ****     static cystatus CySysFlashClockConfig(void);
  40:.\Generated_Source\PSoC4/CyFlash.c **** #endif  /* (CY_IP_SPCIF_SYNCHRONOUS) */
  41:.\Generated_Source\PSoC4/CyFlash.c **** 
  42:.\Generated_Source\PSoC4/CyFlash.c **** 
  43:.\Generated_Source\PSoC4/CyFlash.c **** /*******************************************************************************
  44:.\Generated_Source\PSoC4/CyFlash.c **** * Function Name: CySysFlashWriteRow
  45:.\Generated_Source\PSoC4/CyFlash.c **** ****************************************************************************//**
  46:.\Generated_Source\PSoC4/CyFlash.c **** *
  47:.\Generated_Source\PSoC4/CyFlash.c **** * Erases a row of Flash and programs it with the new data.
  48:.\Generated_Source\PSoC4/CyFlash.c **** *
  49:.\Generated_Source\PSoC4/CyFlash.c **** * The IMO must be enabled before calling this function. The operation of the
  50:.\Generated_Source\PSoC4/CyFlash.c **** * flash writing hardware is dependent on the IMO.
  51:.\Generated_Source\PSoC4/CyFlash.c **** *
  52:.\Generated_Source\PSoC4/CyFlash.c **** * For PSoC 4000, PSoC 4100 BLE and PSoC 4200 BLE devices (PSoC 4100 BLE and
  53:.\Generated_Source\PSoC4/CyFlash.c **** * PSoC 4200 BLE devices with 256K of Flash memory are not affected), this API
  54:.\Generated_Source\PSoC4/CyFlash.c **** * will automatically modify the clock settings for the device. Writing to
  55:.\Generated_Source\PSoC4/CyFlash.c **** * flash requires that changes be made to the IMO and HFCLK settings. The
  56:.\Generated_Source\PSoC4/CyFlash.c **** * configuration is restored before returning. This will impact the operation
  57:.\Generated_Source\PSoC4/CyFlash.c **** * of most of the hardware in the device.
  58:.\Generated_Source\PSoC4/CyFlash.c **** *
  59:.\Generated_Source\PSoC4/CyFlash.c **** * For PSoC 4000 devices this API will automatically modify the clock settings
  60:.\Generated_Source\PSoC4/CyFlash.c **** * for the device. Writing to flash requires that changes be made to the IMO
  61:.\Generated_Source\PSoC4/CyFlash.c **** * and HFCLK settings. The configuration is restored before returning. HFCLK
  62:.\Generated_Source\PSoC4/CyFlash.c **** * will have several frequency changes during the operation of this API between
  63:.\Generated_Source\PSoC4/CyFlash.c **** * a minimum frequency of the current IMO frequency divided by 8 and a maximum
  64:.\Generated_Source\PSoC4/CyFlash.c **** * frequency of 12 MHz. This will impact the operation of most of the hardware
  65:.\Generated_Source\PSoC4/CyFlash.c **** * in the device.
  66:.\Generated_Source\PSoC4/CyFlash.c **** *
  67:.\Generated_Source\PSoC4/CyFlash.c **** * \param rowNum The flash row number. The number of the flash rows is defined by
  68:.\Generated_Source\PSoC4/CyFlash.c **** * the \ref CY_FLASH_NUMBER_ROWS macro for the selected device. Refer to the
  69:.\Generated_Source\PSoC4/CyFlash.c **** * device datasheet for the details.
  70:.\Generated_Source\PSoC4/CyFlash.c **** * \note The target flash array is calculated based on the specified flash row.
  71:.\Generated_Source\PSoC4/CyFlash.c **** *
  72:.\Generated_Source\PSoC4/CyFlash.c **** * \param rowData Array of bytes to write. The size of the array must be equal to
  73:.\Generated_Source\PSoC4/CyFlash.c **** * the flash row size. The flash row size for the selected device is defined by
  74:.\Generated_Source\PSoC4/CyFlash.c **** * the \ref CY_FLASH_SIZEOF_ROW macro. Refer to the device datasheet for the
  75:.\Generated_Source\PSoC4/CyFlash.c **** * details.
  76:.\Generated_Source\PSoC4/CyFlash.c **** *
  77:.\Generated_Source\PSoC4/CyFlash.c **** * \return \ref group_flash_status_codes
  78:.\Generated_Source\PSoC4/CyFlash.c **** *
  79:.\Generated_Source\PSoC4/CyFlash.c **** *******************************************************************************/
  80:.\Generated_Source\PSoC4/CyFlash.c **** uint32 CySysFlashWriteRow(uint32 rowNum, const uint8 rowData[])
  81:.\Generated_Source\PSoC4/CyFlash.c **** {
  82:.\Generated_Source\PSoC4/CyFlash.c ****     volatile uint32 retValue = CY_SYS_FLASH_SUCCESS;
  83:.\Generated_Source\PSoC4/CyFlash.c ****     volatile uint32 clkCnfRetValue = CY_SYS_FLASH_SUCCESS;
  84:.\Generated_Source\PSoC4/CyFlash.c ****     volatile uint32 parameters[(CY_FLASH_SIZEOF_ROW + CY_FLASH_SRAM_ROM_DATA) / sizeof(uint32)];
  85:.\Generated_Source\PSoC4/CyFlash.c ****     uint8  interruptState;
  86:.\Generated_Source\PSoC4/CyFlash.c **** 
  87:.\Generated_Source\PSoC4/CyFlash.c ****     #if (CY_FLASH_CHECKSUM_WORKAROUND)
  88:.\Generated_Source\PSoC4/CyFlash.c ****         uint32 needChecksumWorkaround = 0u;
  89:.\Generated_Source\PSoC4/CyFlash.c ****         uint32 savedIndex = 0u;
  90:.\Generated_Source\PSoC4/CyFlash.c ****         uint32 savedValue = 0u;
ARM GAS  C:\Users\Alan\AppData\Local\Temp\ccs0grLt.s 			page 3


  91:.\Generated_Source\PSoC4/CyFlash.c ****         uint32 checksum = 0u;
  92:.\Generated_Source\PSoC4/CyFlash.c ****         uint32 bits = 0u;
  93:.\Generated_Source\PSoC4/CyFlash.c ****         uint32 i;
  94:.\Generated_Source\PSoC4/CyFlash.c ****     #endif  /* (CY_FLASH_CHECKSUM_WORKAROUND) */
  95:.\Generated_Source\PSoC4/CyFlash.c **** 
  96:.\Generated_Source\PSoC4/CyFlash.c ****     if ((rowNum < CY_FLASH_NUMBER_ROWS) && (rowData != 0u))
  97:.\Generated_Source\PSoC4/CyFlash.c ****     {
  98:.\Generated_Source\PSoC4/CyFlash.c ****         /* Copy data to be written into internal variable */
  99:.\Generated_Source\PSoC4/CyFlash.c ****         (void)memcpy((void *)&parameters[2u], rowData, CY_FLASH_SIZEOF_ROW);
 100:.\Generated_Source\PSoC4/CyFlash.c **** 
 101:.\Generated_Source\PSoC4/CyFlash.c ****         #if (CY_FLASH_CHECKSUM_WORKAROUND)
 102:.\Generated_Source\PSoC4/CyFlash.c **** 
 103:.\Generated_Source\PSoC4/CyFlash.c ****             for (i = 2u; i < ((CY_FLASH_SIZEOF_ROW / sizeof(uint32)) + 2u); i++)
 104:.\Generated_Source\PSoC4/CyFlash.c ****             {
 105:.\Generated_Source\PSoC4/CyFlash.c ****                 uint32 tmp = parameters[i];
 106:.\Generated_Source\PSoC4/CyFlash.c ****                 if (tmp != 0u)
 107:.\Generated_Source\PSoC4/CyFlash.c ****                 {
 108:.\Generated_Source\PSoC4/CyFlash.c ****                     checksum += tmp;
 109:.\Generated_Source\PSoC4/CyFlash.c ****                     bits |= tmp;
 110:.\Generated_Source\PSoC4/CyFlash.c ****                     savedIndex = i;
 111:.\Generated_Source\PSoC4/CyFlash.c ****                 }
 112:.\Generated_Source\PSoC4/CyFlash.c ****             }
 113:.\Generated_Source\PSoC4/CyFlash.c **** 
 114:.\Generated_Source\PSoC4/CyFlash.c ****             needChecksumWorkaround = ((checksum == 0u) && (bits != 0u)) ? 1u : 0u;
 115:.\Generated_Source\PSoC4/CyFlash.c ****             if (needChecksumWorkaround != 0u)
 116:.\Generated_Source\PSoC4/CyFlash.c ****             {
 117:.\Generated_Source\PSoC4/CyFlash.c ****                 savedValue = parameters[savedIndex];
 118:.\Generated_Source\PSoC4/CyFlash.c ****                 parameters[savedIndex] = 0u;
 119:.\Generated_Source\PSoC4/CyFlash.c ****             }
 120:.\Generated_Source\PSoC4/CyFlash.c ****         #endif  /* (CY_FLASH_CHECKSUM_WORKAROUND) */
 121:.\Generated_Source\PSoC4/CyFlash.c **** 
 122:.\Generated_Source\PSoC4/CyFlash.c ****         /* Load Flash Bytes */
 123:.\Generated_Source\PSoC4/CyFlash.c ****         parameters[0u] = (uint32) (CY_FLASH_GET_MACRO_FROM_ROW(rowNum)        << CY_FLASH_PARAM_MAC
 124:.\Generated_Source\PSoC4/CyFlash.c ****                          (uint32) (CY_FLASH_PAGE_LATCH_START_ADDR             << CY_FLASH_PARAM_ADD
 125:.\Generated_Source\PSoC4/CyFlash.c ****                          (uint32) (CY_FLASH_KEY_TWO(CY_FLASH_API_OPCODE_LOAD) << CY_FLASH_PARAM_KEY
 126:.\Generated_Source\PSoC4/CyFlash.c ****                          CY_FLASH_KEY_ONE;
 127:.\Generated_Source\PSoC4/CyFlash.c ****         parameters[1u] = CY_FLASH_SIZEOF_ROW - 1u;
 128:.\Generated_Source\PSoC4/CyFlash.c **** 
 129:.\Generated_Source\PSoC4/CyFlash.c ****         CY_FLASH_CPUSS_SYSARG_REG = (uint32) &parameters[0u];
 130:.\Generated_Source\PSoC4/CyFlash.c ****         CY_FLASH_CPUSS_SYSREQ_REG = CY_FLASH_CPUSS_REQ_START | CY_FLASH_API_OPCODE_LOAD;
 131:.\Generated_Source\PSoC4/CyFlash.c ****         CY_NOP;
 132:.\Generated_Source\PSoC4/CyFlash.c ****         retValue = CY_FLASH_API_RETURN;
 133:.\Generated_Source\PSoC4/CyFlash.c **** 
 134:.\Generated_Source\PSoC4/CyFlash.c ****         if(retValue == CY_SYS_FLASH_SUCCESS)
 135:.\Generated_Source\PSoC4/CyFlash.c ****         {
 136:.\Generated_Source\PSoC4/CyFlash.c ****             /***************************************************************
 137:.\Generated_Source\PSoC4/CyFlash.c ****             * Mask all the exceptions to guarantee that Flash write will
 138:.\Generated_Source\PSoC4/CyFlash.c ****             * occur in the atomic way. It will not affect system call
 139:.\Generated_Source\PSoC4/CyFlash.c ****             * execution (flash row write) since it is executed in the NMI
 140:.\Generated_Source\PSoC4/CyFlash.c ****             * context.
 141:.\Generated_Source\PSoC4/CyFlash.c ****             ***************************************************************/
 142:.\Generated_Source\PSoC4/CyFlash.c ****             interruptState = CyEnterCriticalSection();
 143:.\Generated_Source\PSoC4/CyFlash.c **** 
 144:.\Generated_Source\PSoC4/CyFlash.c ****             clkCnfRetValue = CySysFlashClockBackup();
 145:.\Generated_Source\PSoC4/CyFlash.c **** 
 146:.\Generated_Source\PSoC4/CyFlash.c ****         #if(CY_IP_SPCIF_SYNCHRONOUS)
 147:.\Generated_Source\PSoC4/CyFlash.c ****             if(clkCnfRetValue == CY_SYS_FLASH_SUCCESS)
ARM GAS  C:\Users\Alan\AppData\Local\Temp\ccs0grLt.s 			page 4


 148:.\Generated_Source\PSoC4/CyFlash.c ****             {
 149:.\Generated_Source\PSoC4/CyFlash.c ****                 retValue = CySysFlashClockConfig();
 150:.\Generated_Source\PSoC4/CyFlash.c ****             }
 151:.\Generated_Source\PSoC4/CyFlash.c ****         #endif  /* (CY_IP_SPCIF_SYNCHRONOUS) */
 152:.\Generated_Source\PSoC4/CyFlash.c **** 
 153:.\Generated_Source\PSoC4/CyFlash.c ****             if(retValue == CY_SYS_FLASH_SUCCESS)
 154:.\Generated_Source\PSoC4/CyFlash.c ****             {
 155:.\Generated_Source\PSoC4/CyFlash.c ****                 /* Write Row */
 156:.\Generated_Source\PSoC4/CyFlash.c ****                 parameters[0u]  = (uint32) (((uint32) CY_FLASH_KEY_TWO(CY_FLASH_API_OPCODE_WRITE_RO
 157:.\Generated_Source\PSoC4/CyFlash.c ****                 parameters[0u] |= (uint32)(rowNum << 16u);
 158:.\Generated_Source\PSoC4/CyFlash.c **** 
 159:.\Generated_Source\PSoC4/CyFlash.c ****                 CY_FLASH_CPUSS_SYSARG_REG = (uint32) &parameters[0u];
 160:.\Generated_Source\PSoC4/CyFlash.c ****                 CY_FLASH_CPUSS_SYSREQ_REG = CY_FLASH_CPUSS_REQ_START | CY_FLASH_API_OPCODE_WRITE_RO
 161:.\Generated_Source\PSoC4/CyFlash.c ****                 CY_NOP;
 162:.\Generated_Source\PSoC4/CyFlash.c ****                 retValue = CY_FLASH_API_RETURN;
 163:.\Generated_Source\PSoC4/CyFlash.c ****             }
 164:.\Generated_Source\PSoC4/CyFlash.c **** 
 165:.\Generated_Source\PSoC4/CyFlash.c ****             #if (CY_FLASH_CHECKSUM_WORKAROUND)
 166:.\Generated_Source\PSoC4/CyFlash.c **** 
 167:.\Generated_Source\PSoC4/CyFlash.c ****                 if ((retValue == CYRET_SUCCESS) && (needChecksumWorkaround != 0u))
 168:.\Generated_Source\PSoC4/CyFlash.c ****                 {
 169:.\Generated_Source\PSoC4/CyFlash.c ****                     (void)memset((void *)&parameters[2u], 0, CY_FLASH_SIZEOF_ROW);
 170:.\Generated_Source\PSoC4/CyFlash.c ****                     parameters[savedIndex] = savedValue;
 171:.\Generated_Source\PSoC4/CyFlash.c **** 
 172:.\Generated_Source\PSoC4/CyFlash.c ****                     /* Load Flash Bytes */
 173:.\Generated_Source\PSoC4/CyFlash.c ****                     parameters[0u] = (uint32) (CY_FLASH_GET_MACRO_FROM_ROW(rowNum)        << CY_FLA
 174:.\Generated_Source\PSoC4/CyFlash.c ****                                      (uint32) (CY_FLASH_PAGE_LATCH_START_ADDR             << CY_FLA
 175:.\Generated_Source\PSoC4/CyFlash.c ****                                      (uint32) (CY_FLASH_KEY_TWO(CY_FLASH_API_OPCODE_LOAD) << CY_FLA
 176:.\Generated_Source\PSoC4/CyFlash.c ****                                      CY_FLASH_KEY_ONE;
 177:.\Generated_Source\PSoC4/CyFlash.c ****                     parameters[1u] = CY_FLASH_SIZEOF_ROW - 1u;
 178:.\Generated_Source\PSoC4/CyFlash.c **** 
 179:.\Generated_Source\PSoC4/CyFlash.c ****                     CY_FLASH_CPUSS_SYSARG_REG = (uint32) &parameters[0u];
 180:.\Generated_Source\PSoC4/CyFlash.c ****                     CY_FLASH_CPUSS_SYSREQ_REG = CY_FLASH_CPUSS_REQ_START | CY_FLASH_API_OPCODE_LOAD
 181:.\Generated_Source\PSoC4/CyFlash.c ****                     CY_NOP;
 182:.\Generated_Source\PSoC4/CyFlash.c ****                     retValue = CY_FLASH_API_RETURN;
 183:.\Generated_Source\PSoC4/CyFlash.c **** 
 184:.\Generated_Source\PSoC4/CyFlash.c **** 
 185:.\Generated_Source\PSoC4/CyFlash.c ****                     if(retValue == CY_SYS_FLASH_SUCCESS)
 186:.\Generated_Source\PSoC4/CyFlash.c ****                     {
 187:.\Generated_Source\PSoC4/CyFlash.c ****                         /* Program Row */
 188:.\Generated_Source\PSoC4/CyFlash.c ****                         parameters[0u]  =
 189:.\Generated_Source\PSoC4/CyFlash.c ****                             (uint32) (((uint32) CY_FLASH_KEY_TWO(CY_FLASH_API_OPCODE_PROGRAM_ROW) <
 190:.\Generated_Source\PSoC4/CyFlash.c ****                                                     CY_FLASH_PARAM_KEY_TWO_OFFSET) | CY_FLASH_KEY_O
 191:.\Generated_Source\PSoC4/CyFlash.c ****                         parameters[0u] |= (uint32)(rowNum << 16u);
 192:.\Generated_Source\PSoC4/CyFlash.c **** 
 193:.\Generated_Source\PSoC4/CyFlash.c ****                         CY_FLASH_CPUSS_SYSARG_REG = (uint32) &parameters[0u];
 194:.\Generated_Source\PSoC4/CyFlash.c ****                         CY_FLASH_CPUSS_SYSREQ_REG = CY_FLASH_CPUSS_REQ_START | CY_FLASH_API_OPCODE_
 195:.\Generated_Source\PSoC4/CyFlash.c ****                         CY_NOP;
 196:.\Generated_Source\PSoC4/CyFlash.c ****                         retValue = CY_FLASH_API_RETURN;
 197:.\Generated_Source\PSoC4/CyFlash.c ****                     }
 198:.\Generated_Source\PSoC4/CyFlash.c ****                 }
 199:.\Generated_Source\PSoC4/CyFlash.c ****             #endif  /* (CY_FLASH_CHECKSUM_WORKAROUND) */
 200:.\Generated_Source\PSoC4/CyFlash.c **** 
 201:.\Generated_Source\PSoC4/CyFlash.c ****             if(clkCnfRetValue == CY_SYS_FLASH_SUCCESS)
 202:.\Generated_Source\PSoC4/CyFlash.c ****             {
 203:.\Generated_Source\PSoC4/CyFlash.c ****                 clkCnfRetValue = CySysFlashClockRestore();
 204:.\Generated_Source\PSoC4/CyFlash.c ****             }
ARM GAS  C:\Users\Alan\AppData\Local\Temp\ccs0grLt.s 			page 5


 205:.\Generated_Source\PSoC4/CyFlash.c **** 
 206:.\Generated_Source\PSoC4/CyFlash.c ****             CyExitCriticalSection(interruptState);
 207:.\Generated_Source\PSoC4/CyFlash.c ****         }
 208:.\Generated_Source\PSoC4/CyFlash.c ****     }
 209:.\Generated_Source\PSoC4/CyFlash.c ****     else
 210:.\Generated_Source\PSoC4/CyFlash.c ****     {
 211:.\Generated_Source\PSoC4/CyFlash.c ****         retValue = CY_SYS_FLASH_INVALID_ADDR;
 212:.\Generated_Source\PSoC4/CyFlash.c ****     }
 213:.\Generated_Source\PSoC4/CyFlash.c **** 
 214:.\Generated_Source\PSoC4/CyFlash.c ****     return (retValue);
 215:.\Generated_Source\PSoC4/CyFlash.c **** }
 216:.\Generated_Source\PSoC4/CyFlash.c **** 
 217:.\Generated_Source\PSoC4/CyFlash.c **** 
 218:.\Generated_Source\PSoC4/CyFlash.c **** 
 219:.\Generated_Source\PSoC4/CyFlash.c **** #if (CY_IP_FLASH_PARALLEL_PGM_EN && (CY_IP_FLASH_MACROS > 1u))
 220:.\Generated_Source\PSoC4/CyFlash.c **** /*******************************************************************************
 221:.\Generated_Source\PSoC4/CyFlash.c **** * Function Name: CySysFlashStartWriteRow
 222:.\Generated_Source\PSoC4/CyFlash.c **** ****************************************************************************//**
 223:.\Generated_Source\PSoC4/CyFlash.c **** *
 224:.\Generated_Source\PSoC4/CyFlash.c **** * Initiates a write to a row of Flash. A call to this API is non-blocking. 
 225:.\Generated_Source\PSoC4/CyFlash.c **** * Use CySysFlashResumeWriteRow() to resume flash writes and 
 226:.\Generated_Source\PSoC4/CyFlash.c **** * CySysFlashGetWriteRowStatus() to ascertain status of the write operation.
 227:.\Generated_Source\PSoC4/CyFlash.c **** *
 228:.\Generated_Source\PSoC4/CyFlash.c **** * This API is applicable only for CCG3 device families.
 229:.\Generated_Source\PSoC4/CyFlash.c **** *
 230:.\Generated_Source\PSoC4/CyFlash.c **** * For CCG3 devices, parallel code execution and programming of flash is
 231:.\Generated_Source\PSoC4/CyFlash.c **** * supported since 128k flash is available as two banks of 64k. Please refer to
 232:.\Generated_Source\PSoC4/CyFlash.c **** * the device TRM for more details.
 233:.\Generated_Source\PSoC4/CyFlash.c **** *
 234:.\Generated_Source\PSoC4/CyFlash.c **** * CCG3 devices require HFCLK to be sourced by 48 MHz IMO during flash write.
 235:.\Generated_Source\PSoC4/CyFlash.c **** * This API will modify IMO configuration; it can be later restored to original
 236:.\Generated_Source\PSoC4/CyFlash.c **** * configuration by calling \ref CySysFlashGetWriteRowStatus().
 237:.\Generated_Source\PSoC4/CyFlash.c **** *
 238:.\Generated_Source\PSoC4/CyFlash.c **** * \param rowNum The flash row number. The number of the flash rows is defined by
 239:.\Generated_Source\PSoC4/CyFlash.c **** * the \ref CY_FLASH_NUMBER_ROWS macro for the selected device. Refer to the
 240:.\Generated_Source\PSoC4/CyFlash.c **** * device datasheet for the details.
 241:.\Generated_Source\PSoC4/CyFlash.c **** * \note The target flash array is calculated based on the specified flash row.
 242:.\Generated_Source\PSoC4/CyFlash.c **** *
 243:.\Generated_Source\PSoC4/CyFlash.c **** * \param rowData Array of bytes to write. The size of the array must be equal to
 244:.\Generated_Source\PSoC4/CyFlash.c **** * the flash row size. The flash row size for the selected device is defined by
 245:.\Generated_Source\PSoC4/CyFlash.c **** * the \ref CY_FLASH_SIZEOF_ROW macro. Refer to the device datasheet for the
 246:.\Generated_Source\PSoC4/CyFlash.c **** * details.
 247:.\Generated_Source\PSoC4/CyFlash.c **** *
 248:.\Generated_Source\PSoC4/CyFlash.c **** * \return \ref group_flash_status_codes
 249:.\Generated_Source\PSoC4/CyFlash.c **** *
 250:.\Generated_Source\PSoC4/CyFlash.c **** *******************************************************************************/
 251:.\Generated_Source\PSoC4/CyFlash.c **** uint32 CySysFlashStartWriteRow(uint32 rowNum, const uint8 rowData[])
 252:.\Generated_Source\PSoC4/CyFlash.c **** {
 253:.\Generated_Source\PSoC4/CyFlash.c ****     volatile uint32 retValue = CY_SYS_FLASH_SUCCESS;
 254:.\Generated_Source\PSoC4/CyFlash.c ****     volatile uint32 parameters[(CY_FLASH_SIZEOF_ROW + CY_FLASH_SRAM_ROM_DATA) / sizeof(uint32)];
 255:.\Generated_Source\PSoC4/CyFlash.c ****     uint8  interruptState;
 256:.\Generated_Source\PSoC4/CyFlash.c **** 
 257:.\Generated_Source\PSoC4/CyFlash.c **** #if(CY_IP_SPCIF_SYNCHRONOUS)
 258:.\Generated_Source\PSoC4/CyFlash.c ****     volatile uint32 clkCnfRetValue = CY_SYS_FLASH_SUCCESS;
 259:.\Generated_Source\PSoC4/CyFlash.c **** #endif  /* (CY_IP_SPCIF_SYNCHRONOUS) */    
 260:.\Generated_Source\PSoC4/CyFlash.c **** 
 261:.\Generated_Source\PSoC4/CyFlash.c ****     if ((rowNum < CY_FLASH_NUMBER_ROWS) && (rowData != 0u))
ARM GAS  C:\Users\Alan\AppData\Local\Temp\ccs0grLt.s 			page 6


 262:.\Generated_Source\PSoC4/CyFlash.c ****     {
 263:.\Generated_Source\PSoC4/CyFlash.c ****         /* Copy data to be written into internal variable */
 264:.\Generated_Source\PSoC4/CyFlash.c ****         (void)memcpy((void *)&parameters[2u], rowData, CY_FLASH_SIZEOF_ROW);
 265:.\Generated_Source\PSoC4/CyFlash.c **** 
 266:.\Generated_Source\PSoC4/CyFlash.c ****         /* Load Flash Bytes */
 267:.\Generated_Source\PSoC4/CyFlash.c ****         parameters[0u] = (uint32) (CY_FLASH_GET_MACRO_FROM_ROW(rowNum)        << CY_FLASH_PARAM_MAC
 268:.\Generated_Source\PSoC4/CyFlash.c ****                          (uint32) (CY_FLASH_PAGE_LATCH_START_ADDR             << CY_FLASH_PARAM_ADD
 269:.\Generated_Source\PSoC4/CyFlash.c ****                          (uint32) (CY_FLASH_KEY_TWO(CY_FLASH_API_OPCODE_LOAD) << CY_FLASH_PARAM_KEY
 270:.\Generated_Source\PSoC4/CyFlash.c ****                          CY_FLASH_KEY_ONE;
 271:.\Generated_Source\PSoC4/CyFlash.c ****         parameters[1u] = CY_FLASH_SIZEOF_ROW - 1u;
 272:.\Generated_Source\PSoC4/CyFlash.c **** 
 273:.\Generated_Source\PSoC4/CyFlash.c ****         CY_FLASH_CPUSS_SYSARG_REG = (uint32) &parameters[0u];
 274:.\Generated_Source\PSoC4/CyFlash.c ****         CY_FLASH_CPUSS_SYSREQ_REG = CY_FLASH_CPUSS_REQ_START | CY_FLASH_API_OPCODE_LOAD;
 275:.\Generated_Source\PSoC4/CyFlash.c ****         CY_NOP;
 276:.\Generated_Source\PSoC4/CyFlash.c ****         retValue = CY_FLASH_API_RETURN;
 277:.\Generated_Source\PSoC4/CyFlash.c **** 
 278:.\Generated_Source\PSoC4/CyFlash.c ****         if(retValue == CY_SYS_FLASH_SUCCESS)
 279:.\Generated_Source\PSoC4/CyFlash.c ****         {
 280:.\Generated_Source\PSoC4/CyFlash.c ****             /***************************************************************
 281:.\Generated_Source\PSoC4/CyFlash.c ****             * Mask all the exceptions to guarantee that Flash write will
 282:.\Generated_Source\PSoC4/CyFlash.c ****             * occur in the atomic way. It will not affect system call
 283:.\Generated_Source\PSoC4/CyFlash.c ****             * execution (flash row write) since it is executed in the NMI
 284:.\Generated_Source\PSoC4/CyFlash.c ****             * context.
 285:.\Generated_Source\PSoC4/CyFlash.c ****             ***************************************************************/
 286:.\Generated_Source\PSoC4/CyFlash.c ****             interruptState = CyEnterCriticalSection();
 287:.\Generated_Source\PSoC4/CyFlash.c **** 
 288:.\Generated_Source\PSoC4/CyFlash.c ****         #if(CY_IP_SPCIF_SYNCHRONOUS)
 289:.\Generated_Source\PSoC4/CyFlash.c ****             clkCnfRetValue = CySysFlashClockBackup();
 290:.\Generated_Source\PSoC4/CyFlash.c ****             
 291:.\Generated_Source\PSoC4/CyFlash.c ****             if(clkCnfRetValue == CY_SYS_FLASH_SUCCESS)
 292:.\Generated_Source\PSoC4/CyFlash.c ****             {
 293:.\Generated_Source\PSoC4/CyFlash.c ****                 retValue = CySysFlashClockConfig();
 294:.\Generated_Source\PSoC4/CyFlash.c ****             }
 295:.\Generated_Source\PSoC4/CyFlash.c ****         #else
 296:.\Generated_Source\PSoC4/CyFlash.c ****             CySysFlashClockBackup();
 297:.\Generated_Source\PSoC4/CyFlash.c ****         #endif  /* (CY_IP_SPCIF_SYNCHRONOUS) */
 298:.\Generated_Source\PSoC4/CyFlash.c **** 
 299:.\Generated_Source\PSoC4/CyFlash.c ****             if(retValue == CY_SYS_FLASH_SUCCESS)
 300:.\Generated_Source\PSoC4/CyFlash.c ****             {
 301:.\Generated_Source\PSoC4/CyFlash.c ****                 /* Non-blocking Write Row */
 302:.\Generated_Source\PSoC4/CyFlash.c ****                 parameters[0u]  = (uint32) (((uint32) CY_FLASH_KEY_TWO(CY_FLASH_API_OPCODE_NON_BLOC
 303:.\Generated_Source\PSoC4/CyFlash.c ****                                                         CY_FLASH_PARAM_KEY_TWO_OFFSET) | CY_FLASH_K
 304:.\Generated_Source\PSoC4/CyFlash.c ****                 parameters[0u] |= (uint32)(rowNum << 16u);
 305:.\Generated_Source\PSoC4/CyFlash.c **** 
 306:.\Generated_Source\PSoC4/CyFlash.c ****                 CY_FLASH_CPUSS_SYSARG_REG = (uint32) &parameters[0u];
 307:.\Generated_Source\PSoC4/CyFlash.c ****                 CY_FLASH_CPUSS_SYSREQ_REG = CY_FLASH_CPUSS_REQ_START | CY_FLASH_API_OPCODE_NON_BLOC
 308:.\Generated_Source\PSoC4/CyFlash.c ****                 CY_NOP;
 309:.\Generated_Source\PSoC4/CyFlash.c ****                 retValue = CY_FLASH_API_RETURN;
 310:.\Generated_Source\PSoC4/CyFlash.c ****             }
 311:.\Generated_Source\PSoC4/CyFlash.c **** 
 312:.\Generated_Source\PSoC4/CyFlash.c ****             CyExitCriticalSection(interruptState);
 313:.\Generated_Source\PSoC4/CyFlash.c ****         }
 314:.\Generated_Source\PSoC4/CyFlash.c ****     }
 315:.\Generated_Source\PSoC4/CyFlash.c ****     else
 316:.\Generated_Source\PSoC4/CyFlash.c ****     {
 317:.\Generated_Source\PSoC4/CyFlash.c ****         retValue = CY_SYS_FLASH_INVALID_ADDR;
 318:.\Generated_Source\PSoC4/CyFlash.c ****     }
ARM GAS  C:\Users\Alan\AppData\Local\Temp\ccs0grLt.s 			page 7


 319:.\Generated_Source\PSoC4/CyFlash.c **** 
 320:.\Generated_Source\PSoC4/CyFlash.c ****     return (retValue);
 321:.\Generated_Source\PSoC4/CyFlash.c **** }
 322:.\Generated_Source\PSoC4/CyFlash.c **** 
 323:.\Generated_Source\PSoC4/CyFlash.c **** 
 324:.\Generated_Source\PSoC4/CyFlash.c **** /*******************************************************************************
 325:.\Generated_Source\PSoC4/CyFlash.c **** * Function Name: CySysFlashGetWriteRowStatus
 326:.\Generated_Source\PSoC4/CyFlash.c **** ****************************************************************************//**
 327:.\Generated_Source\PSoC4/CyFlash.c **** *
 328:.\Generated_Source\PSoC4/CyFlash.c **** * Returns the current status of the flash write operation.
 329:.\Generated_Source\PSoC4/CyFlash.c **** *
 330:.\Generated_Source\PSoC4/CyFlash.c **** * This API is applicable only for CCG3 device families.
 331:.\Generated_Source\PSoC4/CyFlash.c **** *
 332:.\Generated_Source\PSoC4/CyFlash.c **** * For CCG3 devices, parallel code execution and programming of flash is
 333:.\Generated_Source\PSoC4/CyFlash.c **** * supported since 128k flash is available as two banks of 64k. Please refer to
 334:.\Generated_Source\PSoC4/CyFlash.c **** * the device TRM for more details.
 335:.\Generated_Source\PSoC4/CyFlash.c **** *
 336:.\Generated_Source\PSoC4/CyFlash.c **** * CCG3 devices require HFCLK to be sourced by 48 MHz IMO during flash write.
 337:.\Generated_Source\PSoC4/CyFlash.c **** * This API will restore original IMO configuration; that has been earlier
 338:.\Generated_Source\PSoC4/CyFlash.c **** * modified by \ref CySysFlashStartWriteRow().
 339:.\Generated_Source\PSoC4/CyFlash.c **** *
 340:.\Generated_Source\PSoC4/CyFlash.c **** * \return \ref group_flash_status_codes
 341:.\Generated_Source\PSoC4/CyFlash.c **** *
 342:.\Generated_Source\PSoC4/CyFlash.c **** *******************************************************************************/
 343:.\Generated_Source\PSoC4/CyFlash.c **** uint32 CySysFlashGetWriteRowStatus(void)
 344:.\Generated_Source\PSoC4/CyFlash.c **** {
 345:.\Generated_Source\PSoC4/CyFlash.c ****     volatile uint32 retValue = CY_SYS_FLASH_SUCCESS;
 346:.\Generated_Source\PSoC4/CyFlash.c **** 
 347:.\Generated_Source\PSoC4/CyFlash.c ****     CY_NOP;
 348:.\Generated_Source\PSoC4/CyFlash.c ****     retValue = CY_FLASH_API_RETURN;
 349:.\Generated_Source\PSoC4/CyFlash.c **** 
 350:.\Generated_Source\PSoC4/CyFlash.c ****     (void) CySysFlashClockRestore();
 351:.\Generated_Source\PSoC4/CyFlash.c **** 
 352:.\Generated_Source\PSoC4/CyFlash.c ****     return (retValue);
 353:.\Generated_Source\PSoC4/CyFlash.c **** }
 354:.\Generated_Source\PSoC4/CyFlash.c **** 
 355:.\Generated_Source\PSoC4/CyFlash.c **** 
 356:.\Generated_Source\PSoC4/CyFlash.c **** 
 357:.\Generated_Source\PSoC4/CyFlash.c **** /*******************************************************************************
 358:.\Generated_Source\PSoC4/CyFlash.c **** * Function Name: CySysFlashResumeWriteRow
 359:.\Generated_Source\PSoC4/CyFlash.c **** ****************************************************************************//**
 360:.\Generated_Source\PSoC4/CyFlash.c **** *
 361:.\Generated_Source\PSoC4/CyFlash.c **** * This API must be called, once the SPC interrupt is triggered to complete the
 362:.\Generated_Source\PSoC4/CyFlash.c **** * non-blocking operation. It is advised not to prolong calling this API for
 363:.\Generated_Source\PSoC4/CyFlash.c **** * more than 25 ms.
 364:.\Generated_Source\PSoC4/CyFlash.c **** *
 365:.\Generated_Source\PSoC4/CyFlash.c **** * The non-blocking write row API \ref CySysFlashStartWriteRow() requires that
 366:.\Generated_Source\PSoC4/CyFlash.c **** * this API be called 3 times to complete the write. This can be done by
 367:.\Generated_Source\PSoC4/CyFlash.c **** * configuring SPCIF interrupt and placing a call to this API.
 368:.\Generated_Source\PSoC4/CyFlash.c **** *
 369:.\Generated_Source\PSoC4/CyFlash.c **** * For CM0 based device, a non-blocking call to program a row of macro 0
 370:.\Generated_Source\PSoC4/CyFlash.c **** * requires the user to set the CPUSS_CONFIG.VECS_IN_RAM bit so that the
 371:.\Generated_Source\PSoC4/CyFlash.c **** * interrupt vector for the SPC is fetched from the SRAM rather than the FLASH.
 372:.\Generated_Source\PSoC4/CyFlash.c **** *
 373:.\Generated_Source\PSoC4/CyFlash.c **** * For CM0+ based device, if the user wants to keep the vector table in flash
 374:.\Generated_Source\PSoC4/CyFlash.c **** * when performing non-blocking flash write then they need to make sure the
 375:.\Generated_Source\PSoC4/CyFlash.c **** * vector table is placed in the flash macro which is not getting programmed by
ARM GAS  C:\Users\Alan\AppData\Local\Temp\ccs0grLt.s 			page 8


 376:.\Generated_Source\PSoC4/CyFlash.c **** * configuring the VTOR register.
 377:.\Generated_Source\PSoC4/CyFlash.c **** *
 378:.\Generated_Source\PSoC4/CyFlash.c **** * This API is applicable only for CCG3 device families.
 379:.\Generated_Source\PSoC4/CyFlash.c **** *
 380:.\Generated_Source\PSoC4/CyFlash.c **** * \return \ref group_flash_status_codes
 381:.\Generated_Source\PSoC4/CyFlash.c **** *
 382:.\Generated_Source\PSoC4/CyFlash.c **** * \note Please consult the example project NonBlockingFlashWrite_Example for an
 383:.\Generated_Source\PSoC4/CyFlash.c **** * implementation.
 384:.\Generated_Source\PSoC4/CyFlash.c **** *
 385:.\Generated_Source\PSoC4/CyFlash.c **** *******************************************************************************/
 386:.\Generated_Source\PSoC4/CyFlash.c **** uint32 CySysFlashResumeWriteRow(void)
 387:.\Generated_Source\PSoC4/CyFlash.c **** {
 388:.\Generated_Source\PSoC4/CyFlash.c ****     volatile uint32 retValue = CY_SYS_FLASH_SUCCESS;
 389:.\Generated_Source\PSoC4/CyFlash.c ****     static volatile uint32 parameters[1u];
 390:.\Generated_Source\PSoC4/CyFlash.c **** 
 391:.\Generated_Source\PSoC4/CyFlash.c ****     /* Resume */
 392:.\Generated_Source\PSoC4/CyFlash.c ****     parameters[0u] = (uint32) (((uint32) CY_FLASH_KEY_TWO(CY_FLASH_API_OPCODE_RESUME_NON_BLOCKING) 
 393:.\Generated_Source\PSoC4/CyFlash.c ****                                          CY_FLASH_PARAM_KEY_TWO_OFFSET) | CY_FLASH_KEY_ONE);
 394:.\Generated_Source\PSoC4/CyFlash.c ****     CY_FLASH_CPUSS_SYSARG_REG = (uint32) &parameters[0u];
 395:.\Generated_Source\PSoC4/CyFlash.c ****     CY_FLASH_CPUSS_SYSREQ_REG = CY_FLASH_CPUSS_REQ_START | CY_FLASH_API_OPCODE_RESUME_NON_BLOCKING;
 396:.\Generated_Source\PSoC4/CyFlash.c ****     
 397:.\Generated_Source\PSoC4/CyFlash.c ****     CY_NOP;
 398:.\Generated_Source\PSoC4/CyFlash.c ****     retValue = CY_FLASH_API_RETURN;
 399:.\Generated_Source\PSoC4/CyFlash.c ****     
 400:.\Generated_Source\PSoC4/CyFlash.c ****     return (retValue);
 401:.\Generated_Source\PSoC4/CyFlash.c **** }
 402:.\Generated_Source\PSoC4/CyFlash.c **** 
 403:.\Generated_Source\PSoC4/CyFlash.c **** #endif /* (CY_IP_FLASH_PARALLEL_PGM_EN && (CY_IP_FLASH_MACROS > 1u)) */
 404:.\Generated_Source\PSoC4/CyFlash.c **** 
 405:.\Generated_Source\PSoC4/CyFlash.c **** 
 406:.\Generated_Source\PSoC4/CyFlash.c **** /*******************************************************************************
 407:.\Generated_Source\PSoC4/CyFlash.c **** * Function Name: CySysFlashSetWaitCycles
 408:.\Generated_Source\PSoC4/CyFlash.c **** ****************************************************************************//**
 409:.\Generated_Source\PSoC4/CyFlash.c **** *
 410:.\Generated_Source\PSoC4/CyFlash.c **** * Sets the number of clock cycles the cache will wait before it samples data
 411:.\Generated_Source\PSoC4/CyFlash.c **** * coming back from Flash. This function must be called before increasing the
 412:.\Generated_Source\PSoC4/CyFlash.c **** * SYSCLK clock frequency. It can optionally be called after lowering SYSCLK
 413:.\Generated_Source\PSoC4/CyFlash.c **** * clock frequency in order to improve the CPU performance.
 414:.\Generated_Source\PSoC4/CyFlash.c **** *
 415:.\Generated_Source\PSoC4/CyFlash.c **** * \param freq The System clock frequency in MHz.
 416:.\Generated_Source\PSoC4/CyFlash.c **** *
 417:.\Generated_Source\PSoC4/CyFlash.c **** * \note Invalid frequency will be ignored in Release mode and the CPU will be
 418:.\Generated_Source\PSoC4/CyFlash.c **** * halted if project is compiled in Debug mode.
 419:.\Generated_Source\PSoC4/CyFlash.c **** *
 420:.\Generated_Source\PSoC4/CyFlash.c **** *******************************************************************************/
 421:.\Generated_Source\PSoC4/CyFlash.c **** void CySysFlashSetWaitCycles(uint32 freq)
 422:.\Generated_Source\PSoC4/CyFlash.c **** {
 423:.\Generated_Source\PSoC4/CyFlash.c ****     uint8  interruptState;
 424:.\Generated_Source\PSoC4/CyFlash.c **** 
 425:.\Generated_Source\PSoC4/CyFlash.c ****     interruptState = CyEnterCriticalSection();
 426:.\Generated_Source\PSoC4/CyFlash.c **** 
 427:.\Generated_Source\PSoC4/CyFlash.c ****     #if (CY_IP_CPUSS)
 428:.\Generated_Source\PSoC4/CyFlash.c **** 
 429:.\Generated_Source\PSoC4/CyFlash.c ****         if ( freq <= CY_FLASH_SYSCLK_BOUNDARY_MHZ )
 430:.\Generated_Source\PSoC4/CyFlash.c ****         {
 431:.\Generated_Source\PSoC4/CyFlash.c ****             CY_SYS_CLK_SELECT_REG &= (uint32)(~CY_FLASH_WAIT_STATE_EN);
 432:.\Generated_Source\PSoC4/CyFlash.c ****         }
ARM GAS  C:\Users\Alan\AppData\Local\Temp\ccs0grLt.s 			page 9


 433:.\Generated_Source\PSoC4/CyFlash.c ****         else
 434:.\Generated_Source\PSoC4/CyFlash.c ****         {
 435:.\Generated_Source\PSoC4/CyFlash.c ****             CY_SYS_CLK_SELECT_REG |= CY_FLASH_WAIT_STATE_EN;
 436:.\Generated_Source\PSoC4/CyFlash.c ****         }
 437:.\Generated_Source\PSoC4/CyFlash.c ****     #else
 438:.\Generated_Source\PSoC4/CyFlash.c ****         #if (CY_IP_CPUSS_FLASHC_PRESENT)
 439:.\Generated_Source\PSoC4/CyFlash.c ****             /* CY_IP_FM and CY_IP_FS */
 440:.\Generated_Source\PSoC4/CyFlash.c ****             if (freq <= CY_FLASH_CTL_WS_0_FREQ_MAX)
 441:.\Generated_Source\PSoC4/CyFlash.c ****             {
 442:.\Generated_Source\PSoC4/CyFlash.c ****                 CY_FLASH_CTL_REG = (CY_FLASH_CTL_REG & ~CY_FLASH_CTL_WS_MASK) | CY_FLASH_CTL_WS_0_V
 443:.\Generated_Source\PSoC4/CyFlash.c ****             } else
 444:.\Generated_Source\PSoC4/CyFlash.c ****             if (freq <= CY_FLASH_CTL_WS_1_FREQ_MAX)
 445:.\Generated_Source\PSoC4/CyFlash.c ****             {
 446:.\Generated_Source\PSoC4/CyFlash.c ****                 CY_FLASH_CTL_REG = (CY_FLASH_CTL_REG & ~CY_FLASH_CTL_WS_MASK) | CY_FLASH_CTL_WS_1_V
 447:.\Generated_Source\PSoC4/CyFlash.c ****             } else
 448:.\Generated_Source\PSoC4/CyFlash.c ****             #if (CY_IP_FMLT || CY_IP_FSLT)
 449:.\Generated_Source\PSoC4/CyFlash.c ****                 if (freq <= CY_FLASH_CTL_WS_2_FREQ_MAX)
 450:.\Generated_Source\PSoC4/CyFlash.c ****                 {
 451:.\Generated_Source\PSoC4/CyFlash.c ****                     CY_FLASH_CTL_REG = (CY_FLASH_CTL_REG & ~CY_FLASH_CTL_WS_MASK) | CY_FLASH_CTL_WS
 452:.\Generated_Source\PSoC4/CyFlash.c ****                 }
 453:.\Generated_Source\PSoC4/CyFlash.c ****                 else
 454:.\Generated_Source\PSoC4/CyFlash.c ****             #endif  /* (CY_IP_FMLT || CY_IP_FSLT) */
 455:.\Generated_Source\PSoC4/CyFlash.c ****         #endif /* (CY_IP_CPUSS_FLASHC_PRESENT) */
 456:.\Generated_Source\PSoC4/CyFlash.c ****         {
 457:.\Generated_Source\PSoC4/CyFlash.c ****             /* Halt CPU in debug mode if frequency is invalid */
 458:.\Generated_Source\PSoC4/CyFlash.c ****             CYASSERT(0u != 0u);
 459:.\Generated_Source\PSoC4/CyFlash.c ****         }
 460:.\Generated_Source\PSoC4/CyFlash.c **** 
 461:.\Generated_Source\PSoC4/CyFlash.c ****     #endif  /* (CY_IP_CPUSS) */
 462:.\Generated_Source\PSoC4/CyFlash.c **** 
 463:.\Generated_Source\PSoC4/CyFlash.c ****     CyExitCriticalSection(interruptState);
 464:.\Generated_Source\PSoC4/CyFlash.c **** }
 465:.\Generated_Source\PSoC4/CyFlash.c **** 
 466:.\Generated_Source\PSoC4/CyFlash.c **** 
 467:.\Generated_Source\PSoC4/CyFlash.c **** #if (CY_SFLASH_XTRA_ROWS)
 468:.\Generated_Source\PSoC4/CyFlash.c **** /*******************************************************************************
 469:.\Generated_Source\PSoC4/CyFlash.c **** * Function Name: CySysSFlashWriteUserRow
 470:.\Generated_Source\PSoC4/CyFlash.c **** ****************************************************************************//**
 471:.\Generated_Source\PSoC4/CyFlash.c **** *
 472:.\Generated_Source\PSoC4/CyFlash.c **** * Writes data to a row of SFlash user configurable area.
 473:.\Generated_Source\PSoC4/CyFlash.c **** *
 474:.\Generated_Source\PSoC4/CyFlash.c **** * This API is applicable for PSoC 4100 BLE, PSoC 4200 BLE, PSoC 4100M,
 475:.\Generated_Source\PSoC4/CyFlash.c **** * PSoC 4200M, and PSoC 4200L family of devices.
 476:.\Generated_Source\PSoC4/CyFlash.c **** *
 477:.\Generated_Source\PSoC4/CyFlash.c **** * \param rowNum The flash row number. The flash row number. The number of the
 478:.\Generated_Source\PSoC4/CyFlash.c **** * flash rows is defined by the CY_SFLASH_NUMBER_USERROWS macro for the selected
 479:.\Generated_Source\PSoC4/CyFlash.c **** * device. Valid range is 0-3. Refer to the device TRM for details.
 480:.\Generated_Source\PSoC4/CyFlash.c **** *
 481:.\Generated_Source\PSoC4/CyFlash.c **** * \param rowData Array of bytes to write. The size of the array must be equal to
 482:.\Generated_Source\PSoC4/CyFlash.c **** * the flash row size. The flash row size for the selected device is defined by
 483:.\Generated_Source\PSoC4/CyFlash.c **** * the \ref CY_SFLASH_SIZEOF_USERROW macro. Refer to the device TRM for the
 484:.\Generated_Source\PSoC4/CyFlash.c **** * details.
 485:.\Generated_Source\PSoC4/CyFlash.c **** *
 486:.\Generated_Source\PSoC4/CyFlash.c **** * \return \ref group_flash_status_codes
 487:.\Generated_Source\PSoC4/CyFlash.c **** *
 488:.\Generated_Source\PSoC4/CyFlash.c **** *******************************************************************************/
 489:.\Generated_Source\PSoC4/CyFlash.c **** uint32 CySysSFlashWriteUserRow(uint32 rowNum, const uint8 rowData[])
ARM GAS  C:\Users\Alan\AppData\Local\Temp\ccs0grLt.s 			page 10


 490:.\Generated_Source\PSoC4/CyFlash.c **** {
 491:.\Generated_Source\PSoC4/CyFlash.c ****     volatile uint32 retValue = CY_SYS_FLASH_SUCCESS;
 492:.\Generated_Source\PSoC4/CyFlash.c ****     volatile uint32 clkCnfRetValue = CY_SYS_FLASH_SUCCESS;
 493:.\Generated_Source\PSoC4/CyFlash.c ****     volatile uint32 parameters[(CY_FLASH_SIZEOF_ROW + CY_FLASH_SRAM_ROM_DATA)/4u];
 494:.\Generated_Source\PSoC4/CyFlash.c ****     uint8  interruptState;
 495:.\Generated_Source\PSoC4/CyFlash.c **** 
 496:.\Generated_Source\PSoC4/CyFlash.c **** 
 497:.\Generated_Source\PSoC4/CyFlash.c ****     if ((rowNum < CY_SFLASH_NUMBER_USERROWS) && (rowData != 0u))
 498:.\Generated_Source\PSoC4/CyFlash.c ****     {
 499:.\Generated_Source\PSoC4/CyFlash.c ****         /* Load Flash Bytes */
 500:.\Generated_Source\PSoC4/CyFlash.c ****         parameters[0u] = (uint32) (CY_FLASH_GET_MACRO_FROM_ROW(rowNum)        << CY_FLASH_PARAM_MAC
 501:.\Generated_Source\PSoC4/CyFlash.c ****                          (uint32) (CY_FLASH_PAGE_LATCH_START_ADDR             << CY_FLASH_PARAM_ADD
 502:.\Generated_Source\PSoC4/CyFlash.c ****                          (uint32) (CY_FLASH_KEY_TWO(CY_FLASH_API_OPCODE_LOAD) << CY_FLASH_PARAM_KEY
 503:.\Generated_Source\PSoC4/CyFlash.c ****                          CY_FLASH_KEY_ONE;
 504:.\Generated_Source\PSoC4/CyFlash.c ****         parameters[1u] = CY_FLASH_SIZEOF_ROW - 1u;
 505:.\Generated_Source\PSoC4/CyFlash.c **** 
 506:.\Generated_Source\PSoC4/CyFlash.c ****         (void)memcpy((void *)&parameters[2u], rowData, CY_FLASH_SIZEOF_ROW);
 507:.\Generated_Source\PSoC4/CyFlash.c ****         CY_FLASH_CPUSS_SYSARG_REG = (uint32) &parameters[0u];
 508:.\Generated_Source\PSoC4/CyFlash.c ****         CY_FLASH_CPUSS_SYSREQ_REG = CY_FLASH_CPUSS_REQ_START | CY_FLASH_API_OPCODE_LOAD;
 509:.\Generated_Source\PSoC4/CyFlash.c ****         CY_NOP;
 510:.\Generated_Source\PSoC4/CyFlash.c ****         retValue = CY_FLASH_API_RETURN;
 511:.\Generated_Source\PSoC4/CyFlash.c **** 
 512:.\Generated_Source\PSoC4/CyFlash.c ****         if(retValue == CY_SYS_FLASH_SUCCESS)
 513:.\Generated_Source\PSoC4/CyFlash.c ****         {
 514:.\Generated_Source\PSoC4/CyFlash.c ****             /***************************************************************
 515:.\Generated_Source\PSoC4/CyFlash.c ****             * Mask all the exceptions to guarantee that Flash write will
 516:.\Generated_Source\PSoC4/CyFlash.c ****             * occur in the atomic way. It will not affect system call
 517:.\Generated_Source\PSoC4/CyFlash.c ****             * execution (flash row write) since it is executed in the NMI
 518:.\Generated_Source\PSoC4/CyFlash.c ****             * context.
 519:.\Generated_Source\PSoC4/CyFlash.c ****             ***************************************************************/
 520:.\Generated_Source\PSoC4/CyFlash.c ****             interruptState = CyEnterCriticalSection();
 521:.\Generated_Source\PSoC4/CyFlash.c **** 
 522:.\Generated_Source\PSoC4/CyFlash.c ****             clkCnfRetValue = CySysFlashClockBackup();
 523:.\Generated_Source\PSoC4/CyFlash.c **** 
 524:.\Generated_Source\PSoC4/CyFlash.c ****         #if(CY_IP_SPCIF_SYNCHRONOUS)
 525:.\Generated_Source\PSoC4/CyFlash.c ****             if(clkCnfRetValue == CY_SYS_FLASH_SUCCESS)
 526:.\Generated_Source\PSoC4/CyFlash.c ****             {
 527:.\Generated_Source\PSoC4/CyFlash.c ****                 retValue = CySysFlashClockConfig();
 528:.\Generated_Source\PSoC4/CyFlash.c ****             }
 529:.\Generated_Source\PSoC4/CyFlash.c ****         #endif  /* (CY_IP_SPCIF_SYNCHRONOUS) */
 530:.\Generated_Source\PSoC4/CyFlash.c **** 
 531:.\Generated_Source\PSoC4/CyFlash.c ****             if(retValue == CY_SYS_FLASH_SUCCESS)
 532:.\Generated_Source\PSoC4/CyFlash.c ****             {
 533:.\Generated_Source\PSoC4/CyFlash.c ****                 /* Write User Sflash Row */
 534:.\Generated_Source\PSoC4/CyFlash.c ****                 parameters[0u]  = (uint32) (((uint32) CY_FLASH_KEY_TWO(CY_FLASH_API_OPCODE_WRITE_SF
 535:.\Generated_Source\PSoC4/CyFlash.c ****                 parameters[1u] = (uint32) rowNum;
 536:.\Generated_Source\PSoC4/CyFlash.c **** 
 537:.\Generated_Source\PSoC4/CyFlash.c ****                 CY_FLASH_CPUSS_SYSARG_REG = (uint32) &parameters[0u];
 538:.\Generated_Source\PSoC4/CyFlash.c ****                 CY_FLASH_CPUSS_SYSREQ_REG = CY_FLASH_CPUSS_REQ_START | CY_FLASH_API_OPCODE_WRITE_SF
 539:.\Generated_Source\PSoC4/CyFlash.c ****                 CY_NOP;
 540:.\Generated_Source\PSoC4/CyFlash.c ****                 retValue = CY_FLASH_API_RETURN;
 541:.\Generated_Source\PSoC4/CyFlash.c ****             }
 542:.\Generated_Source\PSoC4/CyFlash.c **** 
 543:.\Generated_Source\PSoC4/CyFlash.c ****             if(clkCnfRetValue == CY_SYS_FLASH_SUCCESS)
 544:.\Generated_Source\PSoC4/CyFlash.c ****             {
 545:.\Generated_Source\PSoC4/CyFlash.c ****                 clkCnfRetValue = CySysFlashClockRestore();
 546:.\Generated_Source\PSoC4/CyFlash.c ****             }
ARM GAS  C:\Users\Alan\AppData\Local\Temp\ccs0grLt.s 			page 11


 547:.\Generated_Source\PSoC4/CyFlash.c ****             CyExitCriticalSection(interruptState);
 548:.\Generated_Source\PSoC4/CyFlash.c ****         }
 549:.\Generated_Source\PSoC4/CyFlash.c ****     }
 550:.\Generated_Source\PSoC4/CyFlash.c ****     else
 551:.\Generated_Source\PSoC4/CyFlash.c ****     {
 552:.\Generated_Source\PSoC4/CyFlash.c ****         retValue = CY_SYS_FLASH_INVALID_ADDR;
 553:.\Generated_Source\PSoC4/CyFlash.c ****     }
 554:.\Generated_Source\PSoC4/CyFlash.c **** 
 555:.\Generated_Source\PSoC4/CyFlash.c ****     return (retValue);
 556:.\Generated_Source\PSoC4/CyFlash.c **** }
 557:.\Generated_Source\PSoC4/CyFlash.c **** #endif /* (CY_SFLASH_XTRA_ROWS) */
 558:.\Generated_Source\PSoC4/CyFlash.c **** 
 559:.\Generated_Source\PSoC4/CyFlash.c **** 
 560:.\Generated_Source\PSoC4/CyFlash.c **** /*******************************************************************************
 561:.\Generated_Source\PSoC4/CyFlash.c **** * Function Name: CySysFlashClockBackup
 562:.\Generated_Source\PSoC4/CyFlash.c **** ****************************************************************************//**
 563:.\Generated_Source\PSoC4/CyFlash.c **** *
 564:.\Generated_Source\PSoC4/CyFlash.c **** * Backups the device clock configuration.
 565:.\Generated_Source\PSoC4/CyFlash.c **** *
 566:.\Generated_Source\PSoC4/CyFlash.c **** * \return The same as \ref CySysFlashWriteRow().
 567:.\Generated_Source\PSoC4/CyFlash.c **** *
 568:.\Generated_Source\PSoC4/CyFlash.c **** *******************************************************************************/
 569:.\Generated_Source\PSoC4/CyFlash.c **** static cystatus CySysFlashClockBackup(void)
 570:.\Generated_Source\PSoC4/CyFlash.c **** {
  25              		.loc 1 570 0
  26              		.cfi_startproc
  27 0000 82B0     		sub	sp, sp, #8
  28              		.cfi_def_cfa_offset 8
  29              	.LVL0:
 571:.\Generated_Source\PSoC4/CyFlash.c ****     cystatus retValue = CY_SYS_FLASH_SUCCESS;
 572:.\Generated_Source\PSoC4/CyFlash.c **** #if(!CY_IP_FM)
 573:.\Generated_Source\PSoC4/CyFlash.c ****     #if !(CY_PSOC4_4000)
 574:.\Generated_Source\PSoC4/CyFlash.c ****         #if (CY_IP_SPCIF_SYNCHRONOUS)
 575:.\Generated_Source\PSoC4/CyFlash.c ****             volatile uint32   parameters[2u];
 576:.\Generated_Source\PSoC4/CyFlash.c ****         #endif /* (CY_IP_SPCIF_SYNCHRONOUS) */
 577:.\Generated_Source\PSoC4/CyFlash.c ****     #endif  /* !(CY_PSOC4_4000) */
 578:.\Generated_Source\PSoC4/CyFlash.c **** #endif  /* (!CY_IP_FM) */
 579:.\Generated_Source\PSoC4/CyFlash.c **** 
 580:.\Generated_Source\PSoC4/CyFlash.c **** #if(CY_IP_FM)
 581:.\Generated_Source\PSoC4/CyFlash.c **** 
 582:.\Generated_Source\PSoC4/CyFlash.c ****     /***************************************************************
 583:.\Generated_Source\PSoC4/CyFlash.c ****     * Preserve IMO configuration that could be changed during
 584:.\Generated_Source\PSoC4/CyFlash.c ****     * system call execution (Cypress ID #150448).
 585:.\Generated_Source\PSoC4/CyFlash.c ****     ***************************************************************/
 586:.\Generated_Source\PSoC4/CyFlash.c ****     cySysFlashBackup.imoConfigReg = CY_SYS_CLK_IMO_CONFIG_REG;
 587:.\Generated_Source\PSoC4/CyFlash.c **** 
 588:.\Generated_Source\PSoC4/CyFlash.c **** #else   /* (CY_IP_FMLT) */
 589:.\Generated_Source\PSoC4/CyFlash.c **** 
 590:.\Generated_Source\PSoC4/CyFlash.c ****     #if (CY_PSOC4_4000)
 591:.\Generated_Source\PSoC4/CyFlash.c **** 
 592:.\Generated_Source\PSoC4/CyFlash.c ****         /***************************************************************************
 593:.\Generated_Source\PSoC4/CyFlash.c ****         * Perform firmware clock settings backup for the PSOC4 4000 devices (the
 594:.\Generated_Source\PSoC4/CyFlash.c ****         * corresponding system call is not available).
 595:.\Generated_Source\PSoC4/CyFlash.c ****         ***************************************************************************/
 596:.\Generated_Source\PSoC4/CyFlash.c **** 
 597:.\Generated_Source\PSoC4/CyFlash.c ****         /***************************************************************************
 598:.\Generated_Source\PSoC4/CyFlash.c ****         * The registers listed below are modified by CySysFlashClockConfig().
ARM GAS  C:\Users\Alan\AppData\Local\Temp\ccs0grLt.s 			page 12


 599:.\Generated_Source\PSoC4/CyFlash.c ****         *
 600:.\Generated_Source\PSoC4/CyFlash.c ****         * The registers to be saved:
 601:.\Generated_Source\PSoC4/CyFlash.c ****         * - CY_SYS_CLK_IMO_CONFIG_REG - IMO enable state.
 602:.\Generated_Source\PSoC4/CyFlash.c ****         * - CY_SYS_CLK_SELECT_REG     - HFCLK source, divider, pump source. Save
 603:.\Generated_Source\PSoC4/CyFlash.c ****         *                               entire register as it can be directly
 604:.\Generated_Source\PSoC4/CyFlash.c ****         *                               written on restore (no special
 605:.\Generated_Source\PSoC4/CyFlash.c ****         *                               requirements).
 606:.\Generated_Source\PSoC4/CyFlash.c ****         * - CY_SYS_CLK_IMO_SELECT_REG - Save IMO frequency.
 607:.\Generated_Source\PSoC4/CyFlash.c ****         *
 608:.\Generated_Source\PSoC4/CyFlash.c ****         * The registers not to be saved:
 609:.\Generated_Source\PSoC4/CyFlash.c ****         * - CY_SYS_CLK_IMO_TRIM1_REG  - No need to save. Function of frequency.
 610:.\Generated_Source\PSoC4/CyFlash.c ****         *                               Restored by CySysClkWriteImoFreq().
 611:.\Generated_Source\PSoC4/CyFlash.c ****         * - CY_SYS_CLK_IMO_TRIM3_REG  - No need to save. Function of frequency.
 612:.\Generated_Source\PSoC4/CyFlash.c ****         *                               Restored by CySysClkWriteImoFreq().
 613:.\Generated_Source\PSoC4/CyFlash.c ****         * - REG_CPUSS_FLASH_CTL       - Flash wait cycles. Unmodified due to system
 614:.\Generated_Source\PSoC4/CyFlash.c ****         *                               clock 16 MHz limit.
 615:.\Generated_Source\PSoC4/CyFlash.c ****         ***************************************************************************/
 616:.\Generated_Source\PSoC4/CyFlash.c **** 
 617:.\Generated_Source\PSoC4/CyFlash.c ****         cySysFlashBackup.clkSelectReg = CY_SYS_CLK_SELECT_REG;
 618:.\Generated_Source\PSoC4/CyFlash.c ****         cySysFlashBackup.clkImoEna    = CY_SYS_CLK_IMO_CONFIG_REG & CY_SYS_CLK_IMO_CONFIG_ENABLE;
 619:.\Generated_Source\PSoC4/CyFlash.c ****         cySysFlashBackup.clkImoFreq   = CY_SYS_CLK_IMO_MIN_FREQ_MHZ + (CY_SYS_CLK_IMO_SELECT_REG <<
 620:.\Generated_Source\PSoC4/CyFlash.c **** 
 621:.\Generated_Source\PSoC4/CyFlash.c ****     #else
 622:.\Generated_Source\PSoC4/CyFlash.c **** 
 623:.\Generated_Source\PSoC4/CyFlash.c ****         #if (CY_IP_SPCIF_SYNCHRONOUS)
 624:.\Generated_Source\PSoC4/CyFlash.c ****             /* FM-Lite Clock Backup System Call */
 625:.\Generated_Source\PSoC4/CyFlash.c ****             parameters[0u] =
  30              		.loc 1 625 0
  31 0002 0F4B     		ldr	r3, .L6
  32 0004 0093     		str	r3, [sp]
 626:.\Generated_Source\PSoC4/CyFlash.c ****                 (uint32) ((CY_FLASH_KEY_TWO(CY_FLASH_API_OPCODE_CLK_BACKUP) <<  CY_FLASH_PARAM_KEY_
 627:.\Generated_Source\PSoC4/CyFlash.c ****                             CY_FLASH_KEY_ONE);
 628:.\Generated_Source\PSoC4/CyFlash.c ****             parameters[1u] = (uint32) &cySysFlashBackup.clockSettings[0u];
  33              		.loc 1 628 0
  34 0006 0F4B     		ldr	r3, .L6+4
  35 0008 0193     		str	r3, [sp, #4]
 629:.\Generated_Source\PSoC4/CyFlash.c ****             CY_FLASH_CPUSS_SYSARG_REG = (uint32) &parameters[0u];
  36              		.loc 1 629 0
  37 000a 0F4B     		ldr	r3, .L6+8
  38 000c 6A46     		mov	r2, sp
  39 000e 1A60     		str	r2, [r3]
 630:.\Generated_Source\PSoC4/CyFlash.c ****             CY_FLASH_CPUSS_SYSREQ_REG = CY_FLASH_CPUSS_REQ_START | CY_FLASH_API_OPCODE_CLK_BACKUP;
  40              		.loc 1 630 0
  41 0010 0E49     		ldr	r1, .L6+12
  42 0012 0F4A     		ldr	r2, .L6+16
  43 0014 1160     		str	r1, [r2]
 631:.\Generated_Source\PSoC4/CyFlash.c ****             CY_NOP;
  44              		.loc 1 631 0
  45              	@ 631 ".\Generated_Source\PSoC4\CyFlash.c" 1
  46 0016 C046     		NOP
  47              	
  48              	@ 0 "" 2
 632:.\Generated_Source\PSoC4/CyFlash.c ****             retValue = CY_FLASH_API_RETURN;
  49              		.loc 1 632 0
  50              		.code	16
  51 0018 1B68     		ldr	r3, [r3]
  52 001a 1B0F     		lsr	r3, r3, #28
ARM GAS  C:\Users\Alan\AppData\Local\Temp\ccs0grLt.s 			page 13


  53 001c 0F2B     		cmp	r3, #15
  54 001e 04D1     		bne	.L2
  55              		.loc 1 632 0 is_stmt 0 discriminator 1
  56 0020 094B     		ldr	r3, .L6+8
  57 0022 1B68     		ldr	r3, [r3]
  58 0024 FF20     		mov	r0, #255
  59 0026 1840     		and	r0, r3
  60 0028 08E0     		b	.L3
  61              	.L2:
  62              		.loc 1 632 0 discriminator 2
  63 002a 074B     		ldr	r3, .L6+8
  64 002c 1B68     		ldr	r3, [r3]
  65 002e 1B0F     		lsr	r3, r3, #28
  66 0030 0A2B     		cmp	r3, #10
  67 0032 02D0     		beq	.L5
  68              		.loc 1 632 0 discriminator 4
  69 0034 044B     		ldr	r3, .L6+8
  70 0036 1868     		ldr	r0, [r3]
  71              	.LVL1:
  72 0038 00E0     		b	.L3
  73              	.LVL2:
  74              	.L5:
  75              		.loc 1 632 0
  76 003a 0020     		mov	r0, #0
  77              	.LVL3:
  78              	.L3:
 633:.\Generated_Source\PSoC4/CyFlash.c ****         #endif /* (CY_IP_SPCIF_SYNCHRONOUS) */
 634:.\Generated_Source\PSoC4/CyFlash.c **** 
 635:.\Generated_Source\PSoC4/CyFlash.c ****     #endif  /* (CY_PSOC4_4000) */
 636:.\Generated_Source\PSoC4/CyFlash.c **** 
 637:.\Generated_Source\PSoC4/CyFlash.c **** #endif  /* (CY_IP_FM) */
 638:.\Generated_Source\PSoC4/CyFlash.c **** 
 639:.\Generated_Source\PSoC4/CyFlash.c ****     return (retValue);
 640:.\Generated_Source\PSoC4/CyFlash.c **** }
  79              		.loc 1 640 0 is_stmt 1 discriminator 8
  80 003c 02B0     		add	sp, sp, #8
  81              		@ sp needed
  82 003e 7047     		bx	lr
  83              	.L7:
  84              		.align	2
  85              	.L6:
  86 0040 B6E90000 		.word	59830
  87 0044 00000000 		.word	.LANCHOR0
  88 0048 08001040 		.word	1074790408
  89 004c 16000080 		.word	-2147483626
  90 0050 04001040 		.word	1074790404
  91              		.cfi_endproc
  92              	.LFE4:
  93              		.size	CySysFlashClockBackup, .-CySysFlashClockBackup
  94              		.section	.text.CySysFlashClockConfig,"ax",%progbits
  95              		.align	2
  96              		.code	16
  97              		.thumb_func
  98              		.type	CySysFlashClockConfig, %function
  99              	CySysFlashClockConfig:
 100              	.LFB5:
 641:.\Generated_Source\PSoC4/CyFlash.c **** 
ARM GAS  C:\Users\Alan\AppData\Local\Temp\ccs0grLt.s 			page 14


 642:.\Generated_Source\PSoC4/CyFlash.c **** 
 643:.\Generated_Source\PSoC4/CyFlash.c **** #if(CY_IP_SPCIF_SYNCHRONOUS)
 644:.\Generated_Source\PSoC4/CyFlash.c **** /*******************************************************************************
 645:.\Generated_Source\PSoC4/CyFlash.c **** * Function Name: CySysFlashClockConfig
 646:.\Generated_Source\PSoC4/CyFlash.c **** ****************************************************************************//**
 647:.\Generated_Source\PSoC4/CyFlash.c **** *
 648:.\Generated_Source\PSoC4/CyFlash.c **** * Configures the device clocks for the flash writing.
 649:.\Generated_Source\PSoC4/CyFlash.c **** *
 650:.\Generated_Source\PSoC4/CyFlash.c **** * \return The same as \ref CySysFlashWriteRow().
 651:.\Generated_Source\PSoC4/CyFlash.c **** *
 652:.\Generated_Source\PSoC4/CyFlash.c **** *******************************************************************************/
 653:.\Generated_Source\PSoC4/CyFlash.c **** static cystatus CySysFlashClockConfig(void)
 654:.\Generated_Source\PSoC4/CyFlash.c **** {
 101              		.loc 1 654 0
 102              		.cfi_startproc
 103              	.LVL4:
 655:.\Generated_Source\PSoC4/CyFlash.c ****     cystatus retValue = CY_SYS_FLASH_SUCCESS;
 656:.\Generated_Source\PSoC4/CyFlash.c **** 
 657:.\Generated_Source\PSoC4/CyFlash.c ****     /***************************************************************************
 658:.\Generated_Source\PSoC4/CyFlash.c ****     * The FM-Lite IP uses the IMO at 48MHz for the pump clock and SPC timer
 659:.\Generated_Source\PSoC4/CyFlash.c ****     * clock. The PUMP_SEL and HF clock must be set to IMO before calling Flash
 660:.\Generated_Source\PSoC4/CyFlash.c ****     * write or erase operation.
 661:.\Generated_Source\PSoC4/CyFlash.c ****     ***************************************************************************/
 662:.\Generated_Source\PSoC4/CyFlash.c **** #if (CY_PSOC4_4000)
 663:.\Generated_Source\PSoC4/CyFlash.c **** 
 664:.\Generated_Source\PSoC4/CyFlash.c ****     /***************************************************************************
 665:.\Generated_Source\PSoC4/CyFlash.c ****     * Perform firmware clock settings setup for the PSOC4 4000 devices (the
 666:.\Generated_Source\PSoC4/CyFlash.c ****     * corresponding system call is not reliable):
 667:.\Generated_Source\PSoC4/CyFlash.c ****     * - The IMO frequency should be 48 MHz
 668:.\Generated_Source\PSoC4/CyFlash.c ****     * - The IMO should be source for the HFCLK
 669:.\Generated_Source\PSoC4/CyFlash.c ****     * - The IMO should be the source for the charge pump clock
 670:.\Generated_Source\PSoC4/CyFlash.c ****     *
 671:.\Generated_Source\PSoC4/CyFlash.c ****     * Note The structure members used below are initialized by
 672:.\Generated_Source\PSoC4/CyFlash.c ****     * the CySysFlashClockBackup() function.
 673:.\Generated_Source\PSoC4/CyFlash.c ****     ***************************************************************************/
 674:.\Generated_Source\PSoC4/CyFlash.c ****     if ((cySysFlashBackup.clkImoFreq != 48u) ||
 675:.\Generated_Source\PSoC4/CyFlash.c ****         ((cySysFlashBackup.clkSelectReg & CY_SYS_CLK_SELECT_DIRECT_SEL_MASK) != CY_SYS_CLK_HFCLK_IM
 676:.\Generated_Source\PSoC4/CyFlash.c ****         (((cySysFlashBackup.clkSelectReg >> CY_SYS_CLK_SELECT_PUMP_SEL_SHIFT) & CY_SYS_CLK_SELECT_P
 677:.\Generated_Source\PSoC4/CyFlash.c ****             CY_SYS_CLK_SELECT_PUMP_SEL_IMO))
 678:.\Generated_Source\PSoC4/CyFlash.c ****     {
 679:.\Generated_Source\PSoC4/CyFlash.c ****         /***********************************************************************
 680:.\Generated_Source\PSoC4/CyFlash.c ****          Set HFCLK divider to divide-by-4 to ensure that System clock frequency
 681:.\Generated_Source\PSoC4/CyFlash.c ****         * is within the valid limit (16 MHz for the PSoC4 4000).
 682:.\Generated_Source\PSoC4/CyFlash.c ****         ***********************************************************************/
 683:.\Generated_Source\PSoC4/CyFlash.c ****         CySysClkWriteHfclkDiv(CY_SYS_CLK_HFCLK_DIV_4);
 684:.\Generated_Source\PSoC4/CyFlash.c **** 
 685:.\Generated_Source\PSoC4/CyFlash.c ****         /* The IMO frequency should be 48 MHz */
 686:.\Generated_Source\PSoC4/CyFlash.c ****         if (cySysFlashBackup.clkImoFreq != 48u)
 687:.\Generated_Source\PSoC4/CyFlash.c ****         {
 688:.\Generated_Source\PSoC4/CyFlash.c ****             CySysClkWriteImoFreq(48u);
 689:.\Generated_Source\PSoC4/CyFlash.c ****         }
 690:.\Generated_Source\PSoC4/CyFlash.c ****         CySysClkImoStart();
 691:.\Generated_Source\PSoC4/CyFlash.c **** 
 692:.\Generated_Source\PSoC4/CyFlash.c ****         /* The IMO should be source for the HFCLK */
 693:.\Generated_Source\PSoC4/CyFlash.c ****         CySysClkWriteHfclkDirect(CY_SYS_CLK_HFCLK_IMO);
 694:.\Generated_Source\PSoC4/CyFlash.c **** 
 695:.\Generated_Source\PSoC4/CyFlash.c ****         /* The IMO should be the source for the charge pump clock */
ARM GAS  C:\Users\Alan\AppData\Local\Temp\ccs0grLt.s 			page 15


 696:.\Generated_Source\PSoC4/CyFlash.c ****         CY_SYS_CLK_SELECT_REG =  (CY_SYS_CLK_SELECT_REG &
 697:.\Generated_Source\PSoC4/CyFlash.c ****             ((uint32)~(uint32)(CY_SYS_CLK_SELECT_PUMP_SEL_MASK << CY_SYS_CLK_SELECT_PUMP_SEL_SHIFT)
 698:.\Generated_Source\PSoC4/CyFlash.c ****             ((uint32)((uint32)1u << CY_SYS_CLK_SELECT_PUMP_SEL_SHIFT));
 699:.\Generated_Source\PSoC4/CyFlash.c ****     }
 700:.\Generated_Source\PSoC4/CyFlash.c **** 
 701:.\Generated_Source\PSoC4/CyFlash.c **** #else
 702:.\Generated_Source\PSoC4/CyFlash.c **** 
 703:.\Generated_Source\PSoC4/CyFlash.c ****     /* FM-Lite Clock Configuration */
 704:.\Generated_Source\PSoC4/CyFlash.c ****     CY_FLASH_CPUSS_SYSARG_REG =
 104              		.loc 1 704 0
 105 0000 0C4B     		ldr	r3, .L13
 106 0002 0D4A     		ldr	r2, .L13+4
 107 0004 1A60     		str	r2, [r3]
 705:.\Generated_Source\PSoC4/CyFlash.c ****         (uint32) ((CY_FLASH_KEY_TWO(CY_FLASH_API_OPCODE_CLK_CONFIG) <<  CY_FLASH_PARAM_KEY_TWO_OFFS
 706:.\Generated_Source\PSoC4/CyFlash.c ****                     CY_FLASH_KEY_ONE);
 707:.\Generated_Source\PSoC4/CyFlash.c ****     CY_FLASH_CPUSS_SYSREQ_REG = CY_FLASH_CPUSS_REQ_START | CY_FLASH_API_OPCODE_CLK_CONFIG;
 108              		.loc 1 707 0
 109 0006 0D49     		ldr	r1, .L13+8
 110 0008 0D4A     		ldr	r2, .L13+12
 111 000a 1160     		str	r1, [r2]
 708:.\Generated_Source\PSoC4/CyFlash.c ****     CY_NOP;
 112              		.loc 1 708 0
 113              	@ 708 ".\Generated_Source\PSoC4\CyFlash.c" 1
 114 000c C046     		NOP
 115              	
 116              	@ 0 "" 2
 709:.\Generated_Source\PSoC4/CyFlash.c ****     retValue = CY_FLASH_API_RETURN;
 117              		.loc 1 709 0
 118              		.code	16
 119 000e 1B68     		ldr	r3, [r3]
 120 0010 1B0F     		lsr	r3, r3, #28
 121 0012 0F2B     		cmp	r3, #15
 122 0014 04D1     		bne	.L9
 123              		.loc 1 709 0 is_stmt 0 discriminator 1
 124 0016 074B     		ldr	r3, .L13
 125 0018 1B68     		ldr	r3, [r3]
 126 001a FF20     		mov	r0, #255
 127 001c 1840     		and	r0, r3
 128 001e 08E0     		b	.L10
 129              	.L9:
 130              		.loc 1 709 0 discriminator 2
 131 0020 044B     		ldr	r3, .L13
 132 0022 1B68     		ldr	r3, [r3]
 133 0024 1B0F     		lsr	r3, r3, #28
 134 0026 0A2B     		cmp	r3, #10
 135 0028 02D0     		beq	.L12
 136              		.loc 1 709 0 discriminator 4
 137 002a 024B     		ldr	r3, .L13
 138 002c 1868     		ldr	r0, [r3]
 139              	.LVL5:
 140 002e 00E0     		b	.L10
 141              	.LVL6:
 142              	.L12:
 143              		.loc 1 709 0
 144 0030 0020     		mov	r0, #0
 145              	.LVL7:
 146              	.L10:
ARM GAS  C:\Users\Alan\AppData\Local\Temp\ccs0grLt.s 			page 16


 710:.\Generated_Source\PSoC4/CyFlash.c **** 
 711:.\Generated_Source\PSoC4/CyFlash.c **** #endif  /* (CY_PSOC4_4000) */
 712:.\Generated_Source\PSoC4/CyFlash.c **** 
 713:.\Generated_Source\PSoC4/CyFlash.c ****     return (retValue);
 714:.\Generated_Source\PSoC4/CyFlash.c **** }
 147              		.loc 1 714 0 is_stmt 1 discriminator 8
 148              		@ sp needed
 149 0032 7047     		bx	lr
 150              	.L14:
 151              		.align	2
 152              	.L13:
 153 0034 08001040 		.word	1074790408
 154 0038 B6E80000 		.word	59574
 155 003c 15000080 		.word	-2147483627
 156 0040 04001040 		.word	1074790404
 157              		.cfi_endproc
 158              	.LFE5:
 159              		.size	CySysFlashClockConfig, .-CySysFlashClockConfig
 160              		.section	.text.CySysFlashClockRestore,"ax",%progbits
 161              		.align	2
 162              		.code	16
 163              		.thumb_func
 164              		.type	CySysFlashClockRestore, %function
 165              	CySysFlashClockRestore:
 166              	.LFB6:
 715:.\Generated_Source\PSoC4/CyFlash.c **** #endif  /* (CY_IP_SPCIF_SYNCHRONOUS) */
 716:.\Generated_Source\PSoC4/CyFlash.c **** 
 717:.\Generated_Source\PSoC4/CyFlash.c **** 
 718:.\Generated_Source\PSoC4/CyFlash.c **** /*******************************************************************************
 719:.\Generated_Source\PSoC4/CyFlash.c **** * Function Name: CySysFlashClockRestore
 720:.\Generated_Source\PSoC4/CyFlash.c **** ****************************************************************************//**
 721:.\Generated_Source\PSoC4/CyFlash.c **** *
 722:.\Generated_Source\PSoC4/CyFlash.c **** * Restores the device clock configuration.
 723:.\Generated_Source\PSoC4/CyFlash.c **** *
 724:.\Generated_Source\PSoC4/CyFlash.c **** * \return The same as \ref CySysFlashWriteRow().
 725:.\Generated_Source\PSoC4/CyFlash.c **** *
 726:.\Generated_Source\PSoC4/CyFlash.c **** *******************************************************************************/
 727:.\Generated_Source\PSoC4/CyFlash.c **** static cystatus CySysFlashClockRestore(void)
 728:.\Generated_Source\PSoC4/CyFlash.c **** {
 167              		.loc 1 728 0
 168              		.cfi_startproc
 169 0000 82B0     		sub	sp, sp, #8
 170              		.cfi_def_cfa_offset 8
 171              	.LVL8:
 729:.\Generated_Source\PSoC4/CyFlash.c ****     cystatus retValue = CY_SYS_FLASH_SUCCESS;
 730:.\Generated_Source\PSoC4/CyFlash.c **** #if(!CY_IP_FM)
 731:.\Generated_Source\PSoC4/CyFlash.c ****     #if !(CY_PSOC4_4000)
 732:.\Generated_Source\PSoC4/CyFlash.c ****         #if (CY_IP_SPCIF_SYNCHRONOUS)
 733:.\Generated_Source\PSoC4/CyFlash.c ****             volatile uint32   parameters[2u];
 734:.\Generated_Source\PSoC4/CyFlash.c ****         #endif /* (CY_IP_SPCIF_SYNCHRONOUS) */
 735:.\Generated_Source\PSoC4/CyFlash.c ****     #endif  /* !(CY_PSOC4_4000) */
 736:.\Generated_Source\PSoC4/CyFlash.c **** #endif  /* (!CY_IP_FM) */
 737:.\Generated_Source\PSoC4/CyFlash.c **** 
 738:.\Generated_Source\PSoC4/CyFlash.c **** #if(CY_IP_FM)
 739:.\Generated_Source\PSoC4/CyFlash.c **** 
 740:.\Generated_Source\PSoC4/CyFlash.c ****     /***************************************************************
 741:.\Generated_Source\PSoC4/CyFlash.c ****     * Restore IMO configuration that could be changed during
ARM GAS  C:\Users\Alan\AppData\Local\Temp\ccs0grLt.s 			page 17


 742:.\Generated_Source\PSoC4/CyFlash.c ****     * system call execution (Cypress ID #150448).
 743:.\Generated_Source\PSoC4/CyFlash.c ****     ***************************************************************/
 744:.\Generated_Source\PSoC4/CyFlash.c ****     CY_SYS_CLK_IMO_CONFIG_REG = cySysFlashBackup.imoConfigReg;
 745:.\Generated_Source\PSoC4/CyFlash.c **** 
 746:.\Generated_Source\PSoC4/CyFlash.c **** #else
 747:.\Generated_Source\PSoC4/CyFlash.c **** 
 748:.\Generated_Source\PSoC4/CyFlash.c ****     #if (CY_PSOC4_4000)
 749:.\Generated_Source\PSoC4/CyFlash.c **** 
 750:.\Generated_Source\PSoC4/CyFlash.c ****         /***************************************************************************
 751:.\Generated_Source\PSoC4/CyFlash.c ****         * Perform firmware clock settings restore for the PSOC4 4000 devices (the
 752:.\Generated_Source\PSoC4/CyFlash.c ****         * corresponding system call is not available).
 753:.\Generated_Source\PSoC4/CyFlash.c ****         ***************************************************************************/
 754:.\Generated_Source\PSoC4/CyFlash.c **** 
 755:.\Generated_Source\PSoC4/CyFlash.c ****         /* Restore clock settings */
 756:.\Generated_Source\PSoC4/CyFlash.c ****         if ((cySysFlashBackup.clkImoFreq != 48u) ||
 757:.\Generated_Source\PSoC4/CyFlash.c ****             ((cySysFlashBackup.clkSelectReg & CY_SYS_CLK_SELECT_DIRECT_SEL_MASK) != CY_SYS_CLK_HFCL
 758:.\Generated_Source\PSoC4/CyFlash.c ****             (((cySysFlashBackup.clkSelectReg >> CY_SYS_CLK_SELECT_PUMP_SEL_SHIFT) & CY_SYS_CLK_SELE
 759:.\Generated_Source\PSoC4/CyFlash.c ****                 CY_SYS_CLK_SELECT_PUMP_SEL_IMO))
 760:.\Generated_Source\PSoC4/CyFlash.c ****         {
 761:.\Generated_Source\PSoC4/CyFlash.c ****             /* Restore IMO frequency if needed */
 762:.\Generated_Source\PSoC4/CyFlash.c ****             if (cySysFlashBackup.clkImoFreq != 48u)
 763:.\Generated_Source\PSoC4/CyFlash.c ****             {
 764:.\Generated_Source\PSoC4/CyFlash.c ****                 CySysClkWriteImoFreq(cySysFlashBackup.clkImoFreq);
 765:.\Generated_Source\PSoC4/CyFlash.c ****             }
 766:.\Generated_Source\PSoC4/CyFlash.c **** 
 767:.\Generated_Source\PSoC4/CyFlash.c ****             /* Restore HFCLK clock source */
 768:.\Generated_Source\PSoC4/CyFlash.c ****             CySysClkWriteHfclkDirect(cySysFlashBackup.clkSelectReg & CY_SYS_CLK_SELECT_DIRECT_SEL_M
 769:.\Generated_Source\PSoC4/CyFlash.c **** 
 770:.\Generated_Source\PSoC4/CyFlash.c ****             /* Restore HFCLK divider and source for pump  */
 771:.\Generated_Source\PSoC4/CyFlash.c ****             CY_SYS_CLK_SELECT_REG = cySysFlashBackup.clkSelectReg;
 772:.\Generated_Source\PSoC4/CyFlash.c **** 
 773:.\Generated_Source\PSoC4/CyFlash.c ****             /* Stop IMO if needed */
 774:.\Generated_Source\PSoC4/CyFlash.c ****             if (0u == cySysFlashBackup.clkImoEna)
 775:.\Generated_Source\PSoC4/CyFlash.c ****             {
 776:.\Generated_Source\PSoC4/CyFlash.c ****                 CySysClkImoStop();
 777:.\Generated_Source\PSoC4/CyFlash.c ****             }
 778:.\Generated_Source\PSoC4/CyFlash.c ****         }
 779:.\Generated_Source\PSoC4/CyFlash.c **** 
 780:.\Generated_Source\PSoC4/CyFlash.c ****     #else
 781:.\Generated_Source\PSoC4/CyFlash.c **** 
 782:.\Generated_Source\PSoC4/CyFlash.c ****         #if (CY_IP_SPCIF_SYNCHRONOUS)
 783:.\Generated_Source\PSoC4/CyFlash.c ****             /* FM-Lite Clock Restore */
 784:.\Generated_Source\PSoC4/CyFlash.c ****             parameters[0u] =
 172              		.loc 1 784 0
 173 0002 0F4B     		ldr	r3, .L20
 174 0004 0093     		str	r3, [sp]
 785:.\Generated_Source\PSoC4/CyFlash.c ****                 (uint32) ((CY_FLASH_KEY_TWO(CY_FLASH_API_OPCODE_CLK_RESTORE) <<  CY_FLASH_PARAM_KEY
 786:.\Generated_Source\PSoC4/CyFlash.c ****                             CY_FLASH_KEY_ONE);
 787:.\Generated_Source\PSoC4/CyFlash.c ****             parameters[1u] = (uint32) &cySysFlashBackup.clockSettings[0u];
 175              		.loc 1 787 0
 176 0006 0F4B     		ldr	r3, .L20+4
 177 0008 0193     		str	r3, [sp, #4]
 788:.\Generated_Source\PSoC4/CyFlash.c ****             CY_FLASH_CPUSS_SYSARG_REG = (uint32) &parameters[0u];
 178              		.loc 1 788 0
 179 000a 0F4B     		ldr	r3, .L20+8
 180 000c 6A46     		mov	r2, sp
 181 000e 1A60     		str	r2, [r3]
ARM GAS  C:\Users\Alan\AppData\Local\Temp\ccs0grLt.s 			page 18


 789:.\Generated_Source\PSoC4/CyFlash.c ****             CY_FLASH_CPUSS_SYSREQ_REG = CY_FLASH_CPUSS_REQ_START | CY_FLASH_API_OPCODE_CLK_RESTORE;
 182              		.loc 1 789 0
 183 0010 0E49     		ldr	r1, .L20+12
 184 0012 0F4A     		ldr	r2, .L20+16
 185 0014 1160     		str	r1, [r2]
 790:.\Generated_Source\PSoC4/CyFlash.c ****             CY_NOP;
 186              		.loc 1 790 0
 187              	@ 790 ".\Generated_Source\PSoC4\CyFlash.c" 1
 188 0016 C046     		NOP
 189              	
 190              	@ 0 "" 2
 791:.\Generated_Source\PSoC4/CyFlash.c ****             retValue = CY_FLASH_API_RETURN;
 191              		.loc 1 791 0
 192              		.code	16
 193 0018 1B68     		ldr	r3, [r3]
 194 001a 1B0F     		lsr	r3, r3, #28
 195 001c 0F2B     		cmp	r3, #15
 196 001e 04D1     		bne	.L16
 197              		.loc 1 791 0 is_stmt 0 discriminator 1
 198 0020 094B     		ldr	r3, .L20+8
 199 0022 1B68     		ldr	r3, [r3]
 200 0024 FF20     		mov	r0, #255
 201 0026 1840     		and	r0, r3
 202 0028 08E0     		b	.L17
 203              	.L16:
 204              		.loc 1 791 0 discriminator 2
 205 002a 074B     		ldr	r3, .L20+8
 206 002c 1B68     		ldr	r3, [r3]
 207 002e 1B0F     		lsr	r3, r3, #28
 208 0030 0A2B     		cmp	r3, #10
 209 0032 02D0     		beq	.L19
 210              		.loc 1 791 0 discriminator 4
 211 0034 044B     		ldr	r3, .L20+8
 212 0036 1868     		ldr	r0, [r3]
 213              	.LVL9:
 214 0038 00E0     		b	.L17
 215              	.LVL10:
 216              	.L19:
 217              		.loc 1 791 0
 218 003a 0020     		mov	r0, #0
 219              	.LVL11:
 220              	.L17:
 792:.\Generated_Source\PSoC4/CyFlash.c ****         #endif /* (CY_IP_SPCIF_SYNCHRONOUS) */
 793:.\Generated_Source\PSoC4/CyFlash.c **** 
 794:.\Generated_Source\PSoC4/CyFlash.c ****     #endif  /* (CY_PSOC4_4000) */
 795:.\Generated_Source\PSoC4/CyFlash.c **** 
 796:.\Generated_Source\PSoC4/CyFlash.c **** #endif  /* (CY_IP_FM) */
 797:.\Generated_Source\PSoC4/CyFlash.c **** 
 798:.\Generated_Source\PSoC4/CyFlash.c ****     return (retValue);
 799:.\Generated_Source\PSoC4/CyFlash.c **** }
 221              		.loc 1 799 0 is_stmt 1 discriminator 8
 222 003c 02B0     		add	sp, sp, #8
 223              		@ sp needed
 224 003e 7047     		bx	lr
 225              	.L21:
 226              		.align	2
 227              	.L20:
ARM GAS  C:\Users\Alan\AppData\Local\Temp\ccs0grLt.s 			page 19


 228 0040 B6EA0000 		.word	60086
 229 0044 00000000 		.word	.LANCHOR0
 230 0048 08001040 		.word	1074790408
 231 004c 17000080 		.word	-2147483625
 232 0050 04001040 		.word	1074790404
 233              		.cfi_endproc
 234              	.LFE6:
 235              		.size	CySysFlashClockRestore, .-CySysFlashClockRestore
 236              		.section	.text.CySysFlashWriteRow,"ax",%progbits
 237              		.align	2
 238              		.global	CySysFlashWriteRow
 239              		.code	16
 240              		.thumb_func
 241              		.type	CySysFlashWriteRow, %function
 242              	CySysFlashWriteRow:
 243              	.LFB1:
  81:.\Generated_Source\PSoC4/CyFlash.c ****     volatile uint32 retValue = CY_SYS_FLASH_SUCCESS;
 244              		.loc 1 81 0
 245              		.cfi_startproc
 246              	.LVL12:
 247 0000 30B5     		push	{r4, r5, lr}
 248              		.cfi_def_cfa_offset 12
 249              		.cfi_offset 4, -12
 250              		.cfi_offset 5, -8
 251              		.cfi_offset 14, -4
 252 0002 A5B0     		sub	sp, sp, #148
 253              		.cfi_def_cfa_offset 160
  82:.\Generated_Source\PSoC4/CyFlash.c ****     volatile uint32 clkCnfRetValue = CY_SYS_FLASH_SUCCESS;
 254              		.loc 1 82 0
 255 0004 0023     		mov	r3, #0
 256 0006 2393     		str	r3, [sp, #140]
  83:.\Generated_Source\PSoC4/CyFlash.c ****     volatile uint32 parameters[(CY_FLASH_SIZEOF_ROW + CY_FLASH_SRAM_ROM_DATA) / sizeof(uint32)];
 257              		.loc 1 83 0
 258 0008 2293     		str	r3, [sp, #136]
  96:.\Generated_Source\PSoC4/CyFlash.c ****     {
 259              		.loc 1 96 0
 260 000a FF28     		cmp	r0, #255
 261 000c 60D8     		bhi	.L23
  96:.\Generated_Source\PSoC4/CyFlash.c ****     {
 262              		.loc 1 96 0 is_stmt 0 discriminator 1
 263 000e 0029     		cmp	r1, #0
 264 0010 5ED0     		beq	.L23
 265 0012 041C     		mov	r4, r0
  99:.\Generated_Source\PSoC4/CyFlash.c **** 
 266              		.loc 1 99 0 is_stmt 1
 267 0014 02A8     		add	r0, sp, #8
 268              	.LVL13:
 269 0016 8022     		mov	r2, #128
 270 0018 FFF7FEFF 		bl	memcpy
 271              	.LVL14:
 123:.\Generated_Source\PSoC4/CyFlash.c ****                          (uint32) (CY_FLASH_PAGE_LATCH_START_ADDR             << CY_FLASH_PARAM_ADD
 272              		.loc 1 123 0
 273 001c 2F4B     		ldr	r3, .L36
 274 001e 0093     		str	r3, [sp]
 127:.\Generated_Source\PSoC4/CyFlash.c **** 
 275              		.loc 1 127 0
 276 0020 7F23     		mov	r3, #127
ARM GAS  C:\Users\Alan\AppData\Local\Temp\ccs0grLt.s 			page 20


 277 0022 0193     		str	r3, [sp, #4]
 129:.\Generated_Source\PSoC4/CyFlash.c ****         CY_FLASH_CPUSS_SYSREQ_REG = CY_FLASH_CPUSS_REQ_START | CY_FLASH_API_OPCODE_LOAD;
 278              		.loc 1 129 0
 279 0024 2E4B     		ldr	r3, .L36+4
 280 0026 6A46     		mov	r2, sp
 281 0028 1A60     		str	r2, [r3]
 130:.\Generated_Source\PSoC4/CyFlash.c ****         CY_NOP;
 282              		.loc 1 130 0
 283 002a 2E49     		ldr	r1, .L36+8
 284 002c 2E4A     		ldr	r2, .L36+12
 285 002e 1160     		str	r1, [r2]
 131:.\Generated_Source\PSoC4/CyFlash.c ****         retValue = CY_FLASH_API_RETURN;
 286              		.loc 1 131 0
 287              	@ 131 ".\Generated_Source\PSoC4\CyFlash.c" 1
 288 0030 C046     		NOP
 289              	
 290              	@ 0 "" 2
 132:.\Generated_Source\PSoC4/CyFlash.c **** 
 291              		.loc 1 132 0
 292              		.code	16
 293 0032 1B68     		ldr	r3, [r3]
 294 0034 1B0F     		lsr	r3, r3, #28
 295 0036 0F2B     		cmp	r3, #15
 296 0038 04D1     		bne	.L24
 132:.\Generated_Source\PSoC4/CyFlash.c **** 
 297              		.loc 1 132 0 is_stmt 0 discriminator 1
 298 003a 294B     		ldr	r3, .L36+4
 299 003c 1B68     		ldr	r3, [r3]
 300 003e FF22     		mov	r2, #255
 301 0040 1340     		and	r3, r2
 302 0042 08E0     		b	.L25
 303              	.L24:
 132:.\Generated_Source\PSoC4/CyFlash.c **** 
 304              		.loc 1 132 0 discriminator 2
 305 0044 264B     		ldr	r3, .L36+4
 306 0046 1B68     		ldr	r3, [r3]
 307 0048 1B0F     		lsr	r3, r3, #28
 308 004a 0A2B     		cmp	r3, #10
 309 004c 02D0     		beq	.L34
 132:.\Generated_Source\PSoC4/CyFlash.c **** 
 310              		.loc 1 132 0 discriminator 4
 311 004e 244B     		ldr	r3, .L36+4
 312 0050 1B68     		ldr	r3, [r3]
 313 0052 00E0     		b	.L25
 314              	.L34:
 132:.\Generated_Source\PSoC4/CyFlash.c **** 
 315              		.loc 1 132 0
 316 0054 0023     		mov	r3, #0
 317              	.L25:
 132:.\Generated_Source\PSoC4/CyFlash.c **** 
 318              		.loc 1 132 0 discriminator 8
 319 0056 2393     		str	r3, [sp, #140]
 134:.\Generated_Source\PSoC4/CyFlash.c ****         {
 320              		.loc 1 134 0 is_stmt 1 discriminator 8
 321 0058 239B     		ldr	r3, [sp, #140]
 322 005a 002B     		cmp	r3, #0
 323 005c 3AD1     		bne	.L27
ARM GAS  C:\Users\Alan\AppData\Local\Temp\ccs0grLt.s 			page 21


 142:.\Generated_Source\PSoC4/CyFlash.c **** 
 324              		.loc 1 142 0
 325 005e FFF7FEFF 		bl	CyEnterCriticalSection
 326              	.LVL15:
 327 0062 051C     		mov	r5, r0
 328              	.LVL16:
 144:.\Generated_Source\PSoC4/CyFlash.c **** 
 329              		.loc 1 144 0
 330 0064 FFF7FEFF 		bl	CySysFlashClockBackup
 331              	.LVL17:
 332 0068 2290     		str	r0, [sp, #136]
 147:.\Generated_Source\PSoC4/CyFlash.c ****             {
 333              		.loc 1 147 0
 334 006a 229B     		ldr	r3, [sp, #136]
 335 006c 002B     		cmp	r3, #0
 336 006e 02D1     		bne	.L28
 149:.\Generated_Source\PSoC4/CyFlash.c ****             }
 337              		.loc 1 149 0
 338 0070 FFF7FEFF 		bl	CySysFlashClockConfig
 339              	.LVL18:
 340 0074 2390     		str	r0, [sp, #140]
 341              	.L28:
 153:.\Generated_Source\PSoC4/CyFlash.c ****             {
 342              		.loc 1 153 0
 343 0076 239B     		ldr	r3, [sp, #140]
 344 0078 002B     		cmp	r3, #0
 345 007a 1FD1     		bne	.L29
 156:.\Generated_Source\PSoC4/CyFlash.c ****                 parameters[0u] |= (uint32)(rowNum << 16u);
 346              		.loc 1 156 0
 347 007c 1B4B     		ldr	r3, .L36+16
 348 007e 0093     		str	r3, [sp]
 157:.\Generated_Source\PSoC4/CyFlash.c **** 
 349              		.loc 1 157 0
 350 0080 009B     		ldr	r3, [sp]
 351 0082 2004     		lsl	r0, r4, #16
 352 0084 1843     		orr	r0, r3
 353 0086 0090     		str	r0, [sp]
 159:.\Generated_Source\PSoC4/CyFlash.c ****                 CY_FLASH_CPUSS_SYSREQ_REG = CY_FLASH_CPUSS_REQ_START | CY_FLASH_API_OPCODE_WRITE_RO
 354              		.loc 1 159 0
 355 0088 154B     		ldr	r3, .L36+4
 356 008a 6A46     		mov	r2, sp
 357 008c 1A60     		str	r2, [r3]
 160:.\Generated_Source\PSoC4/CyFlash.c ****                 CY_NOP;
 358              		.loc 1 160 0
 359 008e 1849     		ldr	r1, .L36+20
 360 0090 154A     		ldr	r2, .L36+12
 361 0092 1160     		str	r1, [r2]
 161:.\Generated_Source\PSoC4/CyFlash.c ****                 retValue = CY_FLASH_API_RETURN;
 362              		.loc 1 161 0
 363              	@ 161 ".\Generated_Source\PSoC4\CyFlash.c" 1
 364 0094 C046     		NOP
 365              	
 366              	@ 0 "" 2
 162:.\Generated_Source\PSoC4/CyFlash.c ****             }
 367              		.loc 1 162 0
 368              		.code	16
 369 0096 1B68     		ldr	r3, [r3]
ARM GAS  C:\Users\Alan\AppData\Local\Temp\ccs0grLt.s 			page 22


 370 0098 1B0F     		lsr	r3, r3, #28
 371 009a 0F2B     		cmp	r3, #15
 372 009c 04D1     		bne	.L30
 162:.\Generated_Source\PSoC4/CyFlash.c ****             }
 373              		.loc 1 162 0 is_stmt 0 discriminator 1
 374 009e 104B     		ldr	r3, .L36+4
 375 00a0 1B68     		ldr	r3, [r3]
 376 00a2 FF22     		mov	r2, #255
 377 00a4 1340     		and	r3, r2
 378 00a6 08E0     		b	.L31
 379              	.L30:
 162:.\Generated_Source\PSoC4/CyFlash.c ****             }
 380              		.loc 1 162 0 discriminator 2
 381 00a8 0D4B     		ldr	r3, .L36+4
 382 00aa 1B68     		ldr	r3, [r3]
 383 00ac 1B0F     		lsr	r3, r3, #28
 384 00ae 0A2B     		cmp	r3, #10
 385 00b0 02D0     		beq	.L35
 162:.\Generated_Source\PSoC4/CyFlash.c ****             }
 386              		.loc 1 162 0 discriminator 4
 387 00b2 0B4B     		ldr	r3, .L36+4
 388 00b4 1B68     		ldr	r3, [r3]
 389 00b6 00E0     		b	.L31
 390              	.L35:
 162:.\Generated_Source\PSoC4/CyFlash.c ****             }
 391              		.loc 1 162 0
 392 00b8 0023     		mov	r3, #0
 393              	.L31:
 162:.\Generated_Source\PSoC4/CyFlash.c ****             }
 394              		.loc 1 162 0 discriminator 8
 395 00ba 2393     		str	r3, [sp, #140]
 396              	.L29:
 201:.\Generated_Source\PSoC4/CyFlash.c ****             {
 397              		.loc 1 201 0 is_stmt 1
 398 00bc 229B     		ldr	r3, [sp, #136]
 399 00be 002B     		cmp	r3, #0
 400 00c0 02D1     		bne	.L33
 203:.\Generated_Source\PSoC4/CyFlash.c ****             }
 401              		.loc 1 203 0
 402 00c2 FFF7FEFF 		bl	CySysFlashClockRestore
 403              	.LVL19:
 404 00c6 2290     		str	r0, [sp, #136]
 405              	.L33:
 206:.\Generated_Source\PSoC4/CyFlash.c ****         }
 406              		.loc 1 206 0
 407 00c8 281C     		mov	r0, r5
 408 00ca FFF7FEFF 		bl	CyExitCriticalSection
 409              	.LVL20:
 410 00ce 01E0     		b	.L27
 411              	.LVL21:
 412              	.L23:
 211:.\Generated_Source\PSoC4/CyFlash.c ****     }
 413              		.loc 1 211 0
 414 00d0 0423     		mov	r3, #4
 415 00d2 2393     		str	r3, [sp, #140]
 416              	.LVL22:
 417              	.L27:
ARM GAS  C:\Users\Alan\AppData\Local\Temp\ccs0grLt.s 			page 23


 214:.\Generated_Source\PSoC4/CyFlash.c **** }
 418              		.loc 1 214 0
 419 00d4 2398     		ldr	r0, [sp, #140]
 215:.\Generated_Source\PSoC4/CyFlash.c **** 
 420              		.loc 1 215 0
 421 00d6 25B0     		add	sp, sp, #148
 422              		@ sp needed
 423 00d8 30BD     		pop	{r4, r5, pc}
 424              	.L37:
 425 00da C046     		.align	2
 426              	.L36:
 427 00dc B6D70000 		.word	55222
 428 00e0 08001040 		.word	1074790408
 429 00e4 04000080 		.word	-2147483644
 430 00e8 04001040 		.word	1074790404
 431 00ec B6D80000 		.word	55478
 432 00f0 05000080 		.word	-2147483643
 433              		.cfi_endproc
 434              	.LFE1:
 435              		.size	CySysFlashWriteRow, .-CySysFlashWriteRow
 436              		.section	.text.CySysFlashSetWaitCycles,"ax",%progbits
 437              		.align	2
 438              		.global	CySysFlashSetWaitCycles
 439              		.code	16
 440              		.thumb_func
 441              		.type	CySysFlashSetWaitCycles, %function
 442              	CySysFlashSetWaitCycles:
 443              	.LFB2:
 422:.\Generated_Source\PSoC4/CyFlash.c ****     uint8  interruptState;
 444              		.loc 1 422 0
 445              		.cfi_startproc
 446              	.LVL23:
 447 0000 38B5     		push	{r3, r4, r5, lr}
 448              		.cfi_def_cfa_offset 16
 449              		.cfi_offset 3, -16
 450              		.cfi_offset 4, -12
 451              		.cfi_offset 5, -8
 452              		.cfi_offset 14, -4
 453 0002 041C     		mov	r4, r0
 425:.\Generated_Source\PSoC4/CyFlash.c **** 
 454              		.loc 1 425 0
 455 0004 FFF7FEFF 		bl	CyEnterCriticalSection
 456              	.LVL24:
 457 0008 051C     		mov	r5, r0
 458              	.LVL25:
 440:.\Generated_Source\PSoC4/CyFlash.c ****             {
 459              		.loc 1 440 0
 460 000a 102C     		cmp	r4, #16
 461 000c 05D8     		bhi	.L39
 442:.\Generated_Source\PSoC4/CyFlash.c ****             } else
 462              		.loc 1 442 0
 463 000e 104A     		ldr	r2, .L43
 464 0010 1368     		ldr	r3, [r2]
 465 0012 0321     		mov	r1, #3
 466 0014 8B43     		bic	r3, r1
 467 0016 1360     		str	r3, [r2]
 468 0018 16E0     		b	.L40
ARM GAS  C:\Users\Alan\AppData\Local\Temp\ccs0grLt.s 			page 24


 469              	.L39:
 444:.\Generated_Source\PSoC4/CyFlash.c ****             {
 470              		.loc 1 444 0
 471 001a 202C     		cmp	r4, #32
 472 001c 07D8     		bhi	.L41
 446:.\Generated_Source\PSoC4/CyFlash.c ****             } else
 473              		.loc 1 446 0
 474 001e 0C49     		ldr	r1, .L43
 475 0020 0B68     		ldr	r3, [r1]
 476 0022 0322     		mov	r2, #3
 477 0024 9343     		bic	r3, r2
 478 0026 023A     		sub	r2, r2, #2
 479 0028 1343     		orr	r3, r2
 480 002a 0B60     		str	r3, [r1]
 481 002c 0CE0     		b	.L40
 482              	.L41:
 449:.\Generated_Source\PSoC4/CyFlash.c ****                 {
 483              		.loc 1 449 0
 484 002e 302C     		cmp	r4, #48
 485 0030 07D8     		bhi	.L42
 451:.\Generated_Source\PSoC4/CyFlash.c ****                 }
 486              		.loc 1 451 0
 487 0032 0749     		ldr	r1, .L43
 488 0034 0B68     		ldr	r3, [r1]
 489 0036 0322     		mov	r2, #3
 490 0038 9343     		bic	r3, r2
 491 003a 013A     		sub	r2, r2, #1
 492 003c 1343     		orr	r3, r2
 493 003e 0B60     		str	r3, [r1]
 494 0040 02E0     		b	.L40
 495              	.L42:
 458:.\Generated_Source\PSoC4/CyFlash.c ****         }
 496              		.loc 1 458 0 discriminator 1
 497 0042 0020     		mov	r0, #0
 498 0044 FFF7FEFF 		bl	CyHalt
 499              	.LVL26:
 500              	.L40:
 463:.\Generated_Source\PSoC4/CyFlash.c **** }
 501              		.loc 1 463 0
 502 0048 281C     		mov	r0, r5
 503 004a FFF7FEFF 		bl	CyExitCriticalSection
 504              	.LVL27:
 464:.\Generated_Source\PSoC4/CyFlash.c **** 
 505              		.loc 1 464 0
 506              		@ sp needed
 507              	.LVL28:
 508              	.LVL29:
 509 004e 38BD     		pop	{r3, r4, r5, pc}
 510              	.L44:
 511              		.align	2
 512              	.L43:
 513 0050 30001040 		.word	1074790448
 514              		.cfi_endproc
 515              	.LFE2:
 516              		.size	CySysFlashSetWaitCycles, .-CySysFlashSetWaitCycles
 517              		.section	.text.CySysSFlashWriteUserRow,"ax",%progbits
 518              		.align	2
ARM GAS  C:\Users\Alan\AppData\Local\Temp\ccs0grLt.s 			page 25


 519              		.global	CySysSFlashWriteUserRow
 520              		.code	16
 521              		.thumb_func
 522              		.type	CySysSFlashWriteUserRow, %function
 523              	CySysSFlashWriteUserRow:
 524              	.LFB3:
 490:.\Generated_Source\PSoC4/CyFlash.c ****     volatile uint32 retValue = CY_SYS_FLASH_SUCCESS;
 525              		.loc 1 490 0
 526              		.cfi_startproc
 527              	.LVL30:
 528 0000 30B5     		push	{r4, r5, lr}
 529              		.cfi_def_cfa_offset 12
 530              		.cfi_offset 4, -12
 531              		.cfi_offset 5, -8
 532              		.cfi_offset 14, -4
 533 0002 A5B0     		sub	sp, sp, #148
 534              		.cfi_def_cfa_offset 160
 491:.\Generated_Source\PSoC4/CyFlash.c ****     volatile uint32 clkCnfRetValue = CY_SYS_FLASH_SUCCESS;
 535              		.loc 1 491 0
 536 0004 0023     		mov	r3, #0
 537 0006 2393     		str	r3, [sp, #140]
 492:.\Generated_Source\PSoC4/CyFlash.c ****     volatile uint32 parameters[(CY_FLASH_SIZEOF_ROW + CY_FLASH_SRAM_ROM_DATA)/4u];
 538              		.loc 1 492 0
 539 0008 2293     		str	r3, [sp, #136]
 497:.\Generated_Source\PSoC4/CyFlash.c ****     {
 540              		.loc 1 497 0
 541 000a 0328     		cmp	r0, #3
 542 000c 5DD8     		bhi	.L46
 497:.\Generated_Source\PSoC4/CyFlash.c ****     {
 543              		.loc 1 497 0 is_stmt 0 discriminator 1
 544 000e 0029     		cmp	r1, #0
 545 0010 5BD0     		beq	.L46
 546 0012 041C     		mov	r4, r0
 500:.\Generated_Source\PSoC4/CyFlash.c ****                          (uint32) (CY_FLASH_PAGE_LATCH_START_ADDR             << CY_FLASH_PARAM_ADD
 547              		.loc 1 500 0 is_stmt 1
 548 0014 2F4B     		ldr	r3, .L59
 549 0016 0093     		str	r3, [sp]
 504:.\Generated_Source\PSoC4/CyFlash.c **** 
 550              		.loc 1 504 0
 551 0018 7F23     		mov	r3, #127
 552 001a 0193     		str	r3, [sp, #4]
 506:.\Generated_Source\PSoC4/CyFlash.c ****         CY_FLASH_CPUSS_SYSARG_REG = (uint32) &parameters[0u];
 553              		.loc 1 506 0
 554 001c 02A8     		add	r0, sp, #8
 555              	.LVL31:
 556 001e 8022     		mov	r2, #128
 557 0020 FFF7FEFF 		bl	memcpy
 558              	.LVL32:
 507:.\Generated_Source\PSoC4/CyFlash.c ****         CY_FLASH_CPUSS_SYSREQ_REG = CY_FLASH_CPUSS_REQ_START | CY_FLASH_API_OPCODE_LOAD;
 559              		.loc 1 507 0
 560 0024 2C4B     		ldr	r3, .L59+4
 561 0026 6A46     		mov	r2, sp
 562 0028 1A60     		str	r2, [r3]
 508:.\Generated_Source\PSoC4/CyFlash.c ****         CY_NOP;
 563              		.loc 1 508 0
 564 002a 2C49     		ldr	r1, .L59+8
 565 002c 2C4A     		ldr	r2, .L59+12
ARM GAS  C:\Users\Alan\AppData\Local\Temp\ccs0grLt.s 			page 26


 566 002e 1160     		str	r1, [r2]
 509:.\Generated_Source\PSoC4/CyFlash.c ****         retValue = CY_FLASH_API_RETURN;
 567              		.loc 1 509 0
 568              	@ 509 ".\Generated_Source\PSoC4\CyFlash.c" 1
 569 0030 C046     		NOP
 570              	
 571              	@ 0 "" 2
 510:.\Generated_Source\PSoC4/CyFlash.c **** 
 572              		.loc 1 510 0
 573              		.code	16
 574 0032 1B68     		ldr	r3, [r3]
 575 0034 1B0F     		lsr	r3, r3, #28
 576 0036 0F2B     		cmp	r3, #15
 577 0038 04D1     		bne	.L47
 510:.\Generated_Source\PSoC4/CyFlash.c **** 
 578              		.loc 1 510 0 is_stmt 0 discriminator 1
 579 003a 274B     		ldr	r3, .L59+4
 580 003c 1B68     		ldr	r3, [r3]
 581 003e FF22     		mov	r2, #255
 582 0040 1340     		and	r3, r2
 583 0042 08E0     		b	.L48
 584              	.L47:
 510:.\Generated_Source\PSoC4/CyFlash.c **** 
 585              		.loc 1 510 0 discriminator 2
 586 0044 244B     		ldr	r3, .L59+4
 587 0046 1B68     		ldr	r3, [r3]
 588 0048 1B0F     		lsr	r3, r3, #28
 589 004a 0A2B     		cmp	r3, #10
 590 004c 02D0     		beq	.L57
 510:.\Generated_Source\PSoC4/CyFlash.c **** 
 591              		.loc 1 510 0 discriminator 4
 592 004e 224B     		ldr	r3, .L59+4
 593 0050 1B68     		ldr	r3, [r3]
 594 0052 00E0     		b	.L48
 595              	.L57:
 510:.\Generated_Source\PSoC4/CyFlash.c **** 
 596              		.loc 1 510 0
 597 0054 0023     		mov	r3, #0
 598              	.L48:
 510:.\Generated_Source\PSoC4/CyFlash.c **** 
 599              		.loc 1 510 0 discriminator 8
 600 0056 2393     		str	r3, [sp, #140]
 512:.\Generated_Source\PSoC4/CyFlash.c ****         {
 601              		.loc 1 512 0 is_stmt 1 discriminator 8
 602 0058 239B     		ldr	r3, [sp, #140]
 603 005a 002B     		cmp	r3, #0
 604 005c 37D1     		bne	.L50
 520:.\Generated_Source\PSoC4/CyFlash.c **** 
 605              		.loc 1 520 0
 606 005e FFF7FEFF 		bl	CyEnterCriticalSection
 607              	.LVL33:
 608 0062 051C     		mov	r5, r0
 609              	.LVL34:
 522:.\Generated_Source\PSoC4/CyFlash.c **** 
 610              		.loc 1 522 0
 611 0064 FFF7FEFF 		bl	CySysFlashClockBackup
 612              	.LVL35:
ARM GAS  C:\Users\Alan\AppData\Local\Temp\ccs0grLt.s 			page 27


 613 0068 2290     		str	r0, [sp, #136]
 525:.\Generated_Source\PSoC4/CyFlash.c ****             {
 614              		.loc 1 525 0
 615 006a 229B     		ldr	r3, [sp, #136]
 616 006c 002B     		cmp	r3, #0
 617 006e 02D1     		bne	.L51
 527:.\Generated_Source\PSoC4/CyFlash.c ****             }
 618              		.loc 1 527 0
 619 0070 FFF7FEFF 		bl	CySysFlashClockConfig
 620              	.LVL36:
 621 0074 2390     		str	r0, [sp, #140]
 622              	.L51:
 531:.\Generated_Source\PSoC4/CyFlash.c ****             {
 623              		.loc 1 531 0
 624 0076 239B     		ldr	r3, [sp, #140]
 625 0078 002B     		cmp	r3, #0
 626 007a 1CD1     		bne	.L52
 534:.\Generated_Source\PSoC4/CyFlash.c ****                 parameters[1u] = (uint32) rowNum;
 627              		.loc 1 534 0
 628 007c 194B     		ldr	r3, .L59+16
 629 007e 0093     		str	r3, [sp]
 535:.\Generated_Source\PSoC4/CyFlash.c **** 
 630              		.loc 1 535 0
 631 0080 0194     		str	r4, [sp, #4]
 537:.\Generated_Source\PSoC4/CyFlash.c ****                 CY_FLASH_CPUSS_SYSREQ_REG = CY_FLASH_CPUSS_REQ_START | CY_FLASH_API_OPCODE_WRITE_SF
 632              		.loc 1 537 0
 633 0082 154B     		ldr	r3, .L59+4
 634 0084 6A46     		mov	r2, sp
 635 0086 1A60     		str	r2, [r3]
 538:.\Generated_Source\PSoC4/CyFlash.c ****                 CY_NOP;
 636              		.loc 1 538 0
 637 0088 1749     		ldr	r1, .L59+20
 638 008a 154A     		ldr	r2, .L59+12
 639 008c 1160     		str	r1, [r2]
 539:.\Generated_Source\PSoC4/CyFlash.c ****                 retValue = CY_FLASH_API_RETURN;
 640              		.loc 1 539 0
 641              	@ 539 ".\Generated_Source\PSoC4\CyFlash.c" 1
 642 008e C046     		NOP
 643              	
 644              	@ 0 "" 2
 540:.\Generated_Source\PSoC4/CyFlash.c ****             }
 645              		.loc 1 540 0
 646              		.code	16
 647 0090 1B68     		ldr	r3, [r3]
 648 0092 1B0F     		lsr	r3, r3, #28
 649 0094 0F2B     		cmp	r3, #15
 650 0096 04D1     		bne	.L53
 540:.\Generated_Source\PSoC4/CyFlash.c ****             }
 651              		.loc 1 540 0 is_stmt 0 discriminator 1
 652 0098 0F4B     		ldr	r3, .L59+4
 653 009a 1B68     		ldr	r3, [r3]
 654 009c FF22     		mov	r2, #255
 655 009e 1340     		and	r3, r2
 656 00a0 08E0     		b	.L54
 657              	.L53:
 540:.\Generated_Source\PSoC4/CyFlash.c ****             }
 658              		.loc 1 540 0 discriminator 2
ARM GAS  C:\Users\Alan\AppData\Local\Temp\ccs0grLt.s 			page 28


 659 00a2 0D4B     		ldr	r3, .L59+4
 660 00a4 1B68     		ldr	r3, [r3]
 661 00a6 1B0F     		lsr	r3, r3, #28
 662 00a8 0A2B     		cmp	r3, #10
 663 00aa 02D0     		beq	.L58
 540:.\Generated_Source\PSoC4/CyFlash.c ****             }
 664              		.loc 1 540 0 discriminator 4
 665 00ac 0A4B     		ldr	r3, .L59+4
 666 00ae 1B68     		ldr	r3, [r3]
 667 00b0 00E0     		b	.L54
 668              	.L58:
 540:.\Generated_Source\PSoC4/CyFlash.c ****             }
 669              		.loc 1 540 0
 670 00b2 0023     		mov	r3, #0
 671              	.L54:
 540:.\Generated_Source\PSoC4/CyFlash.c ****             }
 672              		.loc 1 540 0 discriminator 8
 673 00b4 2393     		str	r3, [sp, #140]
 674              	.L52:
 543:.\Generated_Source\PSoC4/CyFlash.c ****             {
 675              		.loc 1 543 0 is_stmt 1
 676 00b6 229B     		ldr	r3, [sp, #136]
 677 00b8 002B     		cmp	r3, #0
 678 00ba 02D1     		bne	.L56
 545:.\Generated_Source\PSoC4/CyFlash.c ****             }
 679              		.loc 1 545 0
 680 00bc FFF7FEFF 		bl	CySysFlashClockRestore
 681              	.LVL37:
 682 00c0 2290     		str	r0, [sp, #136]
 683              	.L56:
 547:.\Generated_Source\PSoC4/CyFlash.c ****         }
 684              		.loc 1 547 0
 685 00c2 281C     		mov	r0, r5
 686 00c4 FFF7FEFF 		bl	CyExitCriticalSection
 687              	.LVL38:
 688 00c8 01E0     		b	.L50
 689              	.LVL39:
 690              	.L46:
 552:.\Generated_Source\PSoC4/CyFlash.c ****     }
 691              		.loc 1 552 0
 692 00ca 0423     		mov	r3, #4
 693 00cc 2393     		str	r3, [sp, #140]
 694              	.LVL40:
 695              	.L50:
 555:.\Generated_Source\PSoC4/CyFlash.c **** }
 696              		.loc 1 555 0
 697 00ce 2398     		ldr	r0, [sp, #140]
 556:.\Generated_Source\PSoC4/CyFlash.c **** #endif /* (CY_SFLASH_XTRA_ROWS) */
 698              		.loc 1 556 0
 699 00d0 25B0     		add	sp, sp, #148
 700              		@ sp needed
 701 00d2 30BD     		pop	{r4, r5, pc}
 702              	.L60:
 703              		.align	2
 704              	.L59:
 705 00d4 B6D70000 		.word	55222
 706 00d8 08001040 		.word	1074790408
ARM GAS  C:\Users\Alan\AppData\Local\Temp\ccs0grLt.s 			page 29


 707 00dc 04000080 		.word	-2147483644
 708 00e0 04001040 		.word	1074790404
 709 00e4 B6EB0000 		.word	60342
 710 00e8 18000080 		.word	-2147483624
 711              		.cfi_endproc
 712              	.LFE3:
 713              		.size	CySysSFlashWriteUserRow, .-CySysSFlashWriteUserRow
 714              		.bss
 715              		.align	2
 716              		.set	.LANCHOR0,. + 0
 717              		.type	cySysFlashBackup, %object
 718              		.size	cySysFlashBackup, 24
 719              	cySysFlashBackup:
 720 0000 00000000 		.space	24
 720      00000000 
 720      00000000 
 720      00000000 
 720      00000000 
 721              		.text
 722              	.Letext0:
 723              		.file 2 ".\\Generated_Source\\PSoC4\\cytypes.h"
 724              		.file 3 ".\\Generated_Source\\PSoC4\\CyFlash.h"
 725              		.file 4 ".\\Generated_Source\\PSoC4\\CyLib.h"