ARM GAS  C:\Users\Alan\AppData\Local\Temp\ccvIRKlS.s 			page 1


   1              		.cpu cortex-m0plus
   2              		.fpu softvfp
   3              		.eabi_attribute 20, 1
   4              		.eabi_attribute 21, 1
   5              		.eabi_attribute 23, 3
   6              		.eabi_attribute 24, 1
   7              		.eabi_attribute 25, 1
   8              		.eabi_attribute 26, 1
   9              		.eabi_attribute 30, 1
  10              		.eabi_attribute 34, 0
  11              		.eabi_attribute 18, 4
  12              		.code	16
  13              		.file	"CapSense_Sensing.c"
  14              		.text
  15              	.Ltext0:
  16              		.cfi_sections	.debug_frame
  17              		.section	.text.CapSense_IsBusy,"ax",%progbits
  18              		.align	2
  19              		.global	CapSense_IsBusy
  20              		.code	16
  21              		.thumb_func
  22              		.type	CapSense_IsBusy, %function
  23              	CapSense_IsBusy:
  24              	.LFB1:
  25              		.file 1 ".\\Generated_Source\\PSoC4\\CapSense_Sensing.c"
   1:.\Generated_Source\PSoC4/CapSense_Sensing.c **** /***************************************************************************//**
   2:.\Generated_Source\PSoC4/CapSense_Sensing.c **** * \file CapSense_Sensing.c
   3:.\Generated_Source\PSoC4/CapSense_Sensing.c **** * \version 3.0
   4:.\Generated_Source\PSoC4/CapSense_Sensing.c **** *
   5:.\Generated_Source\PSoC4/CapSense_Sensing.c **** * \brief
   6:.\Generated_Source\PSoC4/CapSense_Sensing.c **** *   This file contains the source of functions common for
   7:.\Generated_Source\PSoC4/CapSense_Sensing.c **** *   different sensing methods. 
   8:.\Generated_Source\PSoC4/CapSense_Sensing.c **** *
   9:.\Generated_Source\PSoC4/CapSense_Sensing.c **** * \see CapSense P4 v3.0 Datasheet
  10:.\Generated_Source\PSoC4/CapSense_Sensing.c **** *
  11:.\Generated_Source\PSoC4/CapSense_Sensing.c **** *//*****************************************************************************
  12:.\Generated_Source\PSoC4/CapSense_Sensing.c **** * Copyright (2016), Cypress Semiconductor Corporation.
  13:.\Generated_Source\PSoC4/CapSense_Sensing.c **** ********************************************************************************
  14:.\Generated_Source\PSoC4/CapSense_Sensing.c **** * This software is owned by Cypress Semiconductor Corporation (Cypress) and is
  15:.\Generated_Source\PSoC4/CapSense_Sensing.c **** * protected by and subject to worldwide patent protection (United States and
  16:.\Generated_Source\PSoC4/CapSense_Sensing.c **** * foreign), United States copyright laws and international treaty provisions.
  17:.\Generated_Source\PSoC4/CapSense_Sensing.c **** * Cypress hereby grants to licensee a personal, non-exclusive, non-transferable
  18:.\Generated_Source\PSoC4/CapSense_Sensing.c **** * license to copy, use, modify, create derivative works of, and compile the
  19:.\Generated_Source\PSoC4/CapSense_Sensing.c **** * Cypress Source Code and derivative works for the sole purpose of creating
  20:.\Generated_Source\PSoC4/CapSense_Sensing.c **** * custom software in support of licensee product to be used only in conjunction
  21:.\Generated_Source\PSoC4/CapSense_Sensing.c **** * with a Cypress integrated circuit as specified in the applicable agreement.
  22:.\Generated_Source\PSoC4/CapSense_Sensing.c **** * Any reproduction, modification, translation, compilation, or representation of
  23:.\Generated_Source\PSoC4/CapSense_Sensing.c **** * this software except as specified above is prohibited without the express
  24:.\Generated_Source\PSoC4/CapSense_Sensing.c **** * written permission of Cypress.
  25:.\Generated_Source\PSoC4/CapSense_Sensing.c **** *
  26:.\Generated_Source\PSoC4/CapSense_Sensing.c **** * Disclaimer: CYPRESS MAKES NO WARRANTY OF ANY KIND, EXPRESS OR IMPLIED, WITH
  27:.\Generated_Source\PSoC4/CapSense_Sensing.c **** * REGARD TO THIS MATERIAL, INCLUDING, BUT NOT LIMITED TO, THE IMPLIED
  28:.\Generated_Source\PSoC4/CapSense_Sensing.c **** * WARRANTIES OF MERCHANTABILITY AND FITNESS FOR A PARTICULAR PURPOSE.
  29:.\Generated_Source\PSoC4/CapSense_Sensing.c **** * Cypress reserves the right to make changes without further notice to the
  30:.\Generated_Source\PSoC4/CapSense_Sensing.c **** * materials described herein. Cypress does not assume any liability arising out
  31:.\Generated_Source\PSoC4/CapSense_Sensing.c **** * of the application or use of any product or circuit described herein. Cypress
  32:.\Generated_Source\PSoC4/CapSense_Sensing.c **** * does not authorize its products for use as critical components in life-support
ARM GAS  C:\Users\Alan\AppData\Local\Temp\ccvIRKlS.s 			page 2


  33:.\Generated_Source\PSoC4/CapSense_Sensing.c **** * systems where a malfunction or failure may reasonably be expected to result in
  34:.\Generated_Source\PSoC4/CapSense_Sensing.c **** * significant injury to the user. The inclusion of Cypress' product in a life-
  35:.\Generated_Source\PSoC4/CapSense_Sensing.c **** * support systems application implies that the manufacturer assumes all risk of
  36:.\Generated_Source\PSoC4/CapSense_Sensing.c **** * such use and in doing so indemnifies Cypress against all charges. Use may be
  37:.\Generated_Source\PSoC4/CapSense_Sensing.c **** * limited by and subject to the applicable Cypress software license agreement.
  38:.\Generated_Source\PSoC4/CapSense_Sensing.c **** *******************************************************************************/
  39:.\Generated_Source\PSoC4/CapSense_Sensing.c **** 
  40:.\Generated_Source\PSoC4/CapSense_Sensing.c **** #include "CapSense_Sensing.h"
  41:.\Generated_Source\PSoC4/CapSense_Sensing.c **** #include "cyfitter.h"
  42:.\Generated_Source\PSoC4/CapSense_Sensing.c **** 
  43:.\Generated_Source\PSoC4/CapSense_Sensing.c **** /***************************************
  44:.\Generated_Source\PSoC4/CapSense_Sensing.c **** * API Constants
  45:.\Generated_Source\PSoC4/CapSense_Sensing.c **** ***************************************/
  46:.\Generated_Source\PSoC4/CapSense_Sensing.c **** 
  47:.\Generated_Source\PSoC4/CapSense_Sensing.c **** #define CapSense_WIDGET_NUM_32                          (32u)
  48:.\Generated_Source\PSoC4/CapSense_Sensing.c **** #define CapSense_WIDGET_NUM_32_DIV_SHIFT                (5u)
  49:.\Generated_Source\PSoC4/CapSense_Sensing.c **** #define CapSense_WIDGET_NUM_32_MASK                     (0x0000001FLu)
  50:.\Generated_Source\PSoC4/CapSense_Sensing.c **** #define CapSense_CALIBRATION_RESOLUTION                 (12u)
  51:.\Generated_Source\PSoC4/CapSense_Sensing.c **** #define CapSense_COARSE_TRIM_THRESHOLD_1                (40u)
  52:.\Generated_Source\PSoC4/CapSense_Sensing.c **** #define CapSense_COARSE_TRIM_THRESHOLD_2                (215u)
  53:.\Generated_Source\PSoC4/CapSense_Sensing.c **** #define CapSense_FREQUENCY_OFFSET_5                     (20u)
  54:.\Generated_Source\PSoC4/CapSense_Sensing.c **** #define CapSense_FREQUENCY_OFFSET_10                    (40u)
  55:.\Generated_Source\PSoC4/CapSense_Sensing.c **** #define CapSense_CALIBRATION_FREQ_KHZ                   (1500u)
  56:.\Generated_Source\PSoC4/CapSense_Sensing.c **** #define CapSense_CALIBRATION_MD                         (2u)
  57:.\Generated_Source\PSoC4/CapSense_Sensing.c **** #define CapSense_MIN_IMO_FREQ_KHZ                       (6000u)
  58:.\Generated_Source\PSoC4/CapSense_Sensing.c **** #define CapSense_CSD_AUTOTUNE_CAL_LEVEL                 (CapSense_CSD_RAWCOUNT_CAL_LEVEL)
  59:.\Generated_Source\PSoC4/CapSense_Sensing.c **** #define CapSense_CP_MIN                                 (0u)
  60:.\Generated_Source\PSoC4/CapSense_Sensing.c **** #define CapSense_CP_MAX                                 (65000u)
  61:.\Generated_Source\PSoC4/CapSense_Sensing.c **** #define CapSense_CP_ERROR                               (4000u)
  62:.\Generated_Source\PSoC4/CapSense_Sensing.c **** 
  63:.\Generated_Source\PSoC4/CapSense_Sensing.c **** #if (CapSense_CLK_SOURCE_DIRECT != CapSense_CSD_SNS_CLK_SOURCE)
  64:.\Generated_Source\PSoC4/CapSense_Sensing.c ****     #if (CapSense_ENABLE == CapSense_CSDV2)
  65:.\Generated_Source\PSoC4/CapSense_Sensing.c ****         #define CapSense_PRS_FACTOR_DIV                 (2u)
  66:.\Generated_Source\PSoC4/CapSense_Sensing.c ****     #else  
  67:.\Generated_Source\PSoC4/CapSense_Sensing.c ****         #define CapSense_PRS_FACTOR_DIV                 (1u)
  68:.\Generated_Source\PSoC4/CapSense_Sensing.c ****     #endif /* (CapSense_ENABLE == CapSense_CSDV2) */
  69:.\Generated_Source\PSoC4/CapSense_Sensing.c **** #else
  70:.\Generated_Source\PSoC4/CapSense_Sensing.c ****     #define CapSense_PRS_FACTOR_DIV                     (0u)
  71:.\Generated_Source\PSoC4/CapSense_Sensing.c **** #endif /* (CapSense_CLK_SOURCE_DIRECT != CapSense_CSD_SNS_CLK_SOURCE) */
  72:.\Generated_Source\PSoC4/CapSense_Sensing.c **** 
  73:.\Generated_Source\PSoC4/CapSense_Sensing.c **** #define CapSense_FLIP_FLOP_DIV                          (1u)
  74:.\Generated_Source\PSoC4/CapSense_Sensing.c **** 
  75:.\Generated_Source\PSoC4/CapSense_Sensing.c **** #define CapSense_MOD_CSD_CLK_12000KHZ                   (12000uL)
  76:.\Generated_Source\PSoC4/CapSense_Sensing.c **** #define CapSense_MOD_CSD_CLK_24000KHZ                   (24000uL)
  77:.\Generated_Source\PSoC4/CapSense_Sensing.c **** #define CapSense_MOD_CSD_CLK_48000KHZ                   (48000uL)
  78:.\Generated_Source\PSoC4/CapSense_Sensing.c **** 
  79:.\Generated_Source\PSoC4/CapSense_Sensing.c **** #if ((CapSense_CLK_SOURCE_PRS8 == CapSense_CSD_SNS_CLK_SOURCE) || \
  80:.\Generated_Source\PSoC4/CapSense_Sensing.c ****     (CapSense_CLK_SOURCE_PRS12 == CapSense_CSD_SNS_CLK_SOURCE) || \
  81:.\Generated_Source\PSoC4/CapSense_Sensing.c ****     (CapSense_CLK_SOURCE_PRSAUTO == CapSense_CSD_SNS_CLK_SOURCE))
  82:.\Generated_Source\PSoC4/CapSense_Sensing.c ****     #define CapSense_FACTOR_FILTER_DELAY_12MHZ          (2u)
  83:.\Generated_Source\PSoC4/CapSense_Sensing.c **** #else
  84:.\Generated_Source\PSoC4/CapSense_Sensing.c ****     #define CapSense_FACTOR_FILTER_DELAY_12MHZ          (4u)
  85:.\Generated_Source\PSoC4/CapSense_Sensing.c **** #endif /* (CapSense_CLK_SOURCE_DIRECT != CapSense_CSD_SNS_CLK_SOURCE) */
  86:.\Generated_Source\PSoC4/CapSense_Sensing.c **** 
  87:.\Generated_Source\PSoC4/CapSense_Sensing.c **** #define CapSense_FACTOR_MOD_SNS                         (8u)
  88:.\Generated_Source\PSoC4/CapSense_Sensing.c **** 
  89:.\Generated_Source\PSoC4/CapSense_Sensing.c **** /*****************************************************************************/
ARM GAS  C:\Users\Alan\AppData\Local\Temp\ccvIRKlS.s 			page 3


  90:.\Generated_Source\PSoC4/CapSense_Sensing.c **** /* Enumeration types definition                                               */
  91:.\Generated_Source\PSoC4/CapSense_Sensing.c **** /*****************************************************************************/
  92:.\Generated_Source\PSoC4/CapSense_Sensing.c **** 
  93:.\Generated_Source\PSoC4/CapSense_Sensing.c **** typedef enum
  94:.\Generated_Source\PSoC4/CapSense_Sensing.c **** {
  95:.\Generated_Source\PSoC4/CapSense_Sensing.c ****     CapSense_RES_PULLUP_E   = 0x02u,
  96:.\Generated_Source\PSoC4/CapSense_Sensing.c ****     CapSense_RES_PULLDOWN_E = 0x03u
  97:.\Generated_Source\PSoC4/CapSense_Sensing.c **** } CapSense_PORT_TEST_DM;
  98:.\Generated_Source\PSoC4/CapSense_Sensing.c **** 
  99:.\Generated_Source\PSoC4/CapSense_Sensing.c **** typedef enum
 100:.\Generated_Source\PSoC4/CapSense_Sensing.c **** {
 101:.\Generated_Source\PSoC4/CapSense_Sensing.c ****     CapSense_STS_RESET      = 0x01u,
 102:.\Generated_Source\PSoC4/CapSense_Sensing.c ****     CapSense_STS_NO_RESET   = 0x02u
 103:.\Generated_Source\PSoC4/CapSense_Sensing.c **** } CapSense_TEST_TYPE;
 104:.\Generated_Source\PSoC4/CapSense_Sensing.c **** 
 105:.\Generated_Source\PSoC4/CapSense_Sensing.c **** 
 106:.\Generated_Source\PSoC4/CapSense_Sensing.c **** /*******************************************************************************
 107:.\Generated_Source\PSoC4/CapSense_Sensing.c **** * Static Function Prototypes
 108:.\Generated_Source\PSoC4/CapSense_Sensing.c **** *******************************************************************************/
 109:.\Generated_Source\PSoC4/CapSense_Sensing.c **** /**
 110:.\Generated_Source\PSoC4/CapSense_Sensing.c **** * \if SECTION_CAPSENSE_INTERNAL
 111:.\Generated_Source\PSoC4/CapSense_Sensing.c **** * \addtogroup group_capsense_internal
 112:.\Generated_Source\PSoC4/CapSense_Sensing.c **** * \{
 113:.\Generated_Source\PSoC4/CapSense_Sensing.c **** */
 114:.\Generated_Source\PSoC4/CapSense_Sensing.c **** 
 115:.\Generated_Source\PSoC4/CapSense_Sensing.c **** 
 116:.\Generated_Source\PSoC4/CapSense_Sensing.c **** /** \}
 117:.\Generated_Source\PSoC4/CapSense_Sensing.c **** * \endif */
 118:.\Generated_Source\PSoC4/CapSense_Sensing.c **** 
 119:.\Generated_Source\PSoC4/CapSense_Sensing.c **** /*******************************************************************************
 120:.\Generated_Source\PSoC4/CapSense_Sensing.c **** * Define module variables
 121:.\Generated_Source\PSoC4/CapSense_Sensing.c **** *******************************************************************************/
 122:.\Generated_Source\PSoC4/CapSense_Sensing.c **** 
 123:.\Generated_Source\PSoC4/CapSense_Sensing.c **** #if ((CapSense_ENABLE == CapSense_CSD_CSX_EN) || \
 124:.\Generated_Source\PSoC4/CapSense_Sensing.c ****      (CapSense_ENABLE == CapSense_ADC_EN))
 125:.\Generated_Source\PSoC4/CapSense_Sensing.c ****     CapSense_SENSE_METHOD_ENUM CapSense_currentSenseMethod = CapSense_UNDEFINED_E;
 126:.\Generated_Source\PSoC4/CapSense_Sensing.c **** #endif /* ((CapSense_ENABLE == CapSense_CSD_CSX_EN) || \
 127:.\Generated_Source\PSoC4/CapSense_Sensing.c ****            (CapSense_ENABLE == CapSense_ADC_EN))) */
 128:.\Generated_Source\PSoC4/CapSense_Sensing.c **** 
 129:.\Generated_Source\PSoC4/CapSense_Sensing.c **** #if(CapSense_ENABLE == CapSense_MULTI_FREQ_SCAN_EN)
 130:.\Generated_Source\PSoC4/CapSense_Sensing.c ****     /*  Module variable keep track of frequency hopping channel index   */
 131:.\Generated_Source\PSoC4/CapSense_Sensing.c ****     uint8 CapSense_scanFreqIndex = 0u;
 132:.\Generated_Source\PSoC4/CapSense_Sensing.c ****     /*  Variable keep frequency offsets */
 133:.\Generated_Source\PSoC4/CapSense_Sensing.c ****     uint8 CapSense_immunity[CapSense_NUM_SCAN_FREQS] = {0u, 0u, 0u};
 134:.\Generated_Source\PSoC4/CapSense_Sensing.c **** #else
 135:.\Generated_Source\PSoC4/CapSense_Sensing.c ****     /* const allows C-compiler to do optimization */
 136:.\Generated_Source\PSoC4/CapSense_Sensing.c ****     const uint8 CapSense_scanFreqIndex = 0u;
 137:.\Generated_Source\PSoC4/CapSense_Sensing.c **** #endif /* (CapSense_ENABLE == CapSense_MULTI_FREQ_SCAN_EN) */
 138:.\Generated_Source\PSoC4/CapSense_Sensing.c **** 
 139:.\Generated_Source\PSoC4/CapSense_Sensing.c **** /* Global software variables */
 140:.\Generated_Source\PSoC4/CapSense_Sensing.c **** volatile uint8 CapSense_widgetIndex = 0u;    /* Index of the scanning widget */
 141:.\Generated_Source\PSoC4/CapSense_Sensing.c **** volatile uint8 CapSense_sensorIndex = 0u;    /* Index of the scanning sensor */
 142:.\Generated_Source\PSoC4/CapSense_Sensing.c **** volatile uint32 CapSense_curWidgetResolution = 0u;
 143:.\Generated_Source\PSoC4/CapSense_Sensing.c **** uint8 CapSense_requestScanAllWidget = 0u;
 144:.\Generated_Source\PSoC4/CapSense_Sensing.c **** #if (CapSense_CSD_SS_DIS != CapSense_CSD_AUTOTUNE)
 145:.\Generated_Source\PSoC4/CapSense_Sensing.c ****     uint8 CapSense_prescalersTuningDone = 0u;
 146:.\Generated_Source\PSoC4/CapSense_Sensing.c **** #endif /* (CapSense_CSD_SS_DIS != CapSense_CSD_AUTOTUNE) */
ARM GAS  C:\Users\Alan\AppData\Local\Temp\ccvIRKlS.s 			page 4


 147:.\Generated_Source\PSoC4/CapSense_Sensing.c **** 
 148:.\Generated_Source\PSoC4/CapSense_Sensing.c **** /* Pointer to RAM_SNS_STRUCT structure  */
 149:.\Generated_Source\PSoC4/CapSense_Sensing.c **** CapSense_RAM_SNS_STRUCT *CapSense_curRamSnsPtr;
 150:.\Generated_Source\PSoC4/CapSense_Sensing.c **** 
 151:.\Generated_Source\PSoC4/CapSense_Sensing.c **** #if ((CapSense_ENABLE == CapSense_CSD_GANGED_SNS_EN) || \
 152:.\Generated_Source\PSoC4/CapSense_Sensing.c ****      (CapSense_ENABLE == CapSense_CSX_EN))
 153:.\Generated_Source\PSoC4/CapSense_Sensing.c ****     /*  Pointer to Flash structure holding configuration of widget to be scanned  */
 154:.\Generated_Source\PSoC4/CapSense_Sensing.c ****     CapSense_FLASH_WD_STRUCT const *CapSense_curFlashWdgtPtr = 0u;
 155:.\Generated_Source\PSoC4/CapSense_Sensing.c **** #endif /* ((CapSense_ENABLE == CapSense_CSD_GANGED_SNS_EN) || \
 156:.\Generated_Source\PSoC4/CapSense_Sensing.c ****            (CapSense_ENABLE == CapSense_CSX_EN))  */
 157:.\Generated_Source\PSoC4/CapSense_Sensing.c **** #if (CapSense_ENABLE == CapSense_CSD_GANGED_SNS_EN) 
 158:.\Generated_Source\PSoC4/CapSense_Sensing.c ****     /*  Pointer to Flash structure holding info of sensor to be scanned  */
 159:.\Generated_Source\PSoC4/CapSense_Sensing.c ****     CapSense_FLASH_SNS_STRUCT const *CapSense_curFlashSnsPtr = 0u;
 160:.\Generated_Source\PSoC4/CapSense_Sensing.c **** #endif /* (CapSense_ENABLE == CapSense_CSD_GANGED_SNS_EN) */
 161:.\Generated_Source\PSoC4/CapSense_Sensing.c **** 
 162:.\Generated_Source\PSoC4/CapSense_Sensing.c **** /*******************************************************************************
 163:.\Generated_Source\PSoC4/CapSense_Sensing.c **** * Function Name: CapSense_IsBusy
 164:.\Generated_Source\PSoC4/CapSense_Sensing.c **** ****************************************************************************//**
 165:.\Generated_Source\PSoC4/CapSense_Sensing.c **** *
 166:.\Generated_Source\PSoC4/CapSense_Sensing.c **** * \brief
 167:.\Generated_Source\PSoC4/CapSense_Sensing.c **** *   Returns the current status of the component (scan completed or scan in
 168:.\Generated_Source\PSoC4/CapSense_Sensing.c **** *   progress).
 169:.\Generated_Source\PSoC4/CapSense_Sensing.c **** *
 170:.\Generated_Source\PSoC4/CapSense_Sensing.c **** * \details
 171:.\Generated_Source\PSoC4/CapSense_Sensing.c **** *   This API checks the status flag in the CapSense_dsRam structure
 172:.\Generated_Source\PSoC4/CapSense_Sensing.c **** *   which is set when the scanning starts. The API returns a zero value when all the
 173:.\Generated_Source\PSoC4/CapSense_Sensing.c **** *   sensors in the widget have been scanned.
 174:.\Generated_Source\PSoC4/CapSense_Sensing.c **** *   In the CSD2X mode the API returns a zero value when all the sensors in both slots
 175:.\Generated_Source\PSoC4/CapSense_Sensing.c **** *   have been scanned.
 176:.\Generated_Source\PSoC4/CapSense_Sensing.c **** *   A new scan or the widget setup change must not be made while
 177:.\Generated_Source\PSoC4/CapSense_Sensing.c **** *   the component is busy.
 178:.\Generated_Source\PSoC4/CapSense_Sensing.c **** *
 179:.\Generated_Source\PSoC4/CapSense_Sensing.c **** * \return
 180:.\Generated_Source\PSoC4/CapSense_Sensing.c **** *   Returns the current status of the component (scan completed or scan in
 181:.\Generated_Source\PSoC4/CapSense_Sensing.c **** *   progress):
 182:.\Generated_Source\PSoC4/CapSense_Sensing.c **** *   Zero     - Free, no scan in progress, a next scan can be initiated.
 183:.\Generated_Source\PSoC4/CapSense_Sensing.c **** *   Non-zero - Busy, scan in progress, wait prior to initiating a next scan.
 184:.\Generated_Source\PSoC4/CapSense_Sensing.c **** *
 185:.\Generated_Source\PSoC4/CapSense_Sensing.c **** *******************************************************************************/
 186:.\Generated_Source\PSoC4/CapSense_Sensing.c **** uint32 CapSense_IsBusy(void)
 187:.\Generated_Source\PSoC4/CapSense_Sensing.c **** {
  26              		.loc 1 187 0
  27              		.cfi_startproc
 188:.\Generated_Source\PSoC4/CapSense_Sensing.c ****     return ((*(volatile uint8 *)&CapSense_dsRam.status) & CapSense_SW_STS_BUSY);
  28              		.loc 1 188 0
  29 0000 024B     		ldr	r3, .L2
  30 0002 187A     		ldrb	r0, [r3, #8]
  31 0004 7F23     		mov	r3, #127
  32 0006 9843     		bic	r0, r3
 189:.\Generated_Source\PSoC4/CapSense_Sensing.c **** }
  33              		.loc 1 189 0
  34              		@ sp needed
  35 0008 7047     		bx	lr
  36              	.L3:
  37 000a C046     		.align	2
  38              	.L2:
  39 000c 00000000 		.word	CapSense_dsRam
ARM GAS  C:\Users\Alan\AppData\Local\Temp\ccvIRKlS.s 			page 5


  40              		.cfi_endproc
  41              	.LFE1:
  42              		.size	CapSense_IsBusy, .-CapSense_IsBusy
  43              		.section	.text.CapSense_SetupWidget,"ax",%progbits
  44              		.align	2
  45              		.global	CapSense_SetupWidget
  46              		.code	16
  47              		.thumb_func
  48              		.type	CapSense_SetupWidget, %function
  49              	CapSense_SetupWidget:
  50              	.LFB2:
 190:.\Generated_Source\PSoC4/CapSense_Sensing.c **** 
 191:.\Generated_Source\PSoC4/CapSense_Sensing.c **** /*******************************************************************************
 192:.\Generated_Source\PSoC4/CapSense_Sensing.c **** * Function Name: CapSense_SetupWidget
 193:.\Generated_Source\PSoC4/CapSense_Sensing.c **** ****************************************************************************//**
 194:.\Generated_Source\PSoC4/CapSense_Sensing.c **** *
 195:.\Generated_Source\PSoC4/CapSense_Sensing.c **** * \brief
 196:.\Generated_Source\PSoC4/CapSense_Sensing.c **** *   Performs the initialization required to scan a particular widget.
 197:.\Generated_Source\PSoC4/CapSense_Sensing.c **** *
 198:.\Generated_Source\PSoC4/CapSense_Sensing.c **** * \details
 199:.\Generated_Source\PSoC4/CapSense_Sensing.c **** *   This API re-initializes the component hardware if the sensing methods used by
 200:.\Generated_Source\PSoC4/CapSense_Sensing.c **** *   the widget are different from the sensing methods used by the previous widget, 
 201:.\Generated_Source\PSoC4/CapSense_Sensing.c **** *   initializes the hardware with configurations specific to the widget. 
 202:.\Generated_Source\PSoC4/CapSense_Sensing.c **** *   This API does not start sensor scanning. This API must be called prior 
 203:.\Generated_Source\PSoC4/CapSense_Sensing.c **** *   calling CapSense_Scan() API to start the sensor scan.
 204:.\Generated_Source\PSoC4/CapSense_Sensing.c **** * 
 205:.\Generated_Source\PSoC4/CapSense_Sensing.c **** *   Note in the CSD2x mode, each widget should be set up individually with two calls to the
 206:.\Generated_Source\PSoC4/CapSense_Sensing.c **** *   CapSense_SetupWidget() API.
 207:.\Generated_Source\PSoC4/CapSense_Sensing.c **** *   This API disconnects the electrode if it was previously connected by 
 208:.\Generated_Source\PSoC4/CapSense_Sensing.c **** *   CapSense_CSDSetupWidgetExt() or CapSense_CSXSetupWidgetExt() 
 209:.\Generated_Source\PSoC4/CapSense_Sensing.c **** *   APIs. This API does not disconnect the electrode if it was connected manually or
 210:.\Generated_Source\PSoC4/CapSense_Sensing.c **** *   using CapSense_CSDConnectSns() API.
 211:.\Generated_Source\PSoC4/CapSense_Sensing.c **** *   The last widget will be configured if this API is called twice for different
 212:.\Generated_Source\PSoC4/CapSense_Sensing.c **** *   widgets. API does not break the functionality if it is called twice for the 
 213:.\Generated_Source\PSoC4/CapSense_Sensing.c **** *   same widget.
 214:.\Generated_Source\PSoC4/CapSense_Sensing.c **** *
 215:.\Generated_Source\PSoC4/CapSense_Sensing.c **** * \param wdgtIndex
 216:.\Generated_Source\PSoC4/CapSense_Sensing.c **** *   Specifies the ID of the widget for which the hardware tuning parameters should be
 217:.\Generated_Source\PSoC4/CapSense_Sensing.c **** *   initialized in the CapSense HW block.
 218:.\Generated_Source\PSoC4/CapSense_Sensing.c **** *
 219:.\Generated_Source\PSoC4/CapSense_Sensing.c **** * \return 
 220:.\Generated_Source\PSoC4/CapSense_Sensing.c **** *   Returns the status of operation:
 221:.\Generated_Source\PSoC4/CapSense_Sensing.c **** *      - Zero     - The CapSense HW block is initialized.
 222:.\Generated_Source\PSoC4/CapSense_Sensing.c **** *      - Non-zero - The CapSense HW block is busy and cannot be initialized.
 223:.\Generated_Source\PSoC4/CapSense_Sensing.c **** *
 224:.\Generated_Source\PSoC4/CapSense_Sensing.c **** **********************************************************************************/
 225:.\Generated_Source\PSoC4/CapSense_Sensing.c **** cystatus CapSense_SetupWidget(uint32 wdgtIndex)
 226:.\Generated_Source\PSoC4/CapSense_Sensing.c **** {
  51              		.loc 1 226 0
  52              		.cfi_startproc
  53              	.LVL0:
  54 0000 10B5     		push	{r4, lr}
  55              		.cfi_def_cfa_offset 8
  56              		.cfi_offset 4, -8
  57              		.cfi_offset 14, -4
 227:.\Generated_Source\PSoC4/CapSense_Sensing.c ****     cystatus widgetStatus;
 228:.\Generated_Source\PSoC4/CapSense_Sensing.c **** 
ARM GAS  C:\Users\Alan\AppData\Local\Temp\ccvIRKlS.s 			page 6


 229:.\Generated_Source\PSoC4/CapSense_Sensing.c ****     if (CapSense_WDGT_SW_STS_BUSY == (CapSense_dsRam.status & CapSense_WDGT_SW_STS_BUSY))
  58              		.loc 1 229 0
  59 0002 104B     		ldr	r3, .L10
  60 0004 9B68     		ldr	r3, [r3, #8]
  61 0006 DB03     		lsl	r3, r3, #15
  62 0008 10D4     		bmi	.L7
 230:.\Generated_Source\PSoC4/CapSense_Sensing.c ****     {
 231:.\Generated_Source\PSoC4/CapSense_Sensing.c ****         /* Previous widget is being scanned. Return error. */
 232:.\Generated_Source\PSoC4/CapSense_Sensing.c ****         widgetStatus = CYRET_INVALID_STATE;
 233:.\Generated_Source\PSoC4/CapSense_Sensing.c ****     }
 234:.\Generated_Source\PSoC4/CapSense_Sensing.c ****     /*  
 235:.\Generated_Source\PSoC4/CapSense_Sensing.c ****      *  Check if widget id is valid, specified widget is enabled and widget did not
 236:.\Generated_Source\PSoC4/CapSense_Sensing.c ****      *  detect any fault conditions if BIST is enabled. If all conditions are met,
 237:.\Generated_Source\PSoC4/CapSense_Sensing.c ****      *  set widgetStatus as good, if not, set widgetStatus as bad.   
 238:.\Generated_Source\PSoC4/CapSense_Sensing.c ****      */
 239:.\Generated_Source\PSoC4/CapSense_Sensing.c ****         else if ((CapSense_TOTAL_WIDGETS > wdgtIndex) &&
  63              		.loc 1 239 0
  64 000a 0228     		cmp	r0, #2
  65 000c 10D8     		bhi	.L8
  66 000e C304     		lsl	r3, r0, #19
  67 0010 1B0E     		lsr	r3, r3, #24
 240:.\Generated_Source\PSoC4/CapSense_Sensing.c ****             (((uint32)CapSense_dsRam.wdgtEnable[(uint8)(wdgtIndex >> CapSense_WIDGET_NUM_32_DIV_SHI
  68              		.loc 1 240 0 discriminator 1
  69 0012 0233     		add	r3, r3, #2
  70 0014 9B00     		lsl	r3, r3, #2
  71 0016 0B4A     		ldr	r2, .L10
  72 0018 D318     		add	r3, r2, r3
  73 001a 5A68     		ldr	r2, [r3, #4]
 241:.\Generated_Source\PSoC4/CapSense_Sensing.c ****                                                 (0x00000001Lu << (wdgtIndex & CapSense_WIDGET_NUM_3
  74              		.loc 1 241 0 discriminator 1
  75 001c 1F23     		mov	r3, #31
  76 001e 0340     		and	r3, r0
  77 0020 DA40     		lsr	r2, r2, r3
  78 0022 131C     		mov	r3, r2
 239:.\Generated_Source\PSoC4/CapSense_Sensing.c ****             (((uint32)CapSense_dsRam.wdgtEnable[(uint8)(wdgtIndex >> CapSense_WIDGET_NUM_32_DIV_SHI
  79              		.loc 1 239 0 discriminator 1
  80 0024 DB07     		lsl	r3, r3, #31
  81 0026 05D4     		bmi	.L9
 242:.\Generated_Source\PSoC4/CapSense_Sensing.c ****     
 243:.\Generated_Source\PSoC4/CapSense_Sensing.c ****         {
 244:.\Generated_Source\PSoC4/CapSense_Sensing.c ****             #if (CapSense_ENABLE == CapSense_SELF_TEST_EN)
 245:.\Generated_Source\PSoC4/CapSense_Sensing.c ****                 if (CapSense_DISABLE != ((uint32)CapSense_dsRam.wdgtWorking[(uint8)(wdgtIndex >> Ca
 246:.\Generated_Source\PSoC4/CapSense_Sensing.c ****                                                  (0x00000001Lu << (wdgtIndex & CapSense_WIDGET_NUM_
 247:.\Generated_Source\PSoC4/CapSense_Sensing.c ****                 {
 248:.\Generated_Source\PSoC4/CapSense_Sensing.c ****                     widgetStatus = CYRET_SUCCESS;
 249:.\Generated_Source\PSoC4/CapSense_Sensing.c ****                 }
 250:.\Generated_Source\PSoC4/CapSense_Sensing.c ****                 else    
 251:.\Generated_Source\PSoC4/CapSense_Sensing.c ****                 {
 252:.\Generated_Source\PSoC4/CapSense_Sensing.c ****                     widgetStatus = CYRET_INVALID_STATE;
 253:.\Generated_Source\PSoC4/CapSense_Sensing.c ****                 }
 254:.\Generated_Source\PSoC4/CapSense_Sensing.c ****             #else
 255:.\Generated_Source\PSoC4/CapSense_Sensing.c ****                 widgetStatus = CYRET_SUCCESS;
 256:.\Generated_Source\PSoC4/CapSense_Sensing.c ****             #endif  /* (CapSense_ENABLE == CapSense_SELF_TEST_EN)) */
 257:.\Generated_Source\PSoC4/CapSense_Sensing.c ****         }
 258:.\Generated_Source\PSoC4/CapSense_Sensing.c ****         else    
 259:.\Generated_Source\PSoC4/CapSense_Sensing.c ****         {
 260:.\Generated_Source\PSoC4/CapSense_Sensing.c ****             widgetStatus = CYRET_BAD_PARAM;
ARM GAS  C:\Users\Alan\AppData\Local\Temp\ccvIRKlS.s 			page 7


  82              		.loc 1 260 0
  83 0028 0124     		mov	r4, #1
  84 002a 04E0     		b	.L5
  85              	.L7:
 232:.\Generated_Source\PSoC4/CapSense_Sensing.c ****     }
  86              		.loc 1 232 0
  87 002c 1124     		mov	r4, #17
  88 002e 02E0     		b	.L5
  89              	.L8:
  90              		.loc 1 260 0
  91 0030 0124     		mov	r4, #1
  92 0032 00E0     		b	.L5
  93              	.L9:
 255:.\Generated_Source\PSoC4/CapSense_Sensing.c ****             #endif  /* (CapSense_ENABLE == CapSense_SELF_TEST_EN)) */
  94              		.loc 1 255 0
  95 0034 0024     		mov	r4, #0
  96              	.L5:
  97              	.LVL1:
 261:.\Generated_Source\PSoC4/CapSense_Sensing.c ****         }
 262:.\Generated_Source\PSoC4/CapSense_Sensing.c ****     
 263:.\Generated_Source\PSoC4/CapSense_Sensing.c ****     /*  
 264:.\Generated_Source\PSoC4/CapSense_Sensing.c ****      * Check widgetStatus flag that is set earlier, if flag is good, then set up only
 265:.\Generated_Source\PSoC4/CapSense_Sensing.c ****      * widget  
 266:.\Generated_Source\PSoC4/CapSense_Sensing.c ****      */
 267:.\Generated_Source\PSoC4/CapSense_Sensing.c ****     if (CYRET_SUCCESS == widgetStatus)    
  98              		.loc 1 267 0
  99 0036 002C     		cmp	r4, #0
 100 0038 01D1     		bne	.L6
 268:.\Generated_Source\PSoC4/CapSense_Sensing.c ****     {
 269:.\Generated_Source\PSoC4/CapSense_Sensing.c ****         /*  Check if CSD2X is enabled   */
 270:.\Generated_Source\PSoC4/CapSense_Sensing.c ****         #if (CapSense_ENABLE == CapSense_CSD2X_EN)
 271:.\Generated_Source\PSoC4/CapSense_Sensing.c ****             /******************************
 272:.\Generated_Source\PSoC4/CapSense_Sensing.c ****             * This is the place where CapSense_SetupWidget2x(uint32 slotIndex) 
 273:.\Generated_Source\PSoC4/CapSense_Sensing.c ****             * API should be implemented.
 274:.\Generated_Source\PSoC4/CapSense_Sensing.c ****             * CSD2X will be implemented
 275:.\Generated_Source\PSoC4/CapSense_Sensing.c ****             * in the next component version.
 276:.\Generated_Source\PSoC4/CapSense_Sensing.c ****             *********************************/
 277:.\Generated_Source\PSoC4/CapSense_Sensing.c ****             widgetStatus = CYRET_UNKNOWN;
 278:.\Generated_Source\PSoC4/CapSense_Sensing.c ****             #error "CSD2x not implemented in this version of component"
 279:.\Generated_Source\PSoC4/CapSense_Sensing.c ****             
 280:.\Generated_Source\PSoC4/CapSense_Sensing.c ****         #elif (CapSense_ENABLE == CapSense_CSD_CSX_EN)
 281:.\Generated_Source\PSoC4/CapSense_Sensing.c ****             #if (CapSense_ENABLE == CapSense_ADC_EN)
 282:.\Generated_Source\PSoC4/CapSense_Sensing.c ****                 if (CapSense_UNDEFINED_E == CapSense_currentSenseMethod) 
 283:.\Generated_Source\PSoC4/CapSense_Sensing.c ****                 {
 284:.\Generated_Source\PSoC4/CapSense_Sensing.c ****                     /* Release ADC resources */
 285:.\Generated_Source\PSoC4/CapSense_Sensing.c ****                     widgetStatus = CapSense_AdcReleaseResources();
 286:.\Generated_Source\PSoC4/CapSense_Sensing.c ****                 }
 287:.\Generated_Source\PSoC4/CapSense_Sensing.c ****             #endif /* (CapSense_ENABLE == CapSense_ADC_EN) */
 288:.\Generated_Source\PSoC4/CapSense_Sensing.c ****             
 289:.\Generated_Source\PSoC4/CapSense_Sensing.c ****             /*  Check widget sensing method is CSX and call CSX APIs    */
 290:.\Generated_Source\PSoC4/CapSense_Sensing.c ****             if (CapSense_SENSE_METHOD_CSX_E == 
 291:.\Generated_Source\PSoC4/CapSense_Sensing.c ****                 (CapSense_SENSE_METHOD_ENUM)CapSense_GET_SENSE_METHOD(&CapSense_dsFlash.wdgtArray[w
 292:.\Generated_Source\PSoC4/CapSense_Sensing.c ****             {
 293:.\Generated_Source\PSoC4/CapSense_Sensing.c ****                 /*  
 294:.\Generated_Source\PSoC4/CapSense_Sensing.c ****                  *  Check if CSD block is  already initialized for CSX operation
 295:.\Generated_Source\PSoC4/CapSense_Sensing.c ****                  *  If not, initialize CSD hardware block for CSX measurement   
 296:.\Generated_Source\PSoC4/CapSense_Sensing.c ****                  */
ARM GAS  C:\Users\Alan\AppData\Local\Temp\ccvIRKlS.s 			page 8


 297:.\Generated_Source\PSoC4/CapSense_Sensing.c ****                 if (CapSense_SENSE_METHOD_CSX_E != CapSense_currentSenseMethod) 
 298:.\Generated_Source\PSoC4/CapSense_Sensing.c ****                 {
 299:.\Generated_Source\PSoC4/CapSense_Sensing.c ****                     CapSense_SwitchSensingMode(CapSense_SENSE_METHOD_CSX_E);
 300:.\Generated_Source\PSoC4/CapSense_Sensing.c ****                 }
 301:.\Generated_Source\PSoC4/CapSense_Sensing.c **** 
 302:.\Generated_Source\PSoC4/CapSense_Sensing.c ****                 #if (CapSense_ENABLE == CapSense_ADC_EN)
 303:.\Generated_Source\PSoC4/CapSense_Sensing.c ****                     if (CYRET_SUCCESS == widgetStatus)
 304:.\Generated_Source\PSoC4/CapSense_Sensing.c ****                     {
 305:.\Generated_Source\PSoC4/CapSense_Sensing.c ****                         /*  Set up widget for CSX scan  */
 306:.\Generated_Source\PSoC4/CapSense_Sensing.c ****                         CapSense_CSXSetupWidget(wdgtIndex);
 307:.\Generated_Source\PSoC4/CapSense_Sensing.c ****                     }
 308:.\Generated_Source\PSoC4/CapSense_Sensing.c ****                 #else
 309:.\Generated_Source\PSoC4/CapSense_Sensing.c ****                     /*  Set up widget for CSX scan  */
 310:.\Generated_Source\PSoC4/CapSense_Sensing.c ****                     CapSense_CSXSetupWidget(wdgtIndex);
 311:.\Generated_Source\PSoC4/CapSense_Sensing.c ****                 #endif /* (CapSense_ENABLE == CapSense_ADC_EN) */
 312:.\Generated_Source\PSoC4/CapSense_Sensing.c ****             }
 313:.\Generated_Source\PSoC4/CapSense_Sensing.c ****             /*  Check widget sensing method is CSD and call appropriate API */
 314:.\Generated_Source\PSoC4/CapSense_Sensing.c ****             else if (CapSense_SENSE_METHOD_CSD_E ==
 315:.\Generated_Source\PSoC4/CapSense_Sensing.c ****                      (CapSense_SENSE_METHOD_ENUM)CapSense_GET_SENSE_METHOD(&CapSense_dsFlash.wdgtAr
 316:.\Generated_Source\PSoC4/CapSense_Sensing.c ****             {
 317:.\Generated_Source\PSoC4/CapSense_Sensing.c ****                 /*  
 318:.\Generated_Source\PSoC4/CapSense_Sensing.c ****                  * Check if CSD block is  already initialized for CSD operation
 319:.\Generated_Source\PSoC4/CapSense_Sensing.c ****                  * If not, initialize CSD hardware block for CSD measurement   
 320:.\Generated_Source\PSoC4/CapSense_Sensing.c ****                  */
 321:.\Generated_Source\PSoC4/CapSense_Sensing.c ****                 if (CapSense_SENSE_METHOD_CSD_E != CapSense_currentSenseMethod)
 322:.\Generated_Source\PSoC4/CapSense_Sensing.c ****                 {
 323:.\Generated_Source\PSoC4/CapSense_Sensing.c ****                     CapSense_SwitchSensingMode(CapSense_SENSE_METHOD_CSD_E);
 324:.\Generated_Source\PSoC4/CapSense_Sensing.c ****                 }
 325:.\Generated_Source\PSoC4/CapSense_Sensing.c **** 
 326:.\Generated_Source\PSoC4/CapSense_Sensing.c ****                 #if (CapSense_ENABLE == CapSense_ADC_EN)
 327:.\Generated_Source\PSoC4/CapSense_Sensing.c ****                     if (CYRET_SUCCESS == widgetStatus)
 328:.\Generated_Source\PSoC4/CapSense_Sensing.c ****                     {
 329:.\Generated_Source\PSoC4/CapSense_Sensing.c ****                         /*  Set up widget for CSD scan  */
 330:.\Generated_Source\PSoC4/CapSense_Sensing.c ****                         CapSense_CSDSetupWidget(wdgtIndex);
 331:.\Generated_Source\PSoC4/CapSense_Sensing.c ****                     }
 332:.\Generated_Source\PSoC4/CapSense_Sensing.c ****                 #else
 333:.\Generated_Source\PSoC4/CapSense_Sensing.c ****                     /*  Set up widget for CSD scan  */
 334:.\Generated_Source\PSoC4/CapSense_Sensing.c ****                     CapSense_CSDSetupWidget(wdgtIndex);
 335:.\Generated_Source\PSoC4/CapSense_Sensing.c ****                 #endif /* (CapSense_ENABLE == CapSense_ADC_EN) */
 336:.\Generated_Source\PSoC4/CapSense_Sensing.c ****             }
 337:.\Generated_Source\PSoC4/CapSense_Sensing.c ****             else
 338:.\Generated_Source\PSoC4/CapSense_Sensing.c ****             {
 339:.\Generated_Source\PSoC4/CapSense_Sensing.c ****                 /*  Sensing method is invalid, return error to caller  */
 340:.\Generated_Source\PSoC4/CapSense_Sensing.c ****                 widgetStatus = CYRET_UNKNOWN;
 341:.\Generated_Source\PSoC4/CapSense_Sensing.c ****             }
 342:.\Generated_Source\PSoC4/CapSense_Sensing.c ****         #elif (CapSense_ENABLE == CapSense_CSD_EN)
 343:.\Generated_Source\PSoC4/CapSense_Sensing.c ****             #if (CapSense_ENABLE == CapSense_ADC_EN)
 344:.\Generated_Source\PSoC4/CapSense_Sensing.c ****                 /*  
 345:.\Generated_Source\PSoC4/CapSense_Sensing.c ****                  * Check if CSD block is  already initialized for CSD operation
 346:.\Generated_Source\PSoC4/CapSense_Sensing.c ****                  * If not, initialize CSD hardware block for CSD measurement   
 347:.\Generated_Source\PSoC4/CapSense_Sensing.c ****                  */
 348:.\Generated_Source\PSoC4/CapSense_Sensing.c ****                 if (CapSense_SENSE_METHOD_CSD_E != CapSense_currentSenseMethod)
 349:.\Generated_Source\PSoC4/CapSense_Sensing.c ****                 {
 350:.\Generated_Source\PSoC4/CapSense_Sensing.c ****                     if (CapSense_UNDEFINED_E == CapSense_currentSenseMethod) 
 351:.\Generated_Source\PSoC4/CapSense_Sensing.c ****                     {
 352:.\Generated_Source\PSoC4/CapSense_Sensing.c ****                         /* Release ADC resources */
 353:.\Generated_Source\PSoC4/CapSense_Sensing.c ****                         widgetStatus = CapSense_AdcReleaseResources();
ARM GAS  C:\Users\Alan\AppData\Local\Temp\ccvIRKlS.s 			page 9


 354:.\Generated_Source\PSoC4/CapSense_Sensing.c ****                     }
 355:.\Generated_Source\PSoC4/CapSense_Sensing.c **** 
 356:.\Generated_Source\PSoC4/CapSense_Sensing.c ****                     if (CYRET_SUCCESS == widgetStatus)
 357:.\Generated_Source\PSoC4/CapSense_Sensing.c ****                     {
 358:.\Generated_Source\PSoC4/CapSense_Sensing.c ****                         /* Initialize CSD mode to guarantee configured CSD mode after CSX calibrati
 359:.\Generated_Source\PSoC4/CapSense_Sensing.c ****                         CapSense_CSDInitialize();
 360:.\Generated_Source\PSoC4/CapSense_Sensing.c ****                         CapSense_currentSenseMethod = CapSense_SENSE_METHOD_CSD_E;
 361:.\Generated_Source\PSoC4/CapSense_Sensing.c ****                     }
 362:.\Generated_Source\PSoC4/CapSense_Sensing.c ****                 }
 363:.\Generated_Source\PSoC4/CapSense_Sensing.c ****                 
 364:.\Generated_Source\PSoC4/CapSense_Sensing.c ****                 if (CYRET_SUCCESS == widgetStatus)
 365:.\Generated_Source\PSoC4/CapSense_Sensing.c ****                 {
 366:.\Generated_Source\PSoC4/CapSense_Sensing.c ****                     /*  Set up widget for scan */
 367:.\Generated_Source\PSoC4/CapSense_Sensing.c ****                     CapSense_CSDSetupWidget(wdgtIndex);  
 368:.\Generated_Source\PSoC4/CapSense_Sensing.c ****                 }
 369:.\Generated_Source\PSoC4/CapSense_Sensing.c ****             #else    
 370:.\Generated_Source\PSoC4/CapSense_Sensing.c ****                 /*  Set up widget for scan */
 371:.\Generated_Source\PSoC4/CapSense_Sensing.c ****                 CapSense_CSDSetupWidget(wdgtIndex);   
 372:.\Generated_Source\PSoC4/CapSense_Sensing.c ****             #endif /* (CapSense_ENABLE == CapSense_ADC_EN) */
 373:.\Generated_Source\PSoC4/CapSense_Sensing.c ****         #elif (CapSense_ENABLE == CapSense_CSX_EN)
 374:.\Generated_Source\PSoC4/CapSense_Sensing.c ****             #if (CapSense_ENABLE == CapSense_ADC_EN)
 375:.\Generated_Source\PSoC4/CapSense_Sensing.c ****                 /*  
 376:.\Generated_Source\PSoC4/CapSense_Sensing.c ****                  *  Check if CSD block is  already initialized for CSX operation
 377:.\Generated_Source\PSoC4/CapSense_Sensing.c ****                  *  If not, initialize CSD hardware block for CSX measurement   
 378:.\Generated_Source\PSoC4/CapSense_Sensing.c ****                  */
 379:.\Generated_Source\PSoC4/CapSense_Sensing.c ****                 if (CapSense_SENSE_METHOD_CSX_E != CapSense_currentSenseMethod) 
 380:.\Generated_Source\PSoC4/CapSense_Sensing.c ****                 {
 381:.\Generated_Source\PSoC4/CapSense_Sensing.c ****                     if (CapSense_UNDEFINED_E == CapSense_currentSenseMethod) 
 382:.\Generated_Source\PSoC4/CapSense_Sensing.c ****                     {
 383:.\Generated_Source\PSoC4/CapSense_Sensing.c ****                         /* Release ADC resources */
 384:.\Generated_Source\PSoC4/CapSense_Sensing.c ****                         widgetStatus = CapSense_AdcReleaseResources();
 385:.\Generated_Source\PSoC4/CapSense_Sensing.c ****                     }
 386:.\Generated_Source\PSoC4/CapSense_Sensing.c ****                     
 387:.\Generated_Source\PSoC4/CapSense_Sensing.c ****                     if (CYRET_SUCCESS == widgetStatus)
 388:.\Generated_Source\PSoC4/CapSense_Sensing.c ****                     {
 389:.\Generated_Source\PSoC4/CapSense_Sensing.c ****                         /* Initialize CSD hardware block for CSX measurement */
 390:.\Generated_Source\PSoC4/CapSense_Sensing.c ****                         CapSense_CSXInitialize();
 391:.\Generated_Source\PSoC4/CapSense_Sensing.c ****                         CapSense_currentSenseMethod = CapSense_SENSE_METHOD_CSX_E;
 392:.\Generated_Source\PSoC4/CapSense_Sensing.c ****                     }
 393:.\Generated_Source\PSoC4/CapSense_Sensing.c ****                 }
 394:.\Generated_Source\PSoC4/CapSense_Sensing.c ****                 
 395:.\Generated_Source\PSoC4/CapSense_Sensing.c ****                 if (CYRET_SUCCESS == widgetStatus)
 396:.\Generated_Source\PSoC4/CapSense_Sensing.c ****                 {
 397:.\Generated_Source\PSoC4/CapSense_Sensing.c ****                     /*  Set up widgets for scan     */
 398:.\Generated_Source\PSoC4/CapSense_Sensing.c ****                     CapSense_CSXSetupWidget(wdgtIndex);
 399:.\Generated_Source\PSoC4/CapSense_Sensing.c ****                 }
 400:.\Generated_Source\PSoC4/CapSense_Sensing.c ****             #else
 401:.\Generated_Source\PSoC4/CapSense_Sensing.c ****                 /*  Set up widgets for scan     */
 402:.\Generated_Source\PSoC4/CapSense_Sensing.c ****                 CapSense_CSXSetupWidget(wdgtIndex);
 101              		.loc 1 402 0
 102 003a FFF7FEFF 		bl	CapSense_CSXSetupWidget
 103              	.LVL2:
 104              	.L6:
 403:.\Generated_Source\PSoC4/CapSense_Sensing.c ****             #endif /* (CapSense_ENABLE == CapSense_ADC_EN) */
 404:.\Generated_Source\PSoC4/CapSense_Sensing.c ****         #else
 405:.\Generated_Source\PSoC4/CapSense_Sensing.c ****             widgetStatus = CYRET_UNKNOWN;
 406:.\Generated_Source\PSoC4/CapSense_Sensing.c ****             #error "No sensing method enabled, component cannot work in this mode"
ARM GAS  C:\Users\Alan\AppData\Local\Temp\ccvIRKlS.s 			page 10


 407:.\Generated_Source\PSoC4/CapSense_Sensing.c ****         #endif  /* (CapSense_ENABLE == CapSense_CSD2X_EN) */
 408:.\Generated_Source\PSoC4/CapSense_Sensing.c ****     }
 409:.\Generated_Source\PSoC4/CapSense_Sensing.c **** 
 410:.\Generated_Source\PSoC4/CapSense_Sensing.c ****     return (widgetStatus);
 411:.\Generated_Source\PSoC4/CapSense_Sensing.c **** }
 105              		.loc 1 411 0
 106 003e 201C     		mov	r0, r4
 107              		@ sp needed
 108              	.LVL3:
 109 0040 10BD     		pop	{r4, pc}
 110              	.L11:
 111 0042 C046     		.align	2
 112              	.L10:
 113 0044 00000000 		.word	CapSense_dsRam
 114              		.cfi_endproc
 115              	.LFE2:
 116              		.size	CapSense_SetupWidget, .-CapSense_SetupWidget
 117              		.section	.text.CapSense_Scan,"ax",%progbits
 118              		.align	2
 119              		.global	CapSense_Scan
 120              		.code	16
 121              		.thumb_func
 122              		.type	CapSense_Scan, %function
 123              	CapSense_Scan:
 124              	.LFB3:
 412:.\Generated_Source\PSoC4/CapSense_Sensing.c **** 
 413:.\Generated_Source\PSoC4/CapSense_Sensing.c **** 
 414:.\Generated_Source\PSoC4/CapSense_Sensing.c **** /*******************************************************************************
 415:.\Generated_Source\PSoC4/CapSense_Sensing.c **** * Function Name: CapSense_Scan
 416:.\Generated_Source\PSoC4/CapSense_Sensing.c **** ****************************************************************************//**
 417:.\Generated_Source\PSoC4/CapSense_Sensing.c **** *
 418:.\Generated_Source\PSoC4/CapSense_Sensing.c **** * \brief
 419:.\Generated_Source\PSoC4/CapSense_Sensing.c **** *   Initiates scan for all sensors in the widget which is initialized by 
 420:.\Generated_Source\PSoC4/CapSense_Sensing.c **** *   CapSense_SetupWidget(), if the no scan is in progress
 421:.\Generated_Source\PSoC4/CapSense_Sensing.c **** *
 422:.\Generated_Source\PSoC4/CapSense_Sensing.c **** * \details
 423:.\Generated_Source\PSoC4/CapSense_Sensing.c **** *   In the CSD mode, this API initializes the widget scanning in the descending order.
 424:.\Generated_Source\PSoC4/CapSense_Sensing.c **** *   In the CSX mode, this API initializes the widget scanning in the ascending order. 
 425:.\Generated_Source\PSoC4/CapSense_Sensing.c **** *   It connects the sensor in the widget, sets up a callback for the ISR
 426:.\Generated_Source\PSoC4/CapSense_Sensing.c **** *   and starts scan of all the sensors in the widget which was set up in
 427:.\Generated_Source\PSoC4/CapSense_Sensing.c **** *   the CapSense_SetupWidget() API.
 428:.\Generated_Source\PSoC4/CapSense_Sensing.c **** *   This API returns to the caller after scanning of the sensor in the 
 429:.\Generated_Source\PSoC4/CapSense_Sensing.c **** *   widget is started, and scanning of the remaining sensors is started in the ISR. 
 430:.\Generated_Source\PSoC4/CapSense_Sensing.c **** *   The status of scanning must be checked using the CapSense_IsBusy() API  
 431:.\Generated_Source\PSoC4/CapSense_Sensing.c **** *   prior to starting next scan or setting up a widget.
 432:.\Generated_Source\PSoC4/CapSense_Sensing.c **** *
 433:.\Generated_Source\PSoC4/CapSense_Sensing.c **** *   Note that the CapSense HW block should be configured using  
 434:.\Generated_Source\PSoC4/CapSense_Sensing.c **** *   the CapSense_SetupWidget() API prior to calling this API.
 435:.\Generated_Source\PSoC4/CapSense_Sensing.c **** *
 436:.\Generated_Source\PSoC4/CapSense_Sensing.c **** * \return 
 437:.\Generated_Source\PSoC4/CapSense_Sensing.c **** *   Returns the status of operation:
 438:.\Generated_Source\PSoC4/CapSense_Sensing.c **** *      - Zero     - The CapSense scan is started.
 439:.\Generated_Source\PSoC4/CapSense_Sensing.c **** *      - Non-zero - The CapSense HW block is busy and scan has not started.
 440:.\Generated_Source\PSoC4/CapSense_Sensing.c **** *
 441:.\Generated_Source\PSoC4/CapSense_Sensing.c **** **********************************************************************************/
 442:.\Generated_Source\PSoC4/CapSense_Sensing.c **** cystatus CapSense_Scan(void)
 443:.\Generated_Source\PSoC4/CapSense_Sensing.c **** {
ARM GAS  C:\Users\Alan\AppData\Local\Temp\ccvIRKlS.s 			page 11


 125              		.loc 1 443 0
 126              		.cfi_startproc
 127 0000 08B5     		push	{r3, lr}
 128              		.cfi_def_cfa_offset 8
 129              		.cfi_offset 3, -8
 130              		.cfi_offset 14, -4
 131              	.LVL4:
 444:.\Generated_Source\PSoC4/CapSense_Sensing.c ****     cystatus scanStatus = CYRET_SUCCESS;
 445:.\Generated_Source\PSoC4/CapSense_Sensing.c **** 
 446:.\Generated_Source\PSoC4/CapSense_Sensing.c ****     if (CapSense_WDGT_SW_STS_BUSY == (CapSense_dsRam.status & CapSense_WDGT_SW_STS_BUSY))
 132              		.loc 1 446 0
 133 0002 054B     		ldr	r3, .L15
 134 0004 9B68     		ldr	r3, [r3, #8]
 135 0006 DB03     		lsl	r3, r3, #15
 136 0008 03D4     		bmi	.L14
 447:.\Generated_Source\PSoC4/CapSense_Sensing.c ****     {
 448:.\Generated_Source\PSoC4/CapSense_Sensing.c ****         /* Previous widget is being scanned. Return error. */
 449:.\Generated_Source\PSoC4/CapSense_Sensing.c ****         scanStatus = CYRET_INVALID_STATE;
 450:.\Generated_Source\PSoC4/CapSense_Sensing.c ****     }
 451:.\Generated_Source\PSoC4/CapSense_Sensing.c ****     else
 452:.\Generated_Source\PSoC4/CapSense_Sensing.c ****     {
 453:.\Generated_Source\PSoC4/CapSense_Sensing.c ****         /*  If CSD2X is enabled, call CSD2X scan    */
 454:.\Generated_Source\PSoC4/CapSense_Sensing.c ****     #if (CapSense_ENABLE == CapSense_CSD2X_EN)
 455:.\Generated_Source\PSoC4/CapSense_Sensing.c ****         scanStatus = CapSense_Scan2x();
 456:.\Generated_Source\PSoC4/CapSense_Sensing.c **** 
 457:.\Generated_Source\PSoC4/CapSense_Sensing.c ****     /*  If both CSD and CSX are enabled, call scan API based on widget sensing method    */
 458:.\Generated_Source\PSoC4/CapSense_Sensing.c ****     #elif (CapSense_ENABLE == CapSense_CSD_CSX_EN)
 459:.\Generated_Source\PSoC4/CapSense_Sensing.c ****         /*  Check widget sensing method and call appropriate APIs   */
 460:.\Generated_Source\PSoC4/CapSense_Sensing.c ****         switch (CapSense_currentSenseMethod)
 461:.\Generated_Source\PSoC4/CapSense_Sensing.c ****         {  
 462:.\Generated_Source\PSoC4/CapSense_Sensing.c ****             case CapSense_SENSE_METHOD_CSX_E:
 463:.\Generated_Source\PSoC4/CapSense_Sensing.c ****                 CapSense_CSXScan();
 464:.\Generated_Source\PSoC4/CapSense_Sensing.c ****                 break;
 465:.\Generated_Source\PSoC4/CapSense_Sensing.c **** 
 466:.\Generated_Source\PSoC4/CapSense_Sensing.c ****             case CapSense_SENSE_METHOD_CSD_E:
 467:.\Generated_Source\PSoC4/CapSense_Sensing.c ****                  CapSense_CSDScan();
 468:.\Generated_Source\PSoC4/CapSense_Sensing.c ****                 break;
 469:.\Generated_Source\PSoC4/CapSense_Sensing.c **** 
 470:.\Generated_Source\PSoC4/CapSense_Sensing.c ****             default:
 471:.\Generated_Source\PSoC4/CapSense_Sensing.c ****                 scanStatus = CYRET_UNKNOWN;
 472:.\Generated_Source\PSoC4/CapSense_Sensing.c ****                 break;
 473:.\Generated_Source\PSoC4/CapSense_Sensing.c ****         }
 474:.\Generated_Source\PSoC4/CapSense_Sensing.c ****         
 475:.\Generated_Source\PSoC4/CapSense_Sensing.c ****     /*  If only CSD is enabled, call CSD scan   */
 476:.\Generated_Source\PSoC4/CapSense_Sensing.c ****     #elif (CapSense_ENABLE == CapSense_CSD_EN)
 477:.\Generated_Source\PSoC4/CapSense_Sensing.c ****         CapSense_CSDScan();
 478:.\Generated_Source\PSoC4/CapSense_Sensing.c **** 
 479:.\Generated_Source\PSoC4/CapSense_Sensing.c ****     /*  If only CSX is enabled, call CSX scan   */
 480:.\Generated_Source\PSoC4/CapSense_Sensing.c ****     #elif (CapSense_ENABLE == CapSense_CSX_EN)
 481:.\Generated_Source\PSoC4/CapSense_Sensing.c ****         CapSense_CSXScan();
 137              		.loc 1 481 0
 138 000a FFF7FEFF 		bl	CapSense_CSXScan
 139              	.LVL5:
 444:.\Generated_Source\PSoC4/CapSense_Sensing.c ****     cystatus scanStatus = CYRET_SUCCESS;
 140              		.loc 1 444 0
 141 000e 0020     		mov	r0, #0
 142 0010 00E0     		b	.L13
ARM GAS  C:\Users\Alan\AppData\Local\Temp\ccvIRKlS.s 			page 12


 143              	.L14:
 449:.\Generated_Source\PSoC4/CapSense_Sensing.c ****     }
 144              		.loc 1 449 0
 145 0012 1120     		mov	r0, #17
 146              	.L13:
 147              	.LVL6:
 482:.\Generated_Source\PSoC4/CapSense_Sensing.c **** 
 483:.\Generated_Source\PSoC4/CapSense_Sensing.c ****     #else
 484:.\Generated_Source\PSoC4/CapSense_Sensing.c ****         scanStatus = CYRET_UNKNOWN;
 485:.\Generated_Source\PSoC4/CapSense_Sensing.c ****         #error "No sensing method enabled, component cannot work in this mode"
 486:.\Generated_Source\PSoC4/CapSense_Sensing.c ****     #endif  /* (CapSense_ENABLE == CapSense_CSD2X_EN) */
 487:.\Generated_Source\PSoC4/CapSense_Sensing.c ****     }
 488:.\Generated_Source\PSoC4/CapSense_Sensing.c **** 
 489:.\Generated_Source\PSoC4/CapSense_Sensing.c ****     return (scanStatus);
 490:.\Generated_Source\PSoC4/CapSense_Sensing.c **** }
 148              		.loc 1 490 0
 149              		@ sp needed
 150 0014 08BD     		pop	{r3, pc}
 151              	.L16:
 152 0016 C046     		.align	2
 153              	.L15:
 154 0018 00000000 		.word	CapSense_dsRam
 155              		.cfi_endproc
 156              	.LFE3:
 157              		.size	CapSense_Scan, .-CapSense_Scan
 158              		.section	.text.CapSense_ScanAllWidgets,"ax",%progbits
 159              		.align	2
 160              		.global	CapSense_ScanAllWidgets
 161              		.code	16
 162              		.thumb_func
 163              		.type	CapSense_ScanAllWidgets, %function
 164              	CapSense_ScanAllWidgets:
 165              	.LFB4:
 491:.\Generated_Source\PSoC4/CapSense_Sensing.c **** 
 492:.\Generated_Source\PSoC4/CapSense_Sensing.c **** 
 493:.\Generated_Source\PSoC4/CapSense_Sensing.c **** /*******************************************************************************
 494:.\Generated_Source\PSoC4/CapSense_Sensing.c **** * Function Name: CapSense_ScanAllWidgets
 495:.\Generated_Source\PSoC4/CapSense_Sensing.c **** ****************************************************************************//**
 496:.\Generated_Source\PSoC4/CapSense_Sensing.c **** *
 497:.\Generated_Source\PSoC4/CapSense_Sensing.c **** * \brief
 498:.\Generated_Source\PSoC4/CapSense_Sensing.c **** *   Initializes a widget and scans all the sensors in the widget, then the same 
 499:.\Generated_Source\PSoC4/CapSense_Sensing.c **** *   process is repeated for all widgets in the component. i.e. scan all the 
 500:.\Generated_Source\PSoC4/CapSense_Sensing.c **** *   widgets in the component.
 501:.\Generated_Source\PSoC4/CapSense_Sensing.c **** *
 502:.\Generated_Source\PSoC4/CapSense_Sensing.c **** * \details
 503:.\Generated_Source\PSoC4/CapSense_Sensing.c **** *   Initializes a widget and then initiates scan for the sensor in the
 504:.\Generated_Source\PSoC4/CapSense_Sensing.c **** *   widget and returns to the caller. At the end of the sensor scan, the ISR is 
 505:.\Generated_Source\PSoC4/CapSense_Sensing.c **** *   triggered and the following sensor scan is initiated in the ISR. Once all the 
 506:.\Generated_Source\PSoC4/CapSense_Sensing.c **** *   sensors are scanned, the next widget in the component is initialized and the  
 507:.\Generated_Source\PSoC4/CapSense_Sensing.c **** *   process is repeated  until all the sensors in all widgets in the component 
 508:.\Generated_Source\PSoC4/CapSense_Sensing.c **** *   are scanned.
 509:.\Generated_Source\PSoC4/CapSense_Sensing.c **** *   This function does not require the CapSense_Scan() or 
 510:.\Generated_Source\PSoC4/CapSense_Sensing.c **** *   CapSense_SetupWidget(uint32 wdgtIndex) APIs to be called to start
 511:.\Generated_Source\PSoC4/CapSense_Sensing.c **** *    scanning.
 512:.\Generated_Source\PSoC4/CapSense_Sensing.c **** *
 513:.\Generated_Source\PSoC4/CapSense_Sensing.c **** * \return 
 514:.\Generated_Source\PSoC4/CapSense_Sensing.c **** *   Returns the status of operation:
ARM GAS  C:\Users\Alan\AppData\Local\Temp\ccvIRKlS.s 			page 13


 515:.\Generated_Source\PSoC4/CapSense_Sensing.c **** *   - Zero        - Successfully initiated scan.
 516:.\Generated_Source\PSoC4/CapSense_Sensing.c **** *   - Non-zero    - One or more errors occurred in the initialization process.
 517:.\Generated_Source\PSoC4/CapSense_Sensing.c **** *
 518:.\Generated_Source\PSoC4/CapSense_Sensing.c **** *******************************************************************************/
 519:.\Generated_Source\PSoC4/CapSense_Sensing.c **** cystatus CapSense_ScanAllWidgets(void)
 520:.\Generated_Source\PSoC4/CapSense_Sensing.c **** {
 166              		.loc 1 520 0
 167              		.cfi_startproc
 168 0000 08B5     		push	{r3, lr}
 169              		.cfi_def_cfa_offset 8
 170              		.cfi_offset 3, -8
 171              		.cfi_offset 14, -4
 172              	.LVL7:
 521:.\Generated_Source\PSoC4/CapSense_Sensing.c ****     cystatus scanStatus = CYRET_UNKNOWN;
 522:.\Generated_Source\PSoC4/CapSense_Sensing.c ****     
 523:.\Generated_Source\PSoC4/CapSense_Sensing.c ****     #if (CapSense_DISABLE == CapSense_CSD2X_EN)
 524:.\Generated_Source\PSoC4/CapSense_Sensing.c ****         if (CapSense_SW_STS_BUSY == (CapSense_dsRam.status & CapSense_SW_STS_BUSY))
 173              		.loc 1 524 0
 174 0002 164B     		ldr	r3, .L25
 175 0004 9B68     		ldr	r3, [r3, #8]
 176 0006 1B06     		lsl	r3, r3, #24
 177 0008 26D4     		bmi	.L24
 525:.\Generated_Source\PSoC4/CapSense_Sensing.c ****         {
 526:.\Generated_Source\PSoC4/CapSense_Sensing.c ****             /* Previous widget is being scanned. Return error. */
 527:.\Generated_Source\PSoC4/CapSense_Sensing.c ****             scanStatus = CYRET_INVALID_STATE;
 528:.\Generated_Source\PSoC4/CapSense_Sensing.c ****         }
 529:.\Generated_Source\PSoC4/CapSense_Sensing.c ****         else
 530:.\Generated_Source\PSoC4/CapSense_Sensing.c ****         {
 531:.\Generated_Source\PSoC4/CapSense_Sensing.c ****             /*  
 532:.\Generated_Source\PSoC4/CapSense_Sensing.c ****              *  Set up widget first widget.
 533:.\Generated_Source\PSoC4/CapSense_Sensing.c ****              *  If widget returned error, set up next, continue same until widget does not return e
 534:.\Generated_Source\PSoC4/CapSense_Sensing.c ****              */
 535:.\Generated_Source\PSoC4/CapSense_Sensing.c ****             for (CapSense_widgetIndex = 0u; 
 178              		.loc 1 535 0
 179 000a 0022     		mov	r2, #0
 180 000c 144B     		ldr	r3, .L25+4
 181 000e 1A70     		strb	r2, [r3]
 521:.\Generated_Source\PSoC4/CapSense_Sensing.c ****     cystatus scanStatus = CYRET_UNKNOWN;
 182              		.loc 1 521 0
 183 0010 0120     		mov	r0, #1
 184 0012 4042     		neg	r0, r0
 185              		.loc 1 535 0
 186 0014 1AE0     		b	.L19
 187              	.LVL8:
 188              	.L23:
 536:.\Generated_Source\PSoC4/CapSense_Sensing.c ****                  CapSense_widgetIndex < CapSense_TOTAL_WIDGETS; 
 537:.\Generated_Source\PSoC4/CapSense_Sensing.c ****                  CapSense_widgetIndex++)
 538:.\Generated_Source\PSoC4/CapSense_Sensing.c ****             {
 539:.\Generated_Source\PSoC4/CapSense_Sensing.c **** 
 540:.\Generated_Source\PSoC4/CapSense_Sensing.c ****                 scanStatus = CapSense_SetupWidget((uint32)CapSense_widgetIndex);
 189              		.loc 1 540 0
 190 0016 124B     		ldr	r3, .L25+4
 191 0018 1878     		ldrb	r0, [r3]
 192              	.LVL9:
 193 001a C0B2     		uxtb	r0, r0
 194 001c FFF7FEFF 		bl	CapSense_SetupWidget
 195              	.LVL10:
ARM GAS  C:\Users\Alan\AppData\Local\Temp\ccvIRKlS.s 			page 14


 541:.\Generated_Source\PSoC4/CapSense_Sensing.c **** 
 542:.\Generated_Source\PSoC4/CapSense_Sensing.c ****                 if (CYRET_SUCCESS == scanStatus)
 196              		.loc 1 542 0
 197 0020 0028     		cmp	r0, #0
 198 0022 0ED1     		bne	.L20
 543:.\Generated_Source\PSoC4/CapSense_Sensing.c ****                 {
 544:.\Generated_Source\PSoC4/CapSense_Sensing.c ****                     #if (0u != (CapSense_TOTAL_WIDGETS - 1u))
 545:.\Generated_Source\PSoC4/CapSense_Sensing.c ****                         /* If there are more than one widget to be scanned, request callback to sca
 546:.\Generated_Source\PSoC4/CapSense_Sensing.c ****                         if ((CapSense_TOTAL_WIDGETS - 1u) > CapSense_widgetIndex)
 199              		.loc 1 546 0
 200 0024 0E4B     		ldr	r3, .L25+4
 201 0026 1B78     		ldrb	r3, [r3]
 202 0028 DBB2     		uxtb	r3, r3
 203 002a 012B     		cmp	r3, #1
 204 002c 03D8     		bhi	.L21
 547:.\Generated_Source\PSoC4/CapSense_Sensing.c ****                         {
 548:.\Generated_Source\PSoC4/CapSense_Sensing.c ****                              /* Request callback to scan next widget in ISR */
 549:.\Generated_Source\PSoC4/CapSense_Sensing.c ****                             CapSense_requestScanAllWidget = CapSense_ENABLE;
 205              		.loc 1 549 0
 206 002e 0122     		mov	r2, #1
 207 0030 0B4B     		ldr	r3, .L25+4
 208 0032 5A70     		strb	r2, [r3, #1]
 209 0034 02E0     		b	.L22
 210              	.L21:
 550:.\Generated_Source\PSoC4/CapSense_Sensing.c ****                         }
 551:.\Generated_Source\PSoC4/CapSense_Sensing.c ****                         else
 552:.\Generated_Source\PSoC4/CapSense_Sensing.c ****                         {
 553:.\Generated_Source\PSoC4/CapSense_Sensing.c ****                             /* Request to exit in ISR (Do not scan the next widgets) */
 554:.\Generated_Source\PSoC4/CapSense_Sensing.c ****                             CapSense_requestScanAllWidget = CapSense_DISABLE;
 211              		.loc 1 554 0
 212 0036 0022     		mov	r2, #0
 213 0038 094B     		ldr	r3, .L25+4
 214 003a 5A70     		strb	r2, [r3, #1]
 215              	.L22:
 555:.\Generated_Source\PSoC4/CapSense_Sensing.c ****                         }
 556:.\Generated_Source\PSoC4/CapSense_Sensing.c ****                     #else 
 557:.\Generated_Source\PSoC4/CapSense_Sensing.c ****                         {
 558:.\Generated_Source\PSoC4/CapSense_Sensing.c ****                             /* Request to exit in ISR (We have only one widget) */
 559:.\Generated_Source\PSoC4/CapSense_Sensing.c ****                             CapSense_requestScanAllWidget = CapSense_DISABLE;
 560:.\Generated_Source\PSoC4/CapSense_Sensing.c ****                         }
 561:.\Generated_Source\PSoC4/CapSense_Sensing.c ****                     #endif  /* (0u != (CapSense_TOTAL_WIDGETS - 1u)) */
 562:.\Generated_Source\PSoC4/CapSense_Sensing.c ****                     
 563:.\Generated_Source\PSoC4/CapSense_Sensing.c ****                     /*  Initiate scan and quit loop */
 564:.\Generated_Source\PSoC4/CapSense_Sensing.c ****                     scanStatus = CapSense_Scan();
 216              		.loc 1 564 0
 217 003c FFF7FEFF 		bl	CapSense_Scan
 218              	.LVL11:
 565:.\Generated_Source\PSoC4/CapSense_Sensing.c **** 
 566:.\Generated_Source\PSoC4/CapSense_Sensing.c ****                     break;
 219              		.loc 1 566 0
 220 0040 0BE0     		b	.L18
 221              	.L20:
 537:.\Generated_Source\PSoC4/CapSense_Sensing.c ****             {
 222              		.loc 1 537 0
 223 0042 074A     		ldr	r2, .L25+4
 224 0044 1378     		ldrb	r3, [r2]
 225 0046 0133     		add	r3, r3, #1
ARM GAS  C:\Users\Alan\AppData\Local\Temp\ccvIRKlS.s 			page 15


 226 0048 DBB2     		uxtb	r3, r3
 227 004a 1370     		strb	r3, [r2]
 228              	.LVL12:
 229              	.L19:
 536:.\Generated_Source\PSoC4/CapSense_Sensing.c ****                  CapSense_widgetIndex++)
 230              		.loc 1 536 0 discriminator 1
 231 004c 044B     		ldr	r3, .L25+4
 232 004e 1B78     		ldrb	r3, [r3]
 233 0050 DBB2     		uxtb	r3, r3
 535:.\Generated_Source\PSoC4/CapSense_Sensing.c ****                  CapSense_widgetIndex < CapSense_TOTAL_WIDGETS; 
 234              		.loc 1 535 0 discriminator 1
 235 0052 022B     		cmp	r3, #2
 236 0054 DFD9     		bls	.L23
 237 0056 00E0     		b	.L18
 238              	.LVL13:
 239              	.L24:
 527:.\Generated_Source\PSoC4/CapSense_Sensing.c ****         }
 240              		.loc 1 527 0
 241 0058 1120     		mov	r0, #17
 242              	.LVL14:
 243              	.L18:
 567:.\Generated_Source\PSoC4/CapSense_Sensing.c ****                 } 
 568:.\Generated_Source\PSoC4/CapSense_Sensing.c ****             } 
 569:.\Generated_Source\PSoC4/CapSense_Sensing.c ****         }        
 570:.\Generated_Source\PSoC4/CapSense_Sensing.c ****     #else
 571:.\Generated_Source\PSoC4/CapSense_Sensing.c ****         /******************************
 572:.\Generated_Source\PSoC4/CapSense_Sensing.c ****         * This is the place where the Scan2x 
 573:.\Generated_Source\PSoC4/CapSense_Sensing.c ****         * setup should be implemented.
 574:.\Generated_Source\PSoC4/CapSense_Sensing.c ****         * Scan2x will be implemented
 575:.\Generated_Source\PSoC4/CapSense_Sensing.c ****         * in the next component version.
 576:.\Generated_Source\PSoC4/CapSense_Sensing.c ****         *********************************/
 577:.\Generated_Source\PSoC4/CapSense_Sensing.c ****     #endif /* (CapSense_DISABLE == CapSense_CSD2X_EN) */
 578:.\Generated_Source\PSoC4/CapSense_Sensing.c **** 
 579:.\Generated_Source\PSoC4/CapSense_Sensing.c ****     return (scanStatus);
 580:.\Generated_Source\PSoC4/CapSense_Sensing.c **** }
 244              		.loc 1 580 0
 245              		@ sp needed
 246 005a 08BD     		pop	{r3, pc}
 247              	.L26:
 248              		.align	2
 249              	.L25:
 250 005c 00000000 		.word	CapSense_dsRam
 251 0060 00000000 		.word	.LANCHOR0
 252              		.cfi_endproc
 253              	.LFE4:
 254              		.size	CapSense_ScanAllWidgets, .-CapSense_ScanAllWidgets
 255              		.section	.text.CapSense_SsInitialize,"ax",%progbits
 256              		.align	2
 257              		.global	CapSense_SsInitialize
 258              		.code	16
 259              		.thumb_func
 260              		.type	CapSense_SsInitialize, %function
 261              	CapSense_SsInitialize:
 262              	.LFB5:
 581:.\Generated_Source\PSoC4/CapSense_Sensing.c **** 
 582:.\Generated_Source\PSoC4/CapSense_Sensing.c **** 
 583:.\Generated_Source\PSoC4/CapSense_Sensing.c **** /*******************************************************************************
ARM GAS  C:\Users\Alan\AppData\Local\Temp\ccvIRKlS.s 			page 16


 584:.\Generated_Source\PSoC4/CapSense_Sensing.c **** * Function Name: CapSense_SsInitialize
 585:.\Generated_Source\PSoC4/CapSense_Sensing.c **** ****************************************************************************//**
 586:.\Generated_Source\PSoC4/CapSense_Sensing.c **** *
 587:.\Generated_Source\PSoC4/CapSense_Sensing.c **** * \brief
 588:.\Generated_Source\PSoC4/CapSense_Sensing.c **** *   Performs hardware and firmware initialization required for proper operation
 589:.\Generated_Source\PSoC4/CapSense_Sensing.c **** *   of the CapSense component. This function is called from 
 590:.\Generated_Source\PSoC4/CapSense_Sensing.c **** *   the CapSense_Start() API prior to calling any other APIs of the component.
 591:.\Generated_Source\PSoC4/CapSense_Sensing.c **** *
 592:.\Generated_Source\PSoC4/CapSense_Sensing.c **** * \details
 593:.\Generated_Source\PSoC4/CapSense_Sensing.c **** *   Performs hardware and firmware initialization required for proper operation
 594:.\Generated_Source\PSoC4/CapSense_Sensing.c **** *   of the CapSense component. This function is called from 
 595:.\Generated_Source\PSoC4/CapSense_Sensing.c **** *   the CapSense_Start() API prior to calling any other APIs of the component.
 596:.\Generated_Source\PSoC4/CapSense_Sensing.c **** *   1. The function initialises immunity offsets when the frequency hopping is 
 597:.\Generated_Source\PSoC4/CapSense_Sensing.c **** *      enabled.
 598:.\Generated_Source\PSoC4/CapSense_Sensing.c **** *   2. Depending on the configuration, the function initialises the CSD block 
 599:.\Generated_Source\PSoC4/CapSense_Sensing.c **** *      for the CSD2X, CSD, CSX, or CSD+CSX modes.
 600:.\Generated_Source\PSoC4/CapSense_Sensing.c **** *   3. The function updates the dsRam.wdgtWorking variable with 1 when Self Test
 601:.\Generated_Source\PSoC4/CapSense_Sensing.c **** *      is enabled.
 602:.\Generated_Source\PSoC4/CapSense_Sensing.c **** *
 603:.\Generated_Source\PSoC4/CapSense_Sensing.c **** *   Calling the CapSense_Start API is the recommended method to initialize
 604:.\Generated_Source\PSoC4/CapSense_Sensing.c **** *   the CapSense component at power-up. The CapSense_SsInitialize() 
 605:.\Generated_Source\PSoC4/CapSense_Sensing.c **** *   API should not be used for initialization, resume, or wake-up operations.
 606:.\Generated_Source\PSoC4/CapSense_Sensing.c **** *   The dsRam.wdgtWorking variable is updated.
 607:.\Generated_Source\PSoC4/CapSense_Sensing.c **** *
 608:.\Generated_Source\PSoC4/CapSense_Sensing.c **** * \return status
 609:.\Generated_Source\PSoC4/CapSense_Sensing.c **** *   Returns status of operation:
 610:.\Generated_Source\PSoC4/CapSense_Sensing.c **** *   - Zero        - Indicates successful initialization.
 611:.\Generated_Source\PSoC4/CapSense_Sensing.c **** *   - Non-zero    - One or more errors occurred in the initialization process.
 612:.\Generated_Source\PSoC4/CapSense_Sensing.c **** *
 613:.\Generated_Source\PSoC4/CapSense_Sensing.c **** *******************************************************************************/
 614:.\Generated_Source\PSoC4/CapSense_Sensing.c **** cystatus CapSense_SsInitialize(void)
 615:.\Generated_Source\PSoC4/CapSense_Sensing.c **** {
 263              		.loc 1 615 0
 264              		.cfi_startproc
 265 0000 08B5     		push	{r3, lr}
 266              		.cfi_def_cfa_offset 8
 267              		.cfi_offset 3, -8
 268              		.cfi_offset 14, -4
 269              	.LVL15:
 616:.\Generated_Source\PSoC4/CapSense_Sensing.c ****     cystatus initStatus = CYRET_SUCCESS;
 617:.\Generated_Source\PSoC4/CapSense_Sensing.c **** 
 618:.\Generated_Source\PSoC4/CapSense_Sensing.c ****     #if (CapSense_ENABLE == CapSense_MULTI_FREQ_SCAN_EN)
 619:.\Generated_Source\PSoC4/CapSense_Sensing.c ****         CapSense_immunity[CapSense_FREQ_CHANNEL_0] = (uint8)CY_GET_REG32(CY_SYS_CLK_IMO_TRIM1_PTR);
 620:.\Generated_Source\PSoC4/CapSense_Sensing.c ****         if (CapSense_COARSE_TRIM_THRESHOLD_1 > CapSense_immunity[CapSense_FREQ_CHANNEL_0])
 621:.\Generated_Source\PSoC4/CapSense_Sensing.c ****         {
 622:.\Generated_Source\PSoC4/CapSense_Sensing.c ****             CapSense_immunity[CapSense_FREQ_CHANNEL_1] = 
 623:.\Generated_Source\PSoC4/CapSense_Sensing.c ****             CapSense_immunity[CapSense_FREQ_CHANNEL_0] + CapSense_FREQUENCY_OFFSET_5;
 624:.\Generated_Source\PSoC4/CapSense_Sensing.c ****             CapSense_immunity[CapSense_FREQ_CHANNEL_2] = 
 625:.\Generated_Source\PSoC4/CapSense_Sensing.c ****             CapSense_immunity[CapSense_FREQ_CHANNEL_0] + CapSense_FREQUENCY_OFFSET_10;
 626:.\Generated_Source\PSoC4/CapSense_Sensing.c ****         }
 627:.\Generated_Source\PSoC4/CapSense_Sensing.c ****         else if (CapSense_COARSE_TRIM_THRESHOLD_2 > CapSense_immunity[CapSense_FREQ_CHANNEL_0])
 628:.\Generated_Source\PSoC4/CapSense_Sensing.c ****         {
 629:.\Generated_Source\PSoC4/CapSense_Sensing.c ****             CapSense_immunity[CapSense_FREQ_CHANNEL_1] = 
 630:.\Generated_Source\PSoC4/CapSense_Sensing.c ****             CapSense_immunity[CapSense_FREQ_CHANNEL_0] - CapSense_FREQUENCY_OFFSET_5;
 631:.\Generated_Source\PSoC4/CapSense_Sensing.c ****             CapSense_immunity[CapSense_FREQ_CHANNEL_2] = 
 632:.\Generated_Source\PSoC4/CapSense_Sensing.c ****             CapSense_immunity[CapSense_FREQ_CHANNEL_0] + CapSense_FREQUENCY_OFFSET_5;
 633:.\Generated_Source\PSoC4/CapSense_Sensing.c ****         }
ARM GAS  C:\Users\Alan\AppData\Local\Temp\ccvIRKlS.s 			page 17


 634:.\Generated_Source\PSoC4/CapSense_Sensing.c ****         else
 635:.\Generated_Source\PSoC4/CapSense_Sensing.c ****         {
 636:.\Generated_Source\PSoC4/CapSense_Sensing.c ****             CapSense_immunity[CapSense_FREQ_CHANNEL_1] = 
 637:.\Generated_Source\PSoC4/CapSense_Sensing.c ****             CapSense_immunity[CapSense_FREQ_CHANNEL_0] - CapSense_FREQUENCY_OFFSET_5;
 638:.\Generated_Source\PSoC4/CapSense_Sensing.c ****             CapSense_immunity[CapSense_FREQ_CHANNEL_2] = 
 639:.\Generated_Source\PSoC4/CapSense_Sensing.c ****             CapSense_immunity[CapSense_FREQ_CHANNEL_0] - CapSense_FREQUENCY_OFFSET_10;
 640:.\Generated_Source\PSoC4/CapSense_Sensing.c ****         }
 641:.\Generated_Source\PSoC4/CapSense_Sensing.c ****     #endif /* (CapSense_ENABLE == CapSense_MULTI_FREQ_SCAN_EN) */
 642:.\Generated_Source\PSoC4/CapSense_Sensing.c **** 
 643:.\Generated_Source\PSoC4/CapSense_Sensing.c ****     /*  
 644:.\Generated_Source\PSoC4/CapSense_Sensing.c ****      *  Check if CSD2X is enabled, if yes, initialize CapSense component
 645:.\Generated_Source\PSoC4/CapSense_Sensing.c ****      *  for CSD2x operation 
 646:.\Generated_Source\PSoC4/CapSense_Sensing.c ****      */
 647:.\Generated_Source\PSoC4/CapSense_Sensing.c ****     #if (CapSense_ENABLE == CapSense_CSD2X_EN)
 648:.\Generated_Source\PSoC4/CapSense_Sensing.c ****         /*  
 649:.\Generated_Source\PSoC4/CapSense_Sensing.c ****          *  Check if CSX or CSD enable along with CSD2X, if yes, provide the error
 650:.\Generated_Source\PSoC4/CapSense_Sensing.c ****          *  message as CSD2X can not coexist with CSD or CSX    
 651:.\Generated_Source\PSoC4/CapSense_Sensing.c ****          */
 652:.\Generated_Source\PSoC4/CapSense_Sensing.c ****         #if (CapSense_ENABLE == CapSense_CSX_EN)
 653:.\Generated_Source\PSoC4/CapSense_Sensing.c ****             #error "CSD2X and CSX can not be enabled together"
 654:.\Generated_Source\PSoC4/CapSense_Sensing.c ****             initStatus = CYRET_UNKNOWN;
 655:.\Generated_Source\PSoC4/CapSense_Sensing.c ****         #elif (CapSense_ENABLE == CapSense_CSD_EN)
 656:.\Generated_Source\PSoC4/CapSense_Sensing.c ****             #error "CSD2X and CSD can not be enabled together"
 657:.\Generated_Source\PSoC4/CapSense_Sensing.c ****             initStatus = CYRET_UNKNOWN;
 658:.\Generated_Source\PSoC4/CapSense_Sensing.c ****         #endif /* (CapSense_CSX_EN == CapSense_ENABLE) */
 659:.\Generated_Source\PSoC4/CapSense_Sensing.c **** 
 660:.\Generated_Source\PSoC4/CapSense_Sensing.c ****         /* Initialize both CSD blocks for CSD2X scanning    */
 661:.\Generated_Source\PSoC4/CapSense_Sensing.c ****         CapSense_CSD2XInitialize();
 662:.\Generated_Source\PSoC4/CapSense_Sensing.c **** 
 663:.\Generated_Source\PSoC4/CapSense_Sensing.c ****     #elif (CapSense_ENABLE == CapSense_CSD_CSX_EN)
 664:.\Generated_Source\PSoC4/CapSense_Sensing.c ****         /* 
 665:.\Generated_Source\PSoC4/CapSense_Sensing.c ****          * Do nothing, CSD hardware shall be initialized in the Setup Widget based
 666:.\Generated_Source\PSoC4/CapSense_Sensing.c ****          * on widget sensing method    
 667:.\Generated_Source\PSoC4/CapSense_Sensing.c ****          */         
 668:.\Generated_Source\PSoC4/CapSense_Sensing.c ****         CapSense_currentSenseMethod = CapSense_UNDEFINED_E;    
 669:.\Generated_Source\PSoC4/CapSense_Sensing.c **** 
 670:.\Generated_Source\PSoC4/CapSense_Sensing.c ****     #elif (CapSense_ENABLE == CapSense_CSD_EN)
 671:.\Generated_Source\PSoC4/CapSense_Sensing.c ****         /*  Initialize CSD block for CSD scanning   */
 672:.\Generated_Source\PSoC4/CapSense_Sensing.c ****         CapSense_CSDInitialize();
 673:.\Generated_Source\PSoC4/CapSense_Sensing.c **** 
 674:.\Generated_Source\PSoC4/CapSense_Sensing.c ****     #elif (CapSense_ENABLE == CapSense_CSX_EN)
 675:.\Generated_Source\PSoC4/CapSense_Sensing.c ****         /*  Initialize CSD block for CSX scanning   */
 676:.\Generated_Source\PSoC4/CapSense_Sensing.c ****         CapSense_CSXInitialize();
 270              		.loc 1 676 0
 271 0002 FFF7FEFF 		bl	CapSense_CSXInitialize
 272              	.LVL16:
 677:.\Generated_Source\PSoC4/CapSense_Sensing.c ****         
 678:.\Generated_Source\PSoC4/CapSense_Sensing.c ****     #else
 679:.\Generated_Source\PSoC4/CapSense_Sensing.c ****         #error "No sensing method enabled, component cannot work in this mode"
 680:.\Generated_Source\PSoC4/CapSense_Sensing.c ****         initStatus = CYRET_UNKNOWN;
 681:.\Generated_Source\PSoC4/CapSense_Sensing.c ****     #endif  /* (CapSense_ENABLE == CapSense_CSD2X_EN) */
 682:.\Generated_Source\PSoC4/CapSense_Sensing.c **** 
 683:.\Generated_Source\PSoC4/CapSense_Sensing.c ****     return (initStatus);
 684:.\Generated_Source\PSoC4/CapSense_Sensing.c **** }
 273              		.loc 1 684 0
 274 0006 0020     		mov	r0, #0
 275              		@ sp needed
ARM GAS  C:\Users\Alan\AppData\Local\Temp\ccvIRKlS.s 			page 18


 276 0008 08BD     		pop	{r3, pc}
 277              		.cfi_endproc
 278              	.LFE5:
 279              		.size	CapSense_SsInitialize, .-CapSense_SsInitialize
 280              		.section	.text.CapSense_SetPinState,"ax",%progbits
 281              		.align	2
 282              		.global	CapSense_SetPinState
 283              		.code	16
 284              		.thumb_func
 285              		.type	CapSense_SetPinState, %function
 286              	CapSense_SetPinState:
 287              	.LFB6:
 685:.\Generated_Source\PSoC4/CapSense_Sensing.c **** 
 686:.\Generated_Source\PSoC4/CapSense_Sensing.c **** 
 687:.\Generated_Source\PSoC4/CapSense_Sensing.c **** /*******************************************************************************
 688:.\Generated_Source\PSoC4/CapSense_Sensing.c **** * Function Name: CapSense_SetPinState
 689:.\Generated_Source\PSoC4/CapSense_Sensing.c **** ****************************************************************************//**
 690:.\Generated_Source\PSoC4/CapSense_Sensing.c **** *
 691:.\Generated_Source\PSoC4/CapSense_Sensing.c **** * \brief
 692:.\Generated_Source\PSoC4/CapSense_Sensing.c **** *   Sets the status (drive mode and output state) of a sensor to six states
 693:.\Generated_Source\PSoC4/CapSense_Sensing.c **** *   relevant (GND, Shield,  HIgh-Z, Tx or Rx, sensor) to the CapSense operation.
 694:.\Generated_Source\PSoC4/CapSense_Sensing.c **** *   If the sensor is configured as a ganged sensor, then the API applies to the  
 695:.\Generated_Source\PSoC4/CapSense_Sensing.c **** *   dedicated pin and all ganged electrodes.
 696:.\Generated_Source\PSoC4/CapSense_Sensing.c **** *
 697:.\Generated_Source\PSoC4/CapSense_Sensing.c **** * \details
 698:.\Generated_Source\PSoC4/CapSense_Sensing.c **** *   This API disconnects port pins from AMUXBUS and sets the drive mode of a port pin
 699:.\Generated_Source\PSoC4/CapSense_Sensing.c **** *   (Rx, Tx or Sns electrode) based on an input parameter. The mode of the pin
 700:.\Generated_Source\PSoC4/CapSense_Sensing.c **** *   is set to HIgh-Z in the GPIO_PRT_PCx register.
 701:.\Generated_Source\PSoC4/CapSense_Sensing.c **** *
 702:.\Generated_Source\PSoC4/CapSense_Sensing.c **** *   Scanning should be completed before calling this API. 
 703:.\Generated_Source\PSoC4/CapSense_Sensing.c **** *   CapSense_SHIELD is not allowed if Enable shield electrode parameter
 704:.\Generated_Source\PSoC4/CapSense_Sensing.c **** *   is disabled.
 705:.\Generated_Source\PSoC4/CapSense_Sensing.c **** *   CapSense_TX_PIN and CapSense_RX_PIN are not allowed if there 
 706:.\Generated_Source\PSoC4/CapSense_Sensing.c **** *    are no other CSX widgets configured in the project.
 707:.\Generated_Source\PSoC4/CapSense_Sensing.c **** *
 708:.\Generated_Source\PSoC4/CapSense_Sensing.c **** *  \param wdgtIndex Specifies the ID of the widget.
 709:.\Generated_Source\PSoC4/CapSense_Sensing.c **** *   
 710:.\Generated_Source\PSoC4/CapSense_Sensing.c **** *  \param snsIndex Specifies the ID of the snsIndex.
 711:.\Generated_Source\PSoC4/CapSense_Sensing.c **** *   
 712:.\Generated_Source\PSoC4/CapSense_Sensing.c **** *  \param state Specifies the state to be set for a specified pin:
 713:.\Generated_Source\PSoC4/CapSense_Sensing.c **** *          -   (0) CapSense_GROUND
 714:.\Generated_Source\PSoC4/CapSense_Sensing.c **** *          -   (1) CapSense_HIGHZ
 715:.\Generated_Source\PSoC4/CapSense_Sensing.c **** *          -   (2) CapSense_SHIELD
 716:.\Generated_Source\PSoC4/CapSense_Sensing.c **** *          -   (3) CapSense_SENSOR
 717:.\Generated_Source\PSoC4/CapSense_Sensing.c **** *          -   (4) CapSense_TX_PIN
 718:.\Generated_Source\PSoC4/CapSense_Sensing.c **** *          -   (5) CapSense_RX_PIN
 719:.\Generated_Source\PSoC4/CapSense_Sensing.c **** *
 720:.\Generated_Source\PSoC4/CapSense_Sensing.c **** *******************************************************************************/
 721:.\Generated_Source\PSoC4/CapSense_Sensing.c **** void CapSense_SetPinState(uint32 wdgtIndex, uint32 snsIndex, uint32 state)
 722:.\Generated_Source\PSoC4/CapSense_Sensing.c **** {
 288              		.loc 1 722 0
 289              		.cfi_startproc
 290              	.LVL17:
 291 0000 70B5     		push	{r4, r5, r6, lr}
 292              		.cfi_def_cfa_offset 16
 293              		.cfi_offset 4, -16
 294              		.cfi_offset 5, -12
ARM GAS  C:\Users\Alan\AppData\Local\Temp\ccvIRKlS.s 			page 19


 295              		.cfi_offset 6, -8
 296              		.cfi_offset 14, -4
 723:.\Generated_Source\PSoC4/CapSense_Sensing.c ****     CapSense_FLASH_IO_STRUCT const *curSnsIOPtr;
 724:.\Generated_Source\PSoC4/CapSense_Sensing.c ****     #if (CapSense_ENABLE == CapSense_CSD_GANGED_SNS_EN)
 725:.\Generated_Source\PSoC4/CapSense_Sensing.c ****         CapSense_FLASH_SNS_STRUCT const *curFlashSnsPtr;
 726:.\Generated_Source\PSoC4/CapSense_Sensing.c ****         uint32 tempVal;
 727:.\Generated_Source\PSoC4/CapSense_Sensing.c ****     #endif /* (CapSense_ENABLE == CapSense_CSD_GANGED_SNS_EN) */
 728:.\Generated_Source\PSoC4/CapSense_Sensing.c ****     uint32 newRegisterValue;
 729:.\Generated_Source\PSoC4/CapSense_Sensing.c ****     uint8  interruptState;
 730:.\Generated_Source\PSoC4/CapSense_Sensing.c ****     uint32 pinHSIOMShift;
 731:.\Generated_Source\PSoC4/CapSense_Sensing.c ****     uint32 pinModeShift;
 732:.\Generated_Source\PSoC4/CapSense_Sensing.c ****     
 733:.\Generated_Source\PSoC4/CapSense_Sensing.c ****     #if (CapSense_ENABLE == CapSense_CSD_GANGED_SNS_EN)
 734:.\Generated_Source\PSoC4/CapSense_Sensing.c ****         /* Check ganged sns flag  */
 735:.\Generated_Source\PSoC4/CapSense_Sensing.c ****         if (CapSense_GANGED_SNS_MASK == (CapSense_dsFlash.wdgtArray[wdgtIndex].staticConfig & 
 736:.\Generated_Source\PSoC4/CapSense_Sensing.c ****             CapSense_GANGED_SNS_MASK))
 737:.\Generated_Source\PSoC4/CapSense_Sensing.c ****         {             
 738:.\Generated_Source\PSoC4/CapSense_Sensing.c ****             curFlashSnsPtr = CapSense_dsFlash.wdgtArray[wdgtIndex].ptr2SnsFlash;
 739:.\Generated_Source\PSoC4/CapSense_Sensing.c ****             curFlashSnsPtr += snsIndex;
 740:.\Generated_Source\PSoC4/CapSense_Sensing.c ****             curSnsIOPtr = &CapSense_ioList[curFlashSnsPtr->firstPinId];
 741:.\Generated_Source\PSoC4/CapSense_Sensing.c ****             
 742:.\Generated_Source\PSoC4/CapSense_Sensing.c ****             /* Get number of ganged pins  */
 743:.\Generated_Source\PSoC4/CapSense_Sensing.c ****             tempVal = curFlashSnsPtr->numPins;
 744:.\Generated_Source\PSoC4/CapSense_Sensing.c ****         }
 745:.\Generated_Source\PSoC4/CapSense_Sensing.c ****         else
 746:.\Generated_Source\PSoC4/CapSense_Sensing.c ****         {
 747:.\Generated_Source\PSoC4/CapSense_Sensing.c ****             curSnsIOPtr = (CapSense_FLASH_IO_STRUCT const *)
 748:.\Generated_Source\PSoC4/CapSense_Sensing.c ****                                     CapSense_dsFlash.wdgtArray[wdgtIndex].ptr2SnsFlash + snsIndex;
 749:.\Generated_Source\PSoC4/CapSense_Sensing.c ****             /* There are no ganged pins */
 750:.\Generated_Source\PSoC4/CapSense_Sensing.c ****             tempVal = 1u;                                
 751:.\Generated_Source\PSoC4/CapSense_Sensing.c ****         }
 752:.\Generated_Source\PSoC4/CapSense_Sensing.c ****     #else
 753:.\Generated_Source\PSoC4/CapSense_Sensing.c ****         curSnsIOPtr = (CapSense_FLASH_IO_STRUCT const *)
 754:.\Generated_Source\PSoC4/CapSense_Sensing.c ****                                     CapSense_dsFlash.wdgtArray[wdgtIndex].ptr2SnsFlash + snsIndex;
 297              		.loc 1 754 0
 298 0002 C300     		lsl	r3, r0, #3
 299 0004 181A     		sub	r0, r3, r0
 300              	.LVL18:
 301 0006 8000     		lsl	r0, r0, #2
 302 0008 2A4B     		ldr	r3, .L34
 303 000a C458     		ldr	r4, [r0, r3]
 304 000c CB00     		lsl	r3, r1, #3
 305 000e 591A     		sub	r1, r3, r1
 306              	.LVL19:
 307 0010 8900     		lsl	r1, r1, #2
 753:.\Generated_Source\PSoC4/CapSense_Sensing.c ****                                     CapSense_dsFlash.wdgtArray[wdgtIndex].ptr2SnsFlash + snsIndex;
 308              		.loc 1 753 0
 309 0012 6418     		add	r4, r4, r1
 310              	.LVL20:
 755:.\Generated_Source\PSoC4/CapSense_Sensing.c ****     #endif  /* (CapSense_ENABLE == CapSense_CSD_GANGED_SNS_EN) */
 756:.\Generated_Source\PSoC4/CapSense_Sensing.c ****     
 757:.\Generated_Source\PSoC4/CapSense_Sensing.c ****     #if (CapSense_ENABLE == CapSense_CSD_GANGED_SNS_EN)
 758:.\Generated_Source\PSoC4/CapSense_Sensing.c ****         /* Reconfigure all ganged sensors  */
 759:.\Generated_Source\PSoC4/CapSense_Sensing.c ****         do
 760:.\Generated_Source\PSoC4/CapSense_Sensing.c ****         {
 761:.\Generated_Source\PSoC4/CapSense_Sensing.c ****     #endif  /* (CapSense_ENABLE == CapSense_CSD_GANGED_SNS_EN) */
 762:.\Generated_Source\PSoC4/CapSense_Sensing.c **** 
ARM GAS  C:\Users\Alan\AppData\Local\Temp\ccvIRKlS.s 			page 20


 763:.\Generated_Source\PSoC4/CapSense_Sensing.c ****             /* Get HSIOM and port mode shifts */
 764:.\Generated_Source\PSoC4/CapSense_Sensing.c ****             pinHSIOMShift = (uint32)curSnsIOPtr->hsiomShift;
 311              		.loc 1 764 0
 312 0014 267E     		ldrb	r6, [r4, #24]
 313              	.LVL21:
 765:.\Generated_Source\PSoC4/CapSense_Sensing.c ****             pinModeShift = (uint32)curSnsIOPtr->shift;
 314              		.loc 1 765 0
 315 0016 A57E     		ldrb	r5, [r4, #26]
 316              	.LVL22:
 766:.\Generated_Source\PSoC4/CapSense_Sensing.c ****             
 767:.\Generated_Source\PSoC4/CapSense_Sensing.c ****             /* Reset HSIOM register */
 768:.\Generated_Source\PSoC4/CapSense_Sensing.c ****             CY_SET_REG32(curSnsIOPtr->hsiomPtr, CY_GET_REG32(curSnsIOPtr->hsiomPtr) & ~(CapSense_HS
 317              		.loc 1 768 0
 318 0018 2068     		ldr	r0, [r4]
 319 001a 0368     		ldr	r3, [r0]
 320 001c 0F21     		mov	r1, #15
 321 001e B140     		lsl	r1, r1, r6
 322 0020 8B43     		bic	r3, r1
 323 0022 0360     		str	r3, [r0]
 769:.\Generated_Source\PSoC4/CapSense_Sensing.c ****            
 770:.\Generated_Source\PSoC4/CapSense_Sensing.c ****             switch (state)
 324              		.loc 1 770 0
 325 0024 012A     		cmp	r2, #1
 326 0026 1CD0     		beq	.L30
 327 0028 002A     		cmp	r2, #0
 328 002a 04D0     		beq	.L31
 329 002c 042A     		cmp	r2, #4
 330 002e 2AD0     		beq	.L32
 331 0030 052A     		cmp	r2, #5
 332 0032 30D0     		beq	.L33
 333 0034 3CE0     		b	.L28
 334              	.L31:
 771:.\Generated_Source\PSoC4/CapSense_Sensing.c ****             {  
 772:.\Generated_Source\PSoC4/CapSense_Sensing.c ****             case CapSense_GROUND:
 773:.\Generated_Source\PSoC4/CapSense_Sensing.c ****                 interruptState = CyEnterCriticalSection();
 335              		.loc 1 773 0
 336 0036 FFF7FEFF 		bl	CyEnterCriticalSection
 337              	.LVL23:
 774:.\Generated_Source\PSoC4/CapSense_Sensing.c **** 
 775:.\Generated_Source\PSoC4/CapSense_Sensing.c ****                 /* Update port configuration register (drive mode) for sensor */
 776:.\Generated_Source\PSoC4/CapSense_Sensing.c ****                 newRegisterValue = CY_GET_REG32(curSnsIOPtr->pcPtr);
 338              		.loc 1 776 0
 339 003a 6168     		ldr	r1, [r4, #4]
 340 003c 0B68     		ldr	r3, [r1]
 341              	.LVL24:
 777:.\Generated_Source\PSoC4/CapSense_Sensing.c ****                 newRegisterValue &= ~(CapSense_GPIO_PC_MASK << pinModeShift);
 342              		.loc 1 777 0
 343 003e 0722     		mov	r2, #7
 344 0040 AA40     		lsl	r2, r2, r5
 345 0042 9343     		bic	r3, r2
 346              	.LVL25:
 778:.\Generated_Source\PSoC4/CapSense_Sensing.c ****                 newRegisterValue |= (CapSense_SNS_GROUND_CONNECT << pinModeShift);
 347              		.loc 1 778 0
 348 0044 0622     		mov	r2, #6
 349 0046 AA40     		lsl	r2, r2, r5
 350 0048 151C     		mov	r5, r2
 351              	.LVL26:
ARM GAS  C:\Users\Alan\AppData\Local\Temp\ccvIRKlS.s 			page 21


 352 004a 1D43     		orr	r5, r3
 353              	.LVL27:
 779:.\Generated_Source\PSoC4/CapSense_Sensing.c ****                 CY_SET_REG32(curSnsIOPtr->pcPtr, newRegisterValue);
 354              		.loc 1 779 0
 355 004c 0D60     		str	r5, [r1]
 780:.\Generated_Source\PSoC4/CapSense_Sensing.c **** 
 781:.\Generated_Source\PSoC4/CapSense_Sensing.c ****                 CyExitCriticalSection(interruptState);
 356              		.loc 1 781 0
 357 004e FFF7FEFF 		bl	CyExitCriticalSection
 358              	.LVL28:
 782:.\Generated_Source\PSoC4/CapSense_Sensing.c **** 
 783:.\Generated_Source\PSoC4/CapSense_Sensing.c ****                 /* Set logic 0 to port data register */
 784:.\Generated_Source\PSoC4/CapSense_Sensing.c ****                 CY_SET_REG32(curSnsIOPtr->drPtr, CY_GET_REG32(curSnsIOPtr->drPtr) & (uint32)~(uint3
 359              		.loc 1 784 0
 360 0052 A168     		ldr	r1, [r4, #8]
 361 0054 0B68     		ldr	r3, [r1]
 362 0056 607E     		ldrb	r0, [r4, #25]
 363 0058 0122     		mov	r2, #1
 364 005a 8240     		lsl	r2, r2, r0
 365 005c 9343     		bic	r3, r2
 366 005e 0B60     		str	r3, [r1]
 785:.\Generated_Source\PSoC4/CapSense_Sensing.c ****                 break;
 367              		.loc 1 785 0
 368 0060 26E0     		b	.L28
 369              	.LVL29:
 370              	.L30:
 786:.\Generated_Source\PSoC4/CapSense_Sensing.c ****                 
 787:.\Generated_Source\PSoC4/CapSense_Sensing.c ****             case CapSense_HIGHZ:
 788:.\Generated_Source\PSoC4/CapSense_Sensing.c ****                 interruptState = CyEnterCriticalSection();
 371              		.loc 1 788 0
 372 0062 FFF7FEFF 		bl	CyEnterCriticalSection
 373              	.LVL30:
 789:.\Generated_Source\PSoC4/CapSense_Sensing.c **** 
 790:.\Generated_Source\PSoC4/CapSense_Sensing.c ****                 /* Update port configuration register (drive mode) for sensor */
 791:.\Generated_Source\PSoC4/CapSense_Sensing.c ****                 newRegisterValue = CY_GET_REG32(curSnsIOPtr->pcPtr);
 374              		.loc 1 791 0
 375 0066 6168     		ldr	r1, [r4, #4]
 376 0068 0B68     		ldr	r3, [r1]
 377              	.LVL31:
 792:.\Generated_Source\PSoC4/CapSense_Sensing.c ****                 newRegisterValue &= ~(CapSense_GPIO_PC_MASK << pinModeShift);
 378              		.loc 1 792 0
 379 006a 0722     		mov	r2, #7
 380 006c AA40     		lsl	r2, r2, r5
 381 006e 9343     		bic	r3, r2
 382              	.LVL32:
 793:.\Generated_Source\PSoC4/CapSense_Sensing.c ****                 CY_SET_REG32(curSnsIOPtr->pcPtr, newRegisterValue);
 383              		.loc 1 793 0
 384 0070 0B60     		str	r3, [r1]
 794:.\Generated_Source\PSoC4/CapSense_Sensing.c **** 
 795:.\Generated_Source\PSoC4/CapSense_Sensing.c ****                 CyExitCriticalSection(interruptState);
 385              		.loc 1 795 0
 386 0072 FFF7FEFF 		bl	CyExitCriticalSection
 387              	.LVL33:
 796:.\Generated_Source\PSoC4/CapSense_Sensing.c **** 
 797:.\Generated_Source\PSoC4/CapSense_Sensing.c ****                 /* Set logic 0 to port data register */
 798:.\Generated_Source\PSoC4/CapSense_Sensing.c ****                 CY_SET_REG32(curSnsIOPtr->drPtr, CY_GET_REG32(curSnsIOPtr->drPtr) & (uint32)~(uint3
 388              		.loc 1 798 0
ARM GAS  C:\Users\Alan\AppData\Local\Temp\ccvIRKlS.s 			page 22


 389 0076 A168     		ldr	r1, [r4, #8]
 390 0078 0B68     		ldr	r3, [r1]
 391 007a 607E     		ldrb	r0, [r4, #25]
 392 007c 0122     		mov	r2, #1
 393 007e 8240     		lsl	r2, r2, r0
 394 0080 9343     		bic	r3, r2
 395 0082 0B60     		str	r3, [r1]
 799:.\Generated_Source\PSoC4/CapSense_Sensing.c ****                 break;
 396              		.loc 1 799 0
 397 0084 14E0     		b	.L28
 398              	.LVL34:
 399              	.L32:
 800:.\Generated_Source\PSoC4/CapSense_Sensing.c **** 
 801:.\Generated_Source\PSoC4/CapSense_Sensing.c ****             #if (CapSense_ENABLE == CapSense_CSD_SHIELD_EN)
 802:.\Generated_Source\PSoC4/CapSense_Sensing.c ****                 case CapSense_SHIELD:
 803:.\Generated_Source\PSoC4/CapSense_Sensing.c ****                     /* Set drive mode to Analog */
 804:.\Generated_Source\PSoC4/CapSense_Sensing.c ****                     CY_SET_REG32(curSnsIOPtr->pcPtr, CY_GET_REG32(curSnsIOPtr->pcPtr) &
 805:.\Generated_Source\PSoC4/CapSense_Sensing.c ****                                ~(CapSense_GPIO_PC_MASK <<(curSnsIOPtr->shift)));
 806:.\Generated_Source\PSoC4/CapSense_Sensing.c **** 
 807:.\Generated_Source\PSoC4/CapSense_Sensing.c ****                     /* Set appropriate bit in HSIOM register to configure pin to shield mode */
 808:.\Generated_Source\PSoC4/CapSense_Sensing.c ****                     CY_SET_REG32(curSnsIOPtr->hsiomPtr, CY_GET_REG32(curSnsIOPtr->hsiomPtr) | 
 809:.\Generated_Source\PSoC4/CapSense_Sensing.c ****                                                        (CapSense_HSIOM_SEL_CSD_SHIELD << pinHSIOMSh
 810:.\Generated_Source\PSoC4/CapSense_Sensing.c ****                     break;
 811:.\Generated_Source\PSoC4/CapSense_Sensing.c ****             #endif  /* (CapSense_ENABLE == CapSense_CSD_SHIELD_EN) */
 812:.\Generated_Source\PSoC4/CapSense_Sensing.c ****             
 813:.\Generated_Source\PSoC4/CapSense_Sensing.c ****             #if ((CapSense_ENABLE == CapSense_CSD_EN) || \
 814:.\Generated_Source\PSoC4/CapSense_Sensing.c ****                  (CapSense_ENABLE == CapSense_CSD_CSX_EN))
 815:.\Generated_Source\PSoC4/CapSense_Sensing.c ****                 case CapSense_SENSOR:
 816:.\Generated_Source\PSoC4/CapSense_Sensing.c ****                     /* Enable sensor */
 817:.\Generated_Source\PSoC4/CapSense_Sensing.c ****                     CapSense_CSDConnectSns(curSnsIOPtr);
 818:.\Generated_Source\PSoC4/CapSense_Sensing.c ****                     break;
 819:.\Generated_Source\PSoC4/CapSense_Sensing.c ****             #endif  /* ((CapSense_ENABLE == CapSense_CSD_EN) || \
 820:.\Generated_Source\PSoC4/CapSense_Sensing.c ****                         (CapSense_ENABLE == CapSense_CSD_CSX_EN)) */
 821:.\Generated_Source\PSoC4/CapSense_Sensing.c ****              
 822:.\Generated_Source\PSoC4/CapSense_Sensing.c ****             #if ((CapSense_ENABLE == CapSense_CSX_EN) || \
 823:.\Generated_Source\PSoC4/CapSense_Sensing.c ****                  (CapSense_ENABLE == CapSense_CSD_CSX_EN))
 824:.\Generated_Source\PSoC4/CapSense_Sensing.c ****                 case CapSense_TX_PIN:
 825:.\Generated_Source\PSoC4/CapSense_Sensing.c ****                     CY_SET_REG32(curSnsIOPtr->hsiomPtr, CY_GET_REG32(curSnsIOPtr->hsiomPtr) | (CapS
 400              		.loc 1 825 0
 401 0086 2268     		ldr	r2, [r4]
 402              	.LVL35:
 403 0088 1168     		ldr	r1, [r2]
 404 008a 0423     		mov	r3, #4
 405 008c B340     		lsl	r3, r3, r6
 406 008e 1E1C     		mov	r6, r3
 407              	.LVL36:
 408 0090 0E43     		orr	r6, r1
 409 0092 1660     		str	r6, [r2]
 826:.\Generated_Source\PSoC4/CapSense_Sensing.c ****                     break;
 410              		.loc 1 826 0
 411 0094 0CE0     		b	.L28
 412              	.LVL37:
 413              	.L33:
 827:.\Generated_Source\PSoC4/CapSense_Sensing.c ****                     
 828:.\Generated_Source\PSoC4/CapSense_Sensing.c ****                 case CapSense_RX_PIN:
 829:.\Generated_Source\PSoC4/CapSense_Sensing.c ****                     CY_SET_REG32(curSnsIOPtr->hsiomPtr, CY_GET_REG32(curSnsIOPtr->hsiomPtr) | (CapS
 414              		.loc 1 829 0
ARM GAS  C:\Users\Alan\AppData\Local\Temp\ccvIRKlS.s 			page 23


 415 0096 2268     		ldr	r2, [r4]
 416              	.LVL38:
 417 0098 1168     		ldr	r1, [r2]
 418 009a 0623     		mov	r3, #6
 419 009c B340     		lsl	r3, r3, r6
 420 009e 1E1C     		mov	r6, r3
 421              	.LVL39:
 422 00a0 0E43     		orr	r6, r1
 423 00a2 1660     		str	r6, [r2]
 830:.\Generated_Source\PSoC4/CapSense_Sensing.c ****                     CY_SET_REG32(curSnsIOPtr->pcPtr, CY_GET_REG32(curSnsIOPtr->pcPtr) & ~(CapSense_
 424              		.loc 1 830 0
 425 00a4 6168     		ldr	r1, [r4, #4]
 426 00a6 0B68     		ldr	r3, [r1]
 427 00a8 0722     		mov	r2, #7
 428 00aa AA40     		lsl	r2, r2, r5
 429 00ac 9343     		bic	r3, r2
 430 00ae 0B60     		str	r3, [r1]
 431              	.LVL40:
 432              	.L28:
 831:.\Generated_Source\PSoC4/CapSense_Sensing.c ****                     break;
 832:.\Generated_Source\PSoC4/CapSense_Sensing.c ****             #endif  /* ((CapSense_ENABLE == CapSense_CSX_EN) || \
 833:.\Generated_Source\PSoC4/CapSense_Sensing.c ****                         (CapSense_ENABLE == CapSense_CSD_CSX_EN)) */
 834:.\Generated_Source\PSoC4/CapSense_Sensing.c ****              
 835:.\Generated_Source\PSoC4/CapSense_Sensing.c ****             default:
 836:.\Generated_Source\PSoC4/CapSense_Sensing.c ****                 /* Wrong input */
 837:.\Generated_Source\PSoC4/CapSense_Sensing.c ****                 break;
 838:.\Generated_Source\PSoC4/CapSense_Sensing.c ****             }
 839:.\Generated_Source\PSoC4/CapSense_Sensing.c **** 
 840:.\Generated_Source\PSoC4/CapSense_Sensing.c ****     #if (CapSense_ENABLE == CapSense_CSD_GANGED_SNS_EN)
 841:.\Generated_Source\PSoC4/CapSense_Sensing.c ****             curSnsIOPtr++;
 842:.\Generated_Source\PSoC4/CapSense_Sensing.c ****             tempVal--;
 843:.\Generated_Source\PSoC4/CapSense_Sensing.c ****         } while (0u != tempVal);
 844:.\Generated_Source\PSoC4/CapSense_Sensing.c ****     #endif  /* (CapSense_ENABLE == CapSense_CSD_GANGED_SNS_EN) */
 845:.\Generated_Source\PSoC4/CapSense_Sensing.c **** }
 433              		.loc 1 845 0
 434              		@ sp needed
 435              	.LVL41:
 436 00b0 70BD     		pop	{r4, r5, r6, pc}
 437              	.L35:
 438 00b2 C046     		.align	2
 439              	.L34:
 440 00b4 00000000 		.word	CapSense_dsFlash
 441              		.cfi_endproc
 442              	.LFE6:
 443              		.size	CapSense_SetPinState, .-CapSense_SetPinState
 444              		.section	.text.CapSense_PostAllWidgetsScan,"ax",%progbits
 445              		.align	2
 446              		.global	CapSense_PostAllWidgetsScan
 447              		.code	16
 448              		.thumb_func
 449              		.type	CapSense_PostAllWidgetsScan, %function
 450              	CapSense_PostAllWidgetsScan:
 451              	.LFB7:
 846:.\Generated_Source\PSoC4/CapSense_Sensing.c **** 
 847:.\Generated_Source\PSoC4/CapSense_Sensing.c **** 
 848:.\Generated_Source\PSoC4/CapSense_Sensing.c **** #if (CapSense_ENABLE == CapSense_CSD_CSX_EN)
 849:.\Generated_Source\PSoC4/CapSense_Sensing.c **** /*******************************************************************************
ARM GAS  C:\Users\Alan\AppData\Local\Temp\ccvIRKlS.s 			page 24


 850:.\Generated_Source\PSoC4/CapSense_Sensing.c **** * Function Name: CapSense_SwitchSensingMode
 851:.\Generated_Source\PSoC4/CapSense_Sensing.c **** ****************************************************************************//**
 852:.\Generated_Source\PSoC4/CapSense_Sensing.c **** *
 853:.\Generated_Source\PSoC4/CapSense_Sensing.c **** * \brief
 854:.\Generated_Source\PSoC4/CapSense_Sensing.c **** *  This function changes the mode for case when both CSD and CSX widgets are
 855:.\Generated_Source\PSoC4/CapSense_Sensing.c **** *  scanned.
 856:.\Generated_Source\PSoC4/CapSense_Sensing.c **** *
 857:.\Generated_Source\PSoC4/CapSense_Sensing.c **** * \details
 858:.\Generated_Source\PSoC4/CapSense_Sensing.c **** *  To switch to the CSD mode the following tasks are performed:
 859:.\Generated_Source\PSoC4/CapSense_Sensing.c **** *  1. Disconnect CintA and CintB from AMUXBUS-A
 860:.\Generated_Source\PSoC4/CapSense_Sensing.c **** *  2. Disconnect previous CSD electrode if it has been connected
 861:.\Generated_Source\PSoC4/CapSense_Sensing.c **** *  3. Initialize CSD mode.
 862:.\Generated_Source\PSoC4/CapSense_Sensing.c **** *
 863:.\Generated_Source\PSoC4/CapSense_Sensing.c **** *  To switch to the CSX mode the following tasks are performed:
 864:.\Generated_Source\PSoC4/CapSense_Sensing.c **** *  1. Disconnect Cmod from AMUXBUS-A
 865:.\Generated_Source\PSoC4/CapSense_Sensing.c **** *  2. Disconnect previous CSX electrode if it has been connected
 866:.\Generated_Source\PSoC4/CapSense_Sensing.c **** *  3. Initialize CSX mode.
 867:.\Generated_Source\PSoC4/CapSense_Sensing.c **** *
 868:.\Generated_Source\PSoC4/CapSense_Sensing.c **** * \param mode Specifies the scan mode:
 869:.\Generated_Source\PSoC4/CapSense_Sensing.c **** *           -  (1) CapSense_SENSE_METHOD_CSD_E
 870:.\Generated_Source\PSoC4/CapSense_Sensing.c **** *           -  (2) CapSense_SENSE_METHOD_CSX_E
 871:.\Generated_Source\PSoC4/CapSense_Sensing.c **** *
 872:.\Generated_Source\PSoC4/CapSense_Sensing.c **** *******************************************************************************/
 873:.\Generated_Source\PSoC4/CapSense_Sensing.c **** void CapSense_SwitchSensingMode(CapSense_SENSE_METHOD_ENUM mode)
 874:.\Generated_Source\PSoC4/CapSense_Sensing.c **** {
 875:.\Generated_Source\PSoC4/CapSense_Sensing.c ****     uint32 newRegValue;
 876:.\Generated_Source\PSoC4/CapSense_Sensing.c ****         
 877:.\Generated_Source\PSoC4/CapSense_Sensing.c ****     if (CapSense_SENSE_METHOD_CSD_E == mode) 
 878:.\Generated_Source\PSoC4/CapSense_Sensing.c ****     {
 879:.\Generated_Source\PSoC4/CapSense_Sensing.c ****         /*  Disconnect CintA from AMUXBUS-A using HSIOM registers.   */
 880:.\Generated_Source\PSoC4/CapSense_Sensing.c ****         newRegValue = CY_GET_REG32(CapSense_CintA_HSIOM_PTR);
 881:.\Generated_Source\PSoC4/CapSense_Sensing.c ****         newRegValue &= (uint32)(~(uint32)CapSense_CintA_HSIOM_MASK);
 882:.\Generated_Source\PSoC4/CapSense_Sensing.c ****         CY_SET_REG32(CapSense_CintA_HSIOM_PTR, newRegValue);
 883:.\Generated_Source\PSoC4/CapSense_Sensing.c ****         
 884:.\Generated_Source\PSoC4/CapSense_Sensing.c ****         /*  Disconnect CintB from AMUXBUS-A using HSIOM registers.   */
 885:.\Generated_Source\PSoC4/CapSense_Sensing.c ****         newRegValue = CY_GET_REG32(CapSense_CintB_HSIOM_PTR);
 886:.\Generated_Source\PSoC4/CapSense_Sensing.c ****         newRegValue &= (uint32)(~(uint32)CapSense_CintB_HSIOM_MASK);
 887:.\Generated_Source\PSoC4/CapSense_Sensing.c ****         CY_SET_REG32(CapSense_CintB_HSIOM_PTR, newRegValue);
 888:.\Generated_Source\PSoC4/CapSense_Sensing.c **** 
 889:.\Generated_Source\PSoC4/CapSense_Sensing.c ****         /* Disconnect previous CSX electrode if it has been connected */
 890:.\Generated_Source\PSoC4/CapSense_Sensing.c ****         CapSense_CSXElectrodeCheck();
 891:.\Generated_Source\PSoC4/CapSense_Sensing.c ****         
 892:.\Generated_Source\PSoC4/CapSense_Sensing.c ****         /* Initialize CSD mode to guarantee configured CSD mode after CSX calibration */
 893:.\Generated_Source\PSoC4/CapSense_Sensing.c ****         CapSense_CSDInitialize();
 894:.\Generated_Source\PSoC4/CapSense_Sensing.c ****         CapSense_currentSenseMethod = CapSense_SENSE_METHOD_CSD_E;
 895:.\Generated_Source\PSoC4/CapSense_Sensing.c ****     }
 896:.\Generated_Source\PSoC4/CapSense_Sensing.c ****     else if (CapSense_SENSE_METHOD_CSX_E == mode) 
 897:.\Generated_Source\PSoC4/CapSense_Sensing.c ****     {
 898:.\Generated_Source\PSoC4/CapSense_Sensing.c ****         /* Disconnect Cmod from AMUXBUS-A using HSIOM registers */ 
 899:.\Generated_Source\PSoC4/CapSense_Sensing.c ****         newRegValue = CY_GET_REG32(CapSense_CMOD_HSIOM_PTR); 
 900:.\Generated_Source\PSoC4/CapSense_Sensing.c ****         newRegValue &= (uint32)(~(uint32)CapSense_CMOD_HSIOM_MASK);
 901:.\Generated_Source\PSoC4/CapSense_Sensing.c ****         CY_SET_REG32(CapSense_CMOD_HSIOM_PTR, newRegValue);
 902:.\Generated_Source\PSoC4/CapSense_Sensing.c **** 
 903:.\Generated_Source\PSoC4/CapSense_Sensing.c ****         /* Disconnect previous CSD electrode if it has been connected */
 904:.\Generated_Source\PSoC4/CapSense_Sensing.c ****         CapSense_CSDElectrodeCheck();
 905:.\Generated_Source\PSoC4/CapSense_Sensing.c **** 
 906:.\Generated_Source\PSoC4/CapSense_Sensing.c ****         /* Disconnect Csh from AMUXBUS-B */
ARM GAS  C:\Users\Alan\AppData\Local\Temp\ccvIRKlS.s 			page 25


 907:.\Generated_Source\PSoC4/CapSense_Sensing.c ****         #if ((CapSense_ENABLE == CapSense_CSD_SHIELD_EN) && \
 908:.\Generated_Source\PSoC4/CapSense_Sensing.c ****              (CapSense_ENABLE == CapSense_CSD_SHIELD_TANK_EN))
 909:.\Generated_Source\PSoC4/CapSense_Sensing.c ****             newRegValue = CY_GET_REG32(CapSense_CSH_HSIOM_PTR);
 910:.\Generated_Source\PSoC4/CapSense_Sensing.c ****             newRegValue &= (uint32)(~(uint32)(CapSense_CSH_TO_AMUXBUS_B_MASK << CapSense_CSH_HSIOM_
 911:.\Generated_Source\PSoC4/CapSense_Sensing.c ****             CY_SET_REG32(CapSense_CSH_HSIOM_PTR, newRegValue);
 912:.\Generated_Source\PSoC4/CapSense_Sensing.c ****         #endif /* ((CapSense_ENABLE == CapSense_CSD_SHIELD_EN) && \
 913:.\Generated_Source\PSoC4/CapSense_Sensing.c ****                    (CapSense_ENABLE == CapSense_CSD_SHIELD_TANK_EN)) */
 914:.\Generated_Source\PSoC4/CapSense_Sensing.c ****         
 915:.\Generated_Source\PSoC4/CapSense_Sensing.c ****         #if ((CapSense_ENABLE == CapSense_CSD_SHIELD_EN) && \
 916:.\Generated_Source\PSoC4/CapSense_Sensing.c ****              (0u != CapSense_CSD_TOTAL_SHIELD_COUNT))
 917:.\Generated_Source\PSoC4/CapSense_Sensing.c ****             CapSense_DisableShieldElectrodes();
 918:.\Generated_Source\PSoC4/CapSense_Sensing.c ****         #endif /* ((CapSense_ENABLE == CapSense_CSD_SHIELD_EN) && \
 919:.\Generated_Source\PSoC4/CapSense_Sensing.c ****                    (0u != CapSense_CSD_TOTAL_SHIELD_COUNT)) */
 920:.\Generated_Source\PSoC4/CapSense_Sensing.c ****         
 921:.\Generated_Source\PSoC4/CapSense_Sensing.c ****         /* Initialize CSD hardware block for CSX measurement */
 922:.\Generated_Source\PSoC4/CapSense_Sensing.c ****         CapSense_CSXInitialize();
 923:.\Generated_Source\PSoC4/CapSense_Sensing.c ****         CapSense_currentSenseMethod = CapSense_SENSE_METHOD_CSX_E;
 924:.\Generated_Source\PSoC4/CapSense_Sensing.c ****     }
 925:.\Generated_Source\PSoC4/CapSense_Sensing.c ****     else
 926:.\Generated_Source\PSoC4/CapSense_Sensing.c ****     {
 927:.\Generated_Source\PSoC4/CapSense_Sensing.c ****         CapSense_currentSenseMethod = CapSense_UNDEFINED_E;  
 928:.\Generated_Source\PSoC4/CapSense_Sensing.c ****     }
 929:.\Generated_Source\PSoC4/CapSense_Sensing.c **** }
 930:.\Generated_Source\PSoC4/CapSense_Sensing.c **** #endif  /* (CapSense_ENABLE == CapSense_CSD_CSX_EN)) */
 931:.\Generated_Source\PSoC4/CapSense_Sensing.c **** 
 932:.\Generated_Source\PSoC4/CapSense_Sensing.c **** 
 933:.\Generated_Source\PSoC4/CapSense_Sensing.c **** #if (CapSense_ENABLE == CapSense_ADC_EN)
 934:.\Generated_Source\PSoC4/CapSense_Sensing.c **** /*******************************************************************************
 935:.\Generated_Source\PSoC4/CapSense_Sensing.c **** * Function Name: CapSense_SsReleaseResources()
 936:.\Generated_Source\PSoC4/CapSense_Sensing.c **** ****************************************************************************//**
 937:.\Generated_Source\PSoC4/CapSense_Sensing.c **** *
 938:.\Generated_Source\PSoC4/CapSense_Sensing.c **** * \brief
 939:.\Generated_Source\PSoC4/CapSense_Sensing.c **** *  This function sets the resources that do not belong to the CSDv2 HW block to 
 940:.\Generated_Source\PSoC4/CapSense_Sensing.c **** *  default state.
 941:.\Generated_Source\PSoC4/CapSense_Sensing.c **** *
 942:.\Generated_Source\PSoC4/CapSense_Sensing.c **** * \details
 943:.\Generated_Source\PSoC4/CapSense_Sensing.c **** *  The function performs following tasks:
 944:.\Generated_Source\PSoC4/CapSense_Sensing.c **** *  1. Checks if CSD block busy and returns error if it is busy
 945:.\Generated_Source\PSoC4/CapSense_Sensing.c **** *  2. Disconnects integration capacitors (CintA, CintB for CSX mode and 
 946:.\Generated_Source\PSoC4/CapSense_Sensing.c **** *     Cmod for CSD mode)
 947:.\Generated_Source\PSoC4/CapSense_Sensing.c **** *  3. Disconnect electroded if they have been connected.
 948:.\Generated_Source\PSoC4/CapSense_Sensing.c **** *
 949:.\Generated_Source\PSoC4/CapSense_Sensing.c **** * \return 
 950:.\Generated_Source\PSoC4/CapSense_Sensing.c **** *   Returns the status of operation:
 951:.\Generated_Source\PSoC4/CapSense_Sensing.c **** *   - Zero        - Resources released successfully.
 952:.\Generated_Source\PSoC4/CapSense_Sensing.c **** *   - Non-zero    - One or more errors occurred in releasing process.
 953:.\Generated_Source\PSoC4/CapSense_Sensing.c **** *
 954:.\Generated_Source\PSoC4/CapSense_Sensing.c **** *******************************************************************************/
 955:.\Generated_Source\PSoC4/CapSense_Sensing.c **** cystatus CapSense_SsReleaseResources(void)
 956:.\Generated_Source\PSoC4/CapSense_Sensing.c **** {
 957:.\Generated_Source\PSoC4/CapSense_Sensing.c ****     cystatus busyStatus = CYRET_SUCCESS;
 958:.\Generated_Source\PSoC4/CapSense_Sensing.c ****     uint32 newRegValue;
 959:.\Generated_Source\PSoC4/CapSense_Sensing.c **** 
 960:.\Generated_Source\PSoC4/CapSense_Sensing.c ****     if (CapSense_SW_STS_BUSY == (CapSense_dsRam.status & CapSense_SW_STS_BUSY))
 961:.\Generated_Source\PSoC4/CapSense_Sensing.c ****     {
 962:.\Generated_Source\PSoC4/CapSense_Sensing.c ****         /* Previous widget is being scanned. Return error. */
 963:.\Generated_Source\PSoC4/CapSense_Sensing.c ****         busyStatus = CYRET_INVALID_STATE;
ARM GAS  C:\Users\Alan\AppData\Local\Temp\ccvIRKlS.s 			page 26


 964:.\Generated_Source\PSoC4/CapSense_Sensing.c ****     }
 965:.\Generated_Source\PSoC4/CapSense_Sensing.c ****     else
 966:.\Generated_Source\PSoC4/CapSense_Sensing.c ****     {
 967:.\Generated_Source\PSoC4/CapSense_Sensing.c ****     #if (CapSense_ENABLE == CapSense_CSX_EN)
 968:.\Generated_Source\PSoC4/CapSense_Sensing.c ****         /*  Disconnect CintA from AMUXBUS-A using HSIOM registers.   */
 969:.\Generated_Source\PSoC4/CapSense_Sensing.c ****         newRegValue = CY_GET_REG32(CapSense_CintA_HSIOM_PTR);
 970:.\Generated_Source\PSoC4/CapSense_Sensing.c ****         newRegValue &= (uint32)(~(uint32)CapSense_CintA_HSIOM_MASK);
 971:.\Generated_Source\PSoC4/CapSense_Sensing.c ****         CY_SET_REG32(CapSense_CintA_HSIOM_PTR, newRegValue);
 972:.\Generated_Source\PSoC4/CapSense_Sensing.c ****         
 973:.\Generated_Source\PSoC4/CapSense_Sensing.c ****         /*  Disconnect CintB from AMUXBUS-A using HSIOM registers.   */
 974:.\Generated_Source\PSoC4/CapSense_Sensing.c ****         newRegValue = CY_GET_REG32(CapSense_CintB_HSIOM_PTR);
 975:.\Generated_Source\PSoC4/CapSense_Sensing.c ****         newRegValue &= (uint32)(~(uint32)CapSense_CintB_HSIOM_MASK);
 976:.\Generated_Source\PSoC4/CapSense_Sensing.c ****         CY_SET_REG32(CapSense_CintB_HSIOM_PTR, newRegValue);
 977:.\Generated_Source\PSoC4/CapSense_Sensing.c **** 
 978:.\Generated_Source\PSoC4/CapSense_Sensing.c ****         /* Disconnect previous CSX electrode if it has been connected */
 979:.\Generated_Source\PSoC4/CapSense_Sensing.c ****         CapSense_CSXElectrodeCheck();
 980:.\Generated_Source\PSoC4/CapSense_Sensing.c ****     #endif /* (CapSense_ENABLE == CapSense_CSX_EN) */
 981:.\Generated_Source\PSoC4/CapSense_Sensing.c ****     
 982:.\Generated_Source\PSoC4/CapSense_Sensing.c ****     #if (CapSense_ENABLE == CapSense_CSD_EN)
 983:.\Generated_Source\PSoC4/CapSense_Sensing.c ****         /* Disconnect Cmod from AMUXBUS-A using HSIOM registers */ 
 984:.\Generated_Source\PSoC4/CapSense_Sensing.c ****         newRegValue = CY_GET_REG32(CapSense_CMOD_HSIOM_PTR); 
 985:.\Generated_Source\PSoC4/CapSense_Sensing.c ****         newRegValue &= (uint32)(~(uint32)CapSense_CMOD_HSIOM_MASK);
 986:.\Generated_Source\PSoC4/CapSense_Sensing.c ****         CY_SET_REG32(CapSense_CMOD_HSIOM_PTR, newRegValue);
 987:.\Generated_Source\PSoC4/CapSense_Sensing.c **** 
 988:.\Generated_Source\PSoC4/CapSense_Sensing.c ****         /* Disconnect previous CSD electrode if it has been connected */
 989:.\Generated_Source\PSoC4/CapSense_Sensing.c ****         CapSense_CSDElectrodeCheck();
 990:.\Generated_Source\PSoC4/CapSense_Sensing.c ****         
 991:.\Generated_Source\PSoC4/CapSense_Sensing.c ****         /* Disconnect Csh from AMUXBUS-B */
 992:.\Generated_Source\PSoC4/CapSense_Sensing.c ****         #if ((CapSense_ENABLE == CapSense_CSD_SHIELD_EN) && \
 993:.\Generated_Source\PSoC4/CapSense_Sensing.c ****              (CapSense_ENABLE == CapSense_CSD_SHIELD_TANK_EN))
 994:.\Generated_Source\PSoC4/CapSense_Sensing.c ****             newRegValue = CY_GET_REG32(CapSense_CSH_HSIOM_PTR);
 995:.\Generated_Source\PSoC4/CapSense_Sensing.c ****             newRegValue &= (uint32)(~(uint32)(CapSense_CSH_TO_AMUXBUS_B_MASK << CapSense_CSH_HSIOM_
 996:.\Generated_Source\PSoC4/CapSense_Sensing.c ****             CY_SET_REG32(CapSense_CSH_HSIOM_PTR, newRegValue);
 997:.\Generated_Source\PSoC4/CapSense_Sensing.c ****         #endif /* ((CapSense_ENABLE == CapSense_CSD_SHIELD_EN) && \
 998:.\Generated_Source\PSoC4/CapSense_Sensing.c ****                    (CapSense_ENABLE == CapSense_CSD_SHIELD_TANK_EN)) */
 999:.\Generated_Source\PSoC4/CapSense_Sensing.c ****         
1000:.\Generated_Source\PSoC4/CapSense_Sensing.c ****         #if ((CapSense_ENABLE == CapSense_CSD_SHIELD_EN) && \
1001:.\Generated_Source\PSoC4/CapSense_Sensing.c ****              (0u != CapSense_CSD_TOTAL_SHIELD_COUNT))
1002:.\Generated_Source\PSoC4/CapSense_Sensing.c ****             CapSense_DisableShieldElectrodes();
1003:.\Generated_Source\PSoC4/CapSense_Sensing.c ****         #endif /* ((CapSense_ENABLE == CapSense_CSD_SHIELD_EN) && \
1004:.\Generated_Source\PSoC4/CapSense_Sensing.c ****                    (0u != CapSense_CSD_TOTAL_SHIELD_COUNT)) */
1005:.\Generated_Source\PSoC4/CapSense_Sensing.c ****     #endif /* (CapSense_ENABLE == CapSense_CSD_EN) */
1006:.\Generated_Source\PSoC4/CapSense_Sensing.c **** 
1007:.\Generated_Source\PSoC4/CapSense_Sensing.c ****         /* 
1008:.\Generated_Source\PSoC4/CapSense_Sensing.c ****          * Reset of the currentSenseMethod variable to make sure that the next
1009:.\Generated_Source\PSoC4/CapSense_Sensing.c ****          * call of SetupWidget() API setups the correct widget mode
1010:.\Generated_Source\PSoC4/CapSense_Sensing.c ****          */
1011:.\Generated_Source\PSoC4/CapSense_Sensing.c ****         CapSense_currentSenseMethod = CapSense_UNDEFINED_E;
1012:.\Generated_Source\PSoC4/CapSense_Sensing.c ****     }
1013:.\Generated_Source\PSoC4/CapSense_Sensing.c **** 
1014:.\Generated_Source\PSoC4/CapSense_Sensing.c ****     return busyStatus;
1015:.\Generated_Source\PSoC4/CapSense_Sensing.c **** }
1016:.\Generated_Source\PSoC4/CapSense_Sensing.c **** #endif /* (CapSense_ENABLE == CapSense_ADC_EN) */
1017:.\Generated_Source\PSoC4/CapSense_Sensing.c **** 
1018:.\Generated_Source\PSoC4/CapSense_Sensing.c **** 
1019:.\Generated_Source\PSoC4/CapSense_Sensing.c **** /*******************************************************************************
1020:.\Generated_Source\PSoC4/CapSense_Sensing.c **** * Function Name: CapSense_PostAllWidgetsScan
ARM GAS  C:\Users\Alan\AppData\Local\Temp\ccvIRKlS.s 			page 27


1021:.\Generated_Source\PSoC4/CapSense_Sensing.c **** ****************************************************************************//**
1022:.\Generated_Source\PSoC4/CapSense_Sensing.c **** *
1023:.\Generated_Source\PSoC4/CapSense_Sensing.c **** * \brief
1024:.\Generated_Source\PSoC4/CapSense_Sensing.c **** *   The ISR function for multiple widget scanning implementation.
1025:.\Generated_Source\PSoC4/CapSense_Sensing.c **** *
1026:.\Generated_Source\PSoC4/CapSense_Sensing.c **** * \details
1027:.\Generated_Source\PSoC4/CapSense_Sensing.c **** *   This is the function used by the CapSense ISR to implement multiple widget
1028:.\Generated_Source\PSoC4/CapSense_Sensing.c **** *   scanning.
1029:.\Generated_Source\PSoC4/CapSense_Sensing.c **** *   Should not be used by the application layer.
1030:.\Generated_Source\PSoC4/CapSense_Sensing.c **** *
1031:.\Generated_Source\PSoC4/CapSense_Sensing.c **** *******************************************************************************/
1032:.\Generated_Source\PSoC4/CapSense_Sensing.c **** void CapSense_PostAllWidgetsScan(void)
1033:.\Generated_Source\PSoC4/CapSense_Sensing.c **** {
 452              		.loc 1 1033 0
 453              		.cfi_startproc
 454 0000 10B5     		push	{r4, lr}
 455              		.cfi_def_cfa_offset 8
 456              		.cfi_offset 4, -8
 457              		.cfi_offset 14, -4
 458              	.L41:
1034:.\Generated_Source\PSoC4/CapSense_Sensing.c ****     #if (CapSense_DISABLE == CapSense_CSD2X_EN)
1035:.\Generated_Source\PSoC4/CapSense_Sensing.c ****         /*  
1036:.\Generated_Source\PSoC4/CapSense_Sensing.c ****         *   1. Increment widget index
1037:.\Generated_Source\PSoC4/CapSense_Sensing.c ****         *   2. Check if all widgets are scanned
1038:.\Generated_Source\PSoC4/CapSense_Sensing.c ****         *   3. If all widgets are not scanned, set up and scan next widget  
1039:.\Generated_Source\PSoC4/CapSense_Sensing.c ****         */
1040:.\Generated_Source\PSoC4/CapSense_Sensing.c ****         #if (1u != CapSense_TOTAL_WIDGETS)  
1041:.\Generated_Source\PSoC4/CapSense_Sensing.c ****             cystatus postScanStatus;
1042:.\Generated_Source\PSoC4/CapSense_Sensing.c ****         
1043:.\Generated_Source\PSoC4/CapSense_Sensing.c ****             do
1044:.\Generated_Source\PSoC4/CapSense_Sensing.c ****             {
1045:.\Generated_Source\PSoC4/CapSense_Sensing.c ****                 CapSense_widgetIndex++;
 459              		.loc 1 1045 0
 460 0002 174A     		ldr	r2, .L42
 461 0004 1378     		ldrb	r3, [r2]
 462 0006 0133     		add	r3, r3, #1
 463 0008 DBB2     		uxtb	r3, r3
 464 000a 1370     		strb	r3, [r2]
1046:.\Generated_Source\PSoC4/CapSense_Sensing.c **** 
1047:.\Generated_Source\PSoC4/CapSense_Sensing.c ****                 postScanStatus = CapSense_SetupWidget((uint32)CapSense_widgetIndex);
 465              		.loc 1 1047 0
 466 000c 1078     		ldrb	r0, [r2]
 467 000e C0B2     		uxtb	r0, r0
 468 0010 FFF7FEFF 		bl	CapSense_SetupWidget
 469              	.LVL42:
 470 0014 041E     		sub	r4, r0, #0
 471              	.LVL43:
1048:.\Generated_Source\PSoC4/CapSense_Sensing.c **** 
1049:.\Generated_Source\PSoC4/CapSense_Sensing.c ****                 if (CYRET_SUCCESS == postScanStatus)
 472              		.loc 1 1049 0
 473 0016 09D1     		bne	.L37
1050:.\Generated_Source\PSoC4/CapSense_Sensing.c ****                 {
1051:.\Generated_Source\PSoC4/CapSense_Sensing.c ****                     if((CapSense_TOTAL_WIDGETS - 1u) == CapSense_widgetIndex)
 474              		.loc 1 1051 0
 475 0018 114B     		ldr	r3, .L42
 476 001a 1B78     		ldrb	r3, [r3]
 477 001c 022B     		cmp	r3, #2
ARM GAS  C:\Users\Alan\AppData\Local\Temp\ccvIRKlS.s 			page 28


 478 001e 02D1     		bne	.L38
1052:.\Generated_Source\PSoC4/CapSense_Sensing.c ****                     {
1053:.\Generated_Source\PSoC4/CapSense_Sensing.c ****                         /* The last widget will be scanned. Reset flag to skip configuring the next
1054:.\Generated_Source\PSoC4/CapSense_Sensing.c ****                         CapSense_requestScanAllWidget = CapSense_DISABLE;
 479              		.loc 1 1054 0
 480 0020 0022     		mov	r2, #0
 481 0022 0F4B     		ldr	r3, .L42
 482 0024 5A70     		strb	r2, [r3, #1]
 483              	.L38:
1055:.\Generated_Source\PSoC4/CapSense_Sensing.c ****                     }
1056:.\Generated_Source\PSoC4/CapSense_Sensing.c ****                     (void)CapSense_Scan();
 484              		.loc 1 1056 0
 485 0026 FFF7FEFF 		bl	CapSense_Scan
 486              	.LVL44:
 487 002a 15E0     		b	.L39
 488              	.LVL45:
 489              	.L37:
1057:.\Generated_Source\PSoC4/CapSense_Sensing.c ****                 }
1058:.\Generated_Source\PSoC4/CapSense_Sensing.c ****                 else if((CapSense_TOTAL_WIDGETS - 1u) == CapSense_widgetIndex)
 490              		.loc 1 1058 0
 491 002c 0C4B     		ldr	r3, .L42
 492 002e 1B78     		ldrb	r3, [r3]
 493 0030 022B     		cmp	r3, #2
 494 0032 0AD1     		bne	.L40
1059:.\Generated_Source\PSoC4/CapSense_Sensing.c ****                 {
1060:.\Generated_Source\PSoC4/CapSense_Sensing.c ****                     #if ((CapSense_ENABLE == CapSense_BLOCK_OFF_AFTER_SCAN_EN) && \
1061:.\Generated_Source\PSoC4/CapSense_Sensing.c ****                          (CapSense_ENABLE == CapSense_CSD_EN))
1062:.\Generated_Source\PSoC4/CapSense_Sensing.c ****                         if (CapSense_SENSE_METHOD_CSD_E ==
1063:.\Generated_Source\PSoC4/CapSense_Sensing.c ****                              (CapSense_SENSE_METHOD_ENUM)CapSense_GET_SENSE_METHOD(&CapSense_dsFlas
1064:.\Generated_Source\PSoC4/CapSense_Sensing.c ****                         {
1065:.\Generated_Source\PSoC4/CapSense_Sensing.c ****                             /*  Disable the CSD block */
1066:.\Generated_Source\PSoC4/CapSense_Sensing.c ****                             CY_SET_REG32(CapSense_CONFIG_PTR, CapSense_configCsd);
1067:.\Generated_Source\PSoC4/CapSense_Sensing.c ****                         }
1068:.\Generated_Source\PSoC4/CapSense_Sensing.c ****                     #endif /* ((CapSense_ENABLE == CapSense_BLOCK_OFF_AFTER_SCAN_EN) && \
1069:.\Generated_Source\PSoC4/CapSense_Sensing.c ****                                (CapSense_ENABLE == CapSense_CSD_EN)) */
1070:.\Generated_Source\PSoC4/CapSense_Sensing.c ****                     
1071:.\Generated_Source\PSoC4/CapSense_Sensing.c ****                     /* All widgets are totally processed. Reset BUSY flag */
1072:.\Generated_Source\PSoC4/CapSense_Sensing.c ****                     CapSense_dsRam.status &= ~CapSense_SW_STS_BUSY;
 495              		.loc 1 1072 0
 496 0034 0B4A     		ldr	r2, .L42+4
 497 0036 7E33     		add	r3, r3, #126
 498 0038 9168     		ldr	r1, [r2, #8]
 499 003a 9943     		bic	r1, r3
1073:.\Generated_Source\PSoC4/CapSense_Sensing.c ****                     
1074:.\Generated_Source\PSoC4/CapSense_Sensing.c ****                     /* Update status with with the failure */
1075:.\Generated_Source\PSoC4/CapSense_Sensing.c ****                     CapSense_dsRam.status &= ~CapSense_STATUS_ERR_MASK;                
 500              		.loc 1 1075 0
 501 003c 0B02     		lsl	r3, r1, #8
 502 003e 1B0A     		lsr	r3, r3, #8
1076:.\Generated_Source\PSoC4/CapSense_Sensing.c ****                     CapSense_dsRam.status |= ((postScanStatus & CapSense_STATUS_ERR_SIZE) << CapSen
 503              		.loc 1 1076 0
 504 0040 0406     		lsl	r4, r0, #24
 505 0042 2343     		orr	r3, r4
 506 0044 9360     		str	r3, [r2, #8]
 507              	.LVL46:
1077:.\Generated_Source\PSoC4/CapSense_Sensing.c ****                     
1078:.\Generated_Source\PSoC4/CapSense_Sensing.c ****                     /* Set postScanStatus to exit the while loop */
ARM GAS  C:\Users\Alan\AppData\Local\Temp\ccvIRKlS.s 			page 29


1079:.\Generated_Source\PSoC4/CapSense_Sensing.c ****                     postScanStatus = CYRET_SUCCESS;
 508              		.loc 1 1079 0
 509 0046 0024     		mov	r4, #0
 510 0048 06E0     		b	.L39
 511              	.LVL47:
 512              	.L40:
1080:.\Generated_Source\PSoC4/CapSense_Sensing.c ****                 }
1081:.\Generated_Source\PSoC4/CapSense_Sensing.c ****                 else
1082:.\Generated_Source\PSoC4/CapSense_Sensing.c ****                 {
1083:.\Generated_Source\PSoC4/CapSense_Sensing.c ****                     /* Update status with with the failure. Configure the next widget in while() lo
1084:.\Generated_Source\PSoC4/CapSense_Sensing.c ****                     CapSense_dsRam.status &= ~CapSense_STATUS_ERR_MASK;                
 513              		.loc 1 1084 0
 514 004a 0649     		ldr	r1, .L42+4
 515 004c 8B68     		ldr	r3, [r1, #8]
 516 004e 1B02     		lsl	r3, r3, #8
 517 0050 1B0A     		lsr	r3, r3, #8
1085:.\Generated_Source\PSoC4/CapSense_Sensing.c ****                     CapSense_dsRam.status |= ((postScanStatus & CapSense_STATUS_ERR_SIZE) << CapSen
 518              		.loc 1 1085 0
 519 0052 0206     		lsl	r2, r0, #24
 520 0054 1343     		orr	r3, r2
 521 0056 8B60     		str	r3, [r1, #8]
 522              	.LVL48:
 523              	.L39:
1086:.\Generated_Source\PSoC4/CapSense_Sensing.c ****                 }
1087:.\Generated_Source\PSoC4/CapSense_Sensing.c ****             } while (CYRET_SUCCESS != postScanStatus);
 524              		.loc 1 1087 0
 525 0058 002C     		cmp	r4, #0
 526 005a D2D1     		bne	.L41
1088:.\Generated_Source\PSoC4/CapSense_Sensing.c ****         #endif /* (1u != CapSense_TOTAL_WIDGETS) */
1089:.\Generated_Source\PSoC4/CapSense_Sensing.c ****     #else
1090:.\Generated_Source\PSoC4/CapSense_Sensing.c ****         /******************************
1091:.\Generated_Source\PSoC4/CapSense_Sensing.c ****         * This is the place where the CSD2X 
1092:.\Generated_Source\PSoC4/CapSense_Sensing.c ****         * postscan for 2 widgets should be implemented.
1093:.\Generated_Source\PSoC4/CapSense_Sensing.c ****         * The CSD2X postscan will be implemented
1094:.\Generated_Source\PSoC4/CapSense_Sensing.c ****         * in the next component version.
1095:.\Generated_Source\PSoC4/CapSense_Sensing.c ****         *********************************/
1096:.\Generated_Source\PSoC4/CapSense_Sensing.c ****     #endif /* (CapSense_CSD2X_EN == CapSense_DISABLE) */
1097:.\Generated_Source\PSoC4/CapSense_Sensing.c **** }
 527              		.loc 1 1097 0
 528              		@ sp needed
 529              	.LVL49:
 530 005c 10BD     		pop	{r4, pc}
 531              	.L43:
 532 005e C046     		.align	2
 533              	.L42:
 534 0060 00000000 		.word	.LANCHOR0
 535 0064 00000000 		.word	CapSense_dsRam
 536              		.cfi_endproc
 537              	.LFE7:
 538              		.size	CapSense_PostAllWidgetsScan, .-CapSense_PostAllWidgetsScan
 539              		.section	.text.CapSense_IsrInitialize,"ax",%progbits
 540              		.align	2
 541              		.global	CapSense_IsrInitialize
 542              		.code	16
 543              		.thumb_func
 544              		.type	CapSense_IsrInitialize, %function
 545              	CapSense_IsrInitialize:
ARM GAS  C:\Users\Alan\AppData\Local\Temp\ccvIRKlS.s 			page 30


 546              	.LFB8:
1098:.\Generated_Source\PSoC4/CapSense_Sensing.c **** 
1099:.\Generated_Source\PSoC4/CapSense_Sensing.c **** 
1100:.\Generated_Source\PSoC4/CapSense_Sensing.c **** /*******************************************************************************
1101:.\Generated_Source\PSoC4/CapSense_Sensing.c **** * Function Name: CapSense_IsrInitialize
1102:.\Generated_Source\PSoC4/CapSense_Sensing.c **** ****************************************************************************//**
1103:.\Generated_Source\PSoC4/CapSense_Sensing.c **** *
1104:.\Generated_Source\PSoC4/CapSense_Sensing.c **** * \brief
1105:.\Generated_Source\PSoC4/CapSense_Sensing.c **** *   Enables and initializes for the function pointer for a callback for the ISR.
1106:.\Generated_Source\PSoC4/CapSense_Sensing.c **** *
1107:.\Generated_Source\PSoC4/CapSense_Sensing.c **** * \details
1108:.\Generated_Source\PSoC4/CapSense_Sensing.c **** *   The  "address" is a special type cyisraddress defined by Cylib. This function
1109:.\Generated_Source\PSoC4/CapSense_Sensing.c **** *   is used by component APIs and should not be used by an application program for
1110:.\Generated_Source\PSoC4/CapSense_Sensing.c **** *   proper working of the component.
1111:.\Generated_Source\PSoC4/CapSense_Sensing.c **** *
1112:.\Generated_Source\PSoC4/CapSense_Sensing.c **** * \param  address The address of the function to be called when interrupt is fired.
1113:.\Generated_Source\PSoC4/CapSense_Sensing.c **** *
1114:.\Generated_Source\PSoC4/CapSense_Sensing.c **** *******************************************************************************/
1115:.\Generated_Source\PSoC4/CapSense_Sensing.c **** void CapSense_IsrInitialize(cyisraddress address)
1116:.\Generated_Source\PSoC4/CapSense_Sensing.c **** {
 547              		.loc 1 1116 0
 548              		.cfi_startproc
 549              	.LVL50:
 550 0000 08B5     		push	{r3, lr}
 551              		.cfi_def_cfa_offset 8
 552              		.cfi_offset 3, -8
 553              		.cfi_offset 14, -4
1117:.\Generated_Source\PSoC4/CapSense_Sensing.c **** #if (CapSense_ENABLE == CapSense_CSD2X_EN)
1118:.\Generated_Source\PSoC4/CapSense_Sensing.c ****     /******************************
1119:.\Generated_Source\PSoC4/CapSense_Sensing.c ****     * This is the place where the CSD2X ISR 
1120:.\Generated_Source\PSoC4/CapSense_Sensing.c ****     * Setup should be implemented.
1121:.\Generated_Source\PSoC4/CapSense_Sensing.c ****     * The CSD2X ISR Setup will be implemented
1122:.\Generated_Source\PSoC4/CapSense_Sensing.c ****     * in the next component version.
1123:.\Generated_Source\PSoC4/CapSense_Sensing.c ****     *********************************/
1124:.\Generated_Source\PSoC4/CapSense_Sensing.c **** #else
1125:.\Generated_Source\PSoC4/CapSense_Sensing.c ****     CapSense_ISR_StartEx(address);
 554              		.loc 1 1125 0
 555 0002 FFF7FEFF 		bl	CapSense_ISR_StartEx
 556              	.LVL51:
1126:.\Generated_Source\PSoC4/CapSense_Sensing.c **** #endif /* (CapSense_ENABLE == CapSense_CSD2X_EN) */
1127:.\Generated_Source\PSoC4/CapSense_Sensing.c **** }
 557              		.loc 1 1127 0
 558              		@ sp needed
 559 0006 08BD     		pop	{r3, pc}
 560              		.cfi_endproc
 561              	.LFE8:
 562              		.size	CapSense_IsrInitialize, .-CapSense_IsrInitialize
 563              		.section	.text.CapSense_ConfigureModClkClock,"ax",%progbits
 564              		.align	2
 565              		.global	CapSense_ConfigureModClkClock
 566              		.code	16
 567              		.thumb_func
 568              		.type	CapSense_ConfigureModClkClock, %function
 569              	CapSense_ConfigureModClkClock:
 570              	.LFB9:
1128:.\Generated_Source\PSoC4/CapSense_Sensing.c **** 
1129:.\Generated_Source\PSoC4/CapSense_Sensing.c **** 
ARM GAS  C:\Users\Alan\AppData\Local\Temp\ccvIRKlS.s 			page 31


1130:.\Generated_Source\PSoC4/CapSense_Sensing.c **** /*******************************************************************************
1131:.\Generated_Source\PSoC4/CapSense_Sensing.c **** * Function Name: CapSense_ConfigureModClkClock
1132:.\Generated_Source\PSoC4/CapSense_Sensing.c **** ****************************************************************************//**
1133:.\Generated_Source\PSoC4/CapSense_Sensing.c **** *
1134:.\Generated_Source\PSoC4/CapSense_Sensing.c **** * \brief
1135:.\Generated_Source\PSoC4/CapSense_Sensing.c **** *   Sets the divider values for the modulator clock and then starts
1136:.\Generated_Source\PSoC4/CapSense_Sensing.c **** *   the modulator clock.
1137:.\Generated_Source\PSoC4/CapSense_Sensing.c **** *
1138:.\Generated_Source\PSoC4/CapSense_Sensing.c **** * \details
1139:.\Generated_Source\PSoC4/CapSense_Sensing.c **** *   It is not recommended to call this function directly by the application layer.
1140:.\Generated_Source\PSoC4/CapSense_Sensing.c **** *   It is used by initialization, widget APIs or wakeup functions to
1141:.\Generated_Source\PSoC4/CapSense_Sensing.c **** *   enable the clocks.
1142:.\Generated_Source\PSoC4/CapSense_Sensing.c **** *
1143:.\Generated_Source\PSoC4/CapSense_Sensing.c **** * \param
1144:.\Generated_Source\PSoC4/CapSense_Sensing.c **** *   modClk The divider value for the modulator clock.
1145:.\Generated_Source\PSoC4/CapSense_Sensing.c **** *
1146:.\Generated_Source\PSoC4/CapSense_Sensing.c **** *******************************************************************************/
1147:.\Generated_Source\PSoC4/CapSense_Sensing.c **** void CapSense_ConfigureModClkClock(uint32 modClk)
1148:.\Generated_Source\PSoC4/CapSense_Sensing.c **** {
 571              		.loc 1 1148 0
 572              		.cfi_startproc
 573              	.LVL52:
1149:.\Generated_Source\PSoC4/CapSense_Sensing.c **** #if (CapSense_ENABLE == CapSense_IS_M0S8PERI_BLOCK)
1150:.\Generated_Source\PSoC4/CapSense_Sensing.c ****     /*  Stop modulator clock   */
1151:.\Generated_Source\PSoC4/CapSense_Sensing.c ****     CY_SET_REG32(CapSense_MODCLK_CMD_PTR, 
 574              		.loc 1 1151 0
 575 0000 074A     		ldr	r2, .L47
 576 0002 084B     		ldr	r3, .L47+4
 577 0004 1A60     		str	r2, [r3]
1152:.\Generated_Source\PSoC4/CapSense_Sensing.c ****                  ((uint32)CapSense_ModClk__DIV_ID <<
1153:.\Generated_Source\PSoC4/CapSense_Sensing.c ****                  CapSense_MODCLK_CMD_DIV_SHIFT)|
1154:.\Generated_Source\PSoC4/CapSense_Sensing.c ****                  ((uint32)CapSense_MODCLK_CMD_DISABLE_MASK));
1155:.\Generated_Source\PSoC4/CapSense_Sensing.c **** 
1156:.\Generated_Source\PSoC4/CapSense_Sensing.c ****     /*  
1157:.\Generated_Source\PSoC4/CapSense_Sensing.c ****      * Set divider value for sense modClk.
1158:.\Generated_Source\PSoC4/CapSense_Sensing.c ****      * 1u is subtracted from modClk because Divider register value 0 corresponds
1159:.\Generated_Source\PSoC4/CapSense_Sensing.c ****      * to dividing by 1.  
1160:.\Generated_Source\PSoC4/CapSense_Sensing.c ****      */
1161:.\Generated_Source\PSoC4/CapSense_Sensing.c ****     CY_SET_REG32(CapSense_MODCLK_DIV_PTR, ((modClk - 1u) << 8u));  
 578              		.loc 1 1161 0
 579 0006 0138     		sub	r0, r0, #1
 580              	.LVL53:
 581 0008 0002     		lsl	r0, r0, #8
 582              	.LVL54:
 583 000a 074B     		ldr	r3, .L47+8
 584 000c 1860     		str	r0, [r3]
 585              	.L46:
1162:.\Generated_Source\PSoC4/CapSense_Sensing.c **** 
1163:.\Generated_Source\PSoC4/CapSense_Sensing.c ****     /*  Check whether previous modulator clock start command has finished. */
1164:.\Generated_Source\PSoC4/CapSense_Sensing.c ****     while(0u != (CY_GET_REG32(CapSense_MODCLK_CMD_PTR) & CapSense_MODCLK_CMD_ENABLE_MASK))
 586              		.loc 1 1164 0 discriminator 1
 587 000e 054B     		ldr	r3, .L47+4
 588 0010 1B68     		ldr	r3, [r3]
 589 0012 002B     		cmp	r3, #0
 590 0014 FBDB     		blt	.L46
1165:.\Generated_Source\PSoC4/CapSense_Sensing.c ****     {
1166:.\Generated_Source\PSoC4/CapSense_Sensing.c ****         /*  Wait until previous modulator clock start command has finished. */  
ARM GAS  C:\Users\Alan\AppData\Local\Temp\ccvIRKlS.s 			page 32


1167:.\Generated_Source\PSoC4/CapSense_Sensing.c ****     }
1168:.\Generated_Source\PSoC4/CapSense_Sensing.c ****     
1169:.\Generated_Source\PSoC4/CapSense_Sensing.c ****     /*  Start modulator clock, aligned to HFCLK */
1170:.\Generated_Source\PSoC4/CapSense_Sensing.c ****     CY_SET_REG32(CapSense_MODCLK_CMD_PTR, 
 591              		.loc 1 1170 0
 592 0016 054A     		ldr	r2, .L47+12
 593 0018 024B     		ldr	r3, .L47+4
 594 001a 1A60     		str	r2, [r3]
1171:.\Generated_Source\PSoC4/CapSense_Sensing.c ****                  (uint32)(((uint32)CapSense_ModClk__DIV_ID << CapSense_MODCLK_CMD_DIV_SHIFT) |
1172:.\Generated_Source\PSoC4/CapSense_Sensing.c ****                   ((uint32)CapSense_ModClk__PA_DIV_ID << CapSense_MODCLK_CMD_PA_DIV_SHIFT) |
1173:.\Generated_Source\PSoC4/CapSense_Sensing.c ****                   CapSense_MODCLK_CMD_ENABLE_MASK));
1174:.\Generated_Source\PSoC4/CapSense_Sensing.c **** #else
1175:.\Generated_Source\PSoC4/CapSense_Sensing.c ****     uint32 newRegValue;
1176:.\Generated_Source\PSoC4/CapSense_Sensing.c **** 
1177:.\Generated_Source\PSoC4/CapSense_Sensing.c ****     /* Clear bit to disable ModClk clock. */
1178:.\Generated_Source\PSoC4/CapSense_Sensing.c ****     CY_SET_REG32(CapSense_MODCLK_CMD_PTR, 
1179:.\Generated_Source\PSoC4/CapSense_Sensing.c ****                  CY_GET_REG32(CapSense_MODCLK_CMD_PTR) & 
1180:.\Generated_Source\PSoC4/CapSense_Sensing.c ****                  (uint32)(~CapSense_ModClk__ENABLE_MASK));
1181:.\Generated_Source\PSoC4/CapSense_Sensing.c ****         
1182:.\Generated_Source\PSoC4/CapSense_Sensing.c ****     /* 
1183:.\Generated_Source\PSoC4/CapSense_Sensing.c ****      * Update ModClk clock divider.
1184:.\Generated_Source\PSoC4/CapSense_Sensing.c ****      * 1u is subtracted from modClk because Divider register value has range (0-65535).  
1185:.\Generated_Source\PSoC4/CapSense_Sensing.c ****      */
1186:.\Generated_Source\PSoC4/CapSense_Sensing.c ****     newRegValue = CY_GET_REG32(CapSense_MODCLK_DIV_PTR) & (uint32)(~(uint32)CapSense_ModClk__DIVIDE
1187:.\Generated_Source\PSoC4/CapSense_Sensing.c ****     newRegValue |= (modClk - 1u);
1188:.\Generated_Source\PSoC4/CapSense_Sensing.c ****     CY_SET_REG32(CapSense_MODCLK_DIV_PTR, newRegValue);
1189:.\Generated_Source\PSoC4/CapSense_Sensing.c ****     
1190:.\Generated_Source\PSoC4/CapSense_Sensing.c ****     /* Set bit to enable ModClk clock. */
1191:.\Generated_Source\PSoC4/CapSense_Sensing.c ****     CY_SET_REG32(CapSense_MODCLK_CMD_PTR, 
1192:.\Generated_Source\PSoC4/CapSense_Sensing.c ****                  CY_GET_REG32(CapSense_MODCLK_CMD_PTR) | 
1193:.\Generated_Source\PSoC4/CapSense_Sensing.c ****                 CapSense_ModClk__ENABLE_MASK);
1194:.\Generated_Source\PSoC4/CapSense_Sensing.c **** #endif /* (CapSense_ENABLE == CapSense_IS_M0S8PERI_BLOCK) */
1195:.\Generated_Source\PSoC4/CapSense_Sensing.c **** }
 595              		.loc 1 1195 0
 596              		@ sp needed
 597 001c 7047     		bx	lr
 598              	.L48:
 599 001e C046     		.align	2
 600              	.L47:
 601 0020 40000040 		.word	1073741888
 602 0024 00000140 		.word	1073807360
 603 0028 00030140 		.word	1073808128
 604 002c 40FF0080 		.word	-2147418304
 605              		.cfi_endproc
 606              	.LFE9:
 607              		.size	CapSense_ConfigureModClkClock, .-CapSense_ConfigureModClkClock
 608              		.section	.text.CapSense_ConfigureSnsClock,"ax",%progbits
 609              		.align	2
 610              		.global	CapSense_ConfigureSnsClock
 611              		.code	16
 612              		.thumb_func
 613              		.type	CapSense_ConfigureSnsClock, %function
 614              	CapSense_ConfigureSnsClock:
 615              	.LFB10:
1196:.\Generated_Source\PSoC4/CapSense_Sensing.c **** 
1197:.\Generated_Source\PSoC4/CapSense_Sensing.c **** 
1198:.\Generated_Source\PSoC4/CapSense_Sensing.c **** /*******************************************************************************
ARM GAS  C:\Users\Alan\AppData\Local\Temp\ccvIRKlS.s 			page 33


1199:.\Generated_Source\PSoC4/CapSense_Sensing.c **** * Function Name: CapSense_ConfigureSnsClock
1200:.\Generated_Source\PSoC4/CapSense_Sensing.c **** ****************************************************************************//**
1201:.\Generated_Source\PSoC4/CapSense_Sensing.c **** *
1202:.\Generated_Source\PSoC4/CapSense_Sensing.c **** * \brief
1203:.\Generated_Source\PSoC4/CapSense_Sensing.c **** *   Sets the divider values for the sense clock and then starts
1204:.\Generated_Source\PSoC4/CapSense_Sensing.c **** *   the sense clock.
1205:.\Generated_Source\PSoC4/CapSense_Sensing.c **** *
1206:.\Generated_Source\PSoC4/CapSense_Sensing.c **** * \details
1207:.\Generated_Source\PSoC4/CapSense_Sensing.c **** *   It is not recommended to call this function directly by the application layer.
1208:.\Generated_Source\PSoC4/CapSense_Sensing.c **** *   It is used by initialization, widget APIs or wakeup functions to
1209:.\Generated_Source\PSoC4/CapSense_Sensing.c **** *   enable the clocks.
1210:.\Generated_Source\PSoC4/CapSense_Sensing.c **** *
1211:.\Generated_Source\PSoC4/CapSense_Sensing.c **** * \param
1212:.\Generated_Source\PSoC4/CapSense_Sensing.c **** *   snsClk The divider value for the sense clock.
1213:.\Generated_Source\PSoC4/CapSense_Sensing.c **** *
1214:.\Generated_Source\PSoC4/CapSense_Sensing.c **** *******************************************************************************/
1215:.\Generated_Source\PSoC4/CapSense_Sensing.c **** void CapSense_ConfigureSnsClock(uint32 snsClk)
1216:.\Generated_Source\PSoC4/CapSense_Sensing.c **** {
 616              		.loc 1 1216 0
 617              		.cfi_startproc
 618              	.LVL55:
1217:.\Generated_Source\PSoC4/CapSense_Sensing.c **** #if (CapSense_ENABLE == CapSense_CSDV2)
1218:.\Generated_Source\PSoC4/CapSense_Sensing.c ****     uint32 newRegValue;
1219:.\Generated_Source\PSoC4/CapSense_Sensing.c **** 
1220:.\Generated_Source\PSoC4/CapSense_Sensing.c ****     /*  
1221:.\Generated_Source\PSoC4/CapSense_Sensing.c ****      * Set divider value for sense clock.
1222:.\Generated_Source\PSoC4/CapSense_Sensing.c ****      * 1u is subtracted from snsClk because SENSE_DIV value 0 corresponds
1223:.\Generated_Source\PSoC4/CapSense_Sensing.c ****      * to dividing by 1.  
1224:.\Generated_Source\PSoC4/CapSense_Sensing.c ****      */
1225:.\Generated_Source\PSoC4/CapSense_Sensing.c ****     newRegValue = CY_GET_REG32(CapSense_SENSE_PERIOD_PTR); 
 619              		.loc 1 1225 0
 620 0000 034A     		ldr	r2, .L50
 621 0002 1368     		ldr	r3, [r2]
 622              	.LVL56:
1226:.\Generated_Source\PSoC4/CapSense_Sensing.c ****     newRegValue &= (uint32)(~CapSense_SENSE_PERIOD_SENSE_DIV_MASK);
 623              		.loc 1 1226 0
 624 0004 1B0B     		lsr	r3, r3, #12
 625              	.LVL57:
 626 0006 1B03     		lsl	r3, r3, #12
 627              	.LVL58:
1227:.\Generated_Source\PSoC4/CapSense_Sensing.c ****     newRegValue |= snsClk - 1u;
 628              		.loc 1 1227 0
 629 0008 0138     		sub	r0, r0, #1
 630              	.LVL59:
 631 000a 1843     		orr	r0, r3
 632              	.LVL60:
1228:.\Generated_Source\PSoC4/CapSense_Sensing.c ****     CY_SET_REG32(CapSense_SENSE_PERIOD_PTR, newRegValue);
 633              		.loc 1 1228 0
 634 000c 1060     		str	r0, [r2]
1229:.\Generated_Source\PSoC4/CapSense_Sensing.c **** #else
1230:.\Generated_Source\PSoC4/CapSense_Sensing.c ****     #if (CapSense_ENABLE == CapSense_IS_M0S8PERI_BLOCK)
1231:.\Generated_Source\PSoC4/CapSense_Sensing.c ****         /*  Stop sense clock clock   */
1232:.\Generated_Source\PSoC4/CapSense_Sensing.c ****         CY_SET_REG32(CapSense_SNSCLK_CMD_PTR, 
1233:.\Generated_Source\PSoC4/CapSense_Sensing.c ****                      ((uint32)CapSense_SnsClk__DIV_ID <<
1234:.\Generated_Source\PSoC4/CapSense_Sensing.c ****                      CapSense_SNSCLK_CMD_DIV_SHIFT)|
1235:.\Generated_Source\PSoC4/CapSense_Sensing.c ****                      ((uint32)CapSense_SNSCLK_CMD_DISABLE_MASK));
1236:.\Generated_Source\PSoC4/CapSense_Sensing.c **** 
ARM GAS  C:\Users\Alan\AppData\Local\Temp\ccvIRKlS.s 			page 34


1237:.\Generated_Source\PSoC4/CapSense_Sensing.c ****         /*  
1238:.\Generated_Source\PSoC4/CapSense_Sensing.c ****          * Set divider value for sense clock.
1239:.\Generated_Source\PSoC4/CapSense_Sensing.c ****          * 1u is subtracted from snsClk because Divider register value 0 corresponds
1240:.\Generated_Source\PSoC4/CapSense_Sensing.c ****          * to dividing by 1.  
1241:.\Generated_Source\PSoC4/CapSense_Sensing.c ****          */
1242:.\Generated_Source\PSoC4/CapSense_Sensing.c ****         CY_SET_REG32(CapSense_SNSCLK_DIV_PTR, ((snsClk - 1u) << 8u));
1243:.\Generated_Source\PSoC4/CapSense_Sensing.c ****         
1244:.\Generated_Source\PSoC4/CapSense_Sensing.c ****         /*  Check whether previous sense clock start command has finished. */
1245:.\Generated_Source\PSoC4/CapSense_Sensing.c ****         while(0u != (CY_GET_REG32(CapSense_SNSCLK_CMD_PTR) & CapSense_SNSCLK_CMD_ENABLE_MASK))
1246:.\Generated_Source\PSoC4/CapSense_Sensing.c ****         {
1247:.\Generated_Source\PSoC4/CapSense_Sensing.c ****             /*  Wait until previous sense clock start command has finished. */  
1248:.\Generated_Source\PSoC4/CapSense_Sensing.c ****         } 
1249:.\Generated_Source\PSoC4/CapSense_Sensing.c ****         
1250:.\Generated_Source\PSoC4/CapSense_Sensing.c ****         /* Start sense clock aligned to previously started modulator clock. */
1251:.\Generated_Source\PSoC4/CapSense_Sensing.c ****         CY_SET_REG32(CapSense_SNSCLK_CMD_PTR, 
1252:.\Generated_Source\PSoC4/CapSense_Sensing.c ****                      (uint32)(((uint32)CapSense_SnsClk__DIV_ID << CapSense_SNSCLK_CMD_DIV_SHIFT) |
1253:.\Generated_Source\PSoC4/CapSense_Sensing.c ****                       ((uint32)CapSense_ModClk__PA_DIV_ID << CapSense_SNSCLK_CMD_PA_DIV_SHIFT) |
1254:.\Generated_Source\PSoC4/CapSense_Sensing.c ****                       CapSense_SNSCLK_CMD_ENABLE_MASK));
1255:.\Generated_Source\PSoC4/CapSense_Sensing.c ****     #else
1256:.\Generated_Source\PSoC4/CapSense_Sensing.c ****         uint32 newRegValue;
1257:.\Generated_Source\PSoC4/CapSense_Sensing.c **** 
1258:.\Generated_Source\PSoC4/CapSense_Sensing.c ****         /* Clear bit to disable SnsClk clock. */
1259:.\Generated_Source\PSoC4/CapSense_Sensing.c ****         CY_SET_REG32(CapSense_SNSCLK_CMD_PTR, 
1260:.\Generated_Source\PSoC4/CapSense_Sensing.c ****                      CY_GET_REG32(CapSense_SNSCLK_CMD_PTR) & 
1261:.\Generated_Source\PSoC4/CapSense_Sensing.c ****                      (uint32)(~(uint32)CapSense_SnsClk__ENABLE_MASK));
1262:.\Generated_Source\PSoC4/CapSense_Sensing.c ****         
1263:.\Generated_Source\PSoC4/CapSense_Sensing.c ****         /* 
1264:.\Generated_Source\PSoC4/CapSense_Sensing.c ****          * Update snsClk clock divider.
1265:.\Generated_Source\PSoC4/CapSense_Sensing.c ****          * 1u is subtracted from snsClk because Divider register value has range (0-65535).  
1266:.\Generated_Source\PSoC4/CapSense_Sensing.c ****          */
1267:.\Generated_Source\PSoC4/CapSense_Sensing.c ****         newRegValue = CY_GET_REG32(CapSense_SNSCLK_DIV_PTR) & (uint32)(~(uint32)CapSense_SnsClk__DI
1268:.\Generated_Source\PSoC4/CapSense_Sensing.c ****         newRegValue |= (snsClk - 1u);
1269:.\Generated_Source\PSoC4/CapSense_Sensing.c ****         CY_SET_REG32(CapSense_SNSCLK_DIV_PTR, newRegValue);
1270:.\Generated_Source\PSoC4/CapSense_Sensing.c **** 
1271:.\Generated_Source\PSoC4/CapSense_Sensing.c ****         /* Set bit to enable SnsClk clock. */
1272:.\Generated_Source\PSoC4/CapSense_Sensing.c ****         CY_SET_REG32(CapSense_SNSCLK_CMD_PTR, 
1273:.\Generated_Source\PSoC4/CapSense_Sensing.c ****                      CY_GET_REG32(CapSense_SNSCLK_CMD_PTR) | 
1274:.\Generated_Source\PSoC4/CapSense_Sensing.c ****                     CapSense_SnsClk__ENABLE_MASK);
1275:.\Generated_Source\PSoC4/CapSense_Sensing.c ****     #endif /* (CapSense_ENABLE == CapSense_IS_M0S8PERI_BLOCK) */
1276:.\Generated_Source\PSoC4/CapSense_Sensing.c **** #endif /* (CapSense_ENABLE == CapSense_CSDV2) */
1277:.\Generated_Source\PSoC4/CapSense_Sensing.c **** }
 635              		.loc 1 1277 0
 636              		@ sp needed
 637 000e 7047     		bx	lr
 638              	.L51:
 639              		.align	2
 640              	.L50:
 641 0010 00020B40 		.word	1074463232
 642              		.cfi_endproc
 643              	.LFE10:
 644              		.size	CapSense_ConfigureSnsClock, .-CapSense_ConfigureSnsClock
 645              		.section	.text.CapSense_ConfigureClocks,"ax",%progbits
 646              		.align	2
 647              		.global	CapSense_ConfigureClocks
 648              		.code	16
 649              		.thumb_func
 650              		.type	CapSense_ConfigureClocks, %function
ARM GAS  C:\Users\Alan\AppData\Local\Temp\ccvIRKlS.s 			page 35


 651              	CapSense_ConfigureClocks:
 652              	.LFB11:
1278:.\Generated_Source\PSoC4/CapSense_Sensing.c **** 
1279:.\Generated_Source\PSoC4/CapSense_Sensing.c **** 
1280:.\Generated_Source\PSoC4/CapSense_Sensing.c **** /*******************************************************************************
1281:.\Generated_Source\PSoC4/CapSense_Sensing.c **** * Function Name: CapSense_ConfigureClocks
1282:.\Generated_Source\PSoC4/CapSense_Sensing.c **** ****************************************************************************//**
1283:.\Generated_Source\PSoC4/CapSense_Sensing.c **** *
1284:.\Generated_Source\PSoC4/CapSense_Sensing.c **** * \brief
1285:.\Generated_Source\PSoC4/CapSense_Sensing.c **** *   Sets the divider values for sense and modulator clocks and then starts
1286:.\Generated_Source\PSoC4/CapSense_Sensing.c **** *   a modulator clock-phase aligned to HFCLK and sense clock-phase aligned to
1287:.\Generated_Source\PSoC4/CapSense_Sensing.c **** *   the modulator clock.
1288:.\Generated_Source\PSoC4/CapSense_Sensing.c **** *
1289:.\Generated_Source\PSoC4/CapSense_Sensing.c **** * \details
1290:.\Generated_Source\PSoC4/CapSense_Sensing.c **** *   It is not recommended to call this function directly by the application layer.
1291:.\Generated_Source\PSoC4/CapSense_Sensing.c **** *   It is used by initialization, widget APIs or wakeup functions to
1292:.\Generated_Source\PSoC4/CapSense_Sensing.c **** *   enable the clocks.
1293:.\Generated_Source\PSoC4/CapSense_Sensing.c **** *
1294:.\Generated_Source\PSoC4/CapSense_Sensing.c **** * \param
1295:.\Generated_Source\PSoC4/CapSense_Sensing.c **** *   snsClk The divider value for the sense clock.
1296:.\Generated_Source\PSoC4/CapSense_Sensing.c **** *   modClk The divider value for the modulator clock.
1297:.\Generated_Source\PSoC4/CapSense_Sensing.c **** *
1298:.\Generated_Source\PSoC4/CapSense_Sensing.c **** *******************************************************************************/
1299:.\Generated_Source\PSoC4/CapSense_Sensing.c **** void CapSense_ConfigureClocks(uint32 snsClk, uint32 modClk)
1300:.\Generated_Source\PSoC4/CapSense_Sensing.c **** {
 653              		.loc 1 1300 0
 654              		.cfi_startproc
 655              	.LVL61:
 656 0000 10B5     		push	{r4, lr}
 657              		.cfi_def_cfa_offset 8
 658              		.cfi_offset 4, -8
 659              		.cfi_offset 14, -4
 660 0002 041C     		mov	r4, r0
1301:.\Generated_Source\PSoC4/CapSense_Sensing.c ****     /* Configure Mod clock */
1302:.\Generated_Source\PSoC4/CapSense_Sensing.c ****     CapSense_ConfigureModClkClock(modClk);
 661              		.loc 1 1302 0
 662 0004 081C     		mov	r0, r1
 663              	.LVL62:
 664 0006 FFF7FEFF 		bl	CapSense_ConfigureModClkClock
 665              	.LVL63:
1303:.\Generated_Source\PSoC4/CapSense_Sensing.c **** 
1304:.\Generated_Source\PSoC4/CapSense_Sensing.c ****     /* Configure Sns clock */
1305:.\Generated_Source\PSoC4/CapSense_Sensing.c ****     CapSense_ConfigureSnsClock(snsClk);
 666              		.loc 1 1305 0
 667 000a 201C     		mov	r0, r4
 668 000c FFF7FEFF 		bl	CapSense_ConfigureSnsClock
 669              	.LVL64:
1306:.\Generated_Source\PSoC4/CapSense_Sensing.c **** }
 670              		.loc 1 1306 0
 671              		@ sp needed
 672              	.LVL65:
 673 0010 10BD     		pop	{r4, pc}
 674              		.cfi_endproc
 675              	.LFE11:
 676              		.size	CapSense_ConfigureClocks, .-CapSense_ConfigureClocks
 677 0012 C046     		.section	.text.CapSense_CalibrateWidget,"ax",%progbits
 678              		.align	2
ARM GAS  C:\Users\Alan\AppData\Local\Temp\ccvIRKlS.s 			page 36


 679              		.global	CapSense_CalibrateWidget
 680              		.code	16
 681              		.thumb_func
 682              		.type	CapSense_CalibrateWidget, %function
 683              	CapSense_CalibrateWidget:
 684              	.LFB12:
1307:.\Generated_Source\PSoC4/CapSense_Sensing.c **** 
1308:.\Generated_Source\PSoC4/CapSense_Sensing.c **** 
1309:.\Generated_Source\PSoC4/CapSense_Sensing.c **** #if ((CapSense_ENABLE == CapSense_CSD_IDAC_AUTOCAL_EN) || \
1310:.\Generated_Source\PSoC4/CapSense_Sensing.c ****      (CapSense_ENABLE == CapSense_CSX_IDAC_AUTOCAL_EN))
1311:.\Generated_Source\PSoC4/CapSense_Sensing.c **** /*******************************************************************************
1312:.\Generated_Source\PSoC4/CapSense_Sensing.c **** * Function Name: CapSense_CalibrateWidget 
1313:.\Generated_Source\PSoC4/CapSense_Sensing.c **** ****************************************************************************//**
1314:.\Generated_Source\PSoC4/CapSense_Sensing.c **** *
1315:.\Generated_Source\PSoC4/CapSense_Sensing.c **** * \brief
1316:.\Generated_Source\PSoC4/CapSense_Sensing.c **** *  Executes the IDAC calibration for the widget.
1317:.\Generated_Source\PSoC4/CapSense_Sensing.c **** *
1318:.\Generated_Source\PSoC4/CapSense_Sensing.c **** * \details
1319:.\Generated_Source\PSoC4/CapSense_Sensing.c **** *   Depending on the widget type, this function calibrates an appropriate widget: CSD or CSX.
1320:.\Generated_Source\PSoC4/CapSense_Sensing.c **** *   Before calibration, the function checks if the widget failed during the self-test  
1321:.\Generated_Source\PSoC4/CapSense_Sensing.c **** *   if it is enabled in the customizer.
1322:.\Generated_Source\PSoC4/CapSense_Sensing.c **** *
1323:.\Generated_Source\PSoC4/CapSense_Sensing.c **** * \param wdgtIndex Specifies the ID of the widget for calibration.
1324:.\Generated_Source\PSoC4/CapSense_Sensing.c **** *   
1325:.\Generated_Source\PSoC4/CapSense_Sensing.c **** * \return status 
1326:.\Generated_Source\PSoC4/CapSense_Sensing.c **** *   - Zero     - The widget is calibrated successfully.
1327:.\Generated_Source\PSoC4/CapSense_Sensing.c **** *   - Non-zero - Calibration is failed for the widget.
1328:.\Generated_Source\PSoC4/CapSense_Sensing.c **** *
1329:.\Generated_Source\PSoC4/CapSense_Sensing.c **** *******************************************************************************/
1330:.\Generated_Source\PSoC4/CapSense_Sensing.c **** cystatus CapSense_CalibrateWidget(uint32 wdgtIndex)
1331:.\Generated_Source\PSoC4/CapSense_Sensing.c **** {
 685              		.loc 1 1331 0
 686              		.cfi_startproc
 687              	.LVL66:
 688 0000 08B5     		push	{r3, lr}
 689              		.cfi_def_cfa_offset 8
 690              		.cfi_offset 3, -8
 691              		.cfi_offset 14, -4
 692              	.LVL67:
1332:.\Generated_Source\PSoC4/CapSense_Sensing.c ****     cystatus calibrateStatus = CYRET_SUCCESS;
1333:.\Generated_Source\PSoC4/CapSense_Sensing.c **** 
1334:.\Generated_Source\PSoC4/CapSense_Sensing.c ****     do
1335:.\Generated_Source\PSoC4/CapSense_Sensing.c ****     {   
1336:.\Generated_Source\PSoC4/CapSense_Sensing.c ****         if (CapSense_TOTAL_WIDGETS <= wdgtIndex)
 693              		.loc 1 1336 0
 694 0002 0228     		cmp	r0, #2
 695 0004 04D8     		bhi	.L55
1337:.\Generated_Source\PSoC4/CapSense_Sensing.c ****         {
1338:.\Generated_Source\PSoC4/CapSense_Sensing.c ****             calibrateStatus = CYRET_BAD_PARAM;
1339:.\Generated_Source\PSoC4/CapSense_Sensing.c ****             break;
1340:.\Generated_Source\PSoC4/CapSense_Sensing.c ****         }
1341:.\Generated_Source\PSoC4/CapSense_Sensing.c ****     
1342:.\Generated_Source\PSoC4/CapSense_Sensing.c ****         /*  
1343:.\Generated_Source\PSoC4/CapSense_Sensing.c ****          *  Check if widget id is valid, specified widget did not
1344:.\Generated_Source\PSoC4/CapSense_Sensing.c ****          *  detect any faults conditions if BIST is enabled.   
1345:.\Generated_Source\PSoC4/CapSense_Sensing.c ****          */
1346:.\Generated_Source\PSoC4/CapSense_Sensing.c ****         #if (CapSense_ENABLE == CapSense_SELF_TEST_EN)
ARM GAS  C:\Users\Alan\AppData\Local\Temp\ccvIRKlS.s 			page 37


1347:.\Generated_Source\PSoC4/CapSense_Sensing.c ****             if (CapSense_DISABLE != ((uint32)CapSense_dsRam.wdgtWorking[(uint8)wdgtIndex >> CapSens
1348:.\Generated_Source\PSoC4/CapSense_Sensing.c ****                                              (0x00000001Lu << (wdgtIndex & CapSense_WIDGET_NUM_32_M
1349:.\Generated_Source\PSoC4/CapSense_Sensing.c ****             {
1350:.\Generated_Source\PSoC4/CapSense_Sensing.c ****                 calibrateStatus = CYRET_SUCCESS;
1351:.\Generated_Source\PSoC4/CapSense_Sensing.c ****             }
1352:.\Generated_Source\PSoC4/CapSense_Sensing.c ****             else    
1353:.\Generated_Source\PSoC4/CapSense_Sensing.c ****             {
1354:.\Generated_Source\PSoC4/CapSense_Sensing.c ****                 calibrateStatus = CYRET_INVALID_STATE;
1355:.\Generated_Source\PSoC4/CapSense_Sensing.c ****                 /*  Exit because widget is not working  */
1356:.\Generated_Source\PSoC4/CapSense_Sensing.c ****                 break;
1357:.\Generated_Source\PSoC4/CapSense_Sensing.c ****             }
1358:.\Generated_Source\PSoC4/CapSense_Sensing.c ****         #endif  /* (CapSense_ENABLE == CapSense_SELF_TEST_EN) */
1359:.\Generated_Source\PSoC4/CapSense_Sensing.c ****     
1360:.\Generated_Source\PSoC4/CapSense_Sensing.c ****         #if (CapSense_ENABLE == CapSense_ADC_EN)
1361:.\Generated_Source\PSoC4/CapSense_Sensing.c ****             if (CapSense_UNDEFINED_E == CapSense_currentSenseMethod) 
1362:.\Generated_Source\PSoC4/CapSense_Sensing.c ****             {
1363:.\Generated_Source\PSoC4/CapSense_Sensing.c ****                 /* Release ADC resources */
1364:.\Generated_Source\PSoC4/CapSense_Sensing.c ****                 calibrateStatus = CapSense_AdcReleaseResources();
1365:.\Generated_Source\PSoC4/CapSense_Sensing.c **** 
1366:.\Generated_Source\PSoC4/CapSense_Sensing.c ****                 if (CYRET_SUCCESS != calibrateStatus)
1367:.\Generated_Source\PSoC4/CapSense_Sensing.c ****                 {
1368:.\Generated_Source\PSoC4/CapSense_Sensing.c ****                     /* Exit because widget is not working */
1369:.\Generated_Source\PSoC4/CapSense_Sensing.c ****                     break;
1370:.\Generated_Source\PSoC4/CapSense_Sensing.c ****                 }
1371:.\Generated_Source\PSoC4/CapSense_Sensing.c ****             }
1372:.\Generated_Source\PSoC4/CapSense_Sensing.c ****         #endif /* (CapSense_ENABLE == CapSense_ADC_EN) */
1373:.\Generated_Source\PSoC4/CapSense_Sensing.c **** 
1374:.\Generated_Source\PSoC4/CapSense_Sensing.c ****         /*  If CSD2X is enabled, calibrate CSD sensor    */
1375:.\Generated_Source\PSoC4/CapSense_Sensing.c ****         #if (CapSense_ENABLE == CapSense_CSD2X_EN)
1376:.\Generated_Source\PSoC4/CapSense_Sensing.c ****             /******************************
1377:.\Generated_Source\PSoC4/CapSense_Sensing.c ****             * This is the place where the CSD2X mode
1378:.\Generated_Source\PSoC4/CapSense_Sensing.c ****             * API should be implemented.
1379:.\Generated_Source\PSoC4/CapSense_Sensing.c ****             * CSD2X will be implemented
1380:.\Generated_Source\PSoC4/CapSense_Sensing.c ****             * in the next component version.
1381:.\Generated_Source\PSoC4/CapSense_Sensing.c ****             *********************************/
1382:.\Generated_Source\PSoC4/CapSense_Sensing.c **** 
1383:.\Generated_Source\PSoC4/CapSense_Sensing.c ****         /*  If both CSD and CSX are enabled, calibrate widget using sensing method */
1384:.\Generated_Source\PSoC4/CapSense_Sensing.c ****         #elif (CapSense_ENABLE == CapSense_CSD_CSX_EN)
1385:.\Generated_Source\PSoC4/CapSense_Sensing.c **** 
1386:.\Generated_Source\PSoC4/CapSense_Sensing.c ****             /*  Check widget sensing method and call appropriate APIs   */
1387:.\Generated_Source\PSoC4/CapSense_Sensing.c ****             #if ((CapSense_ENABLE == CapSense_CSX_IDAC_AUTOCAL_EN) && (CapSense_ENABLE == CapSense_
1388:.\Generated_Source\PSoC4/CapSense_Sensing.c ****                 #if (CapSense_CSD_SS_DIS == CapSense_CSD_AUTOTUNE)
1389:.\Generated_Source\PSoC4/CapSense_Sensing.c ****                     if (CapSense_SENSE_METHOD_CSX_E ==
1390:.\Generated_Source\PSoC4/CapSense_Sensing.c ****                         (CapSense_SENSE_METHOD_ENUM)CapSense_GET_SENSE_METHOD(&CapSense_dsFlash.wdg
1391:.\Generated_Source\PSoC4/CapSense_Sensing.c ****                     {
1392:.\Generated_Source\PSoC4/CapSense_Sensing.c ****                         /* Calibrate CSX widget (when Autotune mode is disabled) */
1393:.\Generated_Source\PSoC4/CapSense_Sensing.c ****                        CapSense_CSXCalibrateWidget(wdgtIndex, CapSense_CSX_RAWCOUNT_CAL_LEVEL);
1394:.\Generated_Source\PSoC4/CapSense_Sensing.c ****                     }
1395:.\Generated_Source\PSoC4/CapSense_Sensing.c ****                     else if (CapSense_SENSE_METHOD_CSD_E ==
1396:.\Generated_Source\PSoC4/CapSense_Sensing.c ****                         (CapSense_SENSE_METHOD_ENUM)CapSense_GET_SENSE_METHOD(&CapSense_dsFlash.wdg
1397:.\Generated_Source\PSoC4/CapSense_Sensing.c ****                     {
1398:.\Generated_Source\PSoC4/CapSense_Sensing.c ****                         /*  
1399:.\Generated_Source\PSoC4/CapSense_Sensing.c ****                          *  Check if CSD block is  already initialized for CSD operation
1400:.\Generated_Source\PSoC4/CapSense_Sensing.c ****                          *  If not, initialize CSD hardware block for CSD measurement   
1401:.\Generated_Source\PSoC4/CapSense_Sensing.c ****                          */
1402:.\Generated_Source\PSoC4/CapSense_Sensing.c ****                         if (CapSense_SENSE_METHOD_CSD_E != CapSense_currentSenseMethod) 
1403:.\Generated_Source\PSoC4/CapSense_Sensing.c ****                         {
ARM GAS  C:\Users\Alan\AppData\Local\Temp\ccvIRKlS.s 			page 38


1404:.\Generated_Source\PSoC4/CapSense_Sensing.c ****                             CapSense_SwitchSensingMode(CapSense_SENSE_METHOD_CSD_E);
1405:.\Generated_Source\PSoC4/CapSense_Sensing.c ****                         }
1406:.\Generated_Source\PSoC4/CapSense_Sensing.c ****                         
1407:.\Generated_Source\PSoC4/CapSense_Sensing.c ****                         /* Calibrate CSD widget (when Autotune mode is disabled) */
1408:.\Generated_Source\PSoC4/CapSense_Sensing.c ****                         calibrateStatus = CapSense_CSDCalibrateWidget(wdgtIndex, CapSense_CSD_RAWCO
1409:.\Generated_Source\PSoC4/CapSense_Sensing.c ****                     }
1410:.\Generated_Source\PSoC4/CapSense_Sensing.c ****                     else    
1411:.\Generated_Source\PSoC4/CapSense_Sensing.c ****                     {
1412:.\Generated_Source\PSoC4/CapSense_Sensing.c ****                         calibrateStatus = CYRET_UNKNOWN;
1413:.\Generated_Source\PSoC4/CapSense_Sensing.c ****                     }
1414:.\Generated_Source\PSoC4/CapSense_Sensing.c ****                 #else
1415:.\Generated_Source\PSoC4/CapSense_Sensing.c ****                     if (CapSense_SENSE_METHOD_CSX_E ==
1416:.\Generated_Source\PSoC4/CapSense_Sensing.c ****                         (CapSense_SENSE_METHOD_ENUM)CapSense_GET_SENSE_METHOD(&CapSense_dsFlash.wdg
1417:.\Generated_Source\PSoC4/CapSense_Sensing.c ****                     {
1418:.\Generated_Source\PSoC4/CapSense_Sensing.c ****                         /* Calibrate CSX widget only (when Autotune mode is enabled) */
1419:.\Generated_Source\PSoC4/CapSense_Sensing.c ****                        CapSense_CSXCalibrateWidget(wdgtIndex, CapSense_CSX_RAWCOUNT_CAL_LEVEL);
1420:.\Generated_Source\PSoC4/CapSense_Sensing.c ****                     }
1421:.\Generated_Source\PSoC4/CapSense_Sensing.c ****                 #endif /* (CapSense_CSD_SS_DIS == CapSense_CSD_AUTOTUNE) */
1422:.\Generated_Source\PSoC4/CapSense_Sensing.c ****             #elif (CapSense_ENABLE == CapSense_CSX_IDAC_AUTOCAL_EN)
1423:.\Generated_Source\PSoC4/CapSense_Sensing.c ****                 if (CapSense_SENSE_METHOD_CSX_E ==
1424:.\Generated_Source\PSoC4/CapSense_Sensing.c ****                     (CapSense_SENSE_METHOD_ENUM)CapSense_GET_SENSE_METHOD(&CapSense_dsFlash.wdgtArr
1425:.\Generated_Source\PSoC4/CapSense_Sensing.c ****                 {
1426:.\Generated_Source\PSoC4/CapSense_Sensing.c ****                     /* Calibrate CSX widget only */
1427:.\Generated_Source\PSoC4/CapSense_Sensing.c ****                    CapSense_CSXCalibrateWidget(wdgtIndex, CapSense_CSX_RAWCOUNT_CAL_LEVEL);
1428:.\Generated_Source\PSoC4/CapSense_Sensing.c ****                 }          
1429:.\Generated_Source\PSoC4/CapSense_Sensing.c ****             #elif ((CapSense_ENABLE == CapSense_CSD_IDAC_AUTOCAL_EN) && (CapSense_CSD_SS_DIS == Cap
1430:.\Generated_Source\PSoC4/CapSense_Sensing.c ****                 if (CapSense_SENSE_METHOD_CSD_E ==
1431:.\Generated_Source\PSoC4/CapSense_Sensing.c ****                     (CapSense_SENSE_METHOD_ENUM)CapSense_GET_SENSE_METHOD(&CapSense_dsFlash.wdgtArr
1432:.\Generated_Source\PSoC4/CapSense_Sensing.c ****                 {
1433:.\Generated_Source\PSoC4/CapSense_Sensing.c ****                     /* Initialize CSD mode */
1434:.\Generated_Source\PSoC4/CapSense_Sensing.c ****                     CapSense_CSDInitialize();
1435:.\Generated_Source\PSoC4/CapSense_Sensing.c **** 
1436:.\Generated_Source\PSoC4/CapSense_Sensing.c ****                     /* Calibrate CSD widget only */
1437:.\Generated_Source\PSoC4/CapSense_Sensing.c ****                     calibrateStatus = CapSense_CSDCalibrateWidget(wdgtIndex, CapSense_CSD_RAWCOUNT_
1438:.\Generated_Source\PSoC4/CapSense_Sensing.c ****                 }
1439:.\Generated_Source\PSoC4/CapSense_Sensing.c ****             #else
1440:.\Generated_Source\PSoC4/CapSense_Sensing.c ****                 /*  No calibration  */
1441:.\Generated_Source\PSoC4/CapSense_Sensing.c ****             #endif  /* ((CapSense_ENABLE == CapSense_CSX_IDAC_AUTOCAL_EN) && (CapSense_ENABLE == Ca
1442:.\Generated_Source\PSoC4/CapSense_Sensing.c ****             
1443:.\Generated_Source\PSoC4/CapSense_Sensing.c ****         /*  If only CSD is enabled, calibrate CSD sensor  */
1444:.\Generated_Source\PSoC4/CapSense_Sensing.c ****         #elif ((CapSense_ENABLE == CapSense_CSD_EN) && (CapSense_CSD_SS_DIS == CapSense_CSD_AUTOTUN
1445:.\Generated_Source\PSoC4/CapSense_Sensing.c ****             calibrateStatus = CapSense_CSDCalibrateWidget(wdgtIndex, CapSense_CSD_RAWCOUNT_CAL_LEVE
1446:.\Generated_Source\PSoC4/CapSense_Sensing.c ****         
1447:.\Generated_Source\PSoC4/CapSense_Sensing.c ****         /*  If only CSX is enabled, call CSX scan   */
1448:.\Generated_Source\PSoC4/CapSense_Sensing.c ****         #elif (CapSense_ENABLE == CapSense_CSX_EN)
1449:.\Generated_Source\PSoC4/CapSense_Sensing.c ****             CapSense_CSXCalibrateWidget(wdgtIndex, CapSense_CSX_RAWCOUNT_CAL_LEVEL);
 696              		.loc 1 1449 0
 697 0006 2821     		mov	r1, #40
 698 0008 FFF7FEFF 		bl	CapSense_CSXCalibrateWidget
 699              	.LVL68:
1332:.\Generated_Source\PSoC4/CapSense_Sensing.c ****     cystatus calibrateStatus = CYRET_SUCCESS;
 700              		.loc 1 1332 0
 701 000c 0020     		mov	r0, #0
 702 000e 00E0     		b	.L54
 703              	.LVL69:
 704              	.L55:
1338:.\Generated_Source\PSoC4/CapSense_Sensing.c ****             break;
ARM GAS  C:\Users\Alan\AppData\Local\Temp\ccvIRKlS.s 			page 39


 705              		.loc 1 1338 0
 706 0010 0120     		mov	r0, #1
 707              	.LVL70:
 708              	.L54:
1450:.\Generated_Source\PSoC4/CapSense_Sensing.c **** 
1451:.\Generated_Source\PSoC4/CapSense_Sensing.c ****         #else
1452:.\Generated_Source\PSoC4/CapSense_Sensing.c ****             calibrateStatus = CYRET_UNKNOWN;
1453:.\Generated_Source\PSoC4/CapSense_Sensing.c ****         #endif  /* (CapSense_ENABLE == CapSense_CSD2X_EN) */   
1454:.\Generated_Source\PSoC4/CapSense_Sensing.c ****     
1455:.\Generated_Source\PSoC4/CapSense_Sensing.c ****     } while (0u);
1456:.\Generated_Source\PSoC4/CapSense_Sensing.c ****     
1457:.\Generated_Source\PSoC4/CapSense_Sensing.c ****     return calibrateStatus;
1458:.\Generated_Source\PSoC4/CapSense_Sensing.c **** }
 709              		.loc 1 1458 0
 710              		@ sp needed
 711 0012 08BD     		pop	{r3, pc}
 712              		.cfi_endproc
 713              	.LFE12:
 714              		.size	CapSense_CalibrateWidget, .-CapSense_CalibrateWidget
 715              		.section	.text.CapSense_CalibrateAllWidgets,"ax",%progbits
 716              		.align	2
 717              		.global	CapSense_CalibrateAllWidgets
 718              		.code	16
 719              		.thumb_func
 720              		.type	CapSense_CalibrateAllWidgets, %function
 721              	CapSense_CalibrateAllWidgets:
 722              	.LFB13:
1459:.\Generated_Source\PSoC4/CapSense_Sensing.c **** 
1460:.\Generated_Source\PSoC4/CapSense_Sensing.c **** 
1461:.\Generated_Source\PSoC4/CapSense_Sensing.c **** /*******************************************************************************
1462:.\Generated_Source\PSoC4/CapSense_Sensing.c **** * Function Name: CapSense_CalibrateAllWidgets 
1463:.\Generated_Source\PSoC4/CapSense_Sensing.c **** ****************************************************************************//**
1464:.\Generated_Source\PSoC4/CapSense_Sensing.c **** *
1465:.\Generated_Source\PSoC4/CapSense_Sensing.c **** * \brief
1466:.\Generated_Source\PSoC4/CapSense_Sensing.c **** *  Executes the IDAC calibration for all the widgets in the component.
1467:.\Generated_Source\PSoC4/CapSense_Sensing.c **** *
1468:.\Generated_Source\PSoC4/CapSense_Sensing.c **** * \details
1469:.\Generated_Source\PSoC4/CapSense_Sensing.c **** *   The function goes through all widgets and calls 
1470:.\Generated_Source\PSoC4/CapSense_Sensing.c **** *   CapSense_CalibrateWidget() for each widget.
1471:.\Generated_Source\PSoC4/CapSense_Sensing.c **** *   It returns a fail status if any widget has failed to calibrate or it   
1472:.\Generated_Source\PSoC4/CapSense_Sensing.c **** *   has been failed during the self-test.
1473:.\Generated_Source\PSoC4/CapSense_Sensing.c **** *
1474:.\Generated_Source\PSoC4/CapSense_Sensing.c **** * \return status: 
1475:.\Generated_Source\PSoC4/CapSense_Sensing.c **** *   - Zero     -  All the widgets are calibrated successfully.
1476:.\Generated_Source\PSoC4/CapSense_Sensing.c **** *   - Non-zero - Calibration failed for any widget.
1477:.\Generated_Source\PSoC4/CapSense_Sensing.c **** *
1478:.\Generated_Source\PSoC4/CapSense_Sensing.c **** *******************************************************************************/
1479:.\Generated_Source\PSoC4/CapSense_Sensing.c **** cystatus CapSense_CalibrateAllWidgets(void)
1480:.\Generated_Source\PSoC4/CapSense_Sensing.c **** {
 723              		.loc 1 1480 0
 724              		.cfi_startproc
 725 0000 38B5     		push	{r3, r4, r5, lr}
 726              		.cfi_def_cfa_offset 16
 727              		.cfi_offset 3, -16
 728              		.cfi_offset 4, -12
 729              		.cfi_offset 5, -8
 730              		.cfi_offset 14, -4
ARM GAS  C:\Users\Alan\AppData\Local\Temp\ccvIRKlS.s 			page 40


 731              	.LVL71:
1481:.\Generated_Source\PSoC4/CapSense_Sensing.c ****     cystatus calibrateStatus = CYRET_SUCCESS;
1482:.\Generated_Source\PSoC4/CapSense_Sensing.c ****     uint32 wdgtIndex;
1483:.\Generated_Source\PSoC4/CapSense_Sensing.c ****     
1484:.\Generated_Source\PSoC4/CapSense_Sensing.c ****     for (wdgtIndex = 0u; wdgtIndex < CapSense_TOTAL_WIDGETS; wdgtIndex++)
 732              		.loc 1 1484 0
 733 0002 0024     		mov	r4, #0
1481:.\Generated_Source\PSoC4/CapSense_Sensing.c ****     cystatus calibrateStatus = CYRET_SUCCESS;
 734              		.loc 1 1481 0
 735 0004 0025     		mov	r5, #0
 736              		.loc 1 1484 0
 737 0006 04E0     		b	.L57
 738              	.LVL72:
 739              	.L58:
1485:.\Generated_Source\PSoC4/CapSense_Sensing.c ****     {
1486:.\Generated_Source\PSoC4/CapSense_Sensing.c ****         calibrateStatus |= CapSense_CalibrateWidget(wdgtIndex); 
 740              		.loc 1 1486 0 discriminator 3
 741 0008 201C     		mov	r0, r4
 742 000a FFF7FEFF 		bl	CapSense_CalibrateWidget
 743              	.LVL73:
 744 000e 0543     		orr	r5, r0
 745              	.LVL74:
1484:.\Generated_Source\PSoC4/CapSense_Sensing.c ****     {
 746              		.loc 1 1484 0 discriminator 3
 747 0010 0134     		add	r4, r4, #1
 748              	.LVL75:
 749              	.L57:
1484:.\Generated_Source\PSoC4/CapSense_Sensing.c ****     {
 750              		.loc 1 1484 0 is_stmt 0 discriminator 1
 751 0012 022C     		cmp	r4, #2
 752 0014 F8D9     		bls	.L58
1487:.\Generated_Source\PSoC4/CapSense_Sensing.c ****     }
1488:.\Generated_Source\PSoC4/CapSense_Sensing.c ****     
1489:.\Generated_Source\PSoC4/CapSense_Sensing.c ****     return calibrateStatus;
1490:.\Generated_Source\PSoC4/CapSense_Sensing.c **** }
 753              		.loc 1 1490 0 is_stmt 1
 754 0016 281C     		mov	r0, r5
 755              		@ sp needed
 756              	.LVL76:
 757              	.LVL77:
 758 0018 38BD     		pop	{r3, r4, r5, pc}
 759              		.cfi_endproc
 760              	.LFE13:
 761              		.size	CapSense_CalibrateAllWidgets, .-CapSense_CalibrateAllWidgets
 762              		.global	CapSense_curFlashWdgtPtr
 763              		.comm	CapSense_curRamSnsPtr,4,4
 764              		.global	CapSense_requestScanAllWidget
 765              		.global	CapSense_curWidgetResolution
 766              		.global	CapSense_sensorIndex
 767              		.global	CapSense_widgetIndex
 768              		.global	CapSense_scanFreqIndex
 769 001a C046     		.section	.rodata
 770              		.type	CapSense_scanFreqIndex, %object
 771              		.size	CapSense_scanFreqIndex, 1
 772              	CapSense_scanFreqIndex:
 773 0000 00       		.space	1
 774              		.bss
ARM GAS  C:\Users\Alan\AppData\Local\Temp\ccvIRKlS.s 			page 41


 775              		.align	2
 776              		.set	.LANCHOR0,. + 0
 777              		.type	CapSense_widgetIndex, %object
 778              		.size	CapSense_widgetIndex, 1
 779              	CapSense_widgetIndex:
 780 0000 00       		.space	1
 781              		.type	CapSense_requestScanAllWidget, %object
 782              		.size	CapSense_requestScanAllWidget, 1
 783              	CapSense_requestScanAllWidget:
 784 0001 00       		.space	1
 785 0002 0000     		.space	2
 786              		.type	CapSense_curFlashWdgtPtr, %object
 787              		.size	CapSense_curFlashWdgtPtr, 4
 788              	CapSense_curFlashWdgtPtr:
 789 0004 00000000 		.space	4
 790              		.type	CapSense_curWidgetResolution, %object
 791              		.size	CapSense_curWidgetResolution, 4
 792              	CapSense_curWidgetResolution:
 793 0008 00000000 		.space	4
 794              		.type	CapSense_sensorIndex, %object
 795              		.size	CapSense_sensorIndex, 1
 796              	CapSense_sensorIndex:
 797 000c 00       		.space	1
 798 000d 000000   		.text
 799              	.Letext0:
 800              		.file 2 "Generated_Source\\PSoC4/cytypes.h"
 801              		.file 3 ".\\Generated_Source\\PSoC4\\CapSense_Configuration.h"
 802              		.file 4 ".\\Generated_Source\\PSoC4\\CapSense_Structure.h"
 803              		.file 5 ".\\Generated_Source\\PSoC4\\CapSense_SensingCSX_LL.h"
 804              		.file 6 "Generated_Source\\PSoC4/CyLib.h"
 805              		.file 7 ".\\Generated_Source\\PSoC4\\CapSense_ISR.h"