ARM GAS  C:\Users\Alan\AppData\Local\Temp\ccBkjVf3.s 			page 1


   1              		.cpu cortex-m0plus
   2              		.fpu softvfp
   3              		.eabi_attribute 20, 1
   4              		.eabi_attribute 21, 1
   5              		.eabi_attribute 23, 3
   6              		.eabi_attribute 24, 1
   7              		.eabi_attribute 25, 1
   8              		.eabi_attribute 26, 1
   9              		.eabi_attribute 30, 1
  10              		.eabi_attribute 34, 0
  11              		.eabi_attribute 18, 4
  12              		.code	16
  13              		.file	"capsense_Sensing.c"
  14              		.text
  15              	.Ltext0:
  16              		.cfi_sections	.debug_frame
  17              		.section	.text.capsense_IsBusy,"ax",%progbits
  18              		.align	2
  19              		.global	capsense_IsBusy
  20              		.code	16
  21              		.thumb_func
  22              		.type	capsense_IsBusy, %function
  23              	capsense_IsBusy:
  24              	.LFB1:
  25              		.file 1 ".\\Generated_Source\\PSoC4\\capsense_Sensing.c"
   1:.\Generated_Source\PSoC4/capsense_Sensing.c **** /***************************************************************************//**
   2:.\Generated_Source\PSoC4/capsense_Sensing.c **** * \file capsense_Sensing.c
   3:.\Generated_Source\PSoC4/capsense_Sensing.c **** * \version 3.0
   4:.\Generated_Source\PSoC4/capsense_Sensing.c **** *
   5:.\Generated_Source\PSoC4/capsense_Sensing.c **** * \brief
   6:.\Generated_Source\PSoC4/capsense_Sensing.c **** *   This file contains the source of functions common for
   7:.\Generated_Source\PSoC4/capsense_Sensing.c **** *   different sensing methods. 
   8:.\Generated_Source\PSoC4/capsense_Sensing.c **** *
   9:.\Generated_Source\PSoC4/capsense_Sensing.c **** * \see CapSense P4 v3.0 Datasheet
  10:.\Generated_Source\PSoC4/capsense_Sensing.c **** *
  11:.\Generated_Source\PSoC4/capsense_Sensing.c **** *//*****************************************************************************
  12:.\Generated_Source\PSoC4/capsense_Sensing.c **** * Copyright (2016), Cypress Semiconductor Corporation.
  13:.\Generated_Source\PSoC4/capsense_Sensing.c **** ********************************************************************************
  14:.\Generated_Source\PSoC4/capsense_Sensing.c **** * This software is owned by Cypress Semiconductor Corporation (Cypress) and is
  15:.\Generated_Source\PSoC4/capsense_Sensing.c **** * protected by and subject to worldwide patent protection (United States and
  16:.\Generated_Source\PSoC4/capsense_Sensing.c **** * foreign), United States copyright laws and international treaty provisions.
  17:.\Generated_Source\PSoC4/capsense_Sensing.c **** * Cypress hereby grants to licensee a personal, non-exclusive, non-transferable
  18:.\Generated_Source\PSoC4/capsense_Sensing.c **** * license to copy, use, modify, create derivative works of, and compile the
  19:.\Generated_Source\PSoC4/capsense_Sensing.c **** * Cypress Source Code and derivative works for the sole purpose of creating
  20:.\Generated_Source\PSoC4/capsense_Sensing.c **** * custom software in support of licensee product to be used only in conjunction
  21:.\Generated_Source\PSoC4/capsense_Sensing.c **** * with a Cypress integrated circuit as specified in the applicable agreement.
  22:.\Generated_Source\PSoC4/capsense_Sensing.c **** * Any reproduction, modification, translation, compilation, or representation of
  23:.\Generated_Source\PSoC4/capsense_Sensing.c **** * this software except as specified above is prohibited without the express
  24:.\Generated_Source\PSoC4/capsense_Sensing.c **** * written permission of Cypress.
  25:.\Generated_Source\PSoC4/capsense_Sensing.c **** *
  26:.\Generated_Source\PSoC4/capsense_Sensing.c **** * Disclaimer: CYPRESS MAKES NO WARRANTY OF ANY KIND, EXPRESS OR IMPLIED, WITH
  27:.\Generated_Source\PSoC4/capsense_Sensing.c **** * REGARD TO THIS MATERIAL, INCLUDING, BUT NOT LIMITED TO, THE IMPLIED
  28:.\Generated_Source\PSoC4/capsense_Sensing.c **** * WARRANTIES OF MERCHANTABILITY AND FITNESS FOR A PARTICULAR PURPOSE.
  29:.\Generated_Source\PSoC4/capsense_Sensing.c **** * Cypress reserves the right to make changes without further notice to the
  30:.\Generated_Source\PSoC4/capsense_Sensing.c **** * materials described herein. Cypress does not assume any liability arising out
  31:.\Generated_Source\PSoC4/capsense_Sensing.c **** * of the application or use of any product or circuit described herein. Cypress
  32:.\Generated_Source\PSoC4/capsense_Sensing.c **** * does not authorize its products for use as critical components in life-support
ARM GAS  C:\Users\Alan\AppData\Local\Temp\ccBkjVf3.s 			page 2


  33:.\Generated_Source\PSoC4/capsense_Sensing.c **** * systems where a malfunction or failure may reasonably be expected to result in
  34:.\Generated_Source\PSoC4/capsense_Sensing.c **** * significant injury to the user. The inclusion of Cypress' product in a life-
  35:.\Generated_Source\PSoC4/capsense_Sensing.c **** * support systems application implies that the manufacturer assumes all risk of
  36:.\Generated_Source\PSoC4/capsense_Sensing.c **** * such use and in doing so indemnifies Cypress against all charges. Use may be
  37:.\Generated_Source\PSoC4/capsense_Sensing.c **** * limited by and subject to the applicable Cypress software license agreement.
  38:.\Generated_Source\PSoC4/capsense_Sensing.c **** *******************************************************************************/
  39:.\Generated_Source\PSoC4/capsense_Sensing.c **** 
  40:.\Generated_Source\PSoC4/capsense_Sensing.c **** #include "capsense_Sensing.h"
  41:.\Generated_Source\PSoC4/capsense_Sensing.c **** #include "cyfitter.h"
  42:.\Generated_Source\PSoC4/capsense_Sensing.c **** 
  43:.\Generated_Source\PSoC4/capsense_Sensing.c **** /***************************************
  44:.\Generated_Source\PSoC4/capsense_Sensing.c **** * API Constants
  45:.\Generated_Source\PSoC4/capsense_Sensing.c **** ***************************************/
  46:.\Generated_Source\PSoC4/capsense_Sensing.c **** 
  47:.\Generated_Source\PSoC4/capsense_Sensing.c **** #define capsense_WIDGET_NUM_32                          (32u)
  48:.\Generated_Source\PSoC4/capsense_Sensing.c **** #define capsense_WIDGET_NUM_32_DIV_SHIFT                (5u)
  49:.\Generated_Source\PSoC4/capsense_Sensing.c **** #define capsense_WIDGET_NUM_32_MASK                     (0x0000001FLu)
  50:.\Generated_Source\PSoC4/capsense_Sensing.c **** #define capsense_CALIBRATION_RESOLUTION                 (12u)
  51:.\Generated_Source\PSoC4/capsense_Sensing.c **** #define capsense_COARSE_TRIM_THRESHOLD_1                (40u)
  52:.\Generated_Source\PSoC4/capsense_Sensing.c **** #define capsense_COARSE_TRIM_THRESHOLD_2                (215u)
  53:.\Generated_Source\PSoC4/capsense_Sensing.c **** #define capsense_FREQUENCY_OFFSET_5                     (20u)
  54:.\Generated_Source\PSoC4/capsense_Sensing.c **** #define capsense_FREQUENCY_OFFSET_10                    (40u)
  55:.\Generated_Source\PSoC4/capsense_Sensing.c **** #define capsense_CALIBRATION_FREQ_KHZ                   (1500u)
  56:.\Generated_Source\PSoC4/capsense_Sensing.c **** #define capsense_CALIBRATION_MD                         (2u)
  57:.\Generated_Source\PSoC4/capsense_Sensing.c **** #define capsense_MIN_IMO_FREQ_KHZ                       (6000u)
  58:.\Generated_Source\PSoC4/capsense_Sensing.c **** #define capsense_CSD_AUTOTUNE_CAL_LEVEL                 (85u)
  59:.\Generated_Source\PSoC4/capsense_Sensing.c **** #define capsense_CP_MIN                                 (0u)
  60:.\Generated_Source\PSoC4/capsense_Sensing.c **** #define capsense_CP_MAX                                 (65u)
  61:.\Generated_Source\PSoC4/capsense_Sensing.c **** #define capsense_CP_ERROR                               (4u)
  62:.\Generated_Source\PSoC4/capsense_Sensing.c **** 
  63:.\Generated_Source\PSoC4/capsense_Sensing.c **** #if (capsense_CLK_SOURCE_DIRECT != capsense_CSD_SNS_CLK_SOURCE)
  64:.\Generated_Source\PSoC4/capsense_Sensing.c ****     #define capsense_PRS_FACTOR_DIV                     (1u)
  65:.\Generated_Source\PSoC4/capsense_Sensing.c **** #else
  66:.\Generated_Source\PSoC4/capsense_Sensing.c ****     #define capsense_PRS_FACTOR_DIV                     (0u)
  67:.\Generated_Source\PSoC4/capsense_Sensing.c **** #endif /* (capsense_CLK_SOURCE_DIRECT != capsense_CSD_SNS_CLK_SOURCE) */
  68:.\Generated_Source\PSoC4/capsense_Sensing.c **** 
  69:.\Generated_Source\PSoC4/capsense_Sensing.c **** #define capsense_FLIP_FLOP_DIV                          (1u)
  70:.\Generated_Source\PSoC4/capsense_Sensing.c **** 
  71:.\Generated_Source\PSoC4/capsense_Sensing.c **** #define capsense_MOD_CSD_CLK_12000KHZ                   (12000uL)
  72:.\Generated_Source\PSoC4/capsense_Sensing.c **** #define capsense_MOD_CSD_CLK_24000KHZ                   (24000uL)
  73:.\Generated_Source\PSoC4/capsense_Sensing.c **** #define capsense_MOD_CSD_CLK_48000KHZ                   (48000uL)
  74:.\Generated_Source\PSoC4/capsense_Sensing.c **** 
  75:.\Generated_Source\PSoC4/capsense_Sensing.c **** #if ((capsense_CLK_SOURCE_PRS8 == capsense_CSD_SNS_CLK_SOURCE) || \
  76:.\Generated_Source\PSoC4/capsense_Sensing.c ****     (capsense_CLK_SOURCE_PRS12 == capsense_CSD_SNS_CLK_SOURCE) || \
  77:.\Generated_Source\PSoC4/capsense_Sensing.c ****     (capsense_CLK_SOURCE_PRSAUTO == capsense_CSD_SNS_CLK_SOURCE))
  78:.\Generated_Source\PSoC4/capsense_Sensing.c ****     #define capsense_FACTOR_FILTER_DELAY_12MHZ          (2u)
  79:.\Generated_Source\PSoC4/capsense_Sensing.c **** #else
  80:.\Generated_Source\PSoC4/capsense_Sensing.c ****     #define capsense_FACTOR_FILTER_DELAY_12MHZ          (4u)
  81:.\Generated_Source\PSoC4/capsense_Sensing.c **** #endif /* (capsense_CLK_SOURCE_DIRECT != capsense_CSD_SNS_CLK_SOURCE) */
  82:.\Generated_Source\PSoC4/capsense_Sensing.c **** 
  83:.\Generated_Source\PSoC4/capsense_Sensing.c **** #define capsense_FACTOR_MOD_SNS                         (8u)
  84:.\Generated_Source\PSoC4/capsense_Sensing.c **** 
  85:.\Generated_Source\PSoC4/capsense_Sensing.c **** /*****************************************************************************/
  86:.\Generated_Source\PSoC4/capsense_Sensing.c **** /* Enumeration types definition                                               */
  87:.\Generated_Source\PSoC4/capsense_Sensing.c **** /*****************************************************************************/
  88:.\Generated_Source\PSoC4/capsense_Sensing.c **** 
  89:.\Generated_Source\PSoC4/capsense_Sensing.c **** typedef enum
ARM GAS  C:\Users\Alan\AppData\Local\Temp\ccBkjVf3.s 			page 3


  90:.\Generated_Source\PSoC4/capsense_Sensing.c **** {
  91:.\Generated_Source\PSoC4/capsense_Sensing.c ****     capsense_RES_PULLUP_E   = 0x02u,
  92:.\Generated_Source\PSoC4/capsense_Sensing.c ****     capsense_RES_PULLDOWN_E = 0x03u
  93:.\Generated_Source\PSoC4/capsense_Sensing.c **** } capsense_PORT_TEST_DM;
  94:.\Generated_Source\PSoC4/capsense_Sensing.c **** 
  95:.\Generated_Source\PSoC4/capsense_Sensing.c **** typedef enum
  96:.\Generated_Source\PSoC4/capsense_Sensing.c **** {
  97:.\Generated_Source\PSoC4/capsense_Sensing.c ****     capsense_STS_RESET      = 0x01u,
  98:.\Generated_Source\PSoC4/capsense_Sensing.c ****     capsense_STS_NO_RESET   = 0x02u
  99:.\Generated_Source\PSoC4/capsense_Sensing.c **** } capsense_TEST_TYPE;
 100:.\Generated_Source\PSoC4/capsense_Sensing.c **** 
 101:.\Generated_Source\PSoC4/capsense_Sensing.c **** 
 102:.\Generated_Source\PSoC4/capsense_Sensing.c **** /*******************************************************************************
 103:.\Generated_Source\PSoC4/capsense_Sensing.c **** * Static Function Prototypes
 104:.\Generated_Source\PSoC4/capsense_Sensing.c **** *******************************************************************************/
 105:.\Generated_Source\PSoC4/capsense_Sensing.c **** /**
 106:.\Generated_Source\PSoC4/capsense_Sensing.c **** * \if SECTION_CAPSENSE_INTERNAL
 107:.\Generated_Source\PSoC4/capsense_Sensing.c **** * \addtogroup group_capsense_internal
 108:.\Generated_Source\PSoC4/capsense_Sensing.c **** * \{
 109:.\Generated_Source\PSoC4/capsense_Sensing.c **** */
 110:.\Generated_Source\PSoC4/capsense_Sensing.c **** 
 111:.\Generated_Source\PSoC4/capsense_Sensing.c **** 
 112:.\Generated_Source\PSoC4/capsense_Sensing.c **** /** \}
 113:.\Generated_Source\PSoC4/capsense_Sensing.c **** * \endif */
 114:.\Generated_Source\PSoC4/capsense_Sensing.c **** 
 115:.\Generated_Source\PSoC4/capsense_Sensing.c **** /*******************************************************************************
 116:.\Generated_Source\PSoC4/capsense_Sensing.c **** * Define module variables
 117:.\Generated_Source\PSoC4/capsense_Sensing.c **** *******************************************************************************/
 118:.\Generated_Source\PSoC4/capsense_Sensing.c **** 
 119:.\Generated_Source\PSoC4/capsense_Sensing.c **** #if ((capsense_ENABLE == capsense_CSD_CSX_EN) || \
 120:.\Generated_Source\PSoC4/capsense_Sensing.c ****      (capsense_ENABLE == capsense_ADC_EN))
 121:.\Generated_Source\PSoC4/capsense_Sensing.c ****     capsense_SENSE_METHOD_ENUM capsense_currentSenseMethod = capsense_UNDEFINED_E;
 122:.\Generated_Source\PSoC4/capsense_Sensing.c **** #endif /* ((capsense_ENABLE == capsense_CSD_CSX_EN) || \
 123:.\Generated_Source\PSoC4/capsense_Sensing.c ****            (capsense_ENABLE == capsense_ADC_EN))) */
 124:.\Generated_Source\PSoC4/capsense_Sensing.c **** 
 125:.\Generated_Source\PSoC4/capsense_Sensing.c **** #if(capsense_ENABLE == capsense_MULTI_FREQ_SCAN_EN)
 126:.\Generated_Source\PSoC4/capsense_Sensing.c ****     /*  Module variable keep track of frequency hopping channel index   */
 127:.\Generated_Source\PSoC4/capsense_Sensing.c ****     uint8 capsense_scanFreqIndex = 0u;
 128:.\Generated_Source\PSoC4/capsense_Sensing.c ****     /*  Variable keep frequency offsets */
 129:.\Generated_Source\PSoC4/capsense_Sensing.c ****     uint8 capsense_immunity[capsense_NUM_SCAN_FREQS] = {0u, 0u, 0u};
 130:.\Generated_Source\PSoC4/capsense_Sensing.c **** #else
 131:.\Generated_Source\PSoC4/capsense_Sensing.c ****     /* const allows C-compiler to do optimization */
 132:.\Generated_Source\PSoC4/capsense_Sensing.c ****     const uint8 capsense_scanFreqIndex = 0u;
 133:.\Generated_Source\PSoC4/capsense_Sensing.c **** #endif /* (capsense_ENABLE == capsense_MULTI_FREQ_SCAN_EN) */
 134:.\Generated_Source\PSoC4/capsense_Sensing.c **** 
 135:.\Generated_Source\PSoC4/capsense_Sensing.c **** /* Global software variables */
 136:.\Generated_Source\PSoC4/capsense_Sensing.c **** volatile uint8 capsense_widgetIndex = 0u;    /* Index of the scanning widget */
 137:.\Generated_Source\PSoC4/capsense_Sensing.c **** volatile uint8 capsense_sensorIndex = 0u;    /* Index of the scanning sensor */
 138:.\Generated_Source\PSoC4/capsense_Sensing.c **** volatile uint32 capsense_curWidgetResolution = 0u;
 139:.\Generated_Source\PSoC4/capsense_Sensing.c **** uint8 capsense_requestScanAllWidget = 0u;
 140:.\Generated_Source\PSoC4/capsense_Sensing.c **** #if (capsense_CSD_SS_DIS != capsense_CSD_AUTOTUNE)
 141:.\Generated_Source\PSoC4/capsense_Sensing.c ****     uint8 capsense_prescalersTuningDone = 0u;
 142:.\Generated_Source\PSoC4/capsense_Sensing.c **** #endif /* (capsense_CSD_SS_DIS != capsense_CSD_AUTOTUNE) */
 143:.\Generated_Source\PSoC4/capsense_Sensing.c **** 
 144:.\Generated_Source\PSoC4/capsense_Sensing.c **** /* Pointer to RAM_SNS_STRUCT structure  */
 145:.\Generated_Source\PSoC4/capsense_Sensing.c **** capsense_RAM_SNS_STRUCT *capsense_curRamSnsPtr;
 146:.\Generated_Source\PSoC4/capsense_Sensing.c **** 
ARM GAS  C:\Users\Alan\AppData\Local\Temp\ccBkjVf3.s 			page 4


 147:.\Generated_Source\PSoC4/capsense_Sensing.c **** #if ((capsense_ENABLE == capsense_CSD_GANGED_SNS_EN) || \
 148:.\Generated_Source\PSoC4/capsense_Sensing.c ****      (capsense_ENABLE == capsense_CSX_EN))
 149:.\Generated_Source\PSoC4/capsense_Sensing.c ****     /*  Pointer to Flash structure holding configuration of widget to be scanned  */
 150:.\Generated_Source\PSoC4/capsense_Sensing.c ****     capsense_FLASH_WD_STRUCT const *capsense_curFlashWdgtPtr = 0u;
 151:.\Generated_Source\PSoC4/capsense_Sensing.c **** #endif /* ((capsense_ENABLE == capsense_CSD_GANGED_SNS_EN) || \
 152:.\Generated_Source\PSoC4/capsense_Sensing.c ****            (capsense_ENABLE == capsense_CSX_EN))  */
 153:.\Generated_Source\PSoC4/capsense_Sensing.c **** #if (capsense_ENABLE == capsense_CSD_GANGED_SNS_EN) 
 154:.\Generated_Source\PSoC4/capsense_Sensing.c ****     /*  Pointer to Flash structure holding info of sensor to be scanned  */
 155:.\Generated_Source\PSoC4/capsense_Sensing.c ****     capsense_FLASH_SNS_STRUCT const *capsense_curFlashSnsPtr = 0u;
 156:.\Generated_Source\PSoC4/capsense_Sensing.c **** #endif /* (capsense_ENABLE == capsense_CSD_GANGED_SNS_EN) */
 157:.\Generated_Source\PSoC4/capsense_Sensing.c **** 
 158:.\Generated_Source\PSoC4/capsense_Sensing.c **** /*******************************************************************************
 159:.\Generated_Source\PSoC4/capsense_Sensing.c **** * Function Name: capsense_IsBusy
 160:.\Generated_Source\PSoC4/capsense_Sensing.c **** ****************************************************************************//**
 161:.\Generated_Source\PSoC4/capsense_Sensing.c **** *
 162:.\Generated_Source\PSoC4/capsense_Sensing.c **** * \brief
 163:.\Generated_Source\PSoC4/capsense_Sensing.c **** *   Returns the current status of the component (scan completed or scan in
 164:.\Generated_Source\PSoC4/capsense_Sensing.c **** *   progress).
 165:.\Generated_Source\PSoC4/capsense_Sensing.c **** *
 166:.\Generated_Source\PSoC4/capsense_Sensing.c **** * \details
 167:.\Generated_Source\PSoC4/capsense_Sensing.c **** *   This API checks the status flag in the capsense_dsRam structure
 168:.\Generated_Source\PSoC4/capsense_Sensing.c **** *   which is set when the scanning starts. The API returns a zero value when all the
 169:.\Generated_Source\PSoC4/capsense_Sensing.c **** *   sensors in the widget have been scanned.
 170:.\Generated_Source\PSoC4/capsense_Sensing.c **** *   In the CSD2X mode the API returns a zero value when all the sensors in both slots
 171:.\Generated_Source\PSoC4/capsense_Sensing.c **** *   have been scanned.
 172:.\Generated_Source\PSoC4/capsense_Sensing.c **** *   A new scan or the widget setup change must not be made while
 173:.\Generated_Source\PSoC4/capsense_Sensing.c **** *   the component is busy.
 174:.\Generated_Source\PSoC4/capsense_Sensing.c **** *
 175:.\Generated_Source\PSoC4/capsense_Sensing.c **** * \return
 176:.\Generated_Source\PSoC4/capsense_Sensing.c **** *   Returns the current status of the component (scan completed or scan in
 177:.\Generated_Source\PSoC4/capsense_Sensing.c **** *   progress):
 178:.\Generated_Source\PSoC4/capsense_Sensing.c **** *   Zero     - Free, no scan in progress, a next scan can be initiated.
 179:.\Generated_Source\PSoC4/capsense_Sensing.c **** *   Non-zero - Busy, scan in progress, wait prior to initiating a next scan.
 180:.\Generated_Source\PSoC4/capsense_Sensing.c **** *
 181:.\Generated_Source\PSoC4/capsense_Sensing.c **** *******************************************************************************/
 182:.\Generated_Source\PSoC4/capsense_Sensing.c **** uint32 capsense_IsBusy(void)
 183:.\Generated_Source\PSoC4/capsense_Sensing.c **** {
  26              		.loc 1 183 0
  27              		.cfi_startproc
 184:.\Generated_Source\PSoC4/capsense_Sensing.c ****     return ((*(volatile uint8 *)&capsense_dsRam.status) & capsense_SW_STS_BUSY);
  28              		.loc 1 184 0
  29 0000 024B     		ldr	r3, .L2
  30 0002 187A     		ldrb	r0, [r3, #8]
  31 0004 7F23     		mov	r3, #127
  32 0006 9843     		bic	r0, r3
 185:.\Generated_Source\PSoC4/capsense_Sensing.c **** }
  33              		.loc 1 185 0
  34              		@ sp needed
  35 0008 7047     		bx	lr
  36              	.L3:
  37 000a C046     		.align	2
  38              	.L2:
  39 000c 00000000 		.word	capsense_dsRam
  40              		.cfi_endproc
  41              	.LFE1:
  42              		.size	capsense_IsBusy, .-capsense_IsBusy
  43              		.section	.text.capsense_SetupWidget,"ax",%progbits
ARM GAS  C:\Users\Alan\AppData\Local\Temp\ccBkjVf3.s 			page 5


  44              		.align	2
  45              		.global	capsense_SetupWidget
  46              		.code	16
  47              		.thumb_func
  48              		.type	capsense_SetupWidget, %function
  49              	capsense_SetupWidget:
  50              	.LFB2:
 186:.\Generated_Source\PSoC4/capsense_Sensing.c **** 
 187:.\Generated_Source\PSoC4/capsense_Sensing.c **** /*******************************************************************************
 188:.\Generated_Source\PSoC4/capsense_Sensing.c **** * Function Name: capsense_SetupWidget
 189:.\Generated_Source\PSoC4/capsense_Sensing.c **** ****************************************************************************//**
 190:.\Generated_Source\PSoC4/capsense_Sensing.c **** *
 191:.\Generated_Source\PSoC4/capsense_Sensing.c **** * \brief
 192:.\Generated_Source\PSoC4/capsense_Sensing.c **** *   Performs the initialization required to scan a particular widget.
 193:.\Generated_Source\PSoC4/capsense_Sensing.c **** *
 194:.\Generated_Source\PSoC4/capsense_Sensing.c **** * \details
 195:.\Generated_Source\PSoC4/capsense_Sensing.c **** *   This API re-initializes the component hardware if the sensing methods used by
 196:.\Generated_Source\PSoC4/capsense_Sensing.c **** *   the widget are different from the sensing methods used by the previous widget, 
 197:.\Generated_Source\PSoC4/capsense_Sensing.c **** *   initializes the hardware with configurations specific to the widget. 
 198:.\Generated_Source\PSoC4/capsense_Sensing.c **** *   This API does not start sensor scanning. This API must be called prior 
 199:.\Generated_Source\PSoC4/capsense_Sensing.c **** *   calling capsense_Scan() API to start the sensor scan.
 200:.\Generated_Source\PSoC4/capsense_Sensing.c **** * 
 201:.\Generated_Source\PSoC4/capsense_Sensing.c **** *   Note in the CSD2x mode, each widget should be set up individually with two calls to the
 202:.\Generated_Source\PSoC4/capsense_Sensing.c **** *   capsense_SetupWidget() API.
 203:.\Generated_Source\PSoC4/capsense_Sensing.c **** *   This API disconnects the electrode if it was previously connected by 
 204:.\Generated_Source\PSoC4/capsense_Sensing.c **** *   capsense_CSDSetupWidgetExt() or capsense_CSXSetupWidgetExt() 
 205:.\Generated_Source\PSoC4/capsense_Sensing.c **** *   APIs. This API does not disconnect the electrode if it was connected manually or
 206:.\Generated_Source\PSoC4/capsense_Sensing.c **** *   using capsense_CSDConnectSns() API.
 207:.\Generated_Source\PSoC4/capsense_Sensing.c **** *   The last widget will be configured if this API is called twice for different
 208:.\Generated_Source\PSoC4/capsense_Sensing.c **** *   widgets. API does not break the functionality if it is called twice for the 
 209:.\Generated_Source\PSoC4/capsense_Sensing.c **** *   same widget.
 210:.\Generated_Source\PSoC4/capsense_Sensing.c **** *
 211:.\Generated_Source\PSoC4/capsense_Sensing.c **** * \param wdgtIndex
 212:.\Generated_Source\PSoC4/capsense_Sensing.c **** *   Specifies the ID of the widget for which the hardware tuning parameters should be
 213:.\Generated_Source\PSoC4/capsense_Sensing.c **** *   initialized in the capsense HW block.
 214:.\Generated_Source\PSoC4/capsense_Sensing.c **** *
 215:.\Generated_Source\PSoC4/capsense_Sensing.c **** * \return 
 216:.\Generated_Source\PSoC4/capsense_Sensing.c **** *   Returns the status of operation:
 217:.\Generated_Source\PSoC4/capsense_Sensing.c **** *      - Zero     - The capsense HW block is initialized.
 218:.\Generated_Source\PSoC4/capsense_Sensing.c **** *      - Non-zero - The capsense HW block is busy and cannot be initialized.
 219:.\Generated_Source\PSoC4/capsense_Sensing.c **** *
 220:.\Generated_Source\PSoC4/capsense_Sensing.c **** **********************************************************************************/
 221:.\Generated_Source\PSoC4/capsense_Sensing.c **** cystatus capsense_SetupWidget(uint32 wdgtIndex)
 222:.\Generated_Source\PSoC4/capsense_Sensing.c **** {
  51              		.loc 1 222 0
  52              		.cfi_startproc
  53              	.LVL0:
  54 0000 10B5     		push	{r4, lr}
  55              		.cfi_def_cfa_offset 8
  56              		.cfi_offset 4, -8
  57              		.cfi_offset 14, -4
 223:.\Generated_Source\PSoC4/capsense_Sensing.c ****     cystatus widgetStatus;
 224:.\Generated_Source\PSoC4/capsense_Sensing.c **** 
 225:.\Generated_Source\PSoC4/capsense_Sensing.c ****     if (capsense_WDGT_SW_STS_BUSY == (capsense_dsRam.status & capsense_WDGT_SW_STS_BUSY))
  58              		.loc 1 225 0
  59 0002 104B     		ldr	r3, .L10
  60 0004 9B68     		ldr	r3, [r3, #8]
ARM GAS  C:\Users\Alan\AppData\Local\Temp\ccBkjVf3.s 			page 6


  61 0006 DB03     		lsl	r3, r3, #15
  62 0008 10D4     		bmi	.L7
 226:.\Generated_Source\PSoC4/capsense_Sensing.c ****     {
 227:.\Generated_Source\PSoC4/capsense_Sensing.c ****         /* Previous widget is being scanned. Return error. */
 228:.\Generated_Source\PSoC4/capsense_Sensing.c ****         widgetStatus = CYRET_INVALID_STATE;
 229:.\Generated_Source\PSoC4/capsense_Sensing.c ****     }
 230:.\Generated_Source\PSoC4/capsense_Sensing.c ****     /*  
 231:.\Generated_Source\PSoC4/capsense_Sensing.c ****      *  Check if widget id is valid, specified widget is enabled and widget did not
 232:.\Generated_Source\PSoC4/capsense_Sensing.c ****      *  detect any fault conditions if BIST is enabled. If all conditions are met,
 233:.\Generated_Source\PSoC4/capsense_Sensing.c ****      *  set widgetStatus as good, if not, set widgetStatus as bad.   
 234:.\Generated_Source\PSoC4/capsense_Sensing.c ****      */
 235:.\Generated_Source\PSoC4/capsense_Sensing.c ****         else if ((capsense_TOTAL_WIDGETS > wdgtIndex) &&
  63              		.loc 1 235 0
  64 000a 0028     		cmp	r0, #0
  65 000c 10D1     		bne	.L8
  66 000e C304     		lsl	r3, r0, #19
  67 0010 1B0E     		lsr	r3, r3, #24
 236:.\Generated_Source\PSoC4/capsense_Sensing.c ****             (((uint32)capsense_dsRam.wdgtEnable[(uint8)(wdgtIndex >> capsense_WIDGET_NUM_32_DIV_SHI
  68              		.loc 1 236 0 discriminator 1
  69 0012 0233     		add	r3, r3, #2
  70 0014 9B00     		lsl	r3, r3, #2
  71 0016 0B4A     		ldr	r2, .L10
  72 0018 D318     		add	r3, r2, r3
  73 001a 5A68     		ldr	r2, [r3, #4]
 237:.\Generated_Source\PSoC4/capsense_Sensing.c ****                                                 (0x00000001Lu << (wdgtIndex & capsense_WIDGET_NUM_3
  74              		.loc 1 237 0 discriminator 1
  75 001c 1F23     		mov	r3, #31
  76 001e 0340     		and	r3, r0
  77 0020 DA40     		lsr	r2, r2, r3
  78 0022 131C     		mov	r3, r2
 235:.\Generated_Source\PSoC4/capsense_Sensing.c ****             (((uint32)capsense_dsRam.wdgtEnable[(uint8)(wdgtIndex >> capsense_WIDGET_NUM_32_DIV_SHI
  79              		.loc 1 235 0 discriminator 1
  80 0024 DB07     		lsl	r3, r3, #31
  81 0026 05D4     		bmi	.L9
 238:.\Generated_Source\PSoC4/capsense_Sensing.c ****     
 239:.\Generated_Source\PSoC4/capsense_Sensing.c ****         {
 240:.\Generated_Source\PSoC4/capsense_Sensing.c ****             #if (capsense_ENABLE == capsense_SELF_TEST_EN)
 241:.\Generated_Source\PSoC4/capsense_Sensing.c ****                 if (capsense_DISABLE != ((uint32)capsense_dsRam.wdgtWorking[(uint8)(wdgtIndex >> ca
 242:.\Generated_Source\PSoC4/capsense_Sensing.c ****                                                  (0x00000001Lu << (wdgtIndex & capsense_WIDGET_NUM_
 243:.\Generated_Source\PSoC4/capsense_Sensing.c ****                 {
 244:.\Generated_Source\PSoC4/capsense_Sensing.c ****                     widgetStatus = CYRET_SUCCESS;
 245:.\Generated_Source\PSoC4/capsense_Sensing.c ****                 }
 246:.\Generated_Source\PSoC4/capsense_Sensing.c ****                 else    
 247:.\Generated_Source\PSoC4/capsense_Sensing.c ****                 {
 248:.\Generated_Source\PSoC4/capsense_Sensing.c ****                     widgetStatus = CYRET_INVALID_STATE;
 249:.\Generated_Source\PSoC4/capsense_Sensing.c ****                 }
 250:.\Generated_Source\PSoC4/capsense_Sensing.c ****             #else
 251:.\Generated_Source\PSoC4/capsense_Sensing.c ****                 widgetStatus = CYRET_SUCCESS;
 252:.\Generated_Source\PSoC4/capsense_Sensing.c ****             #endif  /* (capsense_ENABLE == capsense_SELF_TEST_EN)) */
 253:.\Generated_Source\PSoC4/capsense_Sensing.c ****         }
 254:.\Generated_Source\PSoC4/capsense_Sensing.c ****         else    
 255:.\Generated_Source\PSoC4/capsense_Sensing.c ****         {
 256:.\Generated_Source\PSoC4/capsense_Sensing.c ****             widgetStatus = CYRET_BAD_PARAM;
  82              		.loc 1 256 0
  83 0028 0124     		mov	r4, #1
  84 002a 04E0     		b	.L5
  85              	.L7:
ARM GAS  C:\Users\Alan\AppData\Local\Temp\ccBkjVf3.s 			page 7


 228:.\Generated_Source\PSoC4/capsense_Sensing.c ****     }
  86              		.loc 1 228 0
  87 002c 1124     		mov	r4, #17
  88 002e 02E0     		b	.L5
  89              	.L8:
  90              		.loc 1 256 0
  91 0030 0124     		mov	r4, #1
  92 0032 00E0     		b	.L5
  93              	.L9:
 251:.\Generated_Source\PSoC4/capsense_Sensing.c ****             #endif  /* (capsense_ENABLE == capsense_SELF_TEST_EN)) */
  94              		.loc 1 251 0
  95 0034 0024     		mov	r4, #0
  96              	.L5:
  97              	.LVL1:
 257:.\Generated_Source\PSoC4/capsense_Sensing.c ****         }
 258:.\Generated_Source\PSoC4/capsense_Sensing.c ****     
 259:.\Generated_Source\PSoC4/capsense_Sensing.c ****     /*  
 260:.\Generated_Source\PSoC4/capsense_Sensing.c ****      * Check widgetStatus flag that is set earlier, if flag is good, then set up only
 261:.\Generated_Source\PSoC4/capsense_Sensing.c ****      * widget  
 262:.\Generated_Source\PSoC4/capsense_Sensing.c ****      */
 263:.\Generated_Source\PSoC4/capsense_Sensing.c ****     if (CYRET_SUCCESS == widgetStatus)    
  98              		.loc 1 263 0
  99 0036 002C     		cmp	r4, #0
 100 0038 01D1     		bne	.L6
 264:.\Generated_Source\PSoC4/capsense_Sensing.c ****     {
 265:.\Generated_Source\PSoC4/capsense_Sensing.c ****         /*  Check if CSD2X is enabled   */
 266:.\Generated_Source\PSoC4/capsense_Sensing.c ****         #if (capsense_ENABLE == capsense_CSD2X_EN)
 267:.\Generated_Source\PSoC4/capsense_Sensing.c ****             /******************************
 268:.\Generated_Source\PSoC4/capsense_Sensing.c ****             * This is the place where capsense_SetupWidget2x(uint32 slotIndex) 
 269:.\Generated_Source\PSoC4/capsense_Sensing.c ****             * API should be implemented.
 270:.\Generated_Source\PSoC4/capsense_Sensing.c ****             * CSD2X will be implemented
 271:.\Generated_Source\PSoC4/capsense_Sensing.c ****             * in the next component version.
 272:.\Generated_Source\PSoC4/capsense_Sensing.c ****             *********************************/
 273:.\Generated_Source\PSoC4/capsense_Sensing.c ****             widgetStatus = CYRET_UNKNOWN;
 274:.\Generated_Source\PSoC4/capsense_Sensing.c ****             #error "CSD2x not implemented in this version of component"
 275:.\Generated_Source\PSoC4/capsense_Sensing.c ****             
 276:.\Generated_Source\PSoC4/capsense_Sensing.c ****         #elif (capsense_ENABLE == capsense_CSD_CSX_EN)
 277:.\Generated_Source\PSoC4/capsense_Sensing.c ****             #if (capsense_ENABLE == capsense_ADC_EN)
 278:.\Generated_Source\PSoC4/capsense_Sensing.c ****                 if (capsense_UNDEFINED_E == capsense_currentSenseMethod) 
 279:.\Generated_Source\PSoC4/capsense_Sensing.c ****                 {
 280:.\Generated_Source\PSoC4/capsense_Sensing.c ****                     /* Release ADC resources */
 281:.\Generated_Source\PSoC4/capsense_Sensing.c ****                     widgetStatus = capsense_AdcReleaseResources();
 282:.\Generated_Source\PSoC4/capsense_Sensing.c ****                 }
 283:.\Generated_Source\PSoC4/capsense_Sensing.c ****             #endif /* (capsense_ENABLE == capsense_ADC_EN) */
 284:.\Generated_Source\PSoC4/capsense_Sensing.c ****             
 285:.\Generated_Source\PSoC4/capsense_Sensing.c ****             /*  Check widget sensing method is CSX and call CSX APIs    */
 286:.\Generated_Source\PSoC4/capsense_Sensing.c ****             if (capsense_SENSE_METHOD_CSX_E == 
 287:.\Generated_Source\PSoC4/capsense_Sensing.c ****                 (capsense_SENSE_METHOD_ENUM)capsense_GET_SENSE_METHOD(&capsense_dsFlash.wdgtArray[w
 288:.\Generated_Source\PSoC4/capsense_Sensing.c ****             {
 289:.\Generated_Source\PSoC4/capsense_Sensing.c ****                 /*  
 290:.\Generated_Source\PSoC4/capsense_Sensing.c ****                  *  Check if CSD block is  already initialized for CSX operation
 291:.\Generated_Source\PSoC4/capsense_Sensing.c ****                  *  If not, initialize CSD hardware block for CSX measurement   
 292:.\Generated_Source\PSoC4/capsense_Sensing.c ****                  */
 293:.\Generated_Source\PSoC4/capsense_Sensing.c ****                 if (capsense_SENSE_METHOD_CSX_E != capsense_currentSenseMethod) 
 294:.\Generated_Source\PSoC4/capsense_Sensing.c ****                 {
 295:.\Generated_Source\PSoC4/capsense_Sensing.c ****                     capsense_SwitchSensingMode(capsense_SENSE_METHOD_CSX_E);
 296:.\Generated_Source\PSoC4/capsense_Sensing.c ****                 }
ARM GAS  C:\Users\Alan\AppData\Local\Temp\ccBkjVf3.s 			page 8


 297:.\Generated_Source\PSoC4/capsense_Sensing.c **** 
 298:.\Generated_Source\PSoC4/capsense_Sensing.c ****                 #if (capsense_ENABLE == capsense_ADC_EN)
 299:.\Generated_Source\PSoC4/capsense_Sensing.c ****                     if (CYRET_SUCCESS == widgetStatus)
 300:.\Generated_Source\PSoC4/capsense_Sensing.c ****                     {
 301:.\Generated_Source\PSoC4/capsense_Sensing.c ****                         /*  Set up widget for CSX scan  */
 302:.\Generated_Source\PSoC4/capsense_Sensing.c ****                         capsense_CSXSetupWidget(wdgtIndex);
 303:.\Generated_Source\PSoC4/capsense_Sensing.c ****                     }
 304:.\Generated_Source\PSoC4/capsense_Sensing.c ****                 #else
 305:.\Generated_Source\PSoC4/capsense_Sensing.c ****                     /*  Set up widget for CSX scan  */
 306:.\Generated_Source\PSoC4/capsense_Sensing.c ****                     capsense_CSXSetupWidget(wdgtIndex);
 307:.\Generated_Source\PSoC4/capsense_Sensing.c ****                 #endif /* (capsense_ENABLE == capsense_ADC_EN) */
 308:.\Generated_Source\PSoC4/capsense_Sensing.c ****             }
 309:.\Generated_Source\PSoC4/capsense_Sensing.c ****             /*  Check widget sensing method is CSD and call appropriate API */
 310:.\Generated_Source\PSoC4/capsense_Sensing.c ****             else if (capsense_SENSE_METHOD_CSD_E ==
 311:.\Generated_Source\PSoC4/capsense_Sensing.c ****                      (capsense_SENSE_METHOD_ENUM)capsense_GET_SENSE_METHOD(&capsense_dsFlash.wdgtAr
 312:.\Generated_Source\PSoC4/capsense_Sensing.c ****             {
 313:.\Generated_Source\PSoC4/capsense_Sensing.c ****                 /*  
 314:.\Generated_Source\PSoC4/capsense_Sensing.c ****                  * Check if CSD block is  already initialized for CSD operation
 315:.\Generated_Source\PSoC4/capsense_Sensing.c ****                  * If not, initialize CSD hardware block for CSD measurement   
 316:.\Generated_Source\PSoC4/capsense_Sensing.c ****                  */
 317:.\Generated_Source\PSoC4/capsense_Sensing.c ****                 if (capsense_SENSE_METHOD_CSD_E != capsense_currentSenseMethod)
 318:.\Generated_Source\PSoC4/capsense_Sensing.c ****                 {
 319:.\Generated_Source\PSoC4/capsense_Sensing.c ****                     capsense_SwitchSensingMode(capsense_SENSE_METHOD_CSD_E);
 320:.\Generated_Source\PSoC4/capsense_Sensing.c ****                 }
 321:.\Generated_Source\PSoC4/capsense_Sensing.c **** 
 322:.\Generated_Source\PSoC4/capsense_Sensing.c ****                 #if (capsense_ENABLE == capsense_ADC_EN)
 323:.\Generated_Source\PSoC4/capsense_Sensing.c ****                     if (CYRET_SUCCESS == widgetStatus)
 324:.\Generated_Source\PSoC4/capsense_Sensing.c ****                     {
 325:.\Generated_Source\PSoC4/capsense_Sensing.c ****                         /*  Set up widget for CSD scan  */
 326:.\Generated_Source\PSoC4/capsense_Sensing.c ****                         capsense_CSDSetupWidget(wdgtIndex);
 327:.\Generated_Source\PSoC4/capsense_Sensing.c ****                     }
 328:.\Generated_Source\PSoC4/capsense_Sensing.c ****                 #else
 329:.\Generated_Source\PSoC4/capsense_Sensing.c ****                     /*  Set up widget for CSD scan  */
 330:.\Generated_Source\PSoC4/capsense_Sensing.c ****                     capsense_CSDSetupWidget(wdgtIndex);
 331:.\Generated_Source\PSoC4/capsense_Sensing.c ****                 #endif /* (capsense_ENABLE == capsense_ADC_EN) */
 332:.\Generated_Source\PSoC4/capsense_Sensing.c ****             }
 333:.\Generated_Source\PSoC4/capsense_Sensing.c ****             else
 334:.\Generated_Source\PSoC4/capsense_Sensing.c ****             {
 335:.\Generated_Source\PSoC4/capsense_Sensing.c ****                 /*  Sensing method is invalid, return error to caller  */
 336:.\Generated_Source\PSoC4/capsense_Sensing.c ****                 widgetStatus = CYRET_UNKNOWN;
 337:.\Generated_Source\PSoC4/capsense_Sensing.c ****             }
 338:.\Generated_Source\PSoC4/capsense_Sensing.c ****         #elif (capsense_ENABLE == capsense_CSD_EN)
 339:.\Generated_Source\PSoC4/capsense_Sensing.c ****             #if (capsense_ENABLE == capsense_ADC_EN)
 340:.\Generated_Source\PSoC4/capsense_Sensing.c ****                 /*  
 341:.\Generated_Source\PSoC4/capsense_Sensing.c ****                  * Check if CSD block is  already initialized for CSD operation
 342:.\Generated_Source\PSoC4/capsense_Sensing.c ****                  * If not, initialize CSD hardware block for CSD measurement   
 343:.\Generated_Source\PSoC4/capsense_Sensing.c ****                  */
 344:.\Generated_Source\PSoC4/capsense_Sensing.c ****                 if (capsense_SENSE_METHOD_CSD_E != capsense_currentSenseMethod)
 345:.\Generated_Source\PSoC4/capsense_Sensing.c ****                 {
 346:.\Generated_Source\PSoC4/capsense_Sensing.c ****                     if (capsense_UNDEFINED_E == capsense_currentSenseMethod) 
 347:.\Generated_Source\PSoC4/capsense_Sensing.c ****                     {
 348:.\Generated_Source\PSoC4/capsense_Sensing.c ****                         /* Release ADC resources */
 349:.\Generated_Source\PSoC4/capsense_Sensing.c ****                         widgetStatus = capsense_AdcReleaseResources();
 350:.\Generated_Source\PSoC4/capsense_Sensing.c ****                     }
 351:.\Generated_Source\PSoC4/capsense_Sensing.c **** 
 352:.\Generated_Source\PSoC4/capsense_Sensing.c ****                     if (CYRET_SUCCESS == widgetStatus)
 353:.\Generated_Source\PSoC4/capsense_Sensing.c ****                     {
ARM GAS  C:\Users\Alan\AppData\Local\Temp\ccBkjVf3.s 			page 9


 354:.\Generated_Source\PSoC4/capsense_Sensing.c ****                         /* Initialize CSD mode to guarantee configured CSD mode after CSX calibrati
 355:.\Generated_Source\PSoC4/capsense_Sensing.c ****                         capsense_CSDInitialize();
 356:.\Generated_Source\PSoC4/capsense_Sensing.c ****                         capsense_currentSenseMethod = capsense_SENSE_METHOD_CSD_E;
 357:.\Generated_Source\PSoC4/capsense_Sensing.c ****                     }
 358:.\Generated_Source\PSoC4/capsense_Sensing.c ****                 }
 359:.\Generated_Source\PSoC4/capsense_Sensing.c ****                 
 360:.\Generated_Source\PSoC4/capsense_Sensing.c ****                 if (CYRET_SUCCESS == widgetStatus)
 361:.\Generated_Source\PSoC4/capsense_Sensing.c ****                 {
 362:.\Generated_Source\PSoC4/capsense_Sensing.c ****                     /*  Set up widget for scan */
 363:.\Generated_Source\PSoC4/capsense_Sensing.c ****                     capsense_CSDSetupWidget(wdgtIndex);  
 364:.\Generated_Source\PSoC4/capsense_Sensing.c ****                 }
 365:.\Generated_Source\PSoC4/capsense_Sensing.c ****             #else    
 366:.\Generated_Source\PSoC4/capsense_Sensing.c ****                 /*  Set up widget for scan */
 367:.\Generated_Source\PSoC4/capsense_Sensing.c ****                 capsense_CSDSetupWidget(wdgtIndex);   
 101              		.loc 1 367 0
 102 003a FFF7FEFF 		bl	capsense_CSDSetupWidget
 103              	.LVL2:
 104              	.L6:
 368:.\Generated_Source\PSoC4/capsense_Sensing.c ****             #endif /* (capsense_ENABLE == capsense_ADC_EN) */
 369:.\Generated_Source\PSoC4/capsense_Sensing.c ****         #elif (capsense_ENABLE == capsense_CSX_EN)
 370:.\Generated_Source\PSoC4/capsense_Sensing.c ****             #if (capsense_ENABLE == capsense_ADC_EN)
 371:.\Generated_Source\PSoC4/capsense_Sensing.c ****                 /*  
 372:.\Generated_Source\PSoC4/capsense_Sensing.c ****                  *  Check if CSD block is  already initialized for CSX operation
 373:.\Generated_Source\PSoC4/capsense_Sensing.c ****                  *  If not, initialize CSD hardware block for CSX measurement   
 374:.\Generated_Source\PSoC4/capsense_Sensing.c ****                  */
 375:.\Generated_Source\PSoC4/capsense_Sensing.c ****                 if (capsense_SENSE_METHOD_CSX_E != capsense_currentSenseMethod) 
 376:.\Generated_Source\PSoC4/capsense_Sensing.c ****                 {
 377:.\Generated_Source\PSoC4/capsense_Sensing.c ****                     if (capsense_UNDEFINED_E == capsense_currentSenseMethod) 
 378:.\Generated_Source\PSoC4/capsense_Sensing.c ****                     {
 379:.\Generated_Source\PSoC4/capsense_Sensing.c ****                         /* Release ADC resources */
 380:.\Generated_Source\PSoC4/capsense_Sensing.c ****                         widgetStatus = capsense_AdcReleaseResources();
 381:.\Generated_Source\PSoC4/capsense_Sensing.c ****                     }
 382:.\Generated_Source\PSoC4/capsense_Sensing.c ****                     
 383:.\Generated_Source\PSoC4/capsense_Sensing.c ****                     if (CYRET_SUCCESS == widgetStatus)
 384:.\Generated_Source\PSoC4/capsense_Sensing.c ****                     {
 385:.\Generated_Source\PSoC4/capsense_Sensing.c ****                         /* Initialize CSD hardware block for CSX measurement */
 386:.\Generated_Source\PSoC4/capsense_Sensing.c ****                         capsense_CSXInitialize();
 387:.\Generated_Source\PSoC4/capsense_Sensing.c ****                         capsense_currentSenseMethod = capsense_SENSE_METHOD_CSX_E;
 388:.\Generated_Source\PSoC4/capsense_Sensing.c ****                     }
 389:.\Generated_Source\PSoC4/capsense_Sensing.c ****                 }
 390:.\Generated_Source\PSoC4/capsense_Sensing.c ****                 
 391:.\Generated_Source\PSoC4/capsense_Sensing.c ****                 if (CYRET_SUCCESS == widgetStatus)
 392:.\Generated_Source\PSoC4/capsense_Sensing.c ****                 {
 393:.\Generated_Source\PSoC4/capsense_Sensing.c ****                     /*  Set up widgets for scan     */
 394:.\Generated_Source\PSoC4/capsense_Sensing.c ****                     capsense_CSXSetupWidget(wdgtIndex);
 395:.\Generated_Source\PSoC4/capsense_Sensing.c ****                 }
 396:.\Generated_Source\PSoC4/capsense_Sensing.c ****             #else
 397:.\Generated_Source\PSoC4/capsense_Sensing.c ****                 /*  Set up widgets for scan     */
 398:.\Generated_Source\PSoC4/capsense_Sensing.c ****                 capsense_CSXSetupWidget(wdgtIndex);
 399:.\Generated_Source\PSoC4/capsense_Sensing.c ****             #endif /* (capsense_ENABLE == capsense_ADC_EN) */
 400:.\Generated_Source\PSoC4/capsense_Sensing.c ****         #else
 401:.\Generated_Source\PSoC4/capsense_Sensing.c ****             widgetStatus = CYRET_UNKNOWN;
 402:.\Generated_Source\PSoC4/capsense_Sensing.c ****             #error "No sensing method enabled, component cannot work in this mode"
 403:.\Generated_Source\PSoC4/capsense_Sensing.c ****         #endif  /* (capsense_ENABLE == capsense_CSD2X_EN) */
 404:.\Generated_Source\PSoC4/capsense_Sensing.c ****     }
 405:.\Generated_Source\PSoC4/capsense_Sensing.c **** 
 406:.\Generated_Source\PSoC4/capsense_Sensing.c ****     return (widgetStatus);
ARM GAS  C:\Users\Alan\AppData\Local\Temp\ccBkjVf3.s 			page 10


 407:.\Generated_Source\PSoC4/capsense_Sensing.c **** }
 105              		.loc 1 407 0
 106 003e 201C     		mov	r0, r4
 107              		@ sp needed
 108              	.LVL3:
 109 0040 10BD     		pop	{r4, pc}
 110              	.L11:
 111 0042 C046     		.align	2
 112              	.L10:
 113 0044 00000000 		.word	capsense_dsRam
 114              		.cfi_endproc
 115              	.LFE2:
 116              		.size	capsense_SetupWidget, .-capsense_SetupWidget
 117              		.section	.text.capsense_Scan,"ax",%progbits
 118              		.align	2
 119              		.global	capsense_Scan
 120              		.code	16
 121              		.thumb_func
 122              		.type	capsense_Scan, %function
 123              	capsense_Scan:
 124              	.LFB3:
 408:.\Generated_Source\PSoC4/capsense_Sensing.c **** 
 409:.\Generated_Source\PSoC4/capsense_Sensing.c **** 
 410:.\Generated_Source\PSoC4/capsense_Sensing.c **** /*******************************************************************************
 411:.\Generated_Source\PSoC4/capsense_Sensing.c **** * Function Name: capsense_Scan
 412:.\Generated_Source\PSoC4/capsense_Sensing.c **** ****************************************************************************//**
 413:.\Generated_Source\PSoC4/capsense_Sensing.c **** *
 414:.\Generated_Source\PSoC4/capsense_Sensing.c **** * \brief
 415:.\Generated_Source\PSoC4/capsense_Sensing.c **** *   Initiates scan for all sensors in the widget which is initialized by 
 416:.\Generated_Source\PSoC4/capsense_Sensing.c **** *   capsense_SetupWidget(), if the no scan is in progress
 417:.\Generated_Source\PSoC4/capsense_Sensing.c **** *
 418:.\Generated_Source\PSoC4/capsense_Sensing.c **** * \details
 419:.\Generated_Source\PSoC4/capsense_Sensing.c **** *   In the CSD mode, this API initializes the widget scanning in the descending order.
 420:.\Generated_Source\PSoC4/capsense_Sensing.c **** *   In the CSX mode, this API initializes the widget scanning in the ascending order. 
 421:.\Generated_Source\PSoC4/capsense_Sensing.c **** *   It connects the sensor in the widget, sets up a callback for the ISR
 422:.\Generated_Source\PSoC4/capsense_Sensing.c **** *   and starts scan of all the sensors in the widget which was set up in
 423:.\Generated_Source\PSoC4/capsense_Sensing.c **** *   the capsense_SetupWidget() API.
 424:.\Generated_Source\PSoC4/capsense_Sensing.c **** *   This API returns to the caller after scanning of the sensor in the 
 425:.\Generated_Source\PSoC4/capsense_Sensing.c **** *   widget is started, and scanning of the remaining sensors is started in the ISR. 
 426:.\Generated_Source\PSoC4/capsense_Sensing.c **** *   The status of scanning must be checked using the capsense_IsBusy() API  
 427:.\Generated_Source\PSoC4/capsense_Sensing.c **** *   prior to starting next scan or setting up a widget.
 428:.\Generated_Source\PSoC4/capsense_Sensing.c **** *
 429:.\Generated_Source\PSoC4/capsense_Sensing.c **** *   Note that the capsense HW block should be configured using  
 430:.\Generated_Source\PSoC4/capsense_Sensing.c **** *   the capsense_SetupWidget() API prior to calling this API.
 431:.\Generated_Source\PSoC4/capsense_Sensing.c **** *
 432:.\Generated_Source\PSoC4/capsense_Sensing.c **** * \return 
 433:.\Generated_Source\PSoC4/capsense_Sensing.c **** *   Returns the status of operation:
 434:.\Generated_Source\PSoC4/capsense_Sensing.c **** *      - Zero     - The capsense scan is started.
 435:.\Generated_Source\PSoC4/capsense_Sensing.c **** *      - Non-zero - The capsense HW block is busy and scan has not started.
 436:.\Generated_Source\PSoC4/capsense_Sensing.c **** *
 437:.\Generated_Source\PSoC4/capsense_Sensing.c **** **********************************************************************************/
 438:.\Generated_Source\PSoC4/capsense_Sensing.c **** cystatus capsense_Scan(void)
 439:.\Generated_Source\PSoC4/capsense_Sensing.c **** {
 125              		.loc 1 439 0
 126              		.cfi_startproc
 127 0000 08B5     		push	{r3, lr}
 128              		.cfi_def_cfa_offset 8
ARM GAS  C:\Users\Alan\AppData\Local\Temp\ccBkjVf3.s 			page 11


 129              		.cfi_offset 3, -8
 130              		.cfi_offset 14, -4
 131              	.LVL4:
 440:.\Generated_Source\PSoC4/capsense_Sensing.c ****     cystatus scanStatus = CYRET_SUCCESS;
 441:.\Generated_Source\PSoC4/capsense_Sensing.c **** 
 442:.\Generated_Source\PSoC4/capsense_Sensing.c ****     if (capsense_WDGT_SW_STS_BUSY == (capsense_dsRam.status & capsense_WDGT_SW_STS_BUSY))
 132              		.loc 1 442 0
 133 0002 054B     		ldr	r3, .L15
 134 0004 9B68     		ldr	r3, [r3, #8]
 135 0006 DB03     		lsl	r3, r3, #15
 136 0008 03D4     		bmi	.L14
 443:.\Generated_Source\PSoC4/capsense_Sensing.c ****     {
 444:.\Generated_Source\PSoC4/capsense_Sensing.c ****         /* Previous widget is being scanned. Return error. */
 445:.\Generated_Source\PSoC4/capsense_Sensing.c ****         scanStatus = CYRET_INVALID_STATE;
 446:.\Generated_Source\PSoC4/capsense_Sensing.c ****     }
 447:.\Generated_Source\PSoC4/capsense_Sensing.c ****     else
 448:.\Generated_Source\PSoC4/capsense_Sensing.c ****     {
 449:.\Generated_Source\PSoC4/capsense_Sensing.c ****         /*  If CSD2X is enabled, call CSD2X scan    */
 450:.\Generated_Source\PSoC4/capsense_Sensing.c ****     #if (capsense_ENABLE == capsense_CSD2X_EN)
 451:.\Generated_Source\PSoC4/capsense_Sensing.c ****         scanStatus = capsense_Scan2x();
 452:.\Generated_Source\PSoC4/capsense_Sensing.c **** 
 453:.\Generated_Source\PSoC4/capsense_Sensing.c ****     /*  If both CSD and CSX are enabled, call scan API based on widget sensing method    */
 454:.\Generated_Source\PSoC4/capsense_Sensing.c ****     #elif (capsense_ENABLE == capsense_CSD_CSX_EN)
 455:.\Generated_Source\PSoC4/capsense_Sensing.c ****         /*  Check widget sensing method and call appropriate APIs   */
 456:.\Generated_Source\PSoC4/capsense_Sensing.c ****         switch (capsense_currentSenseMethod)
 457:.\Generated_Source\PSoC4/capsense_Sensing.c ****         {  
 458:.\Generated_Source\PSoC4/capsense_Sensing.c ****             case capsense_SENSE_METHOD_CSX_E:
 459:.\Generated_Source\PSoC4/capsense_Sensing.c ****                 capsense_CSXScan();
 460:.\Generated_Source\PSoC4/capsense_Sensing.c ****                 break;
 461:.\Generated_Source\PSoC4/capsense_Sensing.c **** 
 462:.\Generated_Source\PSoC4/capsense_Sensing.c ****             case capsense_SENSE_METHOD_CSD_E:
 463:.\Generated_Source\PSoC4/capsense_Sensing.c ****                  capsense_CSDScan();
 464:.\Generated_Source\PSoC4/capsense_Sensing.c ****                 break;
 465:.\Generated_Source\PSoC4/capsense_Sensing.c **** 
 466:.\Generated_Source\PSoC4/capsense_Sensing.c ****             default:
 467:.\Generated_Source\PSoC4/capsense_Sensing.c ****                 scanStatus = CYRET_UNKNOWN;
 468:.\Generated_Source\PSoC4/capsense_Sensing.c ****                 break;
 469:.\Generated_Source\PSoC4/capsense_Sensing.c ****         }
 470:.\Generated_Source\PSoC4/capsense_Sensing.c ****         
 471:.\Generated_Source\PSoC4/capsense_Sensing.c ****     /*  If only CSD is enabled, call CSD scan   */
 472:.\Generated_Source\PSoC4/capsense_Sensing.c ****     #elif (capsense_ENABLE == capsense_CSD_EN)
 473:.\Generated_Source\PSoC4/capsense_Sensing.c ****         capsense_CSDScan();
 137              		.loc 1 473 0
 138 000a FFF7FEFF 		bl	capsense_CSDScan
 139              	.LVL5:
 440:.\Generated_Source\PSoC4/capsense_Sensing.c ****     cystatus scanStatus = CYRET_SUCCESS;
 140              		.loc 1 440 0
 141 000e 0020     		mov	r0, #0
 142 0010 00E0     		b	.L13
 143              	.L14:
 445:.\Generated_Source\PSoC4/capsense_Sensing.c ****     }
 144              		.loc 1 445 0
 145 0012 1120     		mov	r0, #17
 146              	.L13:
 147              	.LVL6:
 474:.\Generated_Source\PSoC4/capsense_Sensing.c **** 
 475:.\Generated_Source\PSoC4/capsense_Sensing.c ****     /*  If only CSX is enabled, call CSX scan   */
ARM GAS  C:\Users\Alan\AppData\Local\Temp\ccBkjVf3.s 			page 12


 476:.\Generated_Source\PSoC4/capsense_Sensing.c ****     #elif (capsense_ENABLE == capsense_CSX_EN)
 477:.\Generated_Source\PSoC4/capsense_Sensing.c ****         capsense_CSXScan();
 478:.\Generated_Source\PSoC4/capsense_Sensing.c **** 
 479:.\Generated_Source\PSoC4/capsense_Sensing.c ****     #else
 480:.\Generated_Source\PSoC4/capsense_Sensing.c ****         scanStatus = CYRET_UNKNOWN;
 481:.\Generated_Source\PSoC4/capsense_Sensing.c ****         #error "No sensing method enabled, component cannot work in this mode"
 482:.\Generated_Source\PSoC4/capsense_Sensing.c ****     #endif  /* (capsense_ENABLE == capsense_CSD2X_EN) */
 483:.\Generated_Source\PSoC4/capsense_Sensing.c ****     }
 484:.\Generated_Source\PSoC4/capsense_Sensing.c **** 
 485:.\Generated_Source\PSoC4/capsense_Sensing.c ****     return (scanStatus);
 486:.\Generated_Source\PSoC4/capsense_Sensing.c **** }
 148              		.loc 1 486 0
 149              		@ sp needed
 150 0014 08BD     		pop	{r3, pc}
 151              	.L16:
 152 0016 C046     		.align	2
 153              	.L15:
 154 0018 00000000 		.word	capsense_dsRam
 155              		.cfi_endproc
 156              	.LFE3:
 157              		.size	capsense_Scan, .-capsense_Scan
 158              		.section	.text.capsense_ScanAllWidgets,"ax",%progbits
 159              		.align	2
 160              		.global	capsense_ScanAllWidgets
 161              		.code	16
 162              		.thumb_func
 163              		.type	capsense_ScanAllWidgets, %function
 164              	capsense_ScanAllWidgets:
 165              	.LFB4:
 487:.\Generated_Source\PSoC4/capsense_Sensing.c **** 
 488:.\Generated_Source\PSoC4/capsense_Sensing.c **** 
 489:.\Generated_Source\PSoC4/capsense_Sensing.c **** /*******************************************************************************
 490:.\Generated_Source\PSoC4/capsense_Sensing.c **** * Function Name: capsense_ScanAllWidgets
 491:.\Generated_Source\PSoC4/capsense_Sensing.c **** ****************************************************************************//**
 492:.\Generated_Source\PSoC4/capsense_Sensing.c **** *
 493:.\Generated_Source\PSoC4/capsense_Sensing.c **** * \brief
 494:.\Generated_Source\PSoC4/capsense_Sensing.c **** *   Initializes a widget and scans all the sensors in the widget, then the same 
 495:.\Generated_Source\PSoC4/capsense_Sensing.c **** *   process is repeated for all widgets in the component. i.e. scan all the 
 496:.\Generated_Source\PSoC4/capsense_Sensing.c **** *   widgets in the component.
 497:.\Generated_Source\PSoC4/capsense_Sensing.c **** *
 498:.\Generated_Source\PSoC4/capsense_Sensing.c **** * \details
 499:.\Generated_Source\PSoC4/capsense_Sensing.c **** *   Initializes a widget and then initiates scan for the sensor in the
 500:.\Generated_Source\PSoC4/capsense_Sensing.c **** *   widget and returns to the caller. At the end of the sensor scan, the ISR is 
 501:.\Generated_Source\PSoC4/capsense_Sensing.c **** *   triggered and the following sensor scan is initiated in the ISR. Once all the 
 502:.\Generated_Source\PSoC4/capsense_Sensing.c **** *   sensors are scanned, the next widget in the component is initialized and the  
 503:.\Generated_Source\PSoC4/capsense_Sensing.c **** *   process is repeated  until all the sensors in all widgets in the component 
 504:.\Generated_Source\PSoC4/capsense_Sensing.c **** *   are scanned.
 505:.\Generated_Source\PSoC4/capsense_Sensing.c **** *   This function does not require the capsense_Scan() or 
 506:.\Generated_Source\PSoC4/capsense_Sensing.c **** *   capsense_SetupWidget(uint32 wdgtIndex) APIs to be called to start
 507:.\Generated_Source\PSoC4/capsense_Sensing.c **** *    scanning.
 508:.\Generated_Source\PSoC4/capsense_Sensing.c **** *
 509:.\Generated_Source\PSoC4/capsense_Sensing.c **** * \return 
 510:.\Generated_Source\PSoC4/capsense_Sensing.c **** *   Returns the status of operation:
 511:.\Generated_Source\PSoC4/capsense_Sensing.c **** *   - Zero        - Successfully initiated scan.
 512:.\Generated_Source\PSoC4/capsense_Sensing.c **** *   - Non-zero    - One or more errors occurred in the initialization process.
 513:.\Generated_Source\PSoC4/capsense_Sensing.c **** *
 514:.\Generated_Source\PSoC4/capsense_Sensing.c **** *******************************************************************************/
ARM GAS  C:\Users\Alan\AppData\Local\Temp\ccBkjVf3.s 			page 13


 515:.\Generated_Source\PSoC4/capsense_Sensing.c **** cystatus capsense_ScanAllWidgets(void)
 516:.\Generated_Source\PSoC4/capsense_Sensing.c **** {
 166              		.loc 1 516 0
 167              		.cfi_startproc
 168 0000 08B5     		push	{r3, lr}
 169              		.cfi_def_cfa_offset 8
 170              		.cfi_offset 3, -8
 171              		.cfi_offset 14, -4
 172              	.LVL7:
 517:.\Generated_Source\PSoC4/capsense_Sensing.c ****     cystatus scanStatus = CYRET_UNKNOWN;
 518:.\Generated_Source\PSoC4/capsense_Sensing.c ****     
 519:.\Generated_Source\PSoC4/capsense_Sensing.c ****     #if (capsense_DISABLE == capsense_CSD2X_EN)
 520:.\Generated_Source\PSoC4/capsense_Sensing.c ****         if (capsense_SW_STS_BUSY == (capsense_dsRam.status & capsense_SW_STS_BUSY))
 173              		.loc 1 520 0
 174 0002 114B     		ldr	r3, .L23
 175 0004 9B68     		ldr	r3, [r3, #8]
 176 0006 1B06     		lsl	r3, r3, #24
 177 0008 1CD4     		bmi	.L22
 521:.\Generated_Source\PSoC4/capsense_Sensing.c ****         {
 522:.\Generated_Source\PSoC4/capsense_Sensing.c ****             /* Previous widget is being scanned. Return error. */
 523:.\Generated_Source\PSoC4/capsense_Sensing.c ****             scanStatus = CYRET_INVALID_STATE;
 524:.\Generated_Source\PSoC4/capsense_Sensing.c ****         }
 525:.\Generated_Source\PSoC4/capsense_Sensing.c ****         else
 526:.\Generated_Source\PSoC4/capsense_Sensing.c ****         {
 527:.\Generated_Source\PSoC4/capsense_Sensing.c ****             /*  
 528:.\Generated_Source\PSoC4/capsense_Sensing.c ****              *  Set up widget first widget.
 529:.\Generated_Source\PSoC4/capsense_Sensing.c ****              *  If widget returned error, set up next, continue same until widget does not return e
 530:.\Generated_Source\PSoC4/capsense_Sensing.c ****              */
 531:.\Generated_Source\PSoC4/capsense_Sensing.c ****             for (capsense_widgetIndex = 0u; 
 178              		.loc 1 531 0
 179 000a 0022     		mov	r2, #0
 180 000c 0F4B     		ldr	r3, .L23+4
 181 000e 1A70     		strb	r2, [r3]
 517:.\Generated_Source\PSoC4/capsense_Sensing.c ****     cystatus scanStatus = CYRET_UNKNOWN;
 182              		.loc 1 517 0
 183 0010 0120     		mov	r0, #1
 184 0012 4042     		neg	r0, r0
 185              		.loc 1 531 0
 186 0014 11E0     		b	.L19
 187              	.LVL8:
 188              	.L21:
 532:.\Generated_Source\PSoC4/capsense_Sensing.c ****                  capsense_widgetIndex < capsense_TOTAL_WIDGETS; 
 533:.\Generated_Source\PSoC4/capsense_Sensing.c ****                  capsense_widgetIndex++)
 534:.\Generated_Source\PSoC4/capsense_Sensing.c ****             {
 535:.\Generated_Source\PSoC4/capsense_Sensing.c **** 
 536:.\Generated_Source\PSoC4/capsense_Sensing.c ****                 scanStatus = capsense_SetupWidget((uint32)capsense_widgetIndex);
 189              		.loc 1 536 0
 190 0016 0D4B     		ldr	r3, .L23+4
 191 0018 1878     		ldrb	r0, [r3]
 192              	.LVL9:
 193 001a C0B2     		uxtb	r0, r0
 194 001c FFF7FEFF 		bl	capsense_SetupWidget
 195              	.LVL10:
 537:.\Generated_Source\PSoC4/capsense_Sensing.c **** 
 538:.\Generated_Source\PSoC4/capsense_Sensing.c ****                 if (CYRET_SUCCESS == scanStatus)
 196              		.loc 1 538 0
 197 0020 0028     		cmp	r0, #0
ARM GAS  C:\Users\Alan\AppData\Local\Temp\ccBkjVf3.s 			page 14


 198 0022 05D1     		bne	.L20
 539:.\Generated_Source\PSoC4/capsense_Sensing.c ****                 {
 540:.\Generated_Source\PSoC4/capsense_Sensing.c ****                     #if (0u != (capsense_TOTAL_WIDGETS - 1u))
 541:.\Generated_Source\PSoC4/capsense_Sensing.c ****                         /* If there are more than one widget to be scanned, request callback to sca
 542:.\Generated_Source\PSoC4/capsense_Sensing.c ****                         if ((capsense_TOTAL_WIDGETS - 1u) > capsense_widgetIndex)
 543:.\Generated_Source\PSoC4/capsense_Sensing.c ****                         {
 544:.\Generated_Source\PSoC4/capsense_Sensing.c ****                              /* Request callback to scan next widget in ISR */
 545:.\Generated_Source\PSoC4/capsense_Sensing.c ****                             capsense_requestScanAllWidget = capsense_ENABLE;
 546:.\Generated_Source\PSoC4/capsense_Sensing.c ****                         }
 547:.\Generated_Source\PSoC4/capsense_Sensing.c ****                         else
 548:.\Generated_Source\PSoC4/capsense_Sensing.c ****                         {
 549:.\Generated_Source\PSoC4/capsense_Sensing.c ****                             /* Request to exit in ISR (Do not scan the next widgets) */
 550:.\Generated_Source\PSoC4/capsense_Sensing.c ****                             capsense_requestScanAllWidget = capsense_DISABLE;
 551:.\Generated_Source\PSoC4/capsense_Sensing.c ****                         }
 552:.\Generated_Source\PSoC4/capsense_Sensing.c ****                     #else 
 553:.\Generated_Source\PSoC4/capsense_Sensing.c ****                         {
 554:.\Generated_Source\PSoC4/capsense_Sensing.c ****                             /* Request to exit in ISR (We have only one widget) */
 555:.\Generated_Source\PSoC4/capsense_Sensing.c ****                             capsense_requestScanAllWidget = capsense_DISABLE;
 199              		.loc 1 555 0
 200 0024 0022     		mov	r2, #0
 201 0026 094B     		ldr	r3, .L23+4
 202 0028 5A70     		strb	r2, [r3, #1]
 556:.\Generated_Source\PSoC4/capsense_Sensing.c ****                         }
 557:.\Generated_Source\PSoC4/capsense_Sensing.c ****                     #endif  /* (0u != (capsense_TOTAL_WIDGETS - 1u)) */
 558:.\Generated_Source\PSoC4/capsense_Sensing.c ****                     
 559:.\Generated_Source\PSoC4/capsense_Sensing.c ****                     /*  Initiate scan and quit loop */
 560:.\Generated_Source\PSoC4/capsense_Sensing.c ****                     scanStatus = capsense_Scan();
 203              		.loc 1 560 0
 204 002a FFF7FEFF 		bl	capsense_Scan
 205              	.LVL11:
 561:.\Generated_Source\PSoC4/capsense_Sensing.c **** 
 562:.\Generated_Source\PSoC4/capsense_Sensing.c ****                     break;
 206              		.loc 1 562 0
 207 002e 0AE0     		b	.L18
 208              	.L20:
 533:.\Generated_Source\PSoC4/capsense_Sensing.c ****             {
 209              		.loc 1 533 0
 210 0030 064A     		ldr	r2, .L23+4
 211 0032 1378     		ldrb	r3, [r2]
 212 0034 0133     		add	r3, r3, #1
 213 0036 DBB2     		uxtb	r3, r3
 214 0038 1370     		strb	r3, [r2]
 215              	.LVL12:
 216              	.L19:
 532:.\Generated_Source\PSoC4/capsense_Sensing.c ****                  capsense_widgetIndex++)
 217              		.loc 1 532 0 discriminator 1
 218 003a 044B     		ldr	r3, .L23+4
 219 003c 1B78     		ldrb	r3, [r3]
 531:.\Generated_Source\PSoC4/capsense_Sensing.c ****                  capsense_widgetIndex < capsense_TOTAL_WIDGETS; 
 220              		.loc 1 531 0 discriminator 1
 221 003e 002B     		cmp	r3, #0
 222 0040 E9D0     		beq	.L21
 223 0042 00E0     		b	.L18
 224              	.LVL13:
 225              	.L22:
 523:.\Generated_Source\PSoC4/capsense_Sensing.c ****         }
 226              		.loc 1 523 0
ARM GAS  C:\Users\Alan\AppData\Local\Temp\ccBkjVf3.s 			page 15


 227 0044 1120     		mov	r0, #17
 228              	.LVL14:
 229              	.L18:
 563:.\Generated_Source\PSoC4/capsense_Sensing.c ****                 } 
 564:.\Generated_Source\PSoC4/capsense_Sensing.c ****             } 
 565:.\Generated_Source\PSoC4/capsense_Sensing.c ****         }        
 566:.\Generated_Source\PSoC4/capsense_Sensing.c ****     #else
 567:.\Generated_Source\PSoC4/capsense_Sensing.c ****         /******************************
 568:.\Generated_Source\PSoC4/capsense_Sensing.c ****         * This is the place where the Scan2x 
 569:.\Generated_Source\PSoC4/capsense_Sensing.c ****         * setup should be implemented.
 570:.\Generated_Source\PSoC4/capsense_Sensing.c ****         * Scan2x will be implemented
 571:.\Generated_Source\PSoC4/capsense_Sensing.c ****         * in the next component version.
 572:.\Generated_Source\PSoC4/capsense_Sensing.c ****         *********************************/
 573:.\Generated_Source\PSoC4/capsense_Sensing.c ****     #endif /* (capsense_DISABLE == capsense_CSD2X_EN) */
 574:.\Generated_Source\PSoC4/capsense_Sensing.c **** 
 575:.\Generated_Source\PSoC4/capsense_Sensing.c ****     return (scanStatus);
 576:.\Generated_Source\PSoC4/capsense_Sensing.c **** }
 230              		.loc 1 576 0
 231              		@ sp needed
 232 0046 08BD     		pop	{r3, pc}
 233              	.L24:
 234              		.align	2
 235              	.L23:
 236 0048 00000000 		.word	capsense_dsRam
 237 004c 00000000 		.word	.LANCHOR0
 238              		.cfi_endproc
 239              	.LFE4:
 240              		.size	capsense_ScanAllWidgets, .-capsense_ScanAllWidgets
 241              		.section	.text.capsense_SsInitialize,"ax",%progbits
 242              		.align	2
 243              		.global	capsense_SsInitialize
 244              		.code	16
 245              		.thumb_func
 246              		.type	capsense_SsInitialize, %function
 247              	capsense_SsInitialize:
 248              	.LFB5:
 577:.\Generated_Source\PSoC4/capsense_Sensing.c **** 
 578:.\Generated_Source\PSoC4/capsense_Sensing.c **** 
 579:.\Generated_Source\PSoC4/capsense_Sensing.c **** /*******************************************************************************
 580:.\Generated_Source\PSoC4/capsense_Sensing.c **** * Function Name: capsense_SsInitialize
 581:.\Generated_Source\PSoC4/capsense_Sensing.c **** ****************************************************************************//**
 582:.\Generated_Source\PSoC4/capsense_Sensing.c **** *
 583:.\Generated_Source\PSoC4/capsense_Sensing.c **** * \brief
 584:.\Generated_Source\PSoC4/capsense_Sensing.c **** *   Performs hardware and firmware initialization required for proper operation
 585:.\Generated_Source\PSoC4/capsense_Sensing.c **** *   of the capsense component. This function is called from 
 586:.\Generated_Source\PSoC4/capsense_Sensing.c **** *   the CapSense_Start() API prior to calling any other APIs of the component.
 587:.\Generated_Source\PSoC4/capsense_Sensing.c **** *
 588:.\Generated_Source\PSoC4/capsense_Sensing.c **** * \details
 589:.\Generated_Source\PSoC4/capsense_Sensing.c **** *   Performs hardware and firmware initialization required for proper operation
 590:.\Generated_Source\PSoC4/capsense_Sensing.c **** *   of the capsense component. This function is called from 
 591:.\Generated_Source\PSoC4/capsense_Sensing.c **** *   the CapSense_Start() API prior to calling any other APIs of the component.
 592:.\Generated_Source\PSoC4/capsense_Sensing.c **** *   1. The function initialises immunity offsets when the frequency hopping is 
 593:.\Generated_Source\PSoC4/capsense_Sensing.c **** *      enabled.
 594:.\Generated_Source\PSoC4/capsense_Sensing.c **** *   2. Depending on the configuration, the function initialises the CSD block 
 595:.\Generated_Source\PSoC4/capsense_Sensing.c **** *      for the CSD2X, CSD, CSX, or CSD+CSX modes.
 596:.\Generated_Source\PSoC4/capsense_Sensing.c **** *   3. The function updates the dsRam.wdgtWorking variable with 1 when Self Test
 597:.\Generated_Source\PSoC4/capsense_Sensing.c **** *      is enabled.
ARM GAS  C:\Users\Alan\AppData\Local\Temp\ccBkjVf3.s 			page 16


 598:.\Generated_Source\PSoC4/capsense_Sensing.c **** *
 599:.\Generated_Source\PSoC4/capsense_Sensing.c **** *   Calling the capsense_Start API is the recommended method to initialize
 600:.\Generated_Source\PSoC4/capsense_Sensing.c **** *   the capsense component at power-up. The capsense_SsInitialize() 
 601:.\Generated_Source\PSoC4/capsense_Sensing.c **** *   API should not be used for initialization, resume, or wake-up operations.
 602:.\Generated_Source\PSoC4/capsense_Sensing.c **** *   The dsRam.wdgtWorking variable is updated.
 603:.\Generated_Source\PSoC4/capsense_Sensing.c **** *
 604:.\Generated_Source\PSoC4/capsense_Sensing.c **** * \return status
 605:.\Generated_Source\PSoC4/capsense_Sensing.c **** *   Returns status of operation:
 606:.\Generated_Source\PSoC4/capsense_Sensing.c **** *   - Zero        - Indicates successful initialization.
 607:.\Generated_Source\PSoC4/capsense_Sensing.c **** *   - Non-zero    - One or more errors occurred in the initialization process.
 608:.\Generated_Source\PSoC4/capsense_Sensing.c **** *
 609:.\Generated_Source\PSoC4/capsense_Sensing.c **** *******************************************************************************/
 610:.\Generated_Source\PSoC4/capsense_Sensing.c **** cystatus capsense_SsInitialize(void)
 611:.\Generated_Source\PSoC4/capsense_Sensing.c **** {
 249              		.loc 1 611 0
 250              		.cfi_startproc
 251 0000 08B5     		push	{r3, lr}
 252              		.cfi_def_cfa_offset 8
 253              		.cfi_offset 3, -8
 254              		.cfi_offset 14, -4
 255              	.LVL15:
 612:.\Generated_Source\PSoC4/capsense_Sensing.c ****     cystatus initStatus = CYRET_SUCCESS;
 613:.\Generated_Source\PSoC4/capsense_Sensing.c **** 
 614:.\Generated_Source\PSoC4/capsense_Sensing.c ****     #if (capsense_ENABLE == capsense_MULTI_FREQ_SCAN_EN)
 615:.\Generated_Source\PSoC4/capsense_Sensing.c ****         capsense_immunity[capsense_FREQ_CHANNEL_0] = (uint8)CY_GET_REG32(CY_SYS_CLK_IMO_TRIM1_PTR);
 616:.\Generated_Source\PSoC4/capsense_Sensing.c ****         if (capsense_COARSE_TRIM_THRESHOLD_1 > capsense_immunity[capsense_FREQ_CHANNEL_0])
 617:.\Generated_Source\PSoC4/capsense_Sensing.c ****         {
 618:.\Generated_Source\PSoC4/capsense_Sensing.c ****             capsense_immunity[capsense_FREQ_CHANNEL_1] = 
 619:.\Generated_Source\PSoC4/capsense_Sensing.c ****             capsense_immunity[capsense_FREQ_CHANNEL_0] + capsense_FREQUENCY_OFFSET_5;
 620:.\Generated_Source\PSoC4/capsense_Sensing.c ****             capsense_immunity[capsense_FREQ_CHANNEL_2] = 
 621:.\Generated_Source\PSoC4/capsense_Sensing.c ****             capsense_immunity[capsense_FREQ_CHANNEL_0] + capsense_FREQUENCY_OFFSET_10;
 622:.\Generated_Source\PSoC4/capsense_Sensing.c ****         }
 623:.\Generated_Source\PSoC4/capsense_Sensing.c ****         else if (capsense_COARSE_TRIM_THRESHOLD_2 > capsense_immunity[capsense_FREQ_CHANNEL_0])
 624:.\Generated_Source\PSoC4/capsense_Sensing.c ****         {
 625:.\Generated_Source\PSoC4/capsense_Sensing.c ****             capsense_immunity[capsense_FREQ_CHANNEL_1] = 
 626:.\Generated_Source\PSoC4/capsense_Sensing.c ****             capsense_immunity[capsense_FREQ_CHANNEL_0] - capsense_FREQUENCY_OFFSET_5;
 627:.\Generated_Source\PSoC4/capsense_Sensing.c ****             capsense_immunity[capsense_FREQ_CHANNEL_2] = 
 628:.\Generated_Source\PSoC4/capsense_Sensing.c ****             capsense_immunity[capsense_FREQ_CHANNEL_0] + capsense_FREQUENCY_OFFSET_5;
 629:.\Generated_Source\PSoC4/capsense_Sensing.c ****         }
 630:.\Generated_Source\PSoC4/capsense_Sensing.c ****         else
 631:.\Generated_Source\PSoC4/capsense_Sensing.c ****         {
 632:.\Generated_Source\PSoC4/capsense_Sensing.c ****             capsense_immunity[capsense_FREQ_CHANNEL_1] = 
 633:.\Generated_Source\PSoC4/capsense_Sensing.c ****             capsense_immunity[capsense_FREQ_CHANNEL_0] - capsense_FREQUENCY_OFFSET_5;
 634:.\Generated_Source\PSoC4/capsense_Sensing.c ****             capsense_immunity[capsense_FREQ_CHANNEL_2] = 
 635:.\Generated_Source\PSoC4/capsense_Sensing.c ****             capsense_immunity[capsense_FREQ_CHANNEL_0] - capsense_FREQUENCY_OFFSET_10;
 636:.\Generated_Source\PSoC4/capsense_Sensing.c ****         }
 637:.\Generated_Source\PSoC4/capsense_Sensing.c ****     #endif /* (capsense_ENABLE == capsense_MULTI_FREQ_SCAN_EN) */
 638:.\Generated_Source\PSoC4/capsense_Sensing.c **** 
 639:.\Generated_Source\PSoC4/capsense_Sensing.c ****     /*  
 640:.\Generated_Source\PSoC4/capsense_Sensing.c ****      *  Check if CSD2X is enabled, if yes, initialize capsense component
 641:.\Generated_Source\PSoC4/capsense_Sensing.c ****      *  for CSD2x operation 
 642:.\Generated_Source\PSoC4/capsense_Sensing.c ****      */
 643:.\Generated_Source\PSoC4/capsense_Sensing.c ****     #if (capsense_ENABLE == capsense_CSD2X_EN)
 644:.\Generated_Source\PSoC4/capsense_Sensing.c ****         /*  
 645:.\Generated_Source\PSoC4/capsense_Sensing.c ****          *  Check if CSX or CSD enable along with CSD2X, if yes, provide the error
 646:.\Generated_Source\PSoC4/capsense_Sensing.c ****          *  message as CSD2X can not coexist with CSD or CSX    
 647:.\Generated_Source\PSoC4/capsense_Sensing.c ****          */
ARM GAS  C:\Users\Alan\AppData\Local\Temp\ccBkjVf3.s 			page 17


 648:.\Generated_Source\PSoC4/capsense_Sensing.c ****         #if (capsense_ENABLE == capsense_CSX_EN)
 649:.\Generated_Source\PSoC4/capsense_Sensing.c ****             #error "CSD2X and CSX can not be enabled together"
 650:.\Generated_Source\PSoC4/capsense_Sensing.c ****             initStatus = CYRET_UNKNOWN;
 651:.\Generated_Source\PSoC4/capsense_Sensing.c ****         #elif (capsense_ENABLE == capsense_CSD_EN)
 652:.\Generated_Source\PSoC4/capsense_Sensing.c ****             #error "CSD2X and CSD can not be enabled together"
 653:.\Generated_Source\PSoC4/capsense_Sensing.c ****             initStatus = CYRET_UNKNOWN;
 654:.\Generated_Source\PSoC4/capsense_Sensing.c ****         #endif /* (capsense_CSX_EN == capsense_ENABLE) */
 655:.\Generated_Source\PSoC4/capsense_Sensing.c **** 
 656:.\Generated_Source\PSoC4/capsense_Sensing.c ****         /* Initialize both CSD blocks for CSD2X scanning    */
 657:.\Generated_Source\PSoC4/capsense_Sensing.c ****         capsense_CSD2XInitialize();
 658:.\Generated_Source\PSoC4/capsense_Sensing.c **** 
 659:.\Generated_Source\PSoC4/capsense_Sensing.c ****     #elif (capsense_ENABLE == capsense_CSD_CSX_EN)
 660:.\Generated_Source\PSoC4/capsense_Sensing.c ****         /* 
 661:.\Generated_Source\PSoC4/capsense_Sensing.c ****          * Do nothing, CSD hardware shall be initialized in the Setup Widget based
 662:.\Generated_Source\PSoC4/capsense_Sensing.c ****          * on widget sensing method    
 663:.\Generated_Source\PSoC4/capsense_Sensing.c ****          */         
 664:.\Generated_Source\PSoC4/capsense_Sensing.c ****         capsense_currentSenseMethod = capsense_UNDEFINED_E;    
 665:.\Generated_Source\PSoC4/capsense_Sensing.c **** 
 666:.\Generated_Source\PSoC4/capsense_Sensing.c ****     #elif (capsense_ENABLE == capsense_CSD_EN)
 667:.\Generated_Source\PSoC4/capsense_Sensing.c ****         /*  Initialize CSD block for CSD scanning   */
 668:.\Generated_Source\PSoC4/capsense_Sensing.c ****         capsense_CSDInitialize();
 256              		.loc 1 668 0
 257 0002 FFF7FEFF 		bl	capsense_CSDInitialize
 258              	.LVL16:
 669:.\Generated_Source\PSoC4/capsense_Sensing.c **** 
 670:.\Generated_Source\PSoC4/capsense_Sensing.c ****     #elif (capsense_ENABLE == capsense_CSX_EN)
 671:.\Generated_Source\PSoC4/capsense_Sensing.c ****         /*  Initialize CSD block for CSX scanning   */
 672:.\Generated_Source\PSoC4/capsense_Sensing.c ****         capsense_CSXInitialize();
 673:.\Generated_Source\PSoC4/capsense_Sensing.c ****         
 674:.\Generated_Source\PSoC4/capsense_Sensing.c ****     #else
 675:.\Generated_Source\PSoC4/capsense_Sensing.c ****         #error "No sensing method enabled, component cannot work in this mode"
 676:.\Generated_Source\PSoC4/capsense_Sensing.c ****         initStatus = CYRET_UNKNOWN;
 677:.\Generated_Source\PSoC4/capsense_Sensing.c ****     #endif  /* (capsense_ENABLE == capsense_CSD2X_EN) */
 678:.\Generated_Source\PSoC4/capsense_Sensing.c **** 
 679:.\Generated_Source\PSoC4/capsense_Sensing.c ****     return (initStatus);
 680:.\Generated_Source\PSoC4/capsense_Sensing.c **** }
 259              		.loc 1 680 0
 260 0006 0020     		mov	r0, #0
 261              		@ sp needed
 262 0008 08BD     		pop	{r3, pc}
 263              		.cfi_endproc
 264              	.LFE5:
 265              		.size	capsense_SsInitialize, .-capsense_SsInitialize
 266              		.section	.text.capsense_SetPinState,"ax",%progbits
 267              		.align	2
 268              		.global	capsense_SetPinState
 269              		.code	16
 270              		.thumb_func
 271              		.type	capsense_SetPinState, %function
 272              	capsense_SetPinState:
 273              	.LFB6:
 681:.\Generated_Source\PSoC4/capsense_Sensing.c **** 
 682:.\Generated_Source\PSoC4/capsense_Sensing.c **** 
 683:.\Generated_Source\PSoC4/capsense_Sensing.c **** /*******************************************************************************
 684:.\Generated_Source\PSoC4/capsense_Sensing.c **** * Function Name: capsense_SetPinState
 685:.\Generated_Source\PSoC4/capsense_Sensing.c **** ****************************************************************************//**
 686:.\Generated_Source\PSoC4/capsense_Sensing.c **** *
ARM GAS  C:\Users\Alan\AppData\Local\Temp\ccBkjVf3.s 			page 18


 687:.\Generated_Source\PSoC4/capsense_Sensing.c **** * \brief
 688:.\Generated_Source\PSoC4/capsense_Sensing.c **** *   Sets the status (drive mode and output state) of a sensor to six states
 689:.\Generated_Source\PSoC4/capsense_Sensing.c **** *   relevant (GND, Shield,  HIgh-Z, Tx or Rx, sensor) to the capsense operation.
 690:.\Generated_Source\PSoC4/capsense_Sensing.c **** *   If the sensor is configured as a ganged sensor, then the API applies to the  
 691:.\Generated_Source\PSoC4/capsense_Sensing.c **** *   dedicated pin and all ganged electrodes.
 692:.\Generated_Source\PSoC4/capsense_Sensing.c **** *
 693:.\Generated_Source\PSoC4/capsense_Sensing.c **** * \details
 694:.\Generated_Source\PSoC4/capsense_Sensing.c **** *   This API disconnects port pins from AMUXBUS and sets the drive mode of a port pin
 695:.\Generated_Source\PSoC4/capsense_Sensing.c **** *   (Rx, Tx or Sns electrode) based on an input parameter. The mode of the pin
 696:.\Generated_Source\PSoC4/capsense_Sensing.c **** *   is set to HIgh-Z in the GPIO_PRT_PCx register.
 697:.\Generated_Source\PSoC4/capsense_Sensing.c **** *
 698:.\Generated_Source\PSoC4/capsense_Sensing.c **** *   Scanning should be completed before calling this API. 
 699:.\Generated_Source\PSoC4/capsense_Sensing.c **** *   capsense_SHIELD is not allowed if Enable shield electrode parameter
 700:.\Generated_Source\PSoC4/capsense_Sensing.c **** *   is disabled.
 701:.\Generated_Source\PSoC4/capsense_Sensing.c **** *   capsense_TX_PIN and capsense_RX_PIN are not allowed if there 
 702:.\Generated_Source\PSoC4/capsense_Sensing.c **** *    are no other CSX widgets configured in the project.
 703:.\Generated_Source\PSoC4/capsense_Sensing.c **** *
 704:.\Generated_Source\PSoC4/capsense_Sensing.c **** *  \param wdgtIndex Specifies the ID of the widget.
 705:.\Generated_Source\PSoC4/capsense_Sensing.c **** *   
 706:.\Generated_Source\PSoC4/capsense_Sensing.c **** *  \param snsIndex Specifies the ID of the snsIndex.
 707:.\Generated_Source\PSoC4/capsense_Sensing.c **** *   
 708:.\Generated_Source\PSoC4/capsense_Sensing.c **** *  \param state Specifies the state to be set for a specified pin:
 709:.\Generated_Source\PSoC4/capsense_Sensing.c **** *          -   (0) capsense_GROUND
 710:.\Generated_Source\PSoC4/capsense_Sensing.c **** *          -   (1) capsense_HIGHZ
 711:.\Generated_Source\PSoC4/capsense_Sensing.c **** *          -   (2) capsense_SHIELD
 712:.\Generated_Source\PSoC4/capsense_Sensing.c **** *          -   (3) capsense_SENSOR
 713:.\Generated_Source\PSoC4/capsense_Sensing.c **** *          -   (4) capsense_TX_PIN
 714:.\Generated_Source\PSoC4/capsense_Sensing.c **** *          -   (5) capsense_RX_PIN
 715:.\Generated_Source\PSoC4/capsense_Sensing.c **** *
 716:.\Generated_Source\PSoC4/capsense_Sensing.c **** *******************************************************************************/
 717:.\Generated_Source\PSoC4/capsense_Sensing.c **** void capsense_SetPinState(uint32 wdgtIndex, uint32 snsIndex, uint32 state)
 718:.\Generated_Source\PSoC4/capsense_Sensing.c **** {
 274              		.loc 1 718 0
 275              		.cfi_startproc
 276              	.LVL17:
 277 0000 70B5     		push	{r4, r5, r6, lr}
 278              		.cfi_def_cfa_offset 16
 279              		.cfi_offset 4, -16
 280              		.cfi_offset 5, -12
 281              		.cfi_offset 6, -8
 282              		.cfi_offset 14, -4
 719:.\Generated_Source\PSoC4/capsense_Sensing.c ****     capsense_FLASH_IO_STRUCT const *curSnsIOPtr;
 720:.\Generated_Source\PSoC4/capsense_Sensing.c ****     #if (capsense_ENABLE == capsense_CSD_GANGED_SNS_EN)
 721:.\Generated_Source\PSoC4/capsense_Sensing.c ****         capsense_FLASH_SNS_STRUCT const *curFlashSnsPtr;
 722:.\Generated_Source\PSoC4/capsense_Sensing.c ****         uint32 tempVal;
 723:.\Generated_Source\PSoC4/capsense_Sensing.c ****     #endif /* (capsense_ENABLE == capsense_CSD_GANGED_SNS_EN) */
 724:.\Generated_Source\PSoC4/capsense_Sensing.c ****     uint32 newRegisterValue;
 725:.\Generated_Source\PSoC4/capsense_Sensing.c ****     uint8  interruptState;
 726:.\Generated_Source\PSoC4/capsense_Sensing.c ****     uint32 pinHSIOMShift;
 727:.\Generated_Source\PSoC4/capsense_Sensing.c ****     uint32 pinModeShift;
 728:.\Generated_Source\PSoC4/capsense_Sensing.c ****     
 729:.\Generated_Source\PSoC4/capsense_Sensing.c ****     #if (capsense_ENABLE == capsense_CSD_GANGED_SNS_EN)
 730:.\Generated_Source\PSoC4/capsense_Sensing.c ****         /* Check ganged sns flag  */
 731:.\Generated_Source\PSoC4/capsense_Sensing.c ****         if (capsense_GANGED_SNS_MASK == (capsense_dsFlash.wdgtArray[wdgtIndex].staticConfig & 
 732:.\Generated_Source\PSoC4/capsense_Sensing.c ****             capsense_GANGED_SNS_MASK))
 733:.\Generated_Source\PSoC4/capsense_Sensing.c ****         {             
 734:.\Generated_Source\PSoC4/capsense_Sensing.c ****             curFlashSnsPtr = capsense_dsFlash.wdgtArray[wdgtIndex].ptr2SnsFlash;
ARM GAS  C:\Users\Alan\AppData\Local\Temp\ccBkjVf3.s 			page 19


 735:.\Generated_Source\PSoC4/capsense_Sensing.c ****             curFlashSnsPtr += snsIndex;
 736:.\Generated_Source\PSoC4/capsense_Sensing.c ****             curSnsIOPtr = &capsense_ioList[curFlashSnsPtr->firstPinId];
 737:.\Generated_Source\PSoC4/capsense_Sensing.c ****             
 738:.\Generated_Source\PSoC4/capsense_Sensing.c ****             /* Get number of ganged pins  */
 739:.\Generated_Source\PSoC4/capsense_Sensing.c ****             tempVal = curFlashSnsPtr->numPins;
 740:.\Generated_Source\PSoC4/capsense_Sensing.c ****         }
 741:.\Generated_Source\PSoC4/capsense_Sensing.c ****         else
 742:.\Generated_Source\PSoC4/capsense_Sensing.c ****         {
 743:.\Generated_Source\PSoC4/capsense_Sensing.c ****             curSnsIOPtr = (capsense_FLASH_IO_STRUCT const *)
 744:.\Generated_Source\PSoC4/capsense_Sensing.c ****                                     capsense_dsFlash.wdgtArray[wdgtIndex].ptr2SnsFlash + snsIndex;
 745:.\Generated_Source\PSoC4/capsense_Sensing.c ****             /* There are no ganged pins */
 746:.\Generated_Source\PSoC4/capsense_Sensing.c ****             tempVal = 1u;                                
 747:.\Generated_Source\PSoC4/capsense_Sensing.c ****         }
 748:.\Generated_Source\PSoC4/capsense_Sensing.c ****     #else
 749:.\Generated_Source\PSoC4/capsense_Sensing.c ****         curSnsIOPtr = (capsense_FLASH_IO_STRUCT const *)
 750:.\Generated_Source\PSoC4/capsense_Sensing.c ****                                     capsense_dsFlash.wdgtArray[wdgtIndex].ptr2SnsFlash + snsIndex;
 283              		.loc 1 750 0
 284 0002 8300     		lsl	r3, r0, #2
 285 0004 1818     		add	r0, r3, r0
 286              	.LVL18:
 287 0006 C000     		lsl	r0, r0, #3
 288 0008 204B     		ldr	r3, .L31
 289 000a C458     		ldr	r4, [r0, r3]
 290 000c CB00     		lsl	r3, r1, #3
 291 000e 591A     		sub	r1, r3, r1
 292              	.LVL19:
 293 0010 8900     		lsl	r1, r1, #2
 749:.\Generated_Source\PSoC4/capsense_Sensing.c ****                                     capsense_dsFlash.wdgtArray[wdgtIndex].ptr2SnsFlash + snsIndex;
 294              		.loc 1 749 0
 295 0012 6418     		add	r4, r4, r1
 296              	.LVL20:
 751:.\Generated_Source\PSoC4/capsense_Sensing.c ****     #endif  /* (capsense_ENABLE == capsense_CSD_GANGED_SNS_EN) */
 752:.\Generated_Source\PSoC4/capsense_Sensing.c ****     
 753:.\Generated_Source\PSoC4/capsense_Sensing.c ****     #if (capsense_ENABLE == capsense_CSD_GANGED_SNS_EN)
 754:.\Generated_Source\PSoC4/capsense_Sensing.c ****         /* Reconfigure all ganged sensors  */
 755:.\Generated_Source\PSoC4/capsense_Sensing.c ****         do
 756:.\Generated_Source\PSoC4/capsense_Sensing.c ****         {
 757:.\Generated_Source\PSoC4/capsense_Sensing.c ****     #endif  /* (capsense_ENABLE == capsense_CSD_GANGED_SNS_EN) */
 758:.\Generated_Source\PSoC4/capsense_Sensing.c **** 
 759:.\Generated_Source\PSoC4/capsense_Sensing.c ****             /* Get HSIOM and port mode shifts */
 760:.\Generated_Source\PSoC4/capsense_Sensing.c ****             pinHSIOMShift = (uint32)curSnsIOPtr->hsiomShift;
 297              		.loc 1 760 0
 298 0014 267E     		ldrb	r6, [r4, #24]
 299              	.LVL21:
 761:.\Generated_Source\PSoC4/capsense_Sensing.c ****             pinModeShift = (uint32)curSnsIOPtr->shift;
 300              		.loc 1 761 0
 301 0016 A57E     		ldrb	r5, [r4, #26]
 302              	.LVL22:
 762:.\Generated_Source\PSoC4/capsense_Sensing.c ****             
 763:.\Generated_Source\PSoC4/capsense_Sensing.c ****             /* Reset HSIOM register */
 764:.\Generated_Source\PSoC4/capsense_Sensing.c ****             CY_SET_REG32(curSnsIOPtr->hsiomPtr, CY_GET_REG32(curSnsIOPtr->hsiomPtr) & ~(capsense_HS
 303              		.loc 1 764 0
 304 0018 2068     		ldr	r0, [r4]
 305 001a 0368     		ldr	r3, [r0]
 306 001c 0F21     		mov	r1, #15
 307 001e B140     		lsl	r1, r1, r6
 308 0020 8B43     		bic	r3, r1
ARM GAS  C:\Users\Alan\AppData\Local\Temp\ccBkjVf3.s 			page 20


 309 0022 0360     		str	r3, [r0]
 765:.\Generated_Source\PSoC4/capsense_Sensing.c ****            
 766:.\Generated_Source\PSoC4/capsense_Sensing.c ****             switch (state)
 310              		.loc 1 766 0
 311 0024 012A     		cmp	r2, #1
 312 0026 1AD0     		beq	.L28
 313 0028 002A     		cmp	r2, #0
 314 002a 02D0     		beq	.L29
 315 002c 032A     		cmp	r2, #3
 316 002e 28D0     		beq	.L30
 317 0030 2AE0     		b	.L26
 318              	.L29:
 767:.\Generated_Source\PSoC4/capsense_Sensing.c ****             {  
 768:.\Generated_Source\PSoC4/capsense_Sensing.c ****             case capsense_GROUND:
 769:.\Generated_Source\PSoC4/capsense_Sensing.c ****                 interruptState = CyEnterCriticalSection();
 319              		.loc 1 769 0
 320 0032 FFF7FEFF 		bl	CyEnterCriticalSection
 321              	.LVL23:
 770:.\Generated_Source\PSoC4/capsense_Sensing.c **** 
 771:.\Generated_Source\PSoC4/capsense_Sensing.c ****                 /* Update port configuration register (drive mode) for sensor */
 772:.\Generated_Source\PSoC4/capsense_Sensing.c ****                 newRegisterValue = CY_GET_REG32(curSnsIOPtr->pcPtr);
 322              		.loc 1 772 0
 323 0036 6168     		ldr	r1, [r4, #4]
 324 0038 0B68     		ldr	r3, [r1]
 325              	.LVL24:
 773:.\Generated_Source\PSoC4/capsense_Sensing.c ****                 newRegisterValue &= ~(capsense_GPIO_PC_MASK << pinModeShift);
 326              		.loc 1 773 0
 327 003a 0722     		mov	r2, #7
 328 003c AA40     		lsl	r2, r2, r5
 329 003e 9343     		bic	r3, r2
 330              	.LVL25:
 774:.\Generated_Source\PSoC4/capsense_Sensing.c ****                 newRegisterValue |= (capsense_SNS_GROUND_CONNECT << pinModeShift);
 331              		.loc 1 774 0
 332 0040 0622     		mov	r2, #6
 333 0042 AA40     		lsl	r2, r2, r5
 334 0044 151C     		mov	r5, r2
 335              	.LVL26:
 336 0046 1D43     		orr	r5, r3
 337              	.LVL27:
 775:.\Generated_Source\PSoC4/capsense_Sensing.c ****                 CY_SET_REG32(curSnsIOPtr->pcPtr, newRegisterValue);
 338              		.loc 1 775 0
 339 0048 0D60     		str	r5, [r1]
 776:.\Generated_Source\PSoC4/capsense_Sensing.c **** 
 777:.\Generated_Source\PSoC4/capsense_Sensing.c ****                 CyExitCriticalSection(interruptState);
 340              		.loc 1 777 0
 341 004a FFF7FEFF 		bl	CyExitCriticalSection
 342              	.LVL28:
 778:.\Generated_Source\PSoC4/capsense_Sensing.c **** 
 779:.\Generated_Source\PSoC4/capsense_Sensing.c ****                 /* Set logic 0 to port data register */
 780:.\Generated_Source\PSoC4/capsense_Sensing.c ****                 CY_SET_REG32(curSnsIOPtr->drPtr, CY_GET_REG32(curSnsIOPtr->drPtr) & (uint32)~(uint3
 343              		.loc 1 780 0
 344 004e A168     		ldr	r1, [r4, #8]
 345 0050 0B68     		ldr	r3, [r1]
 346 0052 607E     		ldrb	r0, [r4, #25]
 347 0054 0122     		mov	r2, #1
 348 0056 8240     		lsl	r2, r2, r0
 349 0058 9343     		bic	r3, r2
ARM GAS  C:\Users\Alan\AppData\Local\Temp\ccBkjVf3.s 			page 21


 350 005a 0B60     		str	r3, [r1]
 781:.\Generated_Source\PSoC4/capsense_Sensing.c ****                 break;
 351              		.loc 1 781 0
 352 005c 14E0     		b	.L26
 353              	.LVL29:
 354              	.L28:
 782:.\Generated_Source\PSoC4/capsense_Sensing.c ****                 
 783:.\Generated_Source\PSoC4/capsense_Sensing.c ****             case capsense_HIGHZ:
 784:.\Generated_Source\PSoC4/capsense_Sensing.c ****                 interruptState = CyEnterCriticalSection();
 355              		.loc 1 784 0
 356 005e FFF7FEFF 		bl	CyEnterCriticalSection
 357              	.LVL30:
 785:.\Generated_Source\PSoC4/capsense_Sensing.c **** 
 786:.\Generated_Source\PSoC4/capsense_Sensing.c ****                 /* Update port configuration register (drive mode) for sensor */
 787:.\Generated_Source\PSoC4/capsense_Sensing.c ****                 newRegisterValue = CY_GET_REG32(curSnsIOPtr->pcPtr);
 358              		.loc 1 787 0
 359 0062 6168     		ldr	r1, [r4, #4]
 360 0064 0B68     		ldr	r3, [r1]
 361              	.LVL31:
 788:.\Generated_Source\PSoC4/capsense_Sensing.c ****                 newRegisterValue &= ~(capsense_GPIO_PC_MASK << pinModeShift);
 362              		.loc 1 788 0
 363 0066 0722     		mov	r2, #7
 364 0068 AA40     		lsl	r2, r2, r5
 365 006a 9343     		bic	r3, r2
 366              	.LVL32:
 789:.\Generated_Source\PSoC4/capsense_Sensing.c ****                 CY_SET_REG32(curSnsIOPtr->pcPtr, newRegisterValue);
 367              		.loc 1 789 0
 368 006c 0B60     		str	r3, [r1]
 790:.\Generated_Source\PSoC4/capsense_Sensing.c **** 
 791:.\Generated_Source\PSoC4/capsense_Sensing.c ****                 CyExitCriticalSection(interruptState);
 369              		.loc 1 791 0
 370 006e FFF7FEFF 		bl	CyExitCriticalSection
 371              	.LVL33:
 792:.\Generated_Source\PSoC4/capsense_Sensing.c **** 
 793:.\Generated_Source\PSoC4/capsense_Sensing.c ****                 /* Set logic 0 to port data register */
 794:.\Generated_Source\PSoC4/capsense_Sensing.c ****                 CY_SET_REG32(curSnsIOPtr->drPtr, CY_GET_REG32(curSnsIOPtr->drPtr) & (uint32)~(uint3
 372              		.loc 1 794 0
 373 0072 A168     		ldr	r1, [r4, #8]
 374 0074 0B68     		ldr	r3, [r1]
 375 0076 607E     		ldrb	r0, [r4, #25]
 376 0078 0122     		mov	r2, #1
 377 007a 8240     		lsl	r2, r2, r0
 378 007c 9343     		bic	r3, r2
 379 007e 0B60     		str	r3, [r1]
 795:.\Generated_Source\PSoC4/capsense_Sensing.c ****                 break;
 380              		.loc 1 795 0
 381 0080 02E0     		b	.L26
 382              	.LVL34:
 383              	.L30:
 796:.\Generated_Source\PSoC4/capsense_Sensing.c **** 
 797:.\Generated_Source\PSoC4/capsense_Sensing.c ****             #if (capsense_ENABLE == capsense_CSD_SHIELD_EN)
 798:.\Generated_Source\PSoC4/capsense_Sensing.c ****                 case capsense_SHIELD:
 799:.\Generated_Source\PSoC4/capsense_Sensing.c ****                     /* Set drive mode to Analog */
 800:.\Generated_Source\PSoC4/capsense_Sensing.c ****                     CY_SET_REG32(curSnsIOPtr->pcPtr, CY_GET_REG32(curSnsIOPtr->pcPtr) &
 801:.\Generated_Source\PSoC4/capsense_Sensing.c ****                                ~(capsense_GPIO_PC_MASK <<(curSnsIOPtr->shift)));
 802:.\Generated_Source\PSoC4/capsense_Sensing.c **** 
 803:.\Generated_Source\PSoC4/capsense_Sensing.c ****                     /* Set appropriate bit in HSIOM register to configure pin to shield mode */
ARM GAS  C:\Users\Alan\AppData\Local\Temp\ccBkjVf3.s 			page 22


 804:.\Generated_Source\PSoC4/capsense_Sensing.c ****                     CY_SET_REG32(curSnsIOPtr->hsiomPtr, CY_GET_REG32(curSnsIOPtr->hsiomPtr) | 
 805:.\Generated_Source\PSoC4/capsense_Sensing.c ****                                                        (capsense_HSIOM_SEL_CSD_SHIELD << pinHSIOMSh
 806:.\Generated_Source\PSoC4/capsense_Sensing.c ****                     break;
 807:.\Generated_Source\PSoC4/capsense_Sensing.c ****             #endif  /* (capsense_ENABLE == capsense_CSD_SHIELD_EN) */
 808:.\Generated_Source\PSoC4/capsense_Sensing.c ****             
 809:.\Generated_Source\PSoC4/capsense_Sensing.c ****             #if ((capsense_ENABLE == capsense_CSD_EN) || \
 810:.\Generated_Source\PSoC4/capsense_Sensing.c ****                  (capsense_ENABLE == capsense_CSD_CSX_EN))
 811:.\Generated_Source\PSoC4/capsense_Sensing.c ****                 case capsense_SENSOR:
 812:.\Generated_Source\PSoC4/capsense_Sensing.c ****                     /* Enable sensor */
 813:.\Generated_Source\PSoC4/capsense_Sensing.c ****                     capsense_CSDConnectSns(curSnsIOPtr);
 384              		.loc 1 813 0
 385 0082 201C     		mov	r0, r4
 386 0084 FFF7FEFF 		bl	capsense_CSDConnectSns
 387              	.LVL35:
 388              	.L26:
 814:.\Generated_Source\PSoC4/capsense_Sensing.c ****                     break;
 815:.\Generated_Source\PSoC4/capsense_Sensing.c ****             #endif  /* ((capsense_ENABLE == capsense_CSD_EN) || \
 816:.\Generated_Source\PSoC4/capsense_Sensing.c ****                         (capsense_ENABLE == capsense_CSD_CSX_EN)) */
 817:.\Generated_Source\PSoC4/capsense_Sensing.c ****              
 818:.\Generated_Source\PSoC4/capsense_Sensing.c ****             #if ((capsense_ENABLE == capsense_CSX_EN) || \
 819:.\Generated_Source\PSoC4/capsense_Sensing.c ****                  (capsense_ENABLE == capsense_CSD_CSX_EN))
 820:.\Generated_Source\PSoC4/capsense_Sensing.c ****                 case capsense_TX_PIN:
 821:.\Generated_Source\PSoC4/capsense_Sensing.c ****                     CY_SET_REG32(curSnsIOPtr->hsiomPtr, CY_GET_REG32(curSnsIOPtr->hsiomPtr) | (caps
 822:.\Generated_Source\PSoC4/capsense_Sensing.c ****                     break;
 823:.\Generated_Source\PSoC4/capsense_Sensing.c ****                     
 824:.\Generated_Source\PSoC4/capsense_Sensing.c ****                 case capsense_RX_PIN:
 825:.\Generated_Source\PSoC4/capsense_Sensing.c ****                     CY_SET_REG32(curSnsIOPtr->hsiomPtr, CY_GET_REG32(curSnsIOPtr->hsiomPtr) | (caps
 826:.\Generated_Source\PSoC4/capsense_Sensing.c ****                     CY_SET_REG32(curSnsIOPtr->pcPtr, CY_GET_REG32(curSnsIOPtr->pcPtr) & ~(capsense_
 827:.\Generated_Source\PSoC4/capsense_Sensing.c ****                     break;
 828:.\Generated_Source\PSoC4/capsense_Sensing.c ****             #endif  /* ((capsense_ENABLE == capsense_CSX_EN) || \
 829:.\Generated_Source\PSoC4/capsense_Sensing.c ****                         (capsense_ENABLE == capsense_CSD_CSX_EN)) */
 830:.\Generated_Source\PSoC4/capsense_Sensing.c ****              
 831:.\Generated_Source\PSoC4/capsense_Sensing.c ****             default:
 832:.\Generated_Source\PSoC4/capsense_Sensing.c ****                 /* Wrong input */
 833:.\Generated_Source\PSoC4/capsense_Sensing.c ****                 break;
 834:.\Generated_Source\PSoC4/capsense_Sensing.c ****             }
 835:.\Generated_Source\PSoC4/capsense_Sensing.c **** 
 836:.\Generated_Source\PSoC4/capsense_Sensing.c ****     #if (capsense_ENABLE == capsense_CSD_GANGED_SNS_EN)
 837:.\Generated_Source\PSoC4/capsense_Sensing.c ****             curSnsIOPtr++;
 838:.\Generated_Source\PSoC4/capsense_Sensing.c ****             tempVal--;
 839:.\Generated_Source\PSoC4/capsense_Sensing.c ****         } while (0u != tempVal);
 840:.\Generated_Source\PSoC4/capsense_Sensing.c ****     #endif  /* (capsense_ENABLE == capsense_CSD_GANGED_SNS_EN) */
 841:.\Generated_Source\PSoC4/capsense_Sensing.c **** }
 389              		.loc 1 841 0
 390              		@ sp needed
 391              	.LVL36:
 392              	.LVL37:
 393 0088 70BD     		pop	{r4, r5, r6, pc}
 394              	.L32:
 395 008a C046     		.align	2
 396              	.L31:
 397 008c 00000000 		.word	capsense_dsFlash
 398              		.cfi_endproc
 399              	.LFE6:
 400              		.size	capsense_SetPinState, .-capsense_SetPinState
 401              		.section	.text.capsense_PostAllWidgetsScan,"ax",%progbits
 402              		.align	2
ARM GAS  C:\Users\Alan\AppData\Local\Temp\ccBkjVf3.s 			page 23


 403              		.global	capsense_PostAllWidgetsScan
 404              		.code	16
 405              		.thumb_func
 406              		.type	capsense_PostAllWidgetsScan, %function
 407              	capsense_PostAllWidgetsScan:
 408              	.LFB7:
 842:.\Generated_Source\PSoC4/capsense_Sensing.c **** 
 843:.\Generated_Source\PSoC4/capsense_Sensing.c **** 
 844:.\Generated_Source\PSoC4/capsense_Sensing.c **** #if (capsense_ENABLE == capsense_CSD_CSX_EN)
 845:.\Generated_Source\PSoC4/capsense_Sensing.c **** /*******************************************************************************
 846:.\Generated_Source\PSoC4/capsense_Sensing.c **** * Function Name: capsense_SwitchSensingMode
 847:.\Generated_Source\PSoC4/capsense_Sensing.c **** ****************************************************************************//**
 848:.\Generated_Source\PSoC4/capsense_Sensing.c **** *
 849:.\Generated_Source\PSoC4/capsense_Sensing.c **** * \brief
 850:.\Generated_Source\PSoC4/capsense_Sensing.c **** *  This function changes the mode for case when both CSD and CSX widgets are
 851:.\Generated_Source\PSoC4/capsense_Sensing.c **** *  scanned.
 852:.\Generated_Source\PSoC4/capsense_Sensing.c **** *
 853:.\Generated_Source\PSoC4/capsense_Sensing.c **** * \details
 854:.\Generated_Source\PSoC4/capsense_Sensing.c **** *  To switch to the CSD mode the following tasks are performed:
 855:.\Generated_Source\PSoC4/capsense_Sensing.c **** *  1. Disconnect CintA and CintB from AMUXBUS-A
 856:.\Generated_Source\PSoC4/capsense_Sensing.c **** *  2. Disconnect previous CSD electrode if it has been connected
 857:.\Generated_Source\PSoC4/capsense_Sensing.c **** *  3. Initialize CSD mode.
 858:.\Generated_Source\PSoC4/capsense_Sensing.c **** *
 859:.\Generated_Source\PSoC4/capsense_Sensing.c **** *  To switch to the CSX mode the following tasks are performed:
 860:.\Generated_Source\PSoC4/capsense_Sensing.c **** *  1. Disconnect Cmod from AMUXBUS-A
 861:.\Generated_Source\PSoC4/capsense_Sensing.c **** *  2. Disconnect previous CSX electrode if it has been connected
 862:.\Generated_Source\PSoC4/capsense_Sensing.c **** *  3. Initialize CSX mode.
 863:.\Generated_Source\PSoC4/capsense_Sensing.c **** *
 864:.\Generated_Source\PSoC4/capsense_Sensing.c **** * \param mode Specifies the scan mode:
 865:.\Generated_Source\PSoC4/capsense_Sensing.c **** *           -  (1) capsense_SENSE_METHOD_CSD_E
 866:.\Generated_Source\PSoC4/capsense_Sensing.c **** *           -  (2) capsense_SENSE_METHOD_CSX_E
 867:.\Generated_Source\PSoC4/capsense_Sensing.c **** *
 868:.\Generated_Source\PSoC4/capsense_Sensing.c **** *******************************************************************************/
 869:.\Generated_Source\PSoC4/capsense_Sensing.c **** void capsense_SwitchSensingMode(capsense_SENSE_METHOD_ENUM mode)
 870:.\Generated_Source\PSoC4/capsense_Sensing.c **** {
 871:.\Generated_Source\PSoC4/capsense_Sensing.c ****     uint32 newRegValue;
 872:.\Generated_Source\PSoC4/capsense_Sensing.c ****         
 873:.\Generated_Source\PSoC4/capsense_Sensing.c ****     if (capsense_SENSE_METHOD_CSD_E == mode) 
 874:.\Generated_Source\PSoC4/capsense_Sensing.c ****     {
 875:.\Generated_Source\PSoC4/capsense_Sensing.c ****         /*  Disconnect CintA from AMUXBUS-A using HSIOM registers.   */
 876:.\Generated_Source\PSoC4/capsense_Sensing.c ****         newRegValue = CY_GET_REG32(capsense_CintA_HSIOM_PTR);
 877:.\Generated_Source\PSoC4/capsense_Sensing.c ****         newRegValue &= (uint32)(~(uint32)capsense_CintA_HSIOM_MASK);
 878:.\Generated_Source\PSoC4/capsense_Sensing.c ****         CY_SET_REG32(capsense_CintA_HSIOM_PTR, newRegValue);
 879:.\Generated_Source\PSoC4/capsense_Sensing.c ****         
 880:.\Generated_Source\PSoC4/capsense_Sensing.c ****         /*  Disconnect CintB from AMUXBUS-A using HSIOM registers.   */
 881:.\Generated_Source\PSoC4/capsense_Sensing.c ****         newRegValue = CY_GET_REG32(capsense_CintB_HSIOM_PTR);
 882:.\Generated_Source\PSoC4/capsense_Sensing.c ****         newRegValue &= (uint32)(~(uint32)capsense_CintB_HSIOM_MASK);
 883:.\Generated_Source\PSoC4/capsense_Sensing.c ****         CY_SET_REG32(capsense_CintB_HSIOM_PTR, newRegValue);
 884:.\Generated_Source\PSoC4/capsense_Sensing.c **** 
 885:.\Generated_Source\PSoC4/capsense_Sensing.c ****         /* Disconnect previous CSX electrode if it has been connected */
 886:.\Generated_Source\PSoC4/capsense_Sensing.c ****         capsense_CSXElectrodeCheck();
 887:.\Generated_Source\PSoC4/capsense_Sensing.c ****         
 888:.\Generated_Source\PSoC4/capsense_Sensing.c ****         /* Initialize CSD mode to guarantee configured CSD mode after CSX calibration */
 889:.\Generated_Source\PSoC4/capsense_Sensing.c ****         capsense_CSDInitialize();
 890:.\Generated_Source\PSoC4/capsense_Sensing.c ****         capsense_currentSenseMethod = capsense_SENSE_METHOD_CSD_E;
 891:.\Generated_Source\PSoC4/capsense_Sensing.c ****     }
 892:.\Generated_Source\PSoC4/capsense_Sensing.c ****     else if (capsense_SENSE_METHOD_CSX_E == mode) 
ARM GAS  C:\Users\Alan\AppData\Local\Temp\ccBkjVf3.s 			page 24


 893:.\Generated_Source\PSoC4/capsense_Sensing.c ****     {
 894:.\Generated_Source\PSoC4/capsense_Sensing.c ****         /* Disconnect Cmod from AMUXBUS-A using HSIOM registers */ 
 895:.\Generated_Source\PSoC4/capsense_Sensing.c ****         newRegValue = CY_GET_REG32(capsense_CMOD_HSIOM_PTR); 
 896:.\Generated_Source\PSoC4/capsense_Sensing.c ****         newRegValue &= (uint32)(~(uint32)capsense_CMOD_HSIOM_MASK);
 897:.\Generated_Source\PSoC4/capsense_Sensing.c ****         CY_SET_REG32(capsense_CMOD_HSIOM_PTR, newRegValue);
 898:.\Generated_Source\PSoC4/capsense_Sensing.c **** 
 899:.\Generated_Source\PSoC4/capsense_Sensing.c ****         /* Disconnect previous CSD electrode if it has been connected */
 900:.\Generated_Source\PSoC4/capsense_Sensing.c ****         capsense_CSDElectrodeCheck();
 901:.\Generated_Source\PSoC4/capsense_Sensing.c **** 
 902:.\Generated_Source\PSoC4/capsense_Sensing.c ****         /* Disconnect Csh from AMUXBUS-B */
 903:.\Generated_Source\PSoC4/capsense_Sensing.c ****         #if ((capsense_ENABLE == capsense_CSD_SHIELD_EN) && \
 904:.\Generated_Source\PSoC4/capsense_Sensing.c ****              (capsense_ENABLE == capsense_CSD_SHIELD_TANK_EN))
 905:.\Generated_Source\PSoC4/capsense_Sensing.c ****             newRegValue = CY_GET_REG32(capsense_CSH_HSIOM_PTR);
 906:.\Generated_Source\PSoC4/capsense_Sensing.c ****             newRegValue &= (uint32)(~(uint32)(capsense_CSH_TO_AMUXBUS_B_MASK << capsense_CSH_HSIOM_
 907:.\Generated_Source\PSoC4/capsense_Sensing.c ****             CY_SET_REG32(capsense_CSH_HSIOM_PTR, newRegValue);
 908:.\Generated_Source\PSoC4/capsense_Sensing.c ****         #endif /* ((capsense_ENABLE == capsense_CSD_SHIELD_EN) && \
 909:.\Generated_Source\PSoC4/capsense_Sensing.c ****                    (capsense_ENABLE == capsense_CSD_SHIELD_TANK_EN)) */
 910:.\Generated_Source\PSoC4/capsense_Sensing.c ****         
 911:.\Generated_Source\PSoC4/capsense_Sensing.c ****         #if ((capsense_ENABLE == capsense_CSD_SHIELD_EN) && \
 912:.\Generated_Source\PSoC4/capsense_Sensing.c ****              (0u != capsense_CSD_TOTAL_SHIELD_COUNT))
 913:.\Generated_Source\PSoC4/capsense_Sensing.c ****             capsense_DisableShieldElectrodes();
 914:.\Generated_Source\PSoC4/capsense_Sensing.c ****         #endif /* ((capsense_ENABLE == capsense_CSD_SHIELD_EN) && \
 915:.\Generated_Source\PSoC4/capsense_Sensing.c ****                    (0u != capsense_CSD_TOTAL_SHIELD_COUNT)) */
 916:.\Generated_Source\PSoC4/capsense_Sensing.c ****         
 917:.\Generated_Source\PSoC4/capsense_Sensing.c ****         /* Initialize CSD hardware block for CSX measurement */
 918:.\Generated_Source\PSoC4/capsense_Sensing.c ****         capsense_CSXInitialize();
 919:.\Generated_Source\PSoC4/capsense_Sensing.c ****         capsense_currentSenseMethod = capsense_SENSE_METHOD_CSX_E;
 920:.\Generated_Source\PSoC4/capsense_Sensing.c ****     }
 921:.\Generated_Source\PSoC4/capsense_Sensing.c ****     else
 922:.\Generated_Source\PSoC4/capsense_Sensing.c ****     {
 923:.\Generated_Source\PSoC4/capsense_Sensing.c ****         capsense_currentSenseMethod = capsense_UNDEFINED_E;  
 924:.\Generated_Source\PSoC4/capsense_Sensing.c ****     }
 925:.\Generated_Source\PSoC4/capsense_Sensing.c **** }
 926:.\Generated_Source\PSoC4/capsense_Sensing.c **** #endif  /* (capsense_ENABLE == capsense_CSD_CSX_EN)) */
 927:.\Generated_Source\PSoC4/capsense_Sensing.c **** 
 928:.\Generated_Source\PSoC4/capsense_Sensing.c **** 
 929:.\Generated_Source\PSoC4/capsense_Sensing.c **** #if (capsense_ENABLE == capsense_ADC_EN)
 930:.\Generated_Source\PSoC4/capsense_Sensing.c **** /*******************************************************************************
 931:.\Generated_Source\PSoC4/capsense_Sensing.c **** * Function Name: capsense_SsReleaseResources()
 932:.\Generated_Source\PSoC4/capsense_Sensing.c **** ****************************************************************************//**
 933:.\Generated_Source\PSoC4/capsense_Sensing.c **** *
 934:.\Generated_Source\PSoC4/capsense_Sensing.c **** * \brief
 935:.\Generated_Source\PSoC4/capsense_Sensing.c **** *  This function sets the resources that do not belong to the CSDv2 HW block to 
 936:.\Generated_Source\PSoC4/capsense_Sensing.c **** *  default state.
 937:.\Generated_Source\PSoC4/capsense_Sensing.c **** *
 938:.\Generated_Source\PSoC4/capsense_Sensing.c **** * \details
 939:.\Generated_Source\PSoC4/capsense_Sensing.c **** *  The function performs following tasks:
 940:.\Generated_Source\PSoC4/capsense_Sensing.c **** *  1. Checks if CSD block busy and returns error if it is busy
 941:.\Generated_Source\PSoC4/capsense_Sensing.c **** *  2. Disconnects integration capacitors (CintA, CintB for CSX mode and 
 942:.\Generated_Source\PSoC4/capsense_Sensing.c **** *     Cmod for CSD mode)
 943:.\Generated_Source\PSoC4/capsense_Sensing.c **** *  3. Disconnect electroded if they have been connected.
 944:.\Generated_Source\PSoC4/capsense_Sensing.c **** *
 945:.\Generated_Source\PSoC4/capsense_Sensing.c **** * \return 
 946:.\Generated_Source\PSoC4/capsense_Sensing.c **** *   Returns the status of operation:
 947:.\Generated_Source\PSoC4/capsense_Sensing.c **** *   - Zero        - Resources released successfully.
 948:.\Generated_Source\PSoC4/capsense_Sensing.c **** *   - Non-zero    - One or more errors occurred in releasing process.
 949:.\Generated_Source\PSoC4/capsense_Sensing.c **** *
ARM GAS  C:\Users\Alan\AppData\Local\Temp\ccBkjVf3.s 			page 25


 950:.\Generated_Source\PSoC4/capsense_Sensing.c **** *******************************************************************************/
 951:.\Generated_Source\PSoC4/capsense_Sensing.c **** cystatus capsense_SsReleaseResources(void)
 952:.\Generated_Source\PSoC4/capsense_Sensing.c **** {
 953:.\Generated_Source\PSoC4/capsense_Sensing.c ****     cystatus busyStatus = CYRET_SUCCESS;
 954:.\Generated_Source\PSoC4/capsense_Sensing.c ****     uint32 newRegValue;
 955:.\Generated_Source\PSoC4/capsense_Sensing.c **** 
 956:.\Generated_Source\PSoC4/capsense_Sensing.c ****     if (capsense_SW_STS_BUSY == (capsense_dsRam.status & capsense_SW_STS_BUSY))
 957:.\Generated_Source\PSoC4/capsense_Sensing.c ****     {
 958:.\Generated_Source\PSoC4/capsense_Sensing.c ****         /* Previous widget is being scanned. Return error. */
 959:.\Generated_Source\PSoC4/capsense_Sensing.c ****         busyStatus = CYRET_INVALID_STATE;
 960:.\Generated_Source\PSoC4/capsense_Sensing.c ****     }
 961:.\Generated_Source\PSoC4/capsense_Sensing.c ****     else
 962:.\Generated_Source\PSoC4/capsense_Sensing.c ****     {
 963:.\Generated_Source\PSoC4/capsense_Sensing.c ****     #if (capsense_ENABLE == capsense_CSX_EN)
 964:.\Generated_Source\PSoC4/capsense_Sensing.c ****         /*  Disconnect CintA from AMUXBUS-A using HSIOM registers.   */
 965:.\Generated_Source\PSoC4/capsense_Sensing.c ****         newRegValue = CY_GET_REG32(capsense_CintA_HSIOM_PTR);
 966:.\Generated_Source\PSoC4/capsense_Sensing.c ****         newRegValue &= (uint32)(~(uint32)capsense_CintA_HSIOM_MASK);
 967:.\Generated_Source\PSoC4/capsense_Sensing.c ****         CY_SET_REG32(capsense_CintA_HSIOM_PTR, newRegValue);
 968:.\Generated_Source\PSoC4/capsense_Sensing.c ****         
 969:.\Generated_Source\PSoC4/capsense_Sensing.c ****         /*  Disconnect CintB from AMUXBUS-A using HSIOM registers.   */
 970:.\Generated_Source\PSoC4/capsense_Sensing.c ****         newRegValue = CY_GET_REG32(capsense_CintB_HSIOM_PTR);
 971:.\Generated_Source\PSoC4/capsense_Sensing.c ****         newRegValue &= (uint32)(~(uint32)capsense_CintB_HSIOM_MASK);
 972:.\Generated_Source\PSoC4/capsense_Sensing.c ****         CY_SET_REG32(capsense_CintB_HSIOM_PTR, newRegValue);
 973:.\Generated_Source\PSoC4/capsense_Sensing.c **** 
 974:.\Generated_Source\PSoC4/capsense_Sensing.c ****         /* Disconnect previous CSX electrode if it has been connected */
 975:.\Generated_Source\PSoC4/capsense_Sensing.c ****         capsense_CSXElectrodeCheck();
 976:.\Generated_Source\PSoC4/capsense_Sensing.c ****     #endif /* (capsense_ENABLE == capsense_CSX_EN) */
 977:.\Generated_Source\PSoC4/capsense_Sensing.c ****     
 978:.\Generated_Source\PSoC4/capsense_Sensing.c ****     #if (capsense_ENABLE == capsense_CSD_EN)
 979:.\Generated_Source\PSoC4/capsense_Sensing.c ****         /* Disconnect Cmod from AMUXBUS-A using HSIOM registers */ 
 980:.\Generated_Source\PSoC4/capsense_Sensing.c ****         newRegValue = CY_GET_REG32(capsense_CMOD_HSIOM_PTR); 
 981:.\Generated_Source\PSoC4/capsense_Sensing.c ****         newRegValue &= (uint32)(~(uint32)capsense_CMOD_HSIOM_MASK);
 982:.\Generated_Source\PSoC4/capsense_Sensing.c ****         CY_SET_REG32(capsense_CMOD_HSIOM_PTR, newRegValue);
 983:.\Generated_Source\PSoC4/capsense_Sensing.c **** 
 984:.\Generated_Source\PSoC4/capsense_Sensing.c ****         /* Disconnect previous CSD electrode if it has been connected */
 985:.\Generated_Source\PSoC4/capsense_Sensing.c ****         capsense_CSDElectrodeCheck();
 986:.\Generated_Source\PSoC4/capsense_Sensing.c ****         
 987:.\Generated_Source\PSoC4/capsense_Sensing.c ****         /* Disconnect Csh from AMUXBUS-B */
 988:.\Generated_Source\PSoC4/capsense_Sensing.c ****         #if ((capsense_ENABLE == capsense_CSD_SHIELD_EN) && \
 989:.\Generated_Source\PSoC4/capsense_Sensing.c ****              (capsense_ENABLE == capsense_CSD_SHIELD_TANK_EN))
 990:.\Generated_Source\PSoC4/capsense_Sensing.c ****             newRegValue = CY_GET_REG32(capsense_CSH_HSIOM_PTR);
 991:.\Generated_Source\PSoC4/capsense_Sensing.c ****             newRegValue &= (uint32)(~(uint32)(capsense_CSH_TO_AMUXBUS_B_MASK << capsense_CSH_HSIOM_
 992:.\Generated_Source\PSoC4/capsense_Sensing.c ****             CY_SET_REG32(capsense_CSH_HSIOM_PTR, newRegValue);
 993:.\Generated_Source\PSoC4/capsense_Sensing.c ****         #endif /* ((capsense_ENABLE == capsense_CSD_SHIELD_EN) && \
 994:.\Generated_Source\PSoC4/capsense_Sensing.c ****                    (capsense_ENABLE == capsense_CSD_SHIELD_TANK_EN)) */
 995:.\Generated_Source\PSoC4/capsense_Sensing.c ****         
 996:.\Generated_Source\PSoC4/capsense_Sensing.c ****         #if ((capsense_ENABLE == capsense_CSD_SHIELD_EN) && \
 997:.\Generated_Source\PSoC4/capsense_Sensing.c ****              (0u != capsense_CSD_TOTAL_SHIELD_COUNT))
 998:.\Generated_Source\PSoC4/capsense_Sensing.c ****             capsense_DisableShieldElectrodes();
 999:.\Generated_Source\PSoC4/capsense_Sensing.c ****         #endif /* ((capsense_ENABLE == capsense_CSD_SHIELD_EN) && \
1000:.\Generated_Source\PSoC4/capsense_Sensing.c ****                    (0u != capsense_CSD_TOTAL_SHIELD_COUNT)) */
1001:.\Generated_Source\PSoC4/capsense_Sensing.c ****     #endif /* (capsense_ENABLE == capsense_CSD_EN) */
1002:.\Generated_Source\PSoC4/capsense_Sensing.c **** 
1003:.\Generated_Source\PSoC4/capsense_Sensing.c ****         /* 
1004:.\Generated_Source\PSoC4/capsense_Sensing.c ****          * Reset of the currentSenseMethod variable to make sure that the next
1005:.\Generated_Source\PSoC4/capsense_Sensing.c ****          * call of SetupWidget() API setups the correct widget mode
1006:.\Generated_Source\PSoC4/capsense_Sensing.c ****          */
ARM GAS  C:\Users\Alan\AppData\Local\Temp\ccBkjVf3.s 			page 26


1007:.\Generated_Source\PSoC4/capsense_Sensing.c ****         capsense_currentSenseMethod = capsense_UNDEFINED_E;
1008:.\Generated_Source\PSoC4/capsense_Sensing.c ****     }
1009:.\Generated_Source\PSoC4/capsense_Sensing.c **** 
1010:.\Generated_Source\PSoC4/capsense_Sensing.c ****     return busyStatus;
1011:.\Generated_Source\PSoC4/capsense_Sensing.c **** }
1012:.\Generated_Source\PSoC4/capsense_Sensing.c **** #endif /* (capsense_ENABLE == capsense_ADC_EN) */
1013:.\Generated_Source\PSoC4/capsense_Sensing.c **** 
1014:.\Generated_Source\PSoC4/capsense_Sensing.c **** 
1015:.\Generated_Source\PSoC4/capsense_Sensing.c **** /*******************************************************************************
1016:.\Generated_Source\PSoC4/capsense_Sensing.c **** * Function Name: capsense_PostAllWidgetsScan
1017:.\Generated_Source\PSoC4/capsense_Sensing.c **** ****************************************************************************//**
1018:.\Generated_Source\PSoC4/capsense_Sensing.c **** *
1019:.\Generated_Source\PSoC4/capsense_Sensing.c **** * \brief
1020:.\Generated_Source\PSoC4/capsense_Sensing.c **** *   The ISR function for multiple widget scanning implementation.
1021:.\Generated_Source\PSoC4/capsense_Sensing.c **** *
1022:.\Generated_Source\PSoC4/capsense_Sensing.c **** * \details
1023:.\Generated_Source\PSoC4/capsense_Sensing.c **** *   This is the function used by the capsense ISR to implement multiple widget
1024:.\Generated_Source\PSoC4/capsense_Sensing.c **** *   scanning.
1025:.\Generated_Source\PSoC4/capsense_Sensing.c **** *   Should not be used by the application layer.
1026:.\Generated_Source\PSoC4/capsense_Sensing.c **** *
1027:.\Generated_Source\PSoC4/capsense_Sensing.c **** *******************************************************************************/
1028:.\Generated_Source\PSoC4/capsense_Sensing.c **** void capsense_PostAllWidgetsScan(void)
1029:.\Generated_Source\PSoC4/capsense_Sensing.c **** {
 409              		.loc 1 1029 0
 410              		.cfi_startproc
1030:.\Generated_Source\PSoC4/capsense_Sensing.c ****     #if (capsense_DISABLE == capsense_CSD2X_EN)
1031:.\Generated_Source\PSoC4/capsense_Sensing.c ****         /*  
1032:.\Generated_Source\PSoC4/capsense_Sensing.c ****         *   1. Increment widget index
1033:.\Generated_Source\PSoC4/capsense_Sensing.c ****         *   2. Check if all widgets are scanned
1034:.\Generated_Source\PSoC4/capsense_Sensing.c ****         *   3. If all widgets are not scanned, set up and scan next widget  
1035:.\Generated_Source\PSoC4/capsense_Sensing.c ****         */
1036:.\Generated_Source\PSoC4/capsense_Sensing.c ****         #if (1u != capsense_TOTAL_WIDGETS)  
1037:.\Generated_Source\PSoC4/capsense_Sensing.c ****             cystatus postScanStatus;
1038:.\Generated_Source\PSoC4/capsense_Sensing.c ****         
1039:.\Generated_Source\PSoC4/capsense_Sensing.c ****             do
1040:.\Generated_Source\PSoC4/capsense_Sensing.c ****             {
1041:.\Generated_Source\PSoC4/capsense_Sensing.c ****                 capsense_widgetIndex++;
1042:.\Generated_Source\PSoC4/capsense_Sensing.c **** 
1043:.\Generated_Source\PSoC4/capsense_Sensing.c ****                 postScanStatus = capsense_SetupWidget((uint32)capsense_widgetIndex);
1044:.\Generated_Source\PSoC4/capsense_Sensing.c **** 
1045:.\Generated_Source\PSoC4/capsense_Sensing.c ****                 if (CYRET_SUCCESS == postScanStatus)
1046:.\Generated_Source\PSoC4/capsense_Sensing.c ****                 {
1047:.\Generated_Source\PSoC4/capsense_Sensing.c ****                     if((capsense_TOTAL_WIDGETS - 1u) == capsense_widgetIndex)
1048:.\Generated_Source\PSoC4/capsense_Sensing.c ****                     {
1049:.\Generated_Source\PSoC4/capsense_Sensing.c ****                         /* The last widget will be scanned. Reset flag to skip configuring the next
1050:.\Generated_Source\PSoC4/capsense_Sensing.c ****                         capsense_requestScanAllWidget = capsense_DISABLE;
1051:.\Generated_Source\PSoC4/capsense_Sensing.c ****                     }
1052:.\Generated_Source\PSoC4/capsense_Sensing.c ****                     (void)capsense_Scan();
1053:.\Generated_Source\PSoC4/capsense_Sensing.c ****                 }
1054:.\Generated_Source\PSoC4/capsense_Sensing.c ****                 else if((capsense_TOTAL_WIDGETS - 1u) == capsense_widgetIndex)
1055:.\Generated_Source\PSoC4/capsense_Sensing.c ****                 {
1056:.\Generated_Source\PSoC4/capsense_Sensing.c ****                     #if ((capsense_ENABLE == capsense_BLOCK_OFF_AFTER_SCAN_EN) && \
1057:.\Generated_Source\PSoC4/capsense_Sensing.c ****                          (capsense_ENABLE == capsense_CSD_EN))
1058:.\Generated_Source\PSoC4/capsense_Sensing.c ****                         if (capsense_SENSE_METHOD_CSD_E ==
1059:.\Generated_Source\PSoC4/capsense_Sensing.c ****                              (capsense_SENSE_METHOD_ENUM)capsense_GET_SENSE_METHOD(&capsense_dsFlas
1060:.\Generated_Source\PSoC4/capsense_Sensing.c ****                         {
1061:.\Generated_Source\PSoC4/capsense_Sensing.c ****                             /*  Disable the CSD block */
ARM GAS  C:\Users\Alan\AppData\Local\Temp\ccBkjVf3.s 			page 27


1062:.\Generated_Source\PSoC4/capsense_Sensing.c ****                             CY_SET_REG32(capsense_CONFIG_PTR, capsense_configCsd);
1063:.\Generated_Source\PSoC4/capsense_Sensing.c ****                         }
1064:.\Generated_Source\PSoC4/capsense_Sensing.c ****                     #endif /* ((capsense_ENABLE == capsense_BLOCK_OFF_AFTER_SCAN_EN) && \
1065:.\Generated_Source\PSoC4/capsense_Sensing.c ****                                (capsense_ENABLE == capsense_CSD_EN)) */
1066:.\Generated_Source\PSoC4/capsense_Sensing.c ****                     
1067:.\Generated_Source\PSoC4/capsense_Sensing.c ****                     /* All widgets are totally processed. Reset BUSY flag */
1068:.\Generated_Source\PSoC4/capsense_Sensing.c ****                     capsense_dsRam.status &= ~capsense_SW_STS_BUSY;
1069:.\Generated_Source\PSoC4/capsense_Sensing.c ****                     
1070:.\Generated_Source\PSoC4/capsense_Sensing.c ****                     /* Update status with with the failure */
1071:.\Generated_Source\PSoC4/capsense_Sensing.c ****                     capsense_dsRam.status &= ~capsense_STATUS_ERR_MASK;                
1072:.\Generated_Source\PSoC4/capsense_Sensing.c ****                     capsense_dsRam.status |= ((postScanStatus & capsense_STATUS_ERR_SIZE) << capsen
1073:.\Generated_Source\PSoC4/capsense_Sensing.c ****                     
1074:.\Generated_Source\PSoC4/capsense_Sensing.c ****                     /* Set postScanStatus to exit the while loop */
1075:.\Generated_Source\PSoC4/capsense_Sensing.c ****                     postScanStatus = CYRET_SUCCESS;
1076:.\Generated_Source\PSoC4/capsense_Sensing.c ****                 }
1077:.\Generated_Source\PSoC4/capsense_Sensing.c ****                 else
1078:.\Generated_Source\PSoC4/capsense_Sensing.c ****                 {
1079:.\Generated_Source\PSoC4/capsense_Sensing.c ****                     /* Update status with with the failure. Configure the next widget in while() lo
1080:.\Generated_Source\PSoC4/capsense_Sensing.c ****                     capsense_dsRam.status &= ~capsense_STATUS_ERR_MASK;                
1081:.\Generated_Source\PSoC4/capsense_Sensing.c ****                     capsense_dsRam.status |= ((postScanStatus & capsense_STATUS_ERR_SIZE) << capsen
1082:.\Generated_Source\PSoC4/capsense_Sensing.c ****                 }
1083:.\Generated_Source\PSoC4/capsense_Sensing.c ****             } while (CYRET_SUCCESS != postScanStatus);
1084:.\Generated_Source\PSoC4/capsense_Sensing.c ****         #endif /* (1u != capsense_TOTAL_WIDGETS) */
1085:.\Generated_Source\PSoC4/capsense_Sensing.c ****     #else
1086:.\Generated_Source\PSoC4/capsense_Sensing.c ****         /******************************
1087:.\Generated_Source\PSoC4/capsense_Sensing.c ****         * This is the place where the CSD2X 
1088:.\Generated_Source\PSoC4/capsense_Sensing.c ****         * postscan for 2 widgets should be implemented.
1089:.\Generated_Source\PSoC4/capsense_Sensing.c ****         * The CSD2X postscan will be implemented
1090:.\Generated_Source\PSoC4/capsense_Sensing.c ****         * in the next component version.
1091:.\Generated_Source\PSoC4/capsense_Sensing.c ****         *********************************/
1092:.\Generated_Source\PSoC4/capsense_Sensing.c ****     #endif /* (capsense_CSD2X_EN == capsense_DISABLE) */
1093:.\Generated_Source\PSoC4/capsense_Sensing.c **** }
 411              		.loc 1 1093 0
 412              		@ sp needed
 413 0000 7047     		bx	lr
 414              		.cfi_endproc
 415              	.LFE7:
 416              		.size	capsense_PostAllWidgetsScan, .-capsense_PostAllWidgetsScan
 417 0002 C046     		.section	.text.capsense_IsrInitialize,"ax",%progbits
 418              		.align	2
 419              		.global	capsense_IsrInitialize
 420              		.code	16
 421              		.thumb_func
 422              		.type	capsense_IsrInitialize, %function
 423              	capsense_IsrInitialize:
 424              	.LFB8:
1094:.\Generated_Source\PSoC4/capsense_Sensing.c **** 
1095:.\Generated_Source\PSoC4/capsense_Sensing.c **** 
1096:.\Generated_Source\PSoC4/capsense_Sensing.c **** /*******************************************************************************
1097:.\Generated_Source\PSoC4/capsense_Sensing.c **** * Function Name: capsense_IsrInitialize
1098:.\Generated_Source\PSoC4/capsense_Sensing.c **** ****************************************************************************//**
1099:.\Generated_Source\PSoC4/capsense_Sensing.c **** *
1100:.\Generated_Source\PSoC4/capsense_Sensing.c **** * \brief
1101:.\Generated_Source\PSoC4/capsense_Sensing.c **** *   Enables and initializes for the function pointer for a callback for the ISR.
1102:.\Generated_Source\PSoC4/capsense_Sensing.c **** *
1103:.\Generated_Source\PSoC4/capsense_Sensing.c **** * \details
1104:.\Generated_Source\PSoC4/capsense_Sensing.c **** *   The  "address" is a special type cyisraddress defined by Cylib. This function
ARM GAS  C:\Users\Alan\AppData\Local\Temp\ccBkjVf3.s 			page 28


1105:.\Generated_Source\PSoC4/capsense_Sensing.c **** *   is used by component APIs and should not be used by an application program for
1106:.\Generated_Source\PSoC4/capsense_Sensing.c **** *   proper working of the component.
1107:.\Generated_Source\PSoC4/capsense_Sensing.c **** *
1108:.\Generated_Source\PSoC4/capsense_Sensing.c **** * \param  address The address of the function to be called when interrupt is fired.
1109:.\Generated_Source\PSoC4/capsense_Sensing.c **** *
1110:.\Generated_Source\PSoC4/capsense_Sensing.c **** *******************************************************************************/
1111:.\Generated_Source\PSoC4/capsense_Sensing.c **** void capsense_IsrInitialize(cyisraddress address)
1112:.\Generated_Source\PSoC4/capsense_Sensing.c **** {
 425              		.loc 1 1112 0
 426              		.cfi_startproc
 427              	.LVL38:
 428 0000 08B5     		push	{r3, lr}
 429              		.cfi_def_cfa_offset 8
 430              		.cfi_offset 3, -8
 431              		.cfi_offset 14, -4
1113:.\Generated_Source\PSoC4/capsense_Sensing.c **** #if (capsense_ENABLE == capsense_CSD2X_EN)
1114:.\Generated_Source\PSoC4/capsense_Sensing.c ****     /******************************
1115:.\Generated_Source\PSoC4/capsense_Sensing.c ****     * This is the place where the CSD2X ISR 
1116:.\Generated_Source\PSoC4/capsense_Sensing.c ****     * Setup should be implemented.
1117:.\Generated_Source\PSoC4/capsense_Sensing.c ****     * The CSD2X ISR Setup will be implemented
1118:.\Generated_Source\PSoC4/capsense_Sensing.c ****     * in the next component version.
1119:.\Generated_Source\PSoC4/capsense_Sensing.c ****     *********************************/
1120:.\Generated_Source\PSoC4/capsense_Sensing.c **** #else
1121:.\Generated_Source\PSoC4/capsense_Sensing.c ****     capsense_ISR_StartEx(address);
 432              		.loc 1 1121 0
 433 0002 FFF7FEFF 		bl	capsense_ISR_StartEx
 434              	.LVL39:
1122:.\Generated_Source\PSoC4/capsense_Sensing.c **** #endif /* (capsense_ENABLE == capsense_CSD2X_EN) */
1123:.\Generated_Source\PSoC4/capsense_Sensing.c **** }
 435              		.loc 1 1123 0
 436              		@ sp needed
 437 0006 08BD     		pop	{r3, pc}
 438              		.cfi_endproc
 439              	.LFE8:
 440              		.size	capsense_IsrInitialize, .-capsense_IsrInitialize
 441              		.section	.text.capsense_ConfigureModClkClock,"ax",%progbits
 442              		.align	2
 443              		.global	capsense_ConfigureModClkClock
 444              		.code	16
 445              		.thumb_func
 446              		.type	capsense_ConfigureModClkClock, %function
 447              	capsense_ConfigureModClkClock:
 448              	.LFB9:
1124:.\Generated_Source\PSoC4/capsense_Sensing.c **** 
1125:.\Generated_Source\PSoC4/capsense_Sensing.c **** 
1126:.\Generated_Source\PSoC4/capsense_Sensing.c **** /*******************************************************************************
1127:.\Generated_Source\PSoC4/capsense_Sensing.c **** * Function Name: capsense_ConfigureModClkClock
1128:.\Generated_Source\PSoC4/capsense_Sensing.c **** ****************************************************************************//**
1129:.\Generated_Source\PSoC4/capsense_Sensing.c **** *
1130:.\Generated_Source\PSoC4/capsense_Sensing.c **** * \brief
1131:.\Generated_Source\PSoC4/capsense_Sensing.c **** *   Sets the divider values for the modulator clock and then starts
1132:.\Generated_Source\PSoC4/capsense_Sensing.c **** *   the modulator clock.
1133:.\Generated_Source\PSoC4/capsense_Sensing.c **** *
1134:.\Generated_Source\PSoC4/capsense_Sensing.c **** * \details
1135:.\Generated_Source\PSoC4/capsense_Sensing.c **** *   It is not recommended to call this function directly by the application layer.
1136:.\Generated_Source\PSoC4/capsense_Sensing.c **** *   It is used by initialization, widget APIs or wakeup functions to
1137:.\Generated_Source\PSoC4/capsense_Sensing.c **** *   enable the clocks.
ARM GAS  C:\Users\Alan\AppData\Local\Temp\ccBkjVf3.s 			page 29


1138:.\Generated_Source\PSoC4/capsense_Sensing.c **** *
1139:.\Generated_Source\PSoC4/capsense_Sensing.c **** * \param
1140:.\Generated_Source\PSoC4/capsense_Sensing.c **** *   modClk The divider value for the modulator clock.
1141:.\Generated_Source\PSoC4/capsense_Sensing.c **** *
1142:.\Generated_Source\PSoC4/capsense_Sensing.c **** *******************************************************************************/
1143:.\Generated_Source\PSoC4/capsense_Sensing.c **** void capsense_ConfigureModClkClock(uint32 modClk)
1144:.\Generated_Source\PSoC4/capsense_Sensing.c **** {
 449              		.loc 1 1144 0
 450              		.cfi_startproc
 451              	.LVL40:
1145:.\Generated_Source\PSoC4/capsense_Sensing.c **** #if (capsense_ENABLE == capsense_IS_M0S8PERI_BLOCK)
1146:.\Generated_Source\PSoC4/capsense_Sensing.c ****     /*  Stop modulator clock   */
1147:.\Generated_Source\PSoC4/capsense_Sensing.c ****     CY_SET_REG32(capsense_MODCLK_CMD_PTR, 
 452              		.loc 1 1147 0
 453 0000 074A     		ldr	r2, .L37
 454 0002 084B     		ldr	r3, .L37+4
 455 0004 1A60     		str	r2, [r3]
1148:.\Generated_Source\PSoC4/capsense_Sensing.c ****                  ((uint32)capsense_ModClk__DIV_ID <<
1149:.\Generated_Source\PSoC4/capsense_Sensing.c ****                  capsense_MODCLK_CMD_DIV_SHIFT)|
1150:.\Generated_Source\PSoC4/capsense_Sensing.c ****                  ((uint32)capsense_MODCLK_CMD_DISABLE_MASK));
1151:.\Generated_Source\PSoC4/capsense_Sensing.c **** 
1152:.\Generated_Source\PSoC4/capsense_Sensing.c ****     /*  
1153:.\Generated_Source\PSoC4/capsense_Sensing.c ****      * Set divider value for sense modClk.
1154:.\Generated_Source\PSoC4/capsense_Sensing.c ****      * 1u is subtracted from modClk because Divider register value 0 corresponds
1155:.\Generated_Source\PSoC4/capsense_Sensing.c ****      * to dividing by 1.  
1156:.\Generated_Source\PSoC4/capsense_Sensing.c ****      */
1157:.\Generated_Source\PSoC4/capsense_Sensing.c ****     CY_SET_REG32(capsense_MODCLK_DIV_PTR, ((modClk - 1u) << 8u));  
 456              		.loc 1 1157 0
 457 0006 0138     		sub	r0, r0, #1
 458              	.LVL41:
 459 0008 0002     		lsl	r0, r0, #8
 460              	.LVL42:
 461 000a 074B     		ldr	r3, .L37+8
 462 000c 1860     		str	r0, [r3]
 463              	.L36:
1158:.\Generated_Source\PSoC4/capsense_Sensing.c **** 
1159:.\Generated_Source\PSoC4/capsense_Sensing.c ****     /*  Check whether previous modulator clock start command has finished. */
1160:.\Generated_Source\PSoC4/capsense_Sensing.c ****     while(0u != (CY_GET_REG32(capsense_MODCLK_CMD_PTR) & capsense_MODCLK_CMD_ENABLE_MASK))
 464              		.loc 1 1160 0 discriminator 1
 465 000e 054B     		ldr	r3, .L37+4
 466 0010 1B68     		ldr	r3, [r3]
 467 0012 002B     		cmp	r3, #0
 468 0014 FBDB     		blt	.L36
1161:.\Generated_Source\PSoC4/capsense_Sensing.c ****     {
1162:.\Generated_Source\PSoC4/capsense_Sensing.c ****         /*  Wait until previous modulator clock start command has finished. */  
1163:.\Generated_Source\PSoC4/capsense_Sensing.c ****     }
1164:.\Generated_Source\PSoC4/capsense_Sensing.c ****     
1165:.\Generated_Source\PSoC4/capsense_Sensing.c ****     /*  Start modulator clock, aligned to HFCLK */
1166:.\Generated_Source\PSoC4/capsense_Sensing.c ****     CY_SET_REG32(capsense_MODCLK_CMD_PTR, 
 469              		.loc 1 1166 0
 470 0016 054A     		ldr	r2, .L37+12
 471 0018 024B     		ldr	r3, .L37+4
 472 001a 1A60     		str	r2, [r3]
1167:.\Generated_Source\PSoC4/capsense_Sensing.c ****                  (uint32)(((uint32)capsense_ModClk__DIV_ID << capsense_MODCLK_CMD_DIV_SHIFT) |
1168:.\Generated_Source\PSoC4/capsense_Sensing.c ****                   ((uint32)capsense_ModClk__PA_DIV_ID << capsense_MODCLK_CMD_PA_DIV_SHIFT) |
1169:.\Generated_Source\PSoC4/capsense_Sensing.c ****                   capsense_MODCLK_CMD_ENABLE_MASK));
1170:.\Generated_Source\PSoC4/capsense_Sensing.c **** #else
ARM GAS  C:\Users\Alan\AppData\Local\Temp\ccBkjVf3.s 			page 30


1171:.\Generated_Source\PSoC4/capsense_Sensing.c ****     uint32 newRegValue;
1172:.\Generated_Source\PSoC4/capsense_Sensing.c **** 
1173:.\Generated_Source\PSoC4/capsense_Sensing.c ****     /* Clear bit to disable ModClk clock. */
1174:.\Generated_Source\PSoC4/capsense_Sensing.c ****     CY_SET_REG32(capsense_MODCLK_CMD_PTR, 
1175:.\Generated_Source\PSoC4/capsense_Sensing.c ****                  CY_GET_REG32(capsense_MODCLK_CMD_PTR) & 
1176:.\Generated_Source\PSoC4/capsense_Sensing.c ****                  (uint32)(~capsense_ModClk__ENABLE_MASK));
1177:.\Generated_Source\PSoC4/capsense_Sensing.c ****         
1178:.\Generated_Source\PSoC4/capsense_Sensing.c ****     /* 
1179:.\Generated_Source\PSoC4/capsense_Sensing.c ****      * Update ModClk clock divider.
1180:.\Generated_Source\PSoC4/capsense_Sensing.c ****      * 1u is subtracted from modClk because Divider register value has range (0-65535).  
1181:.\Generated_Source\PSoC4/capsense_Sensing.c ****      */
1182:.\Generated_Source\PSoC4/capsense_Sensing.c ****     newRegValue = CY_GET_REG32(capsense_MODCLK_DIV_PTR) & (uint32)(~(uint32)capsense_ModClk__DIVIDE
1183:.\Generated_Source\PSoC4/capsense_Sensing.c ****     newRegValue |= (modClk - 1u);
1184:.\Generated_Source\PSoC4/capsense_Sensing.c ****     CY_SET_REG32(capsense_MODCLK_DIV_PTR, newRegValue);
1185:.\Generated_Source\PSoC4/capsense_Sensing.c ****     
1186:.\Generated_Source\PSoC4/capsense_Sensing.c ****     /* Set bit to enable ModClk clock. */
1187:.\Generated_Source\PSoC4/capsense_Sensing.c ****     CY_SET_REG32(capsense_MODCLK_CMD_PTR, 
1188:.\Generated_Source\PSoC4/capsense_Sensing.c ****                  CY_GET_REG32(capsense_MODCLK_CMD_PTR) | 
1189:.\Generated_Source\PSoC4/capsense_Sensing.c ****                 capsense_ModClk__ENABLE_MASK);
1190:.\Generated_Source\PSoC4/capsense_Sensing.c **** #endif /* (capsense_ENABLE == capsense_IS_M0S8PERI_BLOCK) */
1191:.\Generated_Source\PSoC4/capsense_Sensing.c **** }
 473              		.loc 1 1191 0
 474              		@ sp needed
 475 001c 7047     		bx	lr
 476              	.L38:
 477 001e C046     		.align	2
 478              	.L37:
 479 0020 40000040 		.word	1073741888
 480 0024 00000140 		.word	1073807360
 481 0028 00030140 		.word	1073808128
 482 002c 40FF0080 		.word	-2147418304
 483              		.cfi_endproc
 484              	.LFE9:
 485              		.size	capsense_ConfigureModClkClock, .-capsense_ConfigureModClkClock
 486              		.section	.text.capsense_ConfigureSnsClock,"ax",%progbits
 487              		.align	2
 488              		.global	capsense_ConfigureSnsClock
 489              		.code	16
 490              		.thumb_func
 491              		.type	capsense_ConfigureSnsClock, %function
 492              	capsense_ConfigureSnsClock:
 493              	.LFB10:
1192:.\Generated_Source\PSoC4/capsense_Sensing.c **** 
1193:.\Generated_Source\PSoC4/capsense_Sensing.c **** 
1194:.\Generated_Source\PSoC4/capsense_Sensing.c **** /*******************************************************************************
1195:.\Generated_Source\PSoC4/capsense_Sensing.c **** * Function Name: capsense_ConfigureSnsClock
1196:.\Generated_Source\PSoC4/capsense_Sensing.c **** ****************************************************************************//**
1197:.\Generated_Source\PSoC4/capsense_Sensing.c **** *
1198:.\Generated_Source\PSoC4/capsense_Sensing.c **** * \brief
1199:.\Generated_Source\PSoC4/capsense_Sensing.c **** *   Sets the divider values for the sense clock and then starts
1200:.\Generated_Source\PSoC4/capsense_Sensing.c **** *   the sense clock.
1201:.\Generated_Source\PSoC4/capsense_Sensing.c **** *
1202:.\Generated_Source\PSoC4/capsense_Sensing.c **** * \details
1203:.\Generated_Source\PSoC4/capsense_Sensing.c **** *   It is not recommended to call this function directly by the application layer.
1204:.\Generated_Source\PSoC4/capsense_Sensing.c **** *   It is used by initialization, widget APIs or wakeup functions to
1205:.\Generated_Source\PSoC4/capsense_Sensing.c **** *   enable the clocks.
1206:.\Generated_Source\PSoC4/capsense_Sensing.c **** *
ARM GAS  C:\Users\Alan\AppData\Local\Temp\ccBkjVf3.s 			page 31


1207:.\Generated_Source\PSoC4/capsense_Sensing.c **** * \param
1208:.\Generated_Source\PSoC4/capsense_Sensing.c **** *   snsClk The divider value for the sense clock.
1209:.\Generated_Source\PSoC4/capsense_Sensing.c **** *
1210:.\Generated_Source\PSoC4/capsense_Sensing.c **** *******************************************************************************/
1211:.\Generated_Source\PSoC4/capsense_Sensing.c **** void capsense_ConfigureSnsClock(uint32 snsClk)
1212:.\Generated_Source\PSoC4/capsense_Sensing.c **** {
 494              		.loc 1 1212 0
 495              		.cfi_startproc
 496              	.LVL43:
1213:.\Generated_Source\PSoC4/capsense_Sensing.c **** #if (capsense_ENABLE == capsense_CSDV2)
1214:.\Generated_Source\PSoC4/capsense_Sensing.c ****     uint32 newRegValue;
1215:.\Generated_Source\PSoC4/capsense_Sensing.c **** 
1216:.\Generated_Source\PSoC4/capsense_Sensing.c ****     /*  
1217:.\Generated_Source\PSoC4/capsense_Sensing.c ****      * Set divider value for sense clock.
1218:.\Generated_Source\PSoC4/capsense_Sensing.c ****      * 1u is subtracted from snsClk because SENSE_DIV value 0 corresponds
1219:.\Generated_Source\PSoC4/capsense_Sensing.c ****      * to dividing by 1.  
1220:.\Generated_Source\PSoC4/capsense_Sensing.c ****      */
1221:.\Generated_Source\PSoC4/capsense_Sensing.c ****     newRegValue = CY_GET_REG32(capsense_SENSE_PERIOD_PTR); 
 497              		.loc 1 1221 0
 498 0000 034A     		ldr	r2, .L40
 499 0002 1368     		ldr	r3, [r2]
 500              	.LVL44:
1222:.\Generated_Source\PSoC4/capsense_Sensing.c ****     newRegValue &= (uint32)(~capsense_SENSE_PERIOD_SENSE_DIV_MASK);
 501              		.loc 1 1222 0
 502 0004 1B0B     		lsr	r3, r3, #12
 503              	.LVL45:
 504 0006 1B03     		lsl	r3, r3, #12
 505              	.LVL46:
1223:.\Generated_Source\PSoC4/capsense_Sensing.c ****     newRegValue |= snsClk - 1u;
 506              		.loc 1 1223 0
 507 0008 0138     		sub	r0, r0, #1
 508              	.LVL47:
 509 000a 1843     		orr	r0, r3
 510              	.LVL48:
1224:.\Generated_Source\PSoC4/capsense_Sensing.c ****     CY_SET_REG32(capsense_SENSE_PERIOD_PTR, newRegValue);
 511              		.loc 1 1224 0
 512 000c 1060     		str	r0, [r2]
1225:.\Generated_Source\PSoC4/capsense_Sensing.c **** #else
1226:.\Generated_Source\PSoC4/capsense_Sensing.c ****     #if (capsense_ENABLE == capsense_IS_M0S8PERI_BLOCK)
1227:.\Generated_Source\PSoC4/capsense_Sensing.c ****         /*  Stop sense clock clock   */
1228:.\Generated_Source\PSoC4/capsense_Sensing.c ****         CY_SET_REG32(capsense_SNSCLK_CMD_PTR, 
1229:.\Generated_Source\PSoC4/capsense_Sensing.c ****                      ((uint32)capsense_SnsClk__DIV_ID <<
1230:.\Generated_Source\PSoC4/capsense_Sensing.c ****                      capsense_SNSCLK_CMD_DIV_SHIFT)|
1231:.\Generated_Source\PSoC4/capsense_Sensing.c ****                      ((uint32)capsense_SNSCLK_CMD_DISABLE_MASK));
1232:.\Generated_Source\PSoC4/capsense_Sensing.c **** 
1233:.\Generated_Source\PSoC4/capsense_Sensing.c ****         /*  
1234:.\Generated_Source\PSoC4/capsense_Sensing.c ****          * Set divider value for sense clock.
1235:.\Generated_Source\PSoC4/capsense_Sensing.c ****          * 1u is subtracted from snsClk because Divider register value 0 corresponds
1236:.\Generated_Source\PSoC4/capsense_Sensing.c ****          * to dividing by 1.  
1237:.\Generated_Source\PSoC4/capsense_Sensing.c ****          */
1238:.\Generated_Source\PSoC4/capsense_Sensing.c ****         CY_SET_REG32(capsense_SNSCLK_DIV_PTR, ((snsClk - 1u) << 8u));
1239:.\Generated_Source\PSoC4/capsense_Sensing.c ****         
1240:.\Generated_Source\PSoC4/capsense_Sensing.c ****         /*  Check whether previous sense clock start command has finished. */
1241:.\Generated_Source\PSoC4/capsense_Sensing.c ****         while(0u != (CY_GET_REG32(capsense_SNSCLK_CMD_PTR) & capsense_SNSCLK_CMD_ENABLE_MASK))
1242:.\Generated_Source\PSoC4/capsense_Sensing.c ****         {
1243:.\Generated_Source\PSoC4/capsense_Sensing.c ****             /*  Wait until previous sense clock start command has finished. */  
1244:.\Generated_Source\PSoC4/capsense_Sensing.c ****         } 
ARM GAS  C:\Users\Alan\AppData\Local\Temp\ccBkjVf3.s 			page 32


1245:.\Generated_Source\PSoC4/capsense_Sensing.c ****         
1246:.\Generated_Source\PSoC4/capsense_Sensing.c ****         /* Start sense clock aligned to previously started modulator clock. */
1247:.\Generated_Source\PSoC4/capsense_Sensing.c ****         CY_SET_REG32(capsense_SNSCLK_CMD_PTR, 
1248:.\Generated_Source\PSoC4/capsense_Sensing.c ****                      (uint32)(((uint32)capsense_SnsClk__DIV_ID << capsense_SNSCLK_CMD_DIV_SHIFT) |
1249:.\Generated_Source\PSoC4/capsense_Sensing.c ****                       ((uint32)capsense_ModClk__PA_DIV_ID << capsense_SNSCLK_CMD_PA_DIV_SHIFT) |
1250:.\Generated_Source\PSoC4/capsense_Sensing.c ****                       capsense_SNSCLK_CMD_ENABLE_MASK));
1251:.\Generated_Source\PSoC4/capsense_Sensing.c ****     #else
1252:.\Generated_Source\PSoC4/capsense_Sensing.c ****         uint32 newRegValue;
1253:.\Generated_Source\PSoC4/capsense_Sensing.c **** 
1254:.\Generated_Source\PSoC4/capsense_Sensing.c ****         /* Clear bit to disable SnsClk clock. */
1255:.\Generated_Source\PSoC4/capsense_Sensing.c ****         CY_SET_REG32(capsense_SNSCLK_CMD_PTR, 
1256:.\Generated_Source\PSoC4/capsense_Sensing.c ****                      CY_GET_REG32(capsense_SNSCLK_CMD_PTR) & 
1257:.\Generated_Source\PSoC4/capsense_Sensing.c ****                      (uint32)(~(uint32)capsense_SnsClk__ENABLE_MASK));
1258:.\Generated_Source\PSoC4/capsense_Sensing.c ****         
1259:.\Generated_Source\PSoC4/capsense_Sensing.c ****         /* 
1260:.\Generated_Source\PSoC4/capsense_Sensing.c ****          * Update snsClk clock divider.
1261:.\Generated_Source\PSoC4/capsense_Sensing.c ****          * 1u is subtracted from snsClk because Divider register value has range (0-65535).  
1262:.\Generated_Source\PSoC4/capsense_Sensing.c ****          */
1263:.\Generated_Source\PSoC4/capsense_Sensing.c ****         newRegValue = CY_GET_REG32(capsense_SNSCLK_DIV_PTR) & (uint32)(~(uint32)capsense_SnsClk__DI
1264:.\Generated_Source\PSoC4/capsense_Sensing.c ****         newRegValue |= (snsClk - 1u);
1265:.\Generated_Source\PSoC4/capsense_Sensing.c ****         CY_SET_REG32(capsense_SNSCLK_DIV_PTR, newRegValue);
1266:.\Generated_Source\PSoC4/capsense_Sensing.c **** 
1267:.\Generated_Source\PSoC4/capsense_Sensing.c ****         /* Set bit to enable SnsClk clock. */
1268:.\Generated_Source\PSoC4/capsense_Sensing.c ****         CY_SET_REG32(capsense_SNSCLK_CMD_PTR, 
1269:.\Generated_Source\PSoC4/capsense_Sensing.c ****                      CY_GET_REG32(capsense_SNSCLK_CMD_PTR) | 
1270:.\Generated_Source\PSoC4/capsense_Sensing.c ****                     capsense_SnsClk__ENABLE_MASK);
1271:.\Generated_Source\PSoC4/capsense_Sensing.c ****     #endif /* (capsense_ENABLE == capsense_IS_M0S8PERI_BLOCK) */
1272:.\Generated_Source\PSoC4/capsense_Sensing.c **** #endif /* (capsense_ENABLE == capsense_CSDV2) */
1273:.\Generated_Source\PSoC4/capsense_Sensing.c **** }
 513              		.loc 1 1273 0
 514              		@ sp needed
 515 000e 7047     		bx	lr
 516              	.L41:
 517              		.align	2
 518              	.L40:
 519 0010 00020B40 		.word	1074463232
 520              		.cfi_endproc
 521              	.LFE10:
 522              		.size	capsense_ConfigureSnsClock, .-capsense_ConfigureSnsClock
 523              		.section	.text.capsense_ConfigureClocks,"ax",%progbits
 524              		.align	2
 525              		.global	capsense_ConfigureClocks
 526              		.code	16
 527              		.thumb_func
 528              		.type	capsense_ConfigureClocks, %function
 529              	capsense_ConfigureClocks:
 530              	.LFB11:
1274:.\Generated_Source\PSoC4/capsense_Sensing.c **** 
1275:.\Generated_Source\PSoC4/capsense_Sensing.c **** 
1276:.\Generated_Source\PSoC4/capsense_Sensing.c **** /*******************************************************************************
1277:.\Generated_Source\PSoC4/capsense_Sensing.c **** * Function Name: capsense_ConfigureClocks
1278:.\Generated_Source\PSoC4/capsense_Sensing.c **** ****************************************************************************//**
1279:.\Generated_Source\PSoC4/capsense_Sensing.c **** *
1280:.\Generated_Source\PSoC4/capsense_Sensing.c **** * \brief
1281:.\Generated_Source\PSoC4/capsense_Sensing.c **** *   Sets the divider values for sense and modulator clocks and then starts
1282:.\Generated_Source\PSoC4/capsense_Sensing.c **** *   a modulator clock-phase aligned to HFCLK and sense clock-phase aligned to
1283:.\Generated_Source\PSoC4/capsense_Sensing.c **** *   the modulator clock.
ARM GAS  C:\Users\Alan\AppData\Local\Temp\ccBkjVf3.s 			page 33


1284:.\Generated_Source\PSoC4/capsense_Sensing.c **** *
1285:.\Generated_Source\PSoC4/capsense_Sensing.c **** * \details
1286:.\Generated_Source\PSoC4/capsense_Sensing.c **** *   It is not recommended to call this function directly by the application layer.
1287:.\Generated_Source\PSoC4/capsense_Sensing.c **** *   It is used by initialization, widget APIs or wakeup functions to
1288:.\Generated_Source\PSoC4/capsense_Sensing.c **** *   enable the clocks.
1289:.\Generated_Source\PSoC4/capsense_Sensing.c **** *
1290:.\Generated_Source\PSoC4/capsense_Sensing.c **** * \param
1291:.\Generated_Source\PSoC4/capsense_Sensing.c **** *   snsClk The divider value for the sense clock.
1292:.\Generated_Source\PSoC4/capsense_Sensing.c **** *   modClk The divider value for the modulator clock.
1293:.\Generated_Source\PSoC4/capsense_Sensing.c **** *
1294:.\Generated_Source\PSoC4/capsense_Sensing.c **** *******************************************************************************/
1295:.\Generated_Source\PSoC4/capsense_Sensing.c **** void capsense_ConfigureClocks(uint32 snsClk, uint32 modClk)
1296:.\Generated_Source\PSoC4/capsense_Sensing.c **** {
 531              		.loc 1 1296 0
 532              		.cfi_startproc
 533              	.LVL49:
 534 0000 10B5     		push	{r4, lr}
 535              		.cfi_def_cfa_offset 8
 536              		.cfi_offset 4, -8
 537              		.cfi_offset 14, -4
 538 0002 041C     		mov	r4, r0
1297:.\Generated_Source\PSoC4/capsense_Sensing.c ****     /* Configure Mod clock */
1298:.\Generated_Source\PSoC4/capsense_Sensing.c ****     capsense_ConfigureModClkClock(modClk);
 539              		.loc 1 1298 0
 540 0004 081C     		mov	r0, r1
 541              	.LVL50:
 542 0006 FFF7FEFF 		bl	capsense_ConfigureModClkClock
 543              	.LVL51:
1299:.\Generated_Source\PSoC4/capsense_Sensing.c **** 
1300:.\Generated_Source\PSoC4/capsense_Sensing.c ****     /* Configure Sns clock */
1301:.\Generated_Source\PSoC4/capsense_Sensing.c ****     capsense_ConfigureSnsClock(snsClk);
 544              		.loc 1 1301 0
 545 000a 201C     		mov	r0, r4
 546 000c FFF7FEFF 		bl	capsense_ConfigureSnsClock
 547              	.LVL52:
1302:.\Generated_Source\PSoC4/capsense_Sensing.c **** }
 548              		.loc 1 1302 0
 549              		@ sp needed
 550              	.LVL53:
 551 0010 10BD     		pop	{r4, pc}
 552              		.cfi_endproc
 553              	.LFE11:
 554              		.size	capsense_ConfigureClocks, .-capsense_ConfigureClocks
 555 0012 C046     		.section	.text.capsense_CalibrateWidget,"ax",%progbits
 556              		.align	2
 557              		.global	capsense_CalibrateWidget
 558              		.code	16
 559              		.thumb_func
 560              		.type	capsense_CalibrateWidget, %function
 561              	capsense_CalibrateWidget:
 562              	.LFB12:
1303:.\Generated_Source\PSoC4/capsense_Sensing.c **** 
1304:.\Generated_Source\PSoC4/capsense_Sensing.c **** 
1305:.\Generated_Source\PSoC4/capsense_Sensing.c **** #if ((capsense_ENABLE == capsense_CSD_IDAC_AUTOCAL_EN) || \
1306:.\Generated_Source\PSoC4/capsense_Sensing.c ****      (capsense_ENABLE == capsense_CSX_IDAC_AUTOCAL_EN))
1307:.\Generated_Source\PSoC4/capsense_Sensing.c **** /*******************************************************************************
1308:.\Generated_Source\PSoC4/capsense_Sensing.c **** * Function Name: capsense_CalibrateWidget 
ARM GAS  C:\Users\Alan\AppData\Local\Temp\ccBkjVf3.s 			page 34


1309:.\Generated_Source\PSoC4/capsense_Sensing.c **** ****************************************************************************//**
1310:.\Generated_Source\PSoC4/capsense_Sensing.c **** *
1311:.\Generated_Source\PSoC4/capsense_Sensing.c **** * \brief
1312:.\Generated_Source\PSoC4/capsense_Sensing.c **** *  Executes the IDAC calibration for the widget.
1313:.\Generated_Source\PSoC4/capsense_Sensing.c **** *
1314:.\Generated_Source\PSoC4/capsense_Sensing.c **** * \details
1315:.\Generated_Source\PSoC4/capsense_Sensing.c **** *   Depending on the widget type, this function calibrates an appropriate widget: CSD or CSX.
1316:.\Generated_Source\PSoC4/capsense_Sensing.c **** *   Before calibration, the function checks if the widget failed during the self-test  
1317:.\Generated_Source\PSoC4/capsense_Sensing.c **** *   if it is enabled in the customizer.
1318:.\Generated_Source\PSoC4/capsense_Sensing.c **** *
1319:.\Generated_Source\PSoC4/capsense_Sensing.c **** * \param wdgtIndex Specifies the ID of the widget for calibration.
1320:.\Generated_Source\PSoC4/capsense_Sensing.c **** *   
1321:.\Generated_Source\PSoC4/capsense_Sensing.c **** * \return status 
1322:.\Generated_Source\PSoC4/capsense_Sensing.c **** *   - Zero     - The widget is calibrated successfully.
1323:.\Generated_Source\PSoC4/capsense_Sensing.c **** *   - Non-zero - Calibration is failed for the widget.
1324:.\Generated_Source\PSoC4/capsense_Sensing.c **** *
1325:.\Generated_Source\PSoC4/capsense_Sensing.c **** *******************************************************************************/
1326:.\Generated_Source\PSoC4/capsense_Sensing.c **** cystatus capsense_CalibrateWidget(uint32 wdgtIndex)
1327:.\Generated_Source\PSoC4/capsense_Sensing.c **** {
 563              		.loc 1 1327 0
 564              		.cfi_startproc
 565              	.LVL54:
1328:.\Generated_Source\PSoC4/capsense_Sensing.c ****     cystatus calibrateStatus = CYRET_SUCCESS;
1329:.\Generated_Source\PSoC4/capsense_Sensing.c **** 
1330:.\Generated_Source\PSoC4/capsense_Sensing.c ****     do
1331:.\Generated_Source\PSoC4/capsense_Sensing.c ****     {   
1332:.\Generated_Source\PSoC4/capsense_Sensing.c ****         if (capsense_TOTAL_WIDGETS <= wdgtIndex)
 566              		.loc 1 1332 0
 567 0000 0028     		cmp	r0, #0
 568 0002 01D0     		beq	.L45
1333:.\Generated_Source\PSoC4/capsense_Sensing.c ****         {
1334:.\Generated_Source\PSoC4/capsense_Sensing.c ****             calibrateStatus = CYRET_BAD_PARAM;
 569              		.loc 1 1334 0
 570 0004 0120     		mov	r0, #1
 571              	.LVL55:
 572 0006 01E0     		b	.L44
 573              	.LVL56:
 574              	.L45:
1335:.\Generated_Source\PSoC4/capsense_Sensing.c ****             break;
1336:.\Generated_Source\PSoC4/capsense_Sensing.c ****         }
1337:.\Generated_Source\PSoC4/capsense_Sensing.c ****     
1338:.\Generated_Source\PSoC4/capsense_Sensing.c ****         /*  
1339:.\Generated_Source\PSoC4/capsense_Sensing.c ****          *  Check if widget id is valid, specified widget did not
1340:.\Generated_Source\PSoC4/capsense_Sensing.c ****          *  detect any faults conditions if BIST is enabled.   
1341:.\Generated_Source\PSoC4/capsense_Sensing.c ****          */
1342:.\Generated_Source\PSoC4/capsense_Sensing.c ****         #if (capsense_ENABLE == capsense_SELF_TEST_EN)
1343:.\Generated_Source\PSoC4/capsense_Sensing.c ****             if (capsense_DISABLE != ((uint32)capsense_dsRam.wdgtWorking[(uint8)wdgtIndex >> capsens
1344:.\Generated_Source\PSoC4/capsense_Sensing.c ****                                              (0x00000001Lu << (wdgtIndex & capsense_WIDGET_NUM_32_M
1345:.\Generated_Source\PSoC4/capsense_Sensing.c ****             {
1346:.\Generated_Source\PSoC4/capsense_Sensing.c ****                 calibrateStatus = CYRET_SUCCESS;
1347:.\Generated_Source\PSoC4/capsense_Sensing.c ****             }
1348:.\Generated_Source\PSoC4/capsense_Sensing.c ****             else    
1349:.\Generated_Source\PSoC4/capsense_Sensing.c ****             {
1350:.\Generated_Source\PSoC4/capsense_Sensing.c ****                 calibrateStatus = CYRET_INVALID_STATE;
1351:.\Generated_Source\PSoC4/capsense_Sensing.c ****                 /*  Exit because widget is not working  */
1352:.\Generated_Source\PSoC4/capsense_Sensing.c ****                 break;
1353:.\Generated_Source\PSoC4/capsense_Sensing.c ****             }
ARM GAS  C:\Users\Alan\AppData\Local\Temp\ccBkjVf3.s 			page 35


1354:.\Generated_Source\PSoC4/capsense_Sensing.c ****         #endif  /* (capsense_ENABLE == capsense_SELF_TEST_EN) */
1355:.\Generated_Source\PSoC4/capsense_Sensing.c ****     
1356:.\Generated_Source\PSoC4/capsense_Sensing.c ****         #if (capsense_ENABLE == capsense_ADC_EN)
1357:.\Generated_Source\PSoC4/capsense_Sensing.c ****             if (capsense_UNDEFINED_E == capsense_currentSenseMethod) 
1358:.\Generated_Source\PSoC4/capsense_Sensing.c ****             {
1359:.\Generated_Source\PSoC4/capsense_Sensing.c ****                 /* Release ADC resources */
1360:.\Generated_Source\PSoC4/capsense_Sensing.c ****                 calibrateStatus = capsense_AdcReleaseResources();
1361:.\Generated_Source\PSoC4/capsense_Sensing.c **** 
1362:.\Generated_Source\PSoC4/capsense_Sensing.c ****                 if (CYRET_SUCCESS != calibrateStatus)
1363:.\Generated_Source\PSoC4/capsense_Sensing.c ****                 {
1364:.\Generated_Source\PSoC4/capsense_Sensing.c ****                     /* Exit because widget is not working */
1365:.\Generated_Source\PSoC4/capsense_Sensing.c ****                     break;
1366:.\Generated_Source\PSoC4/capsense_Sensing.c ****                 }
1367:.\Generated_Source\PSoC4/capsense_Sensing.c ****             }
1368:.\Generated_Source\PSoC4/capsense_Sensing.c ****         #endif /* (capsense_ENABLE == capsense_ADC_EN) */
1369:.\Generated_Source\PSoC4/capsense_Sensing.c **** 
1370:.\Generated_Source\PSoC4/capsense_Sensing.c ****         /*  If CSD2X is enabled, calibrate CSD sensor    */
1371:.\Generated_Source\PSoC4/capsense_Sensing.c ****         #if (capsense_ENABLE == capsense_CSD2X_EN)
1372:.\Generated_Source\PSoC4/capsense_Sensing.c ****             /******************************
1373:.\Generated_Source\PSoC4/capsense_Sensing.c ****             * This is the place where the CSD2X mode
1374:.\Generated_Source\PSoC4/capsense_Sensing.c ****             * API should be implemented.
1375:.\Generated_Source\PSoC4/capsense_Sensing.c ****             * CSD2X will be implemented
1376:.\Generated_Source\PSoC4/capsense_Sensing.c ****             * in the next component version.
1377:.\Generated_Source\PSoC4/capsense_Sensing.c ****             *********************************/
1378:.\Generated_Source\PSoC4/capsense_Sensing.c **** 
1379:.\Generated_Source\PSoC4/capsense_Sensing.c ****         /*  If both CSD and CSX are enabled, calibrate widget using sensing method */
1380:.\Generated_Source\PSoC4/capsense_Sensing.c ****         #elif (capsense_ENABLE == capsense_CSD_CSX_EN)
1381:.\Generated_Source\PSoC4/capsense_Sensing.c **** 
1382:.\Generated_Source\PSoC4/capsense_Sensing.c ****             /*  Check widget sensing method and call appropriate APIs   */
1383:.\Generated_Source\PSoC4/capsense_Sensing.c ****             #if ((capsense_ENABLE == capsense_CSX_IDAC_AUTOCAL_EN) && (capsense_ENABLE == capsense_
1384:.\Generated_Source\PSoC4/capsense_Sensing.c ****                 #if (capsense_CSD_SS_DIS == capsense_CSD_AUTOTUNE)
1385:.\Generated_Source\PSoC4/capsense_Sensing.c ****                     if (capsense_SENSE_METHOD_CSX_E ==
1386:.\Generated_Source\PSoC4/capsense_Sensing.c ****                         (capsense_SENSE_METHOD_ENUM)capsense_GET_SENSE_METHOD(&capsense_dsFlash.wdg
1387:.\Generated_Source\PSoC4/capsense_Sensing.c ****                     {
1388:.\Generated_Source\PSoC4/capsense_Sensing.c ****                         /* Calibrate CSX widget (when Autotune mode is disabled) */
1389:.\Generated_Source\PSoC4/capsense_Sensing.c ****                        capsense_CSXCalibrateWidget(wdgtIndex, capsense_CSX_RAWCOUNT_CAL_LEVEL);
1390:.\Generated_Source\PSoC4/capsense_Sensing.c ****                     }
1391:.\Generated_Source\PSoC4/capsense_Sensing.c ****                     else if (capsense_SENSE_METHOD_CSD_E ==
1392:.\Generated_Source\PSoC4/capsense_Sensing.c ****                         (capsense_SENSE_METHOD_ENUM)capsense_GET_SENSE_METHOD(&capsense_dsFlash.wdg
1393:.\Generated_Source\PSoC4/capsense_Sensing.c ****                     {
1394:.\Generated_Source\PSoC4/capsense_Sensing.c ****                         /*  
1395:.\Generated_Source\PSoC4/capsense_Sensing.c ****                          *  Check if CSD block is  already initialized for CSD operation
1396:.\Generated_Source\PSoC4/capsense_Sensing.c ****                          *  If not, initialize CSD hardware block for CSD measurement   
1397:.\Generated_Source\PSoC4/capsense_Sensing.c ****                          */
1398:.\Generated_Source\PSoC4/capsense_Sensing.c ****                         if (capsense_SENSE_METHOD_CSD_E != capsense_currentSenseMethod) 
1399:.\Generated_Source\PSoC4/capsense_Sensing.c ****                         {
1400:.\Generated_Source\PSoC4/capsense_Sensing.c ****                             capsense_SwitchSensingMode(capsense_SENSE_METHOD_CSD_E);
1401:.\Generated_Source\PSoC4/capsense_Sensing.c ****                         }
1402:.\Generated_Source\PSoC4/capsense_Sensing.c ****                         
1403:.\Generated_Source\PSoC4/capsense_Sensing.c ****                         /* Calibrate CSD widget (when Autotune mode is disabled) */
1404:.\Generated_Source\PSoC4/capsense_Sensing.c ****                         calibrateStatus = capsense_CSDCalibrateWidget(wdgtIndex, capsense_CSD_RAWCO
1405:.\Generated_Source\PSoC4/capsense_Sensing.c ****                     }
1406:.\Generated_Source\PSoC4/capsense_Sensing.c ****                     else    
1407:.\Generated_Source\PSoC4/capsense_Sensing.c ****                     {
1408:.\Generated_Source\PSoC4/capsense_Sensing.c ****                         calibrateStatus = CYRET_UNKNOWN;
1409:.\Generated_Source\PSoC4/capsense_Sensing.c ****                     }
1410:.\Generated_Source\PSoC4/capsense_Sensing.c ****                 #else
ARM GAS  C:\Users\Alan\AppData\Local\Temp\ccBkjVf3.s 			page 36


1411:.\Generated_Source\PSoC4/capsense_Sensing.c ****                     if (capsense_SENSE_METHOD_CSX_E ==
1412:.\Generated_Source\PSoC4/capsense_Sensing.c ****                         (capsense_SENSE_METHOD_ENUM)capsense_GET_SENSE_METHOD(&capsense_dsFlash.wdg
1413:.\Generated_Source\PSoC4/capsense_Sensing.c ****                     {
1414:.\Generated_Source\PSoC4/capsense_Sensing.c ****                         /* Calibrate CSX widget only (when Autotune mode is enabled) */
1415:.\Generated_Source\PSoC4/capsense_Sensing.c ****                        capsense_CSXCalibrateWidget(wdgtIndex, capsense_CSX_RAWCOUNT_CAL_LEVEL);
1416:.\Generated_Source\PSoC4/capsense_Sensing.c ****                     }
1417:.\Generated_Source\PSoC4/capsense_Sensing.c ****                 #endif /* (capsense_CSD_SS_DIS == capsense_CSD_AUTOTUNE) */
1418:.\Generated_Source\PSoC4/capsense_Sensing.c ****             #elif (capsense_ENABLE == capsense_CSX_IDAC_AUTOCAL_EN)
1419:.\Generated_Source\PSoC4/capsense_Sensing.c ****                 if (capsense_SENSE_METHOD_CSX_E ==
1420:.\Generated_Source\PSoC4/capsense_Sensing.c ****                     (capsense_SENSE_METHOD_ENUM)capsense_GET_SENSE_METHOD(&capsense_dsFlash.wdgtArr
1421:.\Generated_Source\PSoC4/capsense_Sensing.c ****                 {
1422:.\Generated_Source\PSoC4/capsense_Sensing.c ****                     /* Calibrate CSX widget only */
1423:.\Generated_Source\PSoC4/capsense_Sensing.c ****                    capsense_CSXCalibrateWidget(wdgtIndex, capsense_CSX_RAWCOUNT_CAL_LEVEL);
1424:.\Generated_Source\PSoC4/capsense_Sensing.c ****                 }          
1425:.\Generated_Source\PSoC4/capsense_Sensing.c ****             #elif ((capsense_ENABLE == capsense_CSD_IDAC_AUTOCAL_EN) && (capsense_CSD_SS_DIS == cap
1426:.\Generated_Source\PSoC4/capsense_Sensing.c ****                 if (capsense_SENSE_METHOD_CSD_E ==
1427:.\Generated_Source\PSoC4/capsense_Sensing.c ****                     (capsense_SENSE_METHOD_ENUM)capsense_GET_SENSE_METHOD(&capsense_dsFlash.wdgtArr
1428:.\Generated_Source\PSoC4/capsense_Sensing.c ****                 {
1429:.\Generated_Source\PSoC4/capsense_Sensing.c ****                     /* Initialize CSD mode */
1430:.\Generated_Source\PSoC4/capsense_Sensing.c ****                     capsense_CSDInitialize();
1431:.\Generated_Source\PSoC4/capsense_Sensing.c **** 
1432:.\Generated_Source\PSoC4/capsense_Sensing.c ****                     /* Calibrate CSD widget only */
1433:.\Generated_Source\PSoC4/capsense_Sensing.c ****                     calibrateStatus = capsense_CSDCalibrateWidget(wdgtIndex, capsense_CSD_RAWCOUNT_
1434:.\Generated_Source\PSoC4/capsense_Sensing.c ****                 }
1435:.\Generated_Source\PSoC4/capsense_Sensing.c ****             #else
1436:.\Generated_Source\PSoC4/capsense_Sensing.c ****                 /*  No calibration  */
1437:.\Generated_Source\PSoC4/capsense_Sensing.c ****             #endif  /* ((capsense_ENABLE == capsense_CSX_IDAC_AUTOCAL_EN) && (capsense_ENABLE == ca
1438:.\Generated_Source\PSoC4/capsense_Sensing.c ****             
1439:.\Generated_Source\PSoC4/capsense_Sensing.c ****         /*  If only CSD is enabled, calibrate CSD sensor  */
1440:.\Generated_Source\PSoC4/capsense_Sensing.c ****         #elif ((capsense_ENABLE == capsense_CSD_EN) && (capsense_CSD_SS_DIS == capsense_CSD_AUTOTUN
1441:.\Generated_Source\PSoC4/capsense_Sensing.c ****             calibrateStatus = capsense_CSDCalibrateWidget(wdgtIndex, capsense_CSD_RAWCOUNT_CAL_LEVE
1442:.\Generated_Source\PSoC4/capsense_Sensing.c ****         
1443:.\Generated_Source\PSoC4/capsense_Sensing.c ****         /*  If only CSX is enabled, call CSX scan   */
1444:.\Generated_Source\PSoC4/capsense_Sensing.c ****         #elif (capsense_ENABLE == capsense_CSX_EN)
1445:.\Generated_Source\PSoC4/capsense_Sensing.c ****             capsense_CSXCalibrateWidget(wdgtIndex, capsense_CSX_RAWCOUNT_CAL_LEVEL);
1446:.\Generated_Source\PSoC4/capsense_Sensing.c **** 
1447:.\Generated_Source\PSoC4/capsense_Sensing.c ****         #else
1448:.\Generated_Source\PSoC4/capsense_Sensing.c ****             calibrateStatus = CYRET_UNKNOWN;
 575              		.loc 1 1448 0
 576 0008 0120     		mov	r0, #1
 577              	.LVL57:
 578 000a 4042     		neg	r0, r0
 579              	.L44:
 580              	.LVL58:
1449:.\Generated_Source\PSoC4/capsense_Sensing.c ****         #endif  /* (capsense_ENABLE == capsense_CSD2X_EN) */   
1450:.\Generated_Source\PSoC4/capsense_Sensing.c ****     
1451:.\Generated_Source\PSoC4/capsense_Sensing.c ****     } while (0u);
1452:.\Generated_Source\PSoC4/capsense_Sensing.c ****     
1453:.\Generated_Source\PSoC4/capsense_Sensing.c ****     return calibrateStatus;
1454:.\Generated_Source\PSoC4/capsense_Sensing.c **** }
 581              		.loc 1 1454 0
 582              		@ sp needed
 583 000c 7047     		bx	lr
 584              		.cfi_endproc
 585              	.LFE12:
 586              		.size	capsense_CalibrateWidget, .-capsense_CalibrateWidget
 587 000e C046     		.section	.text.capsense_CalibrateAllWidgets,"ax",%progbits
ARM GAS  C:\Users\Alan\AppData\Local\Temp\ccBkjVf3.s 			page 37


 588              		.align	2
 589              		.global	capsense_CalibrateAllWidgets
 590              		.code	16
 591              		.thumb_func
 592              		.type	capsense_CalibrateAllWidgets, %function
 593              	capsense_CalibrateAllWidgets:
 594              	.LFB13:
1455:.\Generated_Source\PSoC4/capsense_Sensing.c **** 
1456:.\Generated_Source\PSoC4/capsense_Sensing.c **** 
1457:.\Generated_Source\PSoC4/capsense_Sensing.c **** /*******************************************************************************
1458:.\Generated_Source\PSoC4/capsense_Sensing.c **** * Function Name: capsense_CalibrateAllWidgets 
1459:.\Generated_Source\PSoC4/capsense_Sensing.c **** ****************************************************************************//**
1460:.\Generated_Source\PSoC4/capsense_Sensing.c **** *
1461:.\Generated_Source\PSoC4/capsense_Sensing.c **** * \brief
1462:.\Generated_Source\PSoC4/capsense_Sensing.c **** *  Executes the IDAC calibration for all the widgets in the component.
1463:.\Generated_Source\PSoC4/capsense_Sensing.c **** *
1464:.\Generated_Source\PSoC4/capsense_Sensing.c **** * \details
1465:.\Generated_Source\PSoC4/capsense_Sensing.c **** *   The function goes through all widgets and calls 
1466:.\Generated_Source\PSoC4/capsense_Sensing.c **** *   capsense_CalibrateWidget() for each widget.
1467:.\Generated_Source\PSoC4/capsense_Sensing.c **** *   It returns a fail status if any widget has failed to calibrate or it   
1468:.\Generated_Source\PSoC4/capsense_Sensing.c **** *   has been failed during the self-test.
1469:.\Generated_Source\PSoC4/capsense_Sensing.c **** *
1470:.\Generated_Source\PSoC4/capsense_Sensing.c **** * \return status: 
1471:.\Generated_Source\PSoC4/capsense_Sensing.c **** *   - Zero     -  All the widgets are calibrated successfully.
1472:.\Generated_Source\PSoC4/capsense_Sensing.c **** *   - Non-zero - Calibration failed for any widget.
1473:.\Generated_Source\PSoC4/capsense_Sensing.c **** *
1474:.\Generated_Source\PSoC4/capsense_Sensing.c **** *******************************************************************************/
1475:.\Generated_Source\PSoC4/capsense_Sensing.c **** cystatus capsense_CalibrateAllWidgets(void)
1476:.\Generated_Source\PSoC4/capsense_Sensing.c **** {
 595              		.loc 1 1476 0
 596              		.cfi_startproc
 597 0000 38B5     		push	{r3, r4, r5, lr}
 598              		.cfi_def_cfa_offset 16
 599              		.cfi_offset 3, -16
 600              		.cfi_offset 4, -12
 601              		.cfi_offset 5, -8
 602              		.cfi_offset 14, -4
 603              	.LVL59:
1477:.\Generated_Source\PSoC4/capsense_Sensing.c ****     cystatus calibrateStatus = CYRET_SUCCESS;
1478:.\Generated_Source\PSoC4/capsense_Sensing.c ****     uint32 wdgtIndex;
1479:.\Generated_Source\PSoC4/capsense_Sensing.c ****     
1480:.\Generated_Source\PSoC4/capsense_Sensing.c ****     for (wdgtIndex = 0u; wdgtIndex < capsense_TOTAL_WIDGETS; wdgtIndex++)
 604              		.loc 1 1480 0
 605 0002 0024     		mov	r4, #0
1477:.\Generated_Source\PSoC4/capsense_Sensing.c ****     cystatus calibrateStatus = CYRET_SUCCESS;
 606              		.loc 1 1477 0
 607 0004 0025     		mov	r5, #0
 608              		.loc 1 1480 0
 609 0006 04E0     		b	.L47
 610              	.LVL60:
 611              	.L48:
1481:.\Generated_Source\PSoC4/capsense_Sensing.c ****     {
1482:.\Generated_Source\PSoC4/capsense_Sensing.c ****         calibrateStatus |= capsense_CalibrateWidget(wdgtIndex); 
 612              		.loc 1 1482 0 discriminator 3
 613 0008 201C     		mov	r0, r4
 614 000a FFF7FEFF 		bl	capsense_CalibrateWidget
 615              	.LVL61:
ARM GAS  C:\Users\Alan\AppData\Local\Temp\ccBkjVf3.s 			page 38


 616 000e 0543     		orr	r5, r0
 617              	.LVL62:
1480:.\Generated_Source\PSoC4/capsense_Sensing.c ****     {
 618              		.loc 1 1480 0 discriminator 3
 619 0010 0134     		add	r4, r4, #1
 620              	.LVL63:
 621              	.L47:
1480:.\Generated_Source\PSoC4/capsense_Sensing.c ****     {
 622              		.loc 1 1480 0 is_stmt 0 discriminator 1
 623 0012 002C     		cmp	r4, #0
 624 0014 F8D0     		beq	.L48
1483:.\Generated_Source\PSoC4/capsense_Sensing.c ****     }
1484:.\Generated_Source\PSoC4/capsense_Sensing.c ****     
1485:.\Generated_Source\PSoC4/capsense_Sensing.c ****     return calibrateStatus;
1486:.\Generated_Source\PSoC4/capsense_Sensing.c **** }
 625              		.loc 1 1486 0 is_stmt 1
 626 0016 281C     		mov	r0, r5
 627              		@ sp needed
 628              	.LVL64:
 629              	.LVL65:
 630 0018 38BD     		pop	{r3, r4, r5, pc}
 631              		.cfi_endproc
 632              	.LFE13:
 633              		.size	capsense_CalibrateAllWidgets, .-capsense_CalibrateAllWidgets
 634              		.global	__aeabi_uidiv
 635 001a C046     		.section	.text.capsense_AutoTune,"ax",%progbits
 636              		.align	2
 637              		.global	capsense_AutoTune
 638              		.code	16
 639              		.thumb_func
 640              		.type	capsense_AutoTune, %function
 641              	capsense_AutoTune:
 642              	.LFB14:
1487:.\Generated_Source\PSoC4/capsense_Sensing.c **** 
1488:.\Generated_Source\PSoC4/capsense_Sensing.c **** #endif /* ((capsense_ENABLE == capsense_CSD_IDAC_AUTOCAL_EN) || 
1489:.\Generated_Source\PSoC4/capsense_Sensing.c ****            (capsense_ENABLE == capsense_CSX_IDAC_AUTOCAL_EN))  */
1490:.\Generated_Source\PSoC4/capsense_Sensing.c **** 
1491:.\Generated_Source\PSoC4/capsense_Sensing.c **** 
1492:.\Generated_Source\PSoC4/capsense_Sensing.c **** #if (capsense_CSD_SS_DIS != capsense_CSD_AUTOTUNE)
1493:.\Generated_Source\PSoC4/capsense_Sensing.c **** /*******************************************************************************
1494:.\Generated_Source\PSoC4/capsense_Sensing.c **** * Function Name: capsense_AutoTune
1495:.\Generated_Source\PSoC4/capsense_Sensing.c **** ****************************************************************************//**
1496:.\Generated_Source\PSoC4/capsense_Sensing.c **** *
1497:.\Generated_Source\PSoC4/capsense_Sensing.c **** * \brief
1498:.\Generated_Source\PSoC4/capsense_Sensing.c **** *  This API performs the parameters auto-tuning for the optimal CapSense operation.
1499:.\Generated_Source\PSoC4/capsense_Sensing.c **** *
1500:.\Generated_Source\PSoC4/capsense_Sensing.c **** * \details
1501:.\Generated_Source\PSoC4/capsense_Sensing.c **** *  This API performs the following:
1502:.\Generated_Source\PSoC4/capsense_Sensing.c **** *  - Calibrates Modulator and Compensation IDACs.
1503:.\Generated_Source\PSoC4/capsense_Sensing.c **** *  - Tunes the Sense Clock optimal value to get a Sense Clock period greater than
1504:.\Generated_Source\PSoC4/capsense_Sensing.c **** *     2*5*R*Cp.
1505:.\Generated_Source\PSoC4/capsense_Sensing.c **** *  - Calculates the resolution for the optimal sensitivity.
1506:.\Generated_Source\PSoC4/capsense_Sensing.c **** *
1507:.\Generated_Source\PSoC4/capsense_Sensing.c **** * \return 
1508:.\Generated_Source\PSoC4/capsense_Sensing.c **** *   Returns the status of operation: 
1509:.\Generated_Source\PSoC4/capsense_Sensing.c **** *   - Zero     - All the widgets are auto-tuned successfully.
1510:.\Generated_Source\PSoC4/capsense_Sensing.c **** *   - Non-zero - Auto-tuning failed for any widget.
ARM GAS  C:\Users\Alan\AppData\Local\Temp\ccBkjVf3.s 			page 39


1511:.\Generated_Source\PSoC4/capsense_Sensing.c **** *
1512:.\Generated_Source\PSoC4/capsense_Sensing.c **** *******************************************************************************/
1513:.\Generated_Source\PSoC4/capsense_Sensing.c **** cystatus capsense_AutoTune(void)
1514:.\Generated_Source\PSoC4/capsense_Sensing.c **** {
 643              		.loc 1 1514 0
 644              		.cfi_startproc
 645 0000 70B5     		push	{r4, r5, r6, lr}
 646              		.cfi_def_cfa_offset 16
 647              		.cfi_offset 4, -16
 648              		.cfi_offset 5, -12
 649              		.cfi_offset 6, -8
 650              		.cfi_offset 14, -4
 651 0002 86B0     		sub	sp, sp, #24
 652              		.cfi_def_cfa_offset 40
 653              	.LVL66:
1515:.\Generated_Source\PSoC4/capsense_Sensing.c ****     cystatus autoTuneStatus = CYRET_SUCCESS;
1516:.\Generated_Source\PSoC4/capsense_Sensing.c ****     uint32 wdgtIndex;
1517:.\Generated_Source\PSoC4/capsense_Sensing.c ****     uint32 cp;
1518:.\Generated_Source\PSoC4/capsense_Sensing.c ****     capsense_RAM_WD_BASE_STRUCT *ptrWdgt;
1519:.\Generated_Source\PSoC4/capsense_Sensing.c ****     AUTO_TUNE_CONFIG_TYPE autoTuneConfig;  
1520:.\Generated_Source\PSoC4/capsense_Sensing.c ****     
1521:.\Generated_Source\PSoC4/capsense_Sensing.c ****     /* Configure common config variables */
1522:.\Generated_Source\PSoC4/capsense_Sensing.c ****     autoTuneConfig.snsClkConstantR = capsense_CSD_SNSCLK_R_CONST;
 654              		.loc 1 1522 0
 655 0004 FA23     		mov	r3, #250
 656 0006 9B00     		lsl	r3, r3, #2
 657 0008 6A46     		mov	r2, sp
 658 000a 1380     		strh	r3, [r2]
1523:.\Generated_Source\PSoC4/capsense_Sensing.c ****     autoTuneConfig.vRef = capsense_CSD_VREF_MV;
 659              		.loc 1 1523 0
 660 000c 304B     		ldr	r3, .L56
 661 000e 5380     		strh	r3, [r2, #2]
1524:.\Generated_Source\PSoC4/capsense_Sensing.c ****     autoTuneConfig.iDacGain = capsense_CSD_IDAC_GAIN_VALUE_NA * capsense_CSD_DUAL_IDAC_FACTOR;
 662              		.loc 1 1524 0
 663 0010 9623     		mov	r3, #150
 664 0012 5B01     		lsl	r3, r3, #5
 665 0014 9380     		strh	r3, [r2, #4]
1525:.\Generated_Source\PSoC4/capsense_Sensing.c **** 
1526:.\Generated_Source\PSoC4/capsense_Sensing.c ****     /* Calculate snsClk Input Clock in KHz */
1527:.\Generated_Source\PSoC4/capsense_Sensing.c ****     #if (capsense_ENABLE == capsense_CSDV2)
1528:.\Generated_Source\PSoC4/capsense_Sensing.c ****         /*  Dividers are chained (CSDV2). Flip flop is not available */
1529:.\Generated_Source\PSoC4/capsense_Sensing.c ****         autoTuneConfig.snsClkInputClock = (CYDEV_BCLK__HFCLK__KHZ / capsense_dsRam.modCsdClk);
 666              		.loc 1 1529 0
 667 0016 2F4B     		ldr	r3, .L56+4
 668 0018 197E     		ldrb	r1, [r3, #24]
 669 001a 2F48     		ldr	r0, .L56+8
 670 001c FFF7FEFF 		bl	__aeabi_uidiv
 671              	.LVL67:
 672 0020 6B46     		mov	r3, sp
 673 0022 1881     		strh	r0, [r3, #8]
 674              	.LVL68:
1530:.\Generated_Source\PSoC4/capsense_Sensing.c ****     #elif ((capsense_ENABLE == capsense_IS_M0S8PERI_BLOCK) && (capsense_DISABLE == CY_PSOC4_4000))
1531:.\Generated_Source\PSoC4/capsense_Sensing.c ****         /*  Dividers are not chained */
1532:.\Generated_Source\PSoC4/capsense_Sensing.c ****         autoTuneConfig.snsClkInputClock = CYDEV_BCLK__HFCLK__KHZ >> capsense_FLIP_FLOP_DIV;
1533:.\Generated_Source\PSoC4/capsense_Sensing.c ****     #elif (capsense_ENABLE == capsense_IS_M0S8PERI_BLOCK)
1534:.\Generated_Source\PSoC4/capsense_Sensing.c ****         /*  Dividers are not chained (PSoC 4000) */
1535:.\Generated_Source\PSoC4/capsense_Sensing.c ****         autoTuneConfig.snsClkInputClock = CYDEV_BCLK__HFCLK__KHZ >> capsense_FLIP_FLOP_DIV;
ARM GAS  C:\Users\Alan\AppData\Local\Temp\ccBkjVf3.s 			page 40


1536:.\Generated_Source\PSoC4/capsense_Sensing.c ****     #else
1537:.\Generated_Source\PSoC4/capsense_Sensing.c ****         /*  Dividers are chained (PSoC 4100, PSoC 4200) */
1538:.\Generated_Source\PSoC4/capsense_Sensing.c ****         autoTuneConfig.snsClkInputClock = (CYDEV_BCLK__HFCLK__KHZ / capsense_dsRam.modCsdClk) >> ca
1539:.\Generated_Source\PSoC4/capsense_Sensing.c ****     #endif /* (capsense_ENABLE == capsense_CSDV2) */
1540:.\Generated_Source\PSoC4/capsense_Sensing.c ****  
1541:.\Generated_Source\PSoC4/capsense_Sensing.c ****     /* If both CSD and CSX are enabled, calibrate widget using sensing method */
1542:.\Generated_Source\PSoC4/capsense_Sensing.c ****     #if (capsense_ENABLE == capsense_CSD_CSX_EN)
1543:.\Generated_Source\PSoC4/capsense_Sensing.c ****         /* Initialize CSD mode */
1544:.\Generated_Source\PSoC4/capsense_Sensing.c ****         capsense_CSDInitialize();
1545:.\Generated_Source\PSoC4/capsense_Sensing.c ****     #endif /* (capsense_ENABLE == capsense_CSD_CSX_EN) */
1546:.\Generated_Source\PSoC4/capsense_Sensing.c ****  
1547:.\Generated_Source\PSoC4/capsense_Sensing.c ****     for (wdgtIndex = 0u; wdgtIndex < capsense_TOTAL_WIDGETS; wdgtIndex++)
 675              		.loc 1 1547 0
 676 0024 0025     		mov	r5, #0
1515:.\Generated_Source\PSoC4/capsense_Sensing.c ****     uint32 wdgtIndex;
 677              		.loc 1 1515 0
 678 0026 0026     		mov	r6, #0
 679              		.loc 1 1547 0
 680 0028 4DE0     		b	.L50
 681              	.LVL69:
 682              	.L54:
1548:.\Generated_Source\PSoC4/capsense_Sensing.c ****     {
1549:.\Generated_Source\PSoC4/capsense_Sensing.c ****         if (capsense_SENSE_METHOD_CSD_E ==
1550:.\Generated_Source\PSoC4/capsense_Sensing.c ****             (capsense_SENSE_METHOD_ENUM)capsense_GET_SENSE_METHOD(&capsense_dsFlash.wdgtArray[wdgtI
1551:.\Generated_Source\PSoC4/capsense_Sensing.c ****         {
1552:.\Generated_Source\PSoC4/capsense_Sensing.c ****             ptrWdgt = (capsense_RAM_WD_BASE_STRUCT *)
 683              		.loc 1 1552 0
 684 002a AB00     		lsl	r3, r5, #2
 685 002c 5B19     		add	r3, r3, r5
 686 002e DB00     		lsl	r3, r3, #3
 687 0030 2A4A     		ldr	r2, .L56+12
 688 0032 D318     		add	r3, r2, r3
 689 0034 5C68     		ldr	r4, [r3, #4]
 690              	.LVL70:
1553:.\Generated_Source\PSoC4/capsense_Sensing.c ****                       capsense_dsFlash.wdgtArray[wdgtIndex].ptr2WdgtRam;
1554:.\Generated_Source\PSoC4/capsense_Sensing.c **** 
1555:.\Generated_Source\PSoC4/capsense_Sensing.c ****             /* Switch charge clock source to direct clock mode */ 
1556:.\Generated_Source\PSoC4/capsense_Sensing.c ****             capsense_SET_DIRECT_CLOCK_MODE;
 691              		.loc 1 1556 0
 692 0036 2A4A     		ldr	r2, .L56+16
 693 0038 1168     		ldr	r1, [r2]
 694 003a 2A4B     		ldr	r3, .L56+20
 695 003c 0B40     		and	r3, r1
 696 003e 1360     		str	r3, [r2]
1557:.\Generated_Source\PSoC4/capsense_Sensing.c **** 
1558:.\Generated_Source\PSoC4/capsense_Sensing.c ****             /* Get sensitivity and multiply it to 2 for PRS mode (to take into account average PRS 
1559:.\Generated_Source\PSoC4/capsense_Sensing.c ****             autoTuneConfig.sensitivity = ptrWdgt->sensitivity << capsense_PRS_FACTOR_DIV;
 697              		.loc 1 1559 0
 698 0040 A389     		ldrh	r3, [r4, #12]
 699 0042 5B00     		lsl	r3, r3, #1
 700 0044 6A46     		mov	r2, sp
 701 0046 D380     		strh	r3, [r2, #6]
1560:.\Generated_Source\PSoC4/capsense_Sensing.c **** 
1561:.\Generated_Source\PSoC4/capsense_Sensing.c ****             /* Init pointer to sigPPf */
1562:.\Generated_Source\PSoC4/capsense_Sensing.c ****             autoTuneConfig.sigPPf = &ptrWdgt->sigPPf;
 702              		.loc 1 1562 0
 703 0048 231C     		mov	r3, r4
ARM GAS  C:\Users\Alan\AppData\Local\Temp\ccBkjVf3.s 			page 41


 704 004a 0E33     		add	r3, r3, #14
 705 004c 0593     		str	r3, [sp, #20]
1563:.\Generated_Source\PSoC4/capsense_Sensing.c **** 
1564:.\Generated_Source\PSoC4/capsense_Sensing.c ****             /* Set calibration resolution to 12 bits */
1565:.\Generated_Source\PSoC4/capsense_Sensing.c ****             ptrWdgt->resolution = capsense_CALIBRATION_RESOLUTION;
 706              		.loc 1 1565 0
 707 004e 0C23     		mov	r3, #12
 708 0050 2380     		strh	r3, [r4]
1566:.\Generated_Source\PSoC4/capsense_Sensing.c **** 
1567:.\Generated_Source\PSoC4/capsense_Sensing.c ****             /* Set Sense clock frequency to 1.5 MHz */
1568:.\Generated_Source\PSoC4/capsense_Sensing.c ****             #if (capsense_ENABLE == capsense_CSD_COMMON_SNS_CLK_EN)
1569:.\Generated_Source\PSoC4/capsense_Sensing.c ****                 capsense_dsRam.snsCsdClk = (uint8)((uint32)autoTuneConfig.snsClkInputClock / 
1570:.\Generated_Source\PSoC4/capsense_Sensing.c ****                                                    capsense_CALIBRATION_FREQ_KHZ);
1571:.\Generated_Source\PSoC4/capsense_Sensing.c ****             #elif (capsense_CSD_MATRIX_WIDGET_EN | capsense_CSD_TOUCHPAD_WIDGET_EN)
1572:.\Generated_Source\PSoC4/capsense_Sensing.c ****                 ptrWdgt->rowSnsClk = (uint8)((uint32)autoTuneConfig.snsClkInputClock / 
1573:.\Generated_Source\PSoC4/capsense_Sensing.c ****                                      capsense_CALIBRATION_FREQ_KHZ);    
1574:.\Generated_Source\PSoC4/capsense_Sensing.c ****                 ptrWdgt->snsClk = (uint8)((uint32)autoTuneConfig.snsClkInputClock / 
1575:.\Generated_Source\PSoC4/capsense_Sensing.c ****                                   capsense_CALIBRATION_FREQ_KHZ);
1576:.\Generated_Source\PSoC4/capsense_Sensing.c ****             #else
1577:.\Generated_Source\PSoC4/capsense_Sensing.c ****                 ptrWdgt->snsClk = (uint8)((uint32)autoTuneConfig.snsClkInputClock / 
 709              		.loc 1 1577 0
 710 0052 1089     		ldrh	r0, [r2, #8]
 711 0054 2449     		ldr	r1, .L56+24
 712 0056 FFF7FEFF 		bl	__aeabi_uidiv
 713              	.LVL71:
 714 005a C0B2     		uxtb	r0, r0
 715 005c E072     		strb	r0, [r4, #11]
1578:.\Generated_Source\PSoC4/capsense_Sensing.c ****                                   capsense_CALIBRATION_FREQ_KHZ);
1579:.\Generated_Source\PSoC4/capsense_Sensing.c ****             #endif /*  (capsense_ENABLE == capsense_CSD_COMMON_SNS_CLK_EN) */
1580:.\Generated_Source\PSoC4/capsense_Sensing.c **** 
1581:.\Generated_Source\PSoC4/capsense_Sensing.c ****             #if (capsense_ENABLE == capsense_CSDV2)
1582:.\Generated_Source\PSoC4/capsense_Sensing.c ****                 capsense_ConfigureSnsClock((uint32)ptrWdgt->snsClk);
 716              		.loc 1 1582 0
 717 005e FFF7FEFF 		bl	capsense_ConfigureSnsClock
 718              	.LVL72:
1583:.\Generated_Source\PSoC4/capsense_Sensing.c ****             #endif /* (capsense_ENABLE == capsense_CSDV2) */
1584:.\Generated_Source\PSoC4/capsense_Sensing.c ****         
1585:.\Generated_Source\PSoC4/capsense_Sensing.c ****             /* Set flag to calibrate in PWM mode only */
1586:.\Generated_Source\PSoC4/capsense_Sensing.c ****             capsense_prescalersTuningDone = capsense_DISABLE;
 719              		.loc 1 1586 0
 720 0062 0022     		mov	r2, #0
 721 0064 214B     		ldr	r3, .L56+28
 722 0066 9A70     		strb	r2, [r3, #2]
1587:.\Generated_Source\PSoC4/capsense_Sensing.c **** 
1588:.\Generated_Source\PSoC4/capsense_Sensing.c ****             #if (capsense_DISABLE == capsense_CSD2X_EN)
1589:.\Generated_Source\PSoC4/capsense_Sensing.c ****                 /* Calibrate CSD widget to 85% */
1590:.\Generated_Source\PSoC4/capsense_Sensing.c ****                 (void)capsense_CSDCalibrateWidget(wdgtIndex, capsense_CSD_AUTOTUNE_CAL_LEVEL);
 723              		.loc 1 1590 0
 724 0068 281C     		mov	r0, r5
 725 006a 5521     		mov	r1, #85
 726 006c FFF7FEFF 		bl	capsense_CSDCalibrateWidget
 727              	.LVL73:
1591:.\Generated_Source\PSoC4/capsense_Sensing.c ****             #endif /* (capsense_DISABLE == capsense_CSD2X_EN) */
1592:.\Generated_Source\PSoC4/capsense_Sensing.c **** 
1593:.\Generated_Source\PSoC4/capsense_Sensing.c ****             #if (capsense_CSD_MATRIX_WIDGET_EN | capsense_CSD_TOUCHPAD_WIDGET_EN)
1594:.\Generated_Source\PSoC4/capsense_Sensing.c ****                 if((uint8)(capsense_WD_TOUCHPAD_E | capsense_WD_MATRIX_BUTTON_E) == capsense_dsFlas
1595:.\Generated_Source\PSoC4/capsense_Sensing.c ****                 {
ARM GAS  C:\Users\Alan\AppData\Local\Temp\ccBkjVf3.s 			page 42


1596:.\Generated_Source\PSoC4/capsense_Sensing.c ****                     /* Get pointer to Modulator IDAC for columns */
1597:.\Generated_Source\PSoC4/capsense_Sensing.c ****                     autoTuneConfig.ptrModIDAC = &ptrWdgt->rowIdacMod[0u];
1598:.\Generated_Source\PSoC4/capsense_Sensing.c ****                     
1599:.\Generated_Source\PSoC4/capsense_Sensing.c ****                     /* Get pointer to Sense Clock Divider for columns */
1600:.\Generated_Source\PSoC4/capsense_Sensing.c ****                     autoTuneConfig.ptrSenseClk = &ptrWdgt->rowSnsClk;
1601:.\Generated_Source\PSoC4/capsense_Sensing.c **** 
1602:.\Generated_Source\PSoC4/capsense_Sensing.c ****                     /* Find correct sense clock value */
1603:.\Generated_Source\PSoC4/capsense_Sensing.c ****                     cp = SmartSense_TunePrescalers(&autoTuneConfig);
1604:.\Generated_Source\PSoC4/capsense_Sensing.c **** 
1605:.\Generated_Source\PSoC4/capsense_Sensing.c ****                     if ((capsense_CP_MAX + capsense_CP_ERROR) <= cp)
1606:.\Generated_Source\PSoC4/capsense_Sensing.c ****                     {
1607:.\Generated_Source\PSoC4/capsense_Sensing.c ****                         autoTuneStatus = CYRET_BAD_DATA;
1608:.\Generated_Source\PSoC4/capsense_Sensing.c ****                     }
1609:.\Generated_Source\PSoC4/capsense_Sensing.c ****                     
1610:.\Generated_Source\PSoC4/capsense_Sensing.c ****                     #if (capsense_ENABLE == capsense_CSDV2)
1611:.\Generated_Source\PSoC4/capsense_Sensing.c ****                         /* Make sure that ModClk >= 4 * rowSnsClk for ModClk <= 12 MHz and rowSnsCl
1612:.\Generated_Source\PSoC4/capsense_Sensing.c ****                         if (autoTuneConfig.snsClkInputClock <= capsense_MOD_CSD_CLK_24000KHZ)
1613:.\Generated_Source\PSoC4/capsense_Sensing.c ****                         {
1614:.\Generated_Source\PSoC4/capsense_Sensing.c ****                             if (ptrWdgt->rowSnsClk < capsense_FACTOR_FILTER_DELAY_12MHZ)
1615:.\Generated_Source\PSoC4/capsense_Sensing.c ****                             {
1616:.\Generated_Source\PSoC4/capsense_Sensing.c ****                                 ptrWdgt->rowSnsClk = capsense_FACTOR_FILTER_DELAY_12MHZ;
1617:.\Generated_Source\PSoC4/capsense_Sensing.c ****                             }
1618:.\Generated_Source\PSoC4/capsense_Sensing.c ****                         }
1619:.\Generated_Source\PSoC4/capsense_Sensing.c ****                         else if (autoTuneConfig.snsClkInputClock <= capsense_MOD_CSD_CLK_48000KHZ)
1620:.\Generated_Source\PSoC4/capsense_Sensing.c ****                         {
1621:.\Generated_Source\PSoC4/capsense_Sensing.c ****                             if (ptrWdgt->rowSnsClk < capsense_FACTOR_MOD_SNS)
1622:.\Generated_Source\PSoC4/capsense_Sensing.c ****                             {
1623:.\Generated_Source\PSoC4/capsense_Sensing.c ****                                 ptrWdgt->rowSnsClk = capsense_FACTOR_MOD_SNS;
1624:.\Generated_Source\PSoC4/capsense_Sensing.c ****                             }
1625:.\Generated_Source\PSoC4/capsense_Sensing.c ****                         }
1626:.\Generated_Source\PSoC4/capsense_Sensing.c ****                         else
1627:.\Generated_Source\PSoC4/capsense_Sensing.c ****                         {
1628:.\Generated_Source\PSoC4/capsense_Sensing.c ****                             /* rowSnsClk is valid*/
1629:.\Generated_Source\PSoC4/capsense_Sensing.c ****                         }
1630:.\Generated_Source\PSoC4/capsense_Sensing.c ****                     #endif /* (capsense_ENABLE == capsense_CSDV2) */
1631:.\Generated_Source\PSoC4/capsense_Sensing.c ****                 }
1632:.\Generated_Source\PSoC4/capsense_Sensing.c ****             #endif /* (capsense_CSD_MATRIX_WIDGET_EN | capsense_CSD_TOUCHPAD_WIDGET_EN) */
1633:.\Generated_Source\PSoC4/capsense_Sensing.c **** 
1634:.\Generated_Source\PSoC4/capsense_Sensing.c ****             /* Get pointer to Modulator IDAC  for rows */
1635:.\Generated_Source\PSoC4/capsense_Sensing.c ****             autoTuneConfig.ptrModIDAC = &ptrWdgt->idacMod[0u];
 728              		.loc 1 1635 0
 729 0070 231C     		mov	r3, r4
 730 0072 0A33     		add	r3, r3, #10
 731 0074 0393     		str	r3, [sp, #12]
1636:.\Generated_Source\PSoC4/capsense_Sensing.c ****                 
1637:.\Generated_Source\PSoC4/capsense_Sensing.c ****             /* Get pointer to Sense Clock Divider for columns */
1638:.\Generated_Source\PSoC4/capsense_Sensing.c ****             autoTuneConfig.ptrSenseClk = &ptrWdgt->snsClk;
 732              		.loc 1 1638 0
 733 0076 0133     		add	r3, r3, #1
 734 0078 0493     		str	r3, [sp, #16]
1639:.\Generated_Source\PSoC4/capsense_Sensing.c ****                
1640:.\Generated_Source\PSoC4/capsense_Sensing.c ****             /* Find correct sense clock value */
1641:.\Generated_Source\PSoC4/capsense_Sensing.c ****             cp = SmartSense_TunePrescalers(&autoTuneConfig);
 735              		.loc 1 1641 0
 736 007a 6846     		mov	r0, sp
 737 007c FFF7FEFF 		bl	SmartSense_TunePrescalers
 738              	.LVL74:
ARM GAS  C:\Users\Alan\AppData\Local\Temp\ccBkjVf3.s 			page 43


1642:.\Generated_Source\PSoC4/capsense_Sensing.c **** 
1643:.\Generated_Source\PSoC4/capsense_Sensing.c ****             if ((capsense_CP_MAX + capsense_CP_ERROR) <= cp)
 739              		.loc 1 1643 0
 740 0080 4428     		cmp	r0, #68
 741 0082 00D9     		bls	.L51
1644:.\Generated_Source\PSoC4/capsense_Sensing.c ****             {
1645:.\Generated_Source\PSoC4/capsense_Sensing.c ****                 autoTuneStatus = CYRET_BAD_DATA;
 742              		.loc 1 1645 0
 743 0084 0626     		mov	r6, #6
 744              	.LVL75:
 745              	.L51:
1646:.\Generated_Source\PSoC4/capsense_Sensing.c ****             }
1647:.\Generated_Source\PSoC4/capsense_Sensing.c ****             
1648:.\Generated_Source\PSoC4/capsense_Sensing.c ****             #if (capsense_ENABLE == capsense_CSDV2)
1649:.\Generated_Source\PSoC4/capsense_Sensing.c ****                 /* Make sure that ModClk >= 4 * SnsClk for ModClk <= 12 MHz and SnsClk <= 6MHz */
1650:.\Generated_Source\PSoC4/capsense_Sensing.c ****                 if (autoTuneConfig.snsClkInputClock <= capsense_MOD_CSD_CLK_24000KHZ)
 746              		.loc 1 1650 0
 747 0086 6B46     		mov	r3, sp
 748 0088 1B89     		ldrh	r3, [r3, #8]
 749 008a 134A     		ldr	r2, .L56+8
 750 008c 9342     		cmp	r3, r2
 751 008e 05D8     		bhi	.L52
1651:.\Generated_Source\PSoC4/capsense_Sensing.c ****                 {
1652:.\Generated_Source\PSoC4/capsense_Sensing.c ****                     if (ptrWdgt->snsClk < capsense_FACTOR_FILTER_DELAY_12MHZ)
 752              		.loc 1 1652 0
 753 0090 E37A     		ldrb	r3, [r4, #11]
 754 0092 012B     		cmp	r3, #1
 755 0094 0AD8     		bhi	.L53
1653:.\Generated_Source\PSoC4/capsense_Sensing.c ****                     {
1654:.\Generated_Source\PSoC4/capsense_Sensing.c ****                         ptrWdgt->snsClk = capsense_FACTOR_FILTER_DELAY_12MHZ;
 756              		.loc 1 1654 0
 757 0096 0223     		mov	r3, #2
 758 0098 E372     		strb	r3, [r4, #11]
 759 009a 07E0     		b	.L53
 760              	.L52:
1655:.\Generated_Source\PSoC4/capsense_Sensing.c ****                     }
1656:.\Generated_Source\PSoC4/capsense_Sensing.c ****                 }
1657:.\Generated_Source\PSoC4/capsense_Sensing.c ****                 else if (autoTuneConfig.snsClkInputClock <= capsense_MOD_CSD_CLK_48000KHZ)
 761              		.loc 1 1657 0
 762 009c 144A     		ldr	r2, .L56+32
 763 009e 9342     		cmp	r3, r2
 764 00a0 04D8     		bhi	.L53
1658:.\Generated_Source\PSoC4/capsense_Sensing.c ****                 {
1659:.\Generated_Source\PSoC4/capsense_Sensing.c ****                     if (ptrWdgt->snsClk < capsense_FACTOR_MOD_SNS)
 765              		.loc 1 1659 0
 766 00a2 E37A     		ldrb	r3, [r4, #11]
 767 00a4 072B     		cmp	r3, #7
 768 00a6 01D8     		bhi	.L53
1660:.\Generated_Source\PSoC4/capsense_Sensing.c ****                     {
1661:.\Generated_Source\PSoC4/capsense_Sensing.c ****                         ptrWdgt->snsClk = capsense_FACTOR_MOD_SNS;
 769              		.loc 1 1661 0
 770 00a8 0823     		mov	r3, #8
 771 00aa E372     		strb	r3, [r4, #11]
 772              	.L53:
1662:.\Generated_Source\PSoC4/capsense_Sensing.c ****                     }
1663:.\Generated_Source\PSoC4/capsense_Sensing.c ****                 }
1664:.\Generated_Source\PSoC4/capsense_Sensing.c ****                 else
ARM GAS  C:\Users\Alan\AppData\Local\Temp\ccBkjVf3.s 			page 44


1665:.\Generated_Source\PSoC4/capsense_Sensing.c ****                 {
1666:.\Generated_Source\PSoC4/capsense_Sensing.c ****                     /* SnsClk is valid*/
1667:.\Generated_Source\PSoC4/capsense_Sensing.c ****                 }
1668:.\Generated_Source\PSoC4/capsense_Sensing.c ****             #endif /* (capsense_ENABLE == capsense_CSDV2) */
1669:.\Generated_Source\PSoC4/capsense_Sensing.c ****             
1670:.\Generated_Source\PSoC4/capsense_Sensing.c ****             /* Set flag to indicate that calibration in PWM mode has been performed */
1671:.\Generated_Source\PSoC4/capsense_Sensing.c ****             capsense_prescalersTuningDone = 1u;
 773              		.loc 1 1671 0
 774 00ac 0122     		mov	r2, #1
 775 00ae 0F4B     		ldr	r3, .L56+28
 776 00b0 9A70     		strb	r2, [r3, #2]
1672:.\Generated_Source\PSoC4/capsense_Sensing.c **** 
1673:.\Generated_Source\PSoC4/capsense_Sensing.c ****             #if (capsense_DISABLE == capsense_CSD2X_EN)
1674:.\Generated_Source\PSoC4/capsense_Sensing.c ****                 /* Calibrate CSD widget to 85% */
1675:.\Generated_Source\PSoC4/capsense_Sensing.c ****                 autoTuneStatus |= capsense_CSDCalibrateWidget(wdgtIndex, capsense_CSD_AUTOTUNE_CAL_
 777              		.loc 1 1675 0
 778 00b2 281C     		mov	r0, r5
 779              	.LVL76:
 780 00b4 5521     		mov	r1, #85
 781 00b6 FFF7FEFF 		bl	capsense_CSDCalibrateWidget
 782              	.LVL77:
 783 00ba 0643     		orr	r6, r0
 784              	.LVL78:
1676:.\Generated_Source\PSoC4/capsense_Sensing.c ****             #endif /* (capsense_DISABLE == capsense_CSD2X_EN) */
1677:.\Generated_Source\PSoC4/capsense_Sensing.c **** 
1678:.\Generated_Source\PSoC4/capsense_Sensing.c ****             /* Find resolution */
1679:.\Generated_Source\PSoC4/capsense_Sensing.c ****             ptrWdgt->resolution = SmartSense_TuneSensitivity(&autoTuneConfig);
 785              		.loc 1 1679 0
 786 00bc 6846     		mov	r0, sp
 787 00be FFF7FEFF 		bl	SmartSense_TuneSensitivity
 788              	.LVL79:
 789 00c2 2080     		strh	r0, [r4]
1547:.\Generated_Source\PSoC4/capsense_Sensing.c ****     {
 790              		.loc 1 1547 0
 791 00c4 0135     		add	r5, r5, #1
 792              	.LVL80:
 793              	.L50:
1547:.\Generated_Source\PSoC4/capsense_Sensing.c ****     {
 794              		.loc 1 1547 0 is_stmt 0 discriminator 1
 795 00c6 002D     		cmp	r5, #0
 796 00c8 AFD0     		beq	.L54
1680:.\Generated_Source\PSoC4/capsense_Sensing.c ****         }
1681:.\Generated_Source\PSoC4/capsense_Sensing.c ****     }
1682:.\Generated_Source\PSoC4/capsense_Sensing.c ****     return autoTuneStatus;
1683:.\Generated_Source\PSoC4/capsense_Sensing.c **** }
 797              		.loc 1 1683 0 is_stmt 1
 798 00ca 301C     		mov	r0, r6
 799 00cc 06B0     		add	sp, sp, #24
 800              		@ sp needed
 801              	.LVL81:
 802              	.LVL82:
 803 00ce 70BD     		pop	{r4, r5, r6, pc}
 804              	.L57:
 805              		.align	2
 806              	.L56:
 807 00d0 55080000 		.word	2133
 808 00d4 00000000 		.word	capsense_dsRam
ARM GAS  C:\Users\Alan\AppData\Local\Temp\ccBkjVf3.s 			page 45


 809 00d8 C05D0000 		.word	24000
 810 00dc 00000000 		.word	capsense_dsFlash
 811 00e0 00020B40 		.word	1074463232
 812 00e4 FFFFF8FD 		.word	-34013185
 813 00e8 DC050000 		.word	1500
 814 00ec 00000000 		.word	.LANCHOR0
 815 00f0 80BB0000 		.word	48000
 816              		.cfi_endproc
 817              	.LFE14:
 818              		.size	capsense_AutoTune, .-capsense_AutoTune
 819              		.comm	capsense_curRamSnsPtr,4,4
 820              		.global	capsense_prescalersTuningDone
 821              		.global	capsense_requestScanAllWidget
 822              		.global	capsense_curWidgetResolution
 823              		.global	capsense_sensorIndex
 824              		.global	capsense_widgetIndex
 825              		.global	capsense_scanFreqIndex
 826              		.section	.rodata
 827              		.type	capsense_scanFreqIndex, %object
 828              		.size	capsense_scanFreqIndex, 1
 829              	capsense_scanFreqIndex:
 830 0000 00       		.space	1
 831              		.bss
 832              		.align	2
 833              		.set	.LANCHOR0,. + 0
 834              		.type	capsense_widgetIndex, %object
 835              		.size	capsense_widgetIndex, 1
 836              	capsense_widgetIndex:
 837 0000 00       		.space	1
 838              		.type	capsense_requestScanAllWidget, %object
 839              		.size	capsense_requestScanAllWidget, 1
 840              	capsense_requestScanAllWidget:
 841 0001 00       		.space	1
 842              		.type	capsense_prescalersTuningDone, %object
 843              		.size	capsense_prescalersTuningDone, 1
 844              	capsense_prescalersTuningDone:
 845 0002 00       		.space	1
 846 0003 00       		.space	1
 847              		.type	capsense_curWidgetResolution, %object
 848              		.size	capsense_curWidgetResolution, 4
 849              	capsense_curWidgetResolution:
 850 0004 00000000 		.space	4
 851              		.type	capsense_sensorIndex, %object
 852              		.size	capsense_sensorIndex, 1
 853              	capsense_sensorIndex:
 854 0008 00       		.space	1
 855 0009 000000   		.text
 856              	.Letext0:
 857              		.file 2 "Generated_Source\\PSoC4/cytypes.h"
 858              		.file 3 ".\\Generated_Source\\PSoC4\\capsense_Configuration.h"
 859              		.file 4 ".\\Generated_Source\\PSoC4\\capsense_SmartSense_LL.h"
 860              		.file 5 ".\\Generated_Source\\PSoC4\\capsense_Structure.h"
 861              		.file 6 ".\\Generated_Source\\PSoC4\\capsense_SensingCSD_LL.h"
 862              		.file 7 "Generated_Source\\PSoC4/CyLib.h"
 863              		.file 8 ".\\Generated_Source\\PSoC4\\capsense_ISR.h"