ARM GAS  C:\Users\Alan\AppData\Local\Temp\ccLROj73.s 			page 1


   1              		.cpu cortex-m0plus
   2              		.fpu softvfp
   3              		.eabi_attribute 20, 1
   4              		.eabi_attribute 21, 1
   5              		.eabi_attribute 23, 3
   6              		.eabi_attribute 24, 1
   7              		.eabi_attribute 25, 1
   8              		.eabi_attribute 26, 1
   9              		.eabi_attribute 30, 1
  10              		.eabi_attribute 34, 0
  11              		.eabi_attribute 18, 4
  12              		.code	16
  13              		.file	"main.c"
  14              		.text
  15              	.Ltext0:
  16              		.cfi_sections	.debug_frame
  17              		.section	.text.setFlag,"ax",%progbits
  18              		.align	2
  19              		.global	setFlag
  20              		.code	16
  21              		.thumb_func
  22              		.type	setFlag, %function
  23              	setFlag:
  24              	.LFB35:
  25              		.file 1 ".\\main.c"
   1:.\main.c      **** 
   2:.\main.c      **** #include <project.h>
   3:.\main.c      **** 
   4:.\main.c      **** #define LED_OFF 1
   5:.\main.c      **** #define LED_ON 0
   6:.\main.c      **** 
   7:.\main.c      **** int flag;
   8:.\main.c      **** 
   9:.\main.c      **** CY_ISR(setFlag)
  10:.\main.c      **** {
  26              		.loc 1 10 0
  27              		.cfi_startproc
  28 0000 08B5     		push	{r3, lr}
  29              		.cfi_def_cfa_offset 8
  30              		.cfi_offset 3, -8
  31              		.cfi_offset 14, -4
  11:.\main.c      ****     flag = 1;
  32              		.loc 1 11 0
  33 0002 0122     		mov	r2, #1
  34 0004 024B     		ldr	r3, .L2
  35 0006 1A60     		str	r2, [r3]
  12:.\main.c      ****     Timer_1_ClearInterrupt(Timer_1_INTR_MASK_TC);
  36              		.loc 1 12 0
  37 0008 0120     		mov	r0, #1
  38 000a FFF7FEFF 		bl	Timer_1_ClearInterrupt
  39              	.LVL0:
  13:.\main.c      **** }
  40              		.loc 1 13 0
  41              		@ sp needed
  42 000e 08BD     		pop	{r3, pc}
  43              	.L3:
  44              		.align	2
ARM GAS  C:\Users\Alan\AppData\Local\Temp\ccLROj73.s 			page 2


  45              	.L2:
  46 0010 00000000 		.word	flag
  47              		.cfi_endproc
  48              	.LFE35:
  49              		.size	setFlag, .-setFlag
  50              		.section	.text.main,"ax",%progbits
  51              		.align	2
  52              		.global	main
  53              		.code	16
  54              		.thumb_func
  55              		.type	main, %function
  56              	main:
  57              	.LFB36:
  14:.\main.c      **** 
  15:.\main.c      **** int main()
  16:.\main.c      **** {
  58              		.loc 1 16 0
  59              		.cfi_startproc
  60 0000 38B5     		push	{r3, r4, r5, lr}
  61              		.cfi_def_cfa_offset 16
  62              		.cfi_offset 3, -16
  63              		.cfi_offset 4, -12
  64              		.cfi_offset 5, -8
  65              		.cfi_offset 14, -4
  66              	.LVL1:
  17:.\main.c      ****     uint32 fingerPos = 0xFFFF;
  18:.\main.c      ****     uint32 previousPos = 0xFFFF;
  19:.\main.c      ****     uint32 triggerRead=0;
  20:.\main.c      ****     
  21:.\main.c      ****     CyDelay(500);
  67              		.loc 1 21 0
  68 0002 FA20     		mov	r0, #250
  69 0004 4000     		lsl	r0, r0, #1
  70 0006 FFF7FEFF 		bl	CyDelay
  71              	.LVL2:
  22:.\main.c      ****     
  23:.\main.c      ****     indicate_Write(1);
  72              		.loc 1 23 0
  73 000a 0120     		mov	r0, #1
  74 000c FFF7FEFF 		bl	indicate_Write
  75              	.LVL3:
  24:.\main.c      ****     
  25:.\main.c      ****     
  26:.\main.c      ****     CyGlobalIntEnable; 
  76              		.loc 1 26 0
  77              	@ 26 ".\main.c" 1
  78 0010 62B6     		CPSIE   i
  79              	@ 0 "" 2
  27:.\main.c      ****    
  28:.\main.c      ****     capsense_Start();
  80              		.loc 1 28 0
  81              		.code	16
  82 0012 FFF7FEFF 		bl	capsense_Start
  83              	.LVL4:
  29:.\main.c      ****     capsense_InitializeAllBaselines();
  84              		.loc 1 29 0
  85 0016 FFF7FEFF 		bl	capsense_InitializeAllBaselines
ARM GAS  C:\Users\Alan\AppData\Local\Temp\ccLROj73.s 			page 3


  86              	.LVL5:
  30:.\main.c      **** 
  31:.\main.c      ****     I2C_Start();
  87              		.loc 1 31 0
  88 001a FFF7FEFF 		bl	I2C_Start
  89              	.LVL6:
  32:.\main.c      ****     
  33:.\main.c      ****     isr_1_StartEx(setFlag);
  90              		.loc 1 33 0
  91 001e 3F48     		ldr	r0, .L21
  92 0020 FFF7FEFF 		bl	isr_1_StartEx
  93              	.LVL7:
  34:.\main.c      ****     Timer_1_Start();
  94              		.loc 1 34 0
  95 0024 FFF7FEFF 		bl	Timer_1_Start
  96              	.LVL8:
  17:.\main.c      ****     uint32 previousPos = 0xFFFF;
  97              		.loc 1 17 0
  98 0028 3D4D     		ldr	r5, .L21+4
  99 002a 00E0     		b	.L5
 100              	.LVL9:
 101              	.L19:
  16:.\main.c      ****     uint32 fingerPos = 0xFFFF;
 102              		.loc 1 16 0
 103 002c 251C     		mov	r5, r4
 104              	.LVL10:
 105              	.L5:
  35:.\main.c      ****     
  36:.\main.c      ****     for(;;)
  37:.\main.c      ****     {
  38:.\main.c      ****         if(!capsense_IsBusy()) {
 106              		.loc 1 38 0
 107 002e FFF7FEFF 		bl	capsense_IsBusy
 108              	.LVL11:
 109 0032 0028     		cmp	r0, #0
 110 0034 4AD1     		bne	.L20
  39:.\main.c      ****             capsense_ProcessAllWidgets();
 111              		.loc 1 39 0
 112 0036 FFF7FEFF 		bl	capsense_ProcessAllWidgets
 113              	.LVL12:
  40:.\main.c      ****             fingerPos = capsense_GetCentroidPos(capsense_LINEARSLIDER0_WDGT_ID);
 114              		.loc 1 40 0
 115 003a 0020     		mov	r0, #0
 116 003c FFF7FEFF 		bl	capsense_GetCentroidPos
 117              	.LVL13:
 118 0040 041E     		sub	r4, r0, #0
 119              	.LVL14:
  41:.\main.c      ****             if(fingerPos !=0xFFFF)
 120              		.loc 1 41 0
 121 0042 374B     		ldr	r3, .L21+4
 122 0044 9C42     		cmp	r4, r3
 123 0046 2DD0     		beq	.L7
  42:.\main.c      ****             {
  43:.\main.c      ****                 // the 10,30,50,70,90 were found empiracally to "feel" right
  44:.\main.c      ****                 (fingerPos>10?led0_Write(LED_ON):led0_Write(LED_OFF));
 124              		.loc 1 44 0
 125 0048 0A28     		cmp	r0, #10
ARM GAS  C:\Users\Alan\AppData\Local\Temp\ccLROj73.s 			page 4


 126 004a 03D9     		bls	.L8
 127              		.loc 1 44 0 is_stmt 0 discriminator 1
 128 004c 0020     		mov	r0, #0
 129              	.LVL15:
 130 004e FFF7FEFF 		bl	led0_Write
 131              	.LVL16:
 132 0052 02E0     		b	.L9
 133              	.LVL17:
 134              	.L8:
 135              		.loc 1 44 0 discriminator 2
 136 0054 0120     		mov	r0, #1
 137              	.LVL18:
 138 0056 FFF7FEFF 		bl	led0_Write
 139              	.LVL19:
 140              	.L9:
  45:.\main.c      ****                 (fingerPos>30?led1_Write(LED_ON):led1_Write(LED_OFF));
 141              		.loc 1 45 0 is_stmt 1
 142 005a 1E2C     		cmp	r4, #30
 143 005c 03D9     		bls	.L10
 144              		.loc 1 45 0 is_stmt 0 discriminator 1
 145 005e 0020     		mov	r0, #0
 146 0060 FFF7FEFF 		bl	led1_Write
 147              	.LVL20:
 148 0064 02E0     		b	.L11
 149              	.L10:
 150              		.loc 1 45 0 discriminator 2
 151 0066 0120     		mov	r0, #1
 152 0068 FFF7FEFF 		bl	led1_Write
 153              	.LVL21:
 154              	.L11:
  46:.\main.c      ****                 (fingerPos>50?led2_Write(LED_ON):led2_Write(LED_OFF));
 155              		.loc 1 46 0 is_stmt 1
 156 006c 322C     		cmp	r4, #50
 157 006e 03D9     		bls	.L12
 158              		.loc 1 46 0 is_stmt 0 discriminator 1
 159 0070 0020     		mov	r0, #0
 160 0072 FFF7FEFF 		bl	led2_Write
 161              	.LVL22:
 162 0076 02E0     		b	.L13
 163              	.L12:
 164              		.loc 1 46 0 discriminator 2
 165 0078 0120     		mov	r0, #1
 166 007a FFF7FEFF 		bl	led2_Write
 167              	.LVL23:
 168              	.L13:
  47:.\main.c      ****                 (fingerPos>70?led3_Write(LED_ON):led3_Write(LED_OFF));
 169              		.loc 1 47 0 is_stmt 1
 170 007e 462C     		cmp	r4, #70
 171 0080 03D9     		bls	.L14
 172              		.loc 1 47 0 is_stmt 0 discriminator 1
 173 0082 0020     		mov	r0, #0
 174 0084 FFF7FEFF 		bl	led3_Write
 175              	.LVL24:
 176 0088 02E0     		b	.L15
 177              	.L14:
 178              		.loc 1 47 0 discriminator 2
 179 008a 0120     		mov	r0, #1
ARM GAS  C:\Users\Alan\AppData\Local\Temp\ccLROj73.s 			page 5


 180 008c FFF7FEFF 		bl	led3_Write
 181              	.LVL25:
 182              	.L15:
  48:.\main.c      ****                 (fingerPos>90?led4_Write(LED_ON):led4_Write(LED_OFF));
 183              		.loc 1 48 0 is_stmt 1
 184 0090 5A2C     		cmp	r4, #90
 185 0092 03D9     		bls	.L16
 186              		.loc 1 48 0 is_stmt 0 discriminator 1
 187 0094 0020     		mov	r0, #0
 188 0096 FFF7FEFF 		bl	led4_Write
 189              	.LVL26:
 190 009a 12E0     		b	.L17
 191              	.L16:
 192              		.loc 1 48 0 discriminator 2
 193 009c 0120     		mov	r0, #1
 194 009e FFF7FEFF 		bl	led4_Write
 195              	.LVL27:
 196 00a2 0EE0     		b	.L17
 197              	.LVL28:
 198              	.L7:
  49:.\main.c      ****             }
  50:.\main.c      ****             else
  51:.\main.c      ****             {
  52:.\main.c      ****                 led0_Write(LED_OFF); 
 199              		.loc 1 52 0 is_stmt 1
 200 00a4 0120     		mov	r0, #1
 201              	.LVL29:
 202 00a6 FFF7FEFF 		bl	led0_Write
 203              	.LVL30:
  53:.\main.c      ****                 led1_Write(LED_OFF);
 204              		.loc 1 53 0
 205 00aa 0120     		mov	r0, #1
 206 00ac FFF7FEFF 		bl	led1_Write
 207              	.LVL31:
  54:.\main.c      ****                 led2_Write(LED_OFF);
 208              		.loc 1 54 0
 209 00b0 0120     		mov	r0, #1
 210 00b2 FFF7FEFF 		bl	led2_Write
 211              	.LVL32:
  55:.\main.c      ****                 led3_Write(LED_OFF);
 212              		.loc 1 55 0
 213 00b6 0120     		mov	r0, #1
 214 00b8 FFF7FEFF 		bl	led3_Write
 215              	.LVL33:
  56:.\main.c      ****                 led4_Write(LED_OFF);    
 216              		.loc 1 56 0
 217 00bc 0120     		mov	r0, #1
 218 00be FFF7FEFF 		bl	led4_Write
 219              	.LVL34:
 220              	.L17:
  57:.\main.c      ****             }
  58:.\main.c      ****             
  59:.\main.c      ****             
  60:.\main.c      ****             capsense_UpdateAllBaselines();
 221              		.loc 1 60 0
 222 00c2 FFF7FEFF 		bl	capsense_UpdateAllBaselines
 223              	.LVL35:
ARM GAS  C:\Users\Alan\AppData\Local\Temp\ccLROj73.s 			page 6


  61:.\main.c      ****             capsense_ScanAllWidgets();
 224              		.loc 1 61 0
 225 00c6 FFF7FEFF 		bl	capsense_ScanAllWidgets
 226              	.LVL36:
 227 00ca 00E0     		b	.L6
 228              	.LVL37:
 229              	.L20:
 230 00cc 2C1C     		mov	r4, r5
 231              	.LVL38:
 232              	.L6:
  62:.\main.c      ****         
  63:.\main.c      ****         }
  64:.\main.c      ****         
  65:.\main.c      ****         if(fingerPos != previousPos)
 233              		.loc 1 65 0
 234 00ce AC42     		cmp	r4, r5
 235 00d0 0BD0     		beq	.L18
  66:.\main.c      ****         {
  67:.\main.c      ****             I2C_I2CMasterSendStart(0x08, I2C_I2C_WRITE_XFER_MODE);
 236              		.loc 1 67 0
 237 00d2 0820     		mov	r0, #8
 238 00d4 0021     		mov	r1, #0
 239 00d6 FFF7FEFF 		bl	I2C_I2CMasterSendStart
 240              	.LVL39:
  68:.\main.c      ****             I2C_I2CMasterWriteByte(0);
 241              		.loc 1 68 0
 242 00da 0020     		mov	r0, #0
 243 00dc FFF7FEFF 		bl	I2C_I2CMasterWriteByte
 244              	.LVL40:
  69:.\main.c      ****             I2C_I2CMasterWriteByte(fingerPos);
 245              		.loc 1 69 0
 246 00e0 201C     		mov	r0, r4
 247 00e2 FFF7FEFF 		bl	I2C_I2CMasterWriteByte
 248              	.LVL41:
  70:.\main.c      ****             I2C_I2CMasterSendStop();
 249              		.loc 1 70 0
 250 00e6 FFF7FEFF 		bl	I2C_I2CMasterSendStop
 251              	.LVL42:
 252              	.L18:
  71:.\main.c      ****         }
  72:.\main.c      ****         previousPos = fingerPos;
  73:.\main.c      ****         
  74:.\main.c      ****         if(flag)
 253              		.loc 1 74 0
 254 00ea 0E4B     		ldr	r3, .L21+8
 255 00ec 1B68     		ldr	r3, [r3]
 256 00ee 002B     		cmp	r3, #0
 257 00f0 9CD0     		beq	.L19
  75:.\main.c      ****         {
  76:.\main.c      ****             flag = 0;
 258              		.loc 1 76 0
 259 00f2 0022     		mov	r2, #0
 260 00f4 0B4B     		ldr	r3, .L21+8
 261 00f6 1A60     		str	r2, [r3]
  77:.\main.c      ****             I2C_I2CMasterSendStart(0x08, I2C_I2C_READ_XFER_MODE);
 262              		.loc 1 77 0
 263 00f8 0820     		mov	r0, #8
ARM GAS  C:\Users\Alan\AppData\Local\Temp\ccLROj73.s 			page 7


 264 00fa 0121     		mov	r1, #1
 265 00fc FFF7FEFF 		bl	I2C_I2CMasterSendStart
 266              	.LVL43:
  78:.\main.c      ****             I2C_I2CMasterReadByte(I2C_I2C_ACK_DATA);
 267              		.loc 1 78 0
 268 0100 0020     		mov	r0, #0
 269 0102 FFF7FEFF 		bl	I2C_I2CMasterReadByte
 270              	.LVL44:
  79:.\main.c      ****             blue_Write(!I2C_I2CMasterReadByte(I2C_I2C_NAK_DATA));
 271              		.loc 1 79 0
 272 0106 0120     		mov	r0, #1
 273 0108 FFF7FEFF 		bl	I2C_I2CMasterReadByte
 274              	.LVL45:
 275 010c 4342     		neg	r3, r0
 276 010e 5841     		adc	r0, r0, r3
 277 0110 C0B2     		uxtb	r0, r0
 278 0112 FFF7FEFF 		bl	blue_Write
 279              	.LVL46:
  80:.\main.c      ****             I2C_I2CMasterSendStop();
 280              		.loc 1 80 0
 281 0116 FFF7FEFF 		bl	I2C_I2CMasterSendStop
 282              	.LVL47:
 283 011a 87E7     		b	.L19
 284              	.L22:
 285              		.align	2
 286              	.L21:
 287 011c 00000000 		.word	setFlag
 288 0120 FFFF0000 		.word	65535
 289 0124 00000000 		.word	flag
 290              		.cfi_endproc
 291              	.LFE36:
 292              		.size	main, .-main
 293              		.comm	flag,4,4
 294              		.text
 295              	.Letext0:
 296              		.file 2 "Generated_Source\\PSoC4/cytypes.h"
 297              		.file 3 "Generated_Source\\PSoC4/Timer_1.h"
 298              		.file 4 "Generated_Source\\PSoC4/CyLib.h"
 299              		.file 5 "Generated_Source\\PSoC4/indicate.h"
 300              		.file 6 "Generated_Source\\PSoC4/capsense_Filter.h"
 301              		.file 7 "Generated_Source\\PSoC4/I2C.h"
 302              		.file 8 "Generated_Source\\PSoC4/isr_1.h"
 303              		.file 9 "Generated_Source\\PSoC4/capsense_Control.h"
 304              		.file 10 "Generated_Source\\PSoC4/capsense_Sensing.h"
 305              		.file 11 "Generated_Source\\PSoC4/led0.h"
 306              		.file 12 "Generated_Source\\PSoC4/led1.h"
 307              		.file 13 "Generated_Source\\PSoC4/led2.h"
 308              		.file 14 "Generated_Source\\PSoC4/led3.h"
 309              		.file 15 "Generated_Source\\PSoC4/led4.h"
 310              		.file 16 "Generated_Source\\PSoC4/capsense_Structure.h"
 311              		.file 17 "Generated_Source\\PSoC4/I2C_I2C.h"
 312              		.file 18 "Generated_Source\\PSoC4/blue.h"