ARM GAS  C:\Users\Alan\AppData\Local\Temp\ccm2Yinc.s 			page 1


   1              		.cpu cortex-m0plus
   2              		.fpu softvfp
   3              		.eabi_attribute 20, 1
   4              		.eabi_attribute 21, 1
   5              		.eabi_attribute 23, 3
   6              		.eabi_attribute 24, 1
   7              		.eabi_attribute 25, 1
   8              		.eabi_attribute 26, 1
   9              		.eabi_attribute 30, 1
  10              		.eabi_attribute 34, 0
  11              		.eabi_attribute 18, 4
  12              		.code	16
  13              		.file	"uart_UART.c"
  14              		.text
  15              	.Ltext0:
  16              		.cfi_sections	.debug_frame
  17              		.section	.text.uart_UartInit,"ax",%progbits
  18              		.align	2
  19              		.global	uart_UartInit
  20              		.code	16
  21              		.thumb_func
  22              		.type	uart_UartInit, %function
  23              	uart_UartInit:
  24              	.LFB1:
  25              		.file 1 ".\\Generated_Source\\PSoC4\\uart_UART.c"
   1:.\Generated_Source\PSoC4/uart_UART.c **** /*******************************************************************************
   2:.\Generated_Source\PSoC4/uart_UART.c **** * File Name: uart_UART.c
   3:.\Generated_Source\PSoC4/uart_UART.c **** * Version 3.20
   4:.\Generated_Source\PSoC4/uart_UART.c **** *
   5:.\Generated_Source\PSoC4/uart_UART.c **** * Description:
   6:.\Generated_Source\PSoC4/uart_UART.c **** *  This file provides the source code to the API for the SCB Component in
   7:.\Generated_Source\PSoC4/uart_UART.c **** *  UART mode.
   8:.\Generated_Source\PSoC4/uart_UART.c **** *
   9:.\Generated_Source\PSoC4/uart_UART.c **** * Note:
  10:.\Generated_Source\PSoC4/uart_UART.c **** *
  11:.\Generated_Source\PSoC4/uart_UART.c **** *******************************************************************************
  12:.\Generated_Source\PSoC4/uart_UART.c **** * Copyright 2013-2016, Cypress Semiconductor Corporation.  All rights reserved.
  13:.\Generated_Source\PSoC4/uart_UART.c **** * You may use this file only in accordance with the license, terms, conditions,
  14:.\Generated_Source\PSoC4/uart_UART.c **** * disclaimers, and limitations in the end user license agreement accompanying
  15:.\Generated_Source\PSoC4/uart_UART.c **** * the software package with which this file was provided.
  16:.\Generated_Source\PSoC4/uart_UART.c **** *******************************************************************************/
  17:.\Generated_Source\PSoC4/uart_UART.c **** 
  18:.\Generated_Source\PSoC4/uart_UART.c **** #include "uart_PVT.h"
  19:.\Generated_Source\PSoC4/uart_UART.c **** #include "uart_SPI_UART_PVT.h"
  20:.\Generated_Source\PSoC4/uart_UART.c **** #include "cyapicallbacks.h"
  21:.\Generated_Source\PSoC4/uart_UART.c **** 
  22:.\Generated_Source\PSoC4/uart_UART.c **** #if(uart_SCB_MODE_UNCONFIG_CONST_CFG)
  23:.\Generated_Source\PSoC4/uart_UART.c **** 
  24:.\Generated_Source\PSoC4/uart_UART.c ****     /***************************************
  25:.\Generated_Source\PSoC4/uart_UART.c ****     *  Configuration Structure Initialization
  26:.\Generated_Source\PSoC4/uart_UART.c ****     ***************************************/
  27:.\Generated_Source\PSoC4/uart_UART.c **** 
  28:.\Generated_Source\PSoC4/uart_UART.c ****     const uart_UART_INIT_STRUCT uart_configUart =
  29:.\Generated_Source\PSoC4/uart_UART.c ****     {
  30:.\Generated_Source\PSoC4/uart_UART.c ****         uart_UART_SUB_MODE,
  31:.\Generated_Source\PSoC4/uart_UART.c ****         uart_UART_DIRECTION,
  32:.\Generated_Source\PSoC4/uart_UART.c ****         uart_UART_DATA_BITS_NUM,
ARM GAS  C:\Users\Alan\AppData\Local\Temp\ccm2Yinc.s 			page 2


  33:.\Generated_Source\PSoC4/uart_UART.c ****         uart_UART_PARITY_TYPE,
  34:.\Generated_Source\PSoC4/uart_UART.c ****         uart_UART_STOP_BITS_NUM,
  35:.\Generated_Source\PSoC4/uart_UART.c ****         uart_UART_OVS_FACTOR,
  36:.\Generated_Source\PSoC4/uart_UART.c ****         uart_UART_IRDA_LOW_POWER,
  37:.\Generated_Source\PSoC4/uart_UART.c ****         uart_UART_MEDIAN_FILTER_ENABLE,
  38:.\Generated_Source\PSoC4/uart_UART.c ****         uart_UART_RETRY_ON_NACK,
  39:.\Generated_Source\PSoC4/uart_UART.c ****         uart_UART_IRDA_POLARITY,
  40:.\Generated_Source\PSoC4/uart_UART.c ****         uart_UART_DROP_ON_PARITY_ERR,
  41:.\Generated_Source\PSoC4/uart_UART.c ****         uart_UART_DROP_ON_FRAME_ERR,
  42:.\Generated_Source\PSoC4/uart_UART.c ****         uart_UART_WAKE_ENABLE,
  43:.\Generated_Source\PSoC4/uart_UART.c ****         0u,
  44:.\Generated_Source\PSoC4/uart_UART.c ****         NULL,
  45:.\Generated_Source\PSoC4/uart_UART.c ****         0u,
  46:.\Generated_Source\PSoC4/uart_UART.c ****         NULL,
  47:.\Generated_Source\PSoC4/uart_UART.c ****         uart_UART_MP_MODE_ENABLE,
  48:.\Generated_Source\PSoC4/uart_UART.c ****         uart_UART_MP_ACCEPT_ADDRESS,
  49:.\Generated_Source\PSoC4/uart_UART.c ****         uart_UART_MP_RX_ADDRESS,
  50:.\Generated_Source\PSoC4/uart_UART.c ****         uart_UART_MP_RX_ADDRESS_MASK,
  51:.\Generated_Source\PSoC4/uart_UART.c ****         (uint32) uart_SCB_IRQ_INTERNAL,
  52:.\Generated_Source\PSoC4/uart_UART.c ****         uart_UART_INTR_RX_MASK,
  53:.\Generated_Source\PSoC4/uart_UART.c ****         uart_UART_RX_TRIGGER_LEVEL,
  54:.\Generated_Source\PSoC4/uart_UART.c ****         uart_UART_INTR_TX_MASK,
  55:.\Generated_Source\PSoC4/uart_UART.c ****         uart_UART_TX_TRIGGER_LEVEL,
  56:.\Generated_Source\PSoC4/uart_UART.c ****         (uint8) uart_UART_BYTE_MODE_ENABLE,
  57:.\Generated_Source\PSoC4/uart_UART.c ****         (uint8) uart_UART_CTS_ENABLE,
  58:.\Generated_Source\PSoC4/uart_UART.c ****         (uint8) uart_UART_CTS_POLARITY,
  59:.\Generated_Source\PSoC4/uart_UART.c ****         (uint8) uart_UART_RTS_POLARITY,
  60:.\Generated_Source\PSoC4/uart_UART.c ****         (uint8) uart_UART_RTS_FIFO_LEVEL
  61:.\Generated_Source\PSoC4/uart_UART.c ****     };
  62:.\Generated_Source\PSoC4/uart_UART.c **** 
  63:.\Generated_Source\PSoC4/uart_UART.c **** 
  64:.\Generated_Source\PSoC4/uart_UART.c ****     /*******************************************************************************
  65:.\Generated_Source\PSoC4/uart_UART.c ****     * Function Name: uart_UartInit
  66:.\Generated_Source\PSoC4/uart_UART.c ****     ********************************************************************************
  67:.\Generated_Source\PSoC4/uart_UART.c ****     *
  68:.\Generated_Source\PSoC4/uart_UART.c ****     * Summary:
  69:.\Generated_Source\PSoC4/uart_UART.c ****     *  Configures the SCB for the UART operation.
  70:.\Generated_Source\PSoC4/uart_UART.c ****     *
  71:.\Generated_Source\PSoC4/uart_UART.c ****     * Parameters:
  72:.\Generated_Source\PSoC4/uart_UART.c ****     *  config:  Pointer to a structure that contains the following ordered list of
  73:.\Generated_Source\PSoC4/uart_UART.c ****     *           fields. These fields match the selections available in the
  74:.\Generated_Source\PSoC4/uart_UART.c ****     *           customizer.
  75:.\Generated_Source\PSoC4/uart_UART.c ****     *
  76:.\Generated_Source\PSoC4/uart_UART.c ****     * Return:
  77:.\Generated_Source\PSoC4/uart_UART.c ****     *  None
  78:.\Generated_Source\PSoC4/uart_UART.c ****     *
  79:.\Generated_Source\PSoC4/uart_UART.c ****     *******************************************************************************/
  80:.\Generated_Source\PSoC4/uart_UART.c ****     void uart_UartInit(const uart_UART_INIT_STRUCT *config)
  81:.\Generated_Source\PSoC4/uart_UART.c ****     {
  82:.\Generated_Source\PSoC4/uart_UART.c ****         uint32 pinsConfig;
  83:.\Generated_Source\PSoC4/uart_UART.c **** 
  84:.\Generated_Source\PSoC4/uart_UART.c ****         if (NULL == config)
  85:.\Generated_Source\PSoC4/uart_UART.c ****         {
  86:.\Generated_Source\PSoC4/uart_UART.c ****             CYASSERT(0u != 0u); /* Halt execution due to bad function parameter */
  87:.\Generated_Source\PSoC4/uart_UART.c ****         }
  88:.\Generated_Source\PSoC4/uart_UART.c ****         else
  89:.\Generated_Source\PSoC4/uart_UART.c ****         {
ARM GAS  C:\Users\Alan\AppData\Local\Temp\ccm2Yinc.s 			page 3


  90:.\Generated_Source\PSoC4/uart_UART.c ****             /* Get direction to configure UART pins: TX, RX or TX+RX */
  91:.\Generated_Source\PSoC4/uart_UART.c ****             pinsConfig  = config->direction;
  92:.\Generated_Source\PSoC4/uart_UART.c **** 
  93:.\Generated_Source\PSoC4/uart_UART.c ****         #if !(uart_CY_SCBIP_V0 || uart_CY_SCBIP_V1)
  94:.\Generated_Source\PSoC4/uart_UART.c ****             /* Add RTS and CTS pins to configure */
  95:.\Generated_Source\PSoC4/uart_UART.c ****             pinsConfig |= (0u != config->rtsRxFifoLevel) ? (uart_UART_RTS_PIN_ENABLE) : (0u);
  96:.\Generated_Source\PSoC4/uart_UART.c ****             pinsConfig |= (0u != config->enableCts)      ? (uart_UART_CTS_PIN_ENABLE) : (0u);
  97:.\Generated_Source\PSoC4/uart_UART.c ****         #endif /* !(uart_CY_SCBIP_V0 || uart_CY_SCBIP_V1) */
  98:.\Generated_Source\PSoC4/uart_UART.c **** 
  99:.\Generated_Source\PSoC4/uart_UART.c ****             /* Configure pins */
 100:.\Generated_Source\PSoC4/uart_UART.c ****             uart_SetPins(uart_SCB_MODE_UART, config->mode, pinsConfig);
 101:.\Generated_Source\PSoC4/uart_UART.c **** 
 102:.\Generated_Source\PSoC4/uart_UART.c ****             /* Store internal configuration */
 103:.\Generated_Source\PSoC4/uart_UART.c ****             uart_scbMode       = (uint8) uart_SCB_MODE_UART;
 104:.\Generated_Source\PSoC4/uart_UART.c ****             uart_scbEnableWake = (uint8) config->enableWake;
 105:.\Generated_Source\PSoC4/uart_UART.c ****             uart_scbEnableIntr = (uint8) config->enableInterrupt;
 106:.\Generated_Source\PSoC4/uart_UART.c **** 
 107:.\Generated_Source\PSoC4/uart_UART.c ****             /* Set RX direction internal variables */
 108:.\Generated_Source\PSoC4/uart_UART.c ****             uart_rxBuffer      =         config->rxBuffer;
 109:.\Generated_Source\PSoC4/uart_UART.c ****             uart_rxDataBits    = (uint8) config->dataBits;
 110:.\Generated_Source\PSoC4/uart_UART.c ****             uart_rxBufferSize  = (uint8) config->rxBufferSize;
 111:.\Generated_Source\PSoC4/uart_UART.c **** 
 112:.\Generated_Source\PSoC4/uart_UART.c ****             /* Set TX direction internal variables */
 113:.\Generated_Source\PSoC4/uart_UART.c ****             uart_txBuffer      =         config->txBuffer;
 114:.\Generated_Source\PSoC4/uart_UART.c ****             uart_txDataBits    = (uint8) config->dataBits;
 115:.\Generated_Source\PSoC4/uart_UART.c ****             uart_txBufferSize  = (uint8) config->txBufferSize;
 116:.\Generated_Source\PSoC4/uart_UART.c **** 
 117:.\Generated_Source\PSoC4/uart_UART.c ****             /* Configure UART interface */
 118:.\Generated_Source\PSoC4/uart_UART.c ****             if(uart_UART_MODE_IRDA == config->mode)
 119:.\Generated_Source\PSoC4/uart_UART.c ****             {
 120:.\Generated_Source\PSoC4/uart_UART.c ****                 /* OVS settings: IrDA */
 121:.\Generated_Source\PSoC4/uart_UART.c ****                 uart_CTRL_REG  = ((0u != config->enableIrdaLowPower) ?
 122:.\Generated_Source\PSoC4/uart_UART.c ****                                                 (uart_UART_GET_CTRL_OVS_IRDA_LP(config->oversample)
 123:.\Generated_Source\PSoC4/uart_UART.c ****                                                 (uart_CTRL_OVS_IRDA_OVS16));
 124:.\Generated_Source\PSoC4/uart_UART.c ****             }
 125:.\Generated_Source\PSoC4/uart_UART.c ****             else
 126:.\Generated_Source\PSoC4/uart_UART.c ****             {
 127:.\Generated_Source\PSoC4/uart_UART.c ****                 /* OVS settings: UART and SmartCard */
 128:.\Generated_Source\PSoC4/uart_UART.c ****                 uart_CTRL_REG  = uart_GET_CTRL_OVS(config->oversample);
 129:.\Generated_Source\PSoC4/uart_UART.c ****             }
 130:.\Generated_Source\PSoC4/uart_UART.c **** 
 131:.\Generated_Source\PSoC4/uart_UART.c ****             uart_CTRL_REG     |= uart_GET_CTRL_BYTE_MODE  (config->enableByteMode)      |
 132:.\Generated_Source\PSoC4/uart_UART.c ****                                              uart_GET_CTRL_ADDR_ACCEPT(config->multiprocAcceptAddr)
 133:.\Generated_Source\PSoC4/uart_UART.c ****                                              uart_CTRL_UART;
 134:.\Generated_Source\PSoC4/uart_UART.c **** 
 135:.\Generated_Source\PSoC4/uart_UART.c ****             /* Configure sub-mode: UART, SmartCard or IrDA */
 136:.\Generated_Source\PSoC4/uart_UART.c ****             uart_UART_CTRL_REG = uart_GET_UART_CTRL_MODE(config->mode);
 137:.\Generated_Source\PSoC4/uart_UART.c **** 
 138:.\Generated_Source\PSoC4/uart_UART.c ****             /* Configure RX direction */
 139:.\Generated_Source\PSoC4/uart_UART.c ****             uart_UART_RX_CTRL_REG = uart_GET_UART_RX_CTRL_MODE(config->stopBits)              |
 140:.\Generated_Source\PSoC4/uart_UART.c ****                                         uart_GET_UART_RX_CTRL_POLARITY(config->enableInvertedRx)   
 141:.\Generated_Source\PSoC4/uart_UART.c ****                                         uart_GET_UART_RX_CTRL_MP_MODE(config->enableMultiproc)     
 142:.\Generated_Source\PSoC4/uart_UART.c ****                                         uart_GET_UART_RX_CTRL_DROP_ON_PARITY_ERR(config->dropOnPari
 143:.\Generated_Source\PSoC4/uart_UART.c ****                                         uart_GET_UART_RX_CTRL_DROP_ON_FRAME_ERR(config->dropOnFrame
 144:.\Generated_Source\PSoC4/uart_UART.c **** 
 145:.\Generated_Source\PSoC4/uart_UART.c ****             if(uart_UART_PARITY_NONE != config->parity)
 146:.\Generated_Source\PSoC4/uart_UART.c ****             {
ARM GAS  C:\Users\Alan\AppData\Local\Temp\ccm2Yinc.s 			page 4


 147:.\Generated_Source\PSoC4/uart_UART.c ****                uart_UART_RX_CTRL_REG |= uart_GET_UART_RX_CTRL_PARITY(config->parity) |
 148:.\Generated_Source\PSoC4/uart_UART.c ****                                                     uart_UART_RX_CTRL_PARITY_ENABLED;
 149:.\Generated_Source\PSoC4/uart_UART.c ****             }
 150:.\Generated_Source\PSoC4/uart_UART.c **** 
 151:.\Generated_Source\PSoC4/uart_UART.c ****             uart_RX_CTRL_REG      = uart_GET_RX_CTRL_DATA_WIDTH(config->dataBits)       |
 152:.\Generated_Source\PSoC4/uart_UART.c ****                                                 uart_GET_RX_CTRL_MEDIAN(config->enableMedianFilter)
 153:.\Generated_Source\PSoC4/uart_UART.c ****                                                 uart_GET_UART_RX_CTRL_ENABLED(config->direction);
 154:.\Generated_Source\PSoC4/uart_UART.c **** 
 155:.\Generated_Source\PSoC4/uart_UART.c ****             uart_RX_FIFO_CTRL_REG = uart_GET_RX_FIFO_CTRL_TRIGGER_LEVEL(config->rxTriggerLevel);
 156:.\Generated_Source\PSoC4/uart_UART.c **** 
 157:.\Generated_Source\PSoC4/uart_UART.c ****             /* Configure MP address */
 158:.\Generated_Source\PSoC4/uart_UART.c ****             uart_RX_MATCH_REG     = uart_GET_RX_MATCH_ADDR(config->multiprocAddr) |
 159:.\Generated_Source\PSoC4/uart_UART.c ****                                                 uart_GET_RX_MATCH_MASK(config->multiprocAddrMask);
 160:.\Generated_Source\PSoC4/uart_UART.c **** 
 161:.\Generated_Source\PSoC4/uart_UART.c ****             /* Configure RX direction */
 162:.\Generated_Source\PSoC4/uart_UART.c ****             uart_UART_TX_CTRL_REG = uart_GET_UART_TX_CTRL_MODE(config->stopBits) |
 163:.\Generated_Source\PSoC4/uart_UART.c ****                                                 uart_GET_UART_TX_CTRL_RETRY_NACK(config->enableRetr
 164:.\Generated_Source\PSoC4/uart_UART.c **** 
 165:.\Generated_Source\PSoC4/uart_UART.c ****             if(uart_UART_PARITY_NONE != config->parity)
 166:.\Generated_Source\PSoC4/uart_UART.c ****             {
 167:.\Generated_Source\PSoC4/uart_UART.c ****                uart_UART_TX_CTRL_REG |= uart_GET_UART_TX_CTRL_PARITY(config->parity) |
 168:.\Generated_Source\PSoC4/uart_UART.c ****                                                     uart_UART_TX_CTRL_PARITY_ENABLED;
 169:.\Generated_Source\PSoC4/uart_UART.c ****             }
 170:.\Generated_Source\PSoC4/uart_UART.c **** 
 171:.\Generated_Source\PSoC4/uart_UART.c ****             uart_TX_CTRL_REG      = uart_GET_TX_CTRL_DATA_WIDTH(config->dataBits)    |
 172:.\Generated_Source\PSoC4/uart_UART.c ****                                                 uart_GET_UART_TX_CTRL_ENABLED(config->direction);
 173:.\Generated_Source\PSoC4/uart_UART.c **** 
 174:.\Generated_Source\PSoC4/uart_UART.c ****             uart_TX_FIFO_CTRL_REG = uart_GET_TX_FIFO_CTRL_TRIGGER_LEVEL(config->txTriggerLevel);
 175:.\Generated_Source\PSoC4/uart_UART.c **** 
 176:.\Generated_Source\PSoC4/uart_UART.c ****         #if !(uart_CY_SCBIP_V0 || uart_CY_SCBIP_V1)
 177:.\Generated_Source\PSoC4/uart_UART.c ****             uart_UART_FLOW_CTRL_REG = uart_GET_UART_FLOW_CTRL_CTS_ENABLE(config->enableCts) | \
 178:.\Generated_Source\PSoC4/uart_UART.c ****                                             uart_GET_UART_FLOW_CTRL_CTS_POLARITY (config->ctsPolari
 179:.\Generated_Source\PSoC4/uart_UART.c ****                                             uart_GET_UART_FLOW_CTRL_RTS_POLARITY (config->rtsPolari
 180:.\Generated_Source\PSoC4/uart_UART.c ****                                             uart_GET_UART_FLOW_CTRL_TRIGGER_LEVEL(config->rtsRxFifo
 181:.\Generated_Source\PSoC4/uart_UART.c ****         #endif /* !(uart_CY_SCBIP_V0 || uart_CY_SCBIP_V1) */
 182:.\Generated_Source\PSoC4/uart_UART.c **** 
 183:.\Generated_Source\PSoC4/uart_UART.c ****             /* Configure interrupt with UART handler but do not enable it */
 184:.\Generated_Source\PSoC4/uart_UART.c ****             CyIntDisable    (uart_ISR_NUMBER);
 185:.\Generated_Source\PSoC4/uart_UART.c ****             CyIntSetPriority(uart_ISR_NUMBER, uart_ISR_PRIORITY);
 186:.\Generated_Source\PSoC4/uart_UART.c ****             (void) CyIntSetVector(uart_ISR_NUMBER, &uart_SPI_UART_ISR);
 187:.\Generated_Source\PSoC4/uart_UART.c **** 
 188:.\Generated_Source\PSoC4/uart_UART.c ****             /* Configure WAKE interrupt */
 189:.\Generated_Source\PSoC4/uart_UART.c ****         #if(uart_UART_RX_WAKEUP_IRQ)
 190:.\Generated_Source\PSoC4/uart_UART.c ****             CyIntDisable    (uart_RX_WAKE_ISR_NUMBER);
 191:.\Generated_Source\PSoC4/uart_UART.c ****             CyIntSetPriority(uart_RX_WAKE_ISR_NUMBER, uart_RX_WAKE_ISR_PRIORITY);
 192:.\Generated_Source\PSoC4/uart_UART.c ****             (void) CyIntSetVector(uart_RX_WAKE_ISR_NUMBER, &uart_UART_WAKEUP_ISR);
 193:.\Generated_Source\PSoC4/uart_UART.c ****         #endif /* (uart_UART_RX_WAKEUP_IRQ) */
 194:.\Generated_Source\PSoC4/uart_UART.c **** 
 195:.\Generated_Source\PSoC4/uart_UART.c ****             /* Configure interrupt sources */
 196:.\Generated_Source\PSoC4/uart_UART.c ****             uart_INTR_I2C_EC_MASK_REG = uart_NO_INTR_SOURCES;
 197:.\Generated_Source\PSoC4/uart_UART.c ****             uart_INTR_SPI_EC_MASK_REG = uart_NO_INTR_SOURCES;
 198:.\Generated_Source\PSoC4/uart_UART.c ****             uart_INTR_SLAVE_MASK_REG  = uart_NO_INTR_SOURCES;
 199:.\Generated_Source\PSoC4/uart_UART.c ****             uart_INTR_MASTER_MASK_REG = uart_NO_INTR_SOURCES;
 200:.\Generated_Source\PSoC4/uart_UART.c ****             uart_INTR_RX_MASK_REG     = config->rxInterruptMask;
 201:.\Generated_Source\PSoC4/uart_UART.c ****             uart_INTR_TX_MASK_REG     = config->txInterruptMask;
 202:.\Generated_Source\PSoC4/uart_UART.c **** 
 203:.\Generated_Source\PSoC4/uart_UART.c ****             /* Clear RX buffer indexes */
ARM GAS  C:\Users\Alan\AppData\Local\Temp\ccm2Yinc.s 			page 5


 204:.\Generated_Source\PSoC4/uart_UART.c ****             uart_rxBufferHead     = 0u;
 205:.\Generated_Source\PSoC4/uart_UART.c ****             uart_rxBufferTail     = 0u;
 206:.\Generated_Source\PSoC4/uart_UART.c ****             uart_rxBufferOverflow = 0u;
 207:.\Generated_Source\PSoC4/uart_UART.c **** 
 208:.\Generated_Source\PSoC4/uart_UART.c ****             /* Clear TX buffer indexes */
 209:.\Generated_Source\PSoC4/uart_UART.c ****             uart_txBufferHead = 0u;
 210:.\Generated_Source\PSoC4/uart_UART.c ****             uart_txBufferTail = 0u;
 211:.\Generated_Source\PSoC4/uart_UART.c ****         }
 212:.\Generated_Source\PSoC4/uart_UART.c ****     }
 213:.\Generated_Source\PSoC4/uart_UART.c **** 
 214:.\Generated_Source\PSoC4/uart_UART.c **** #else
 215:.\Generated_Source\PSoC4/uart_UART.c **** 
 216:.\Generated_Source\PSoC4/uart_UART.c ****     /*******************************************************************************
 217:.\Generated_Source\PSoC4/uart_UART.c ****     * Function Name: uart_UartInit
 218:.\Generated_Source\PSoC4/uart_UART.c ****     ********************************************************************************
 219:.\Generated_Source\PSoC4/uart_UART.c ****     *
 220:.\Generated_Source\PSoC4/uart_UART.c ****     * Summary:
 221:.\Generated_Source\PSoC4/uart_UART.c ****     *  Configures the SCB for the UART operation.
 222:.\Generated_Source\PSoC4/uart_UART.c ****     *
 223:.\Generated_Source\PSoC4/uart_UART.c ****     * Parameters:
 224:.\Generated_Source\PSoC4/uart_UART.c ****     *  None
 225:.\Generated_Source\PSoC4/uart_UART.c ****     *
 226:.\Generated_Source\PSoC4/uart_UART.c ****     * Return:
 227:.\Generated_Source\PSoC4/uart_UART.c ****     *  None
 228:.\Generated_Source\PSoC4/uart_UART.c ****     *
 229:.\Generated_Source\PSoC4/uart_UART.c ****     *******************************************************************************/
 230:.\Generated_Source\PSoC4/uart_UART.c ****     void uart_UartInit(void)
 231:.\Generated_Source\PSoC4/uart_UART.c ****     {
  26              		.loc 1 231 0
  27              		.cfi_startproc
 232:.\Generated_Source\PSoC4/uart_UART.c ****         /* Configure UART interface */
 233:.\Generated_Source\PSoC4/uart_UART.c ****         uart_CTRL_REG = uart_UART_DEFAULT_CTRL;
  28              		.loc 1 233 0
  29 0000 134A     		ldr	r2, .L2
  30 0002 144B     		ldr	r3, .L2+4
  31 0004 1A60     		str	r2, [r3]
 234:.\Generated_Source\PSoC4/uart_UART.c **** 
 235:.\Generated_Source\PSoC4/uart_UART.c ****         /* Configure sub-mode: UART, SmartCard or IrDA */
 236:.\Generated_Source\PSoC4/uart_UART.c ****         uart_UART_CTRL_REG = uart_UART_DEFAULT_UART_CTRL;
  32              		.loc 1 236 0
  33 0006 0023     		mov	r3, #0
  34 0008 134A     		ldr	r2, .L2+8
  35 000a 1360     		str	r3, [r2]
 237:.\Generated_Source\PSoC4/uart_UART.c **** 
 238:.\Generated_Source\PSoC4/uart_UART.c ****         /* Configure RX direction */
 239:.\Generated_Source\PSoC4/uart_UART.c ****         uart_UART_RX_CTRL_REG = uart_UART_DEFAULT_UART_RX_CTRL;
  36              		.loc 1 239 0
  37 000c 1349     		ldr	r1, .L2+12
  38 000e 144A     		ldr	r2, .L2+16
  39 0010 1160     		str	r1, [r2]
 240:.\Generated_Source\PSoC4/uart_UART.c ****         uart_RX_CTRL_REG      = uart_UART_DEFAULT_RX_CTRL;
  40              		.loc 1 240 0
  41 0012 144A     		ldr	r2, .L2+20
  42 0014 1449     		ldr	r1, .L2+24
  43 0016 0A60     		str	r2, [r1]
 241:.\Generated_Source\PSoC4/uart_UART.c ****         uart_RX_FIFO_CTRL_REG = uart_UART_DEFAULT_RX_FIFO_CTRL;
  44              		.loc 1 241 0
ARM GAS  C:\Users\Alan\AppData\Local\Temp\ccm2Yinc.s 			page 6


  45 0018 0720     		mov	r0, #7
  46 001a 1449     		ldr	r1, .L2+28
  47 001c 0860     		str	r0, [r1]
 242:.\Generated_Source\PSoC4/uart_UART.c ****         uart_RX_MATCH_REG     = uart_UART_DEFAULT_RX_MATCH_REG;
  48              		.loc 1 242 0
  49 001e 1449     		ldr	r1, .L2+32
  50 0020 0B60     		str	r3, [r1]
 243:.\Generated_Source\PSoC4/uart_UART.c **** 
 244:.\Generated_Source\PSoC4/uart_UART.c ****         /* Configure TX direction */
 245:.\Generated_Source\PSoC4/uart_UART.c ****         uart_UART_TX_CTRL_REG = uart_UART_DEFAULT_UART_TX_CTRL;
  51              		.loc 1 245 0
  52 0022 0638     		sub	r0, r0, #6
  53 0024 1349     		ldr	r1, .L2+36
  54 0026 0860     		str	r0, [r1]
 246:.\Generated_Source\PSoC4/uart_UART.c ****         uart_TX_CTRL_REG      = uart_UART_DEFAULT_TX_CTRL;
  55              		.loc 1 246 0
  56 0028 1349     		ldr	r1, .L2+40
  57 002a 0A60     		str	r2, [r1]
 247:.\Generated_Source\PSoC4/uart_UART.c ****         uart_TX_FIFO_CTRL_REG = uart_UART_DEFAULT_TX_FIFO_CTRL;
  58              		.loc 1 247 0
  59 002c 134A     		ldr	r2, .L2+44
  60 002e 1360     		str	r3, [r2]
 248:.\Generated_Source\PSoC4/uart_UART.c **** 
 249:.\Generated_Source\PSoC4/uart_UART.c ****     #if !(uart_CY_SCBIP_V0 || uart_CY_SCBIP_V1)
 250:.\Generated_Source\PSoC4/uart_UART.c ****         uart_UART_FLOW_CTRL_REG = uart_UART_DEFAULT_FLOW_CTRL;
  61              		.loc 1 250 0
  62 0030 0421     		mov	r1, #4
  63 0032 134A     		ldr	r2, .L2+48
  64 0034 1160     		str	r1, [r2]
 251:.\Generated_Source\PSoC4/uart_UART.c ****     #endif /* !(uart_CY_SCBIP_V0 || uart_CY_SCBIP_V1) */
 252:.\Generated_Source\PSoC4/uart_UART.c **** 
 253:.\Generated_Source\PSoC4/uart_UART.c ****         /* Configure interrupt with UART handler but do not enable it */
 254:.\Generated_Source\PSoC4/uart_UART.c ****     #if(uart_SCB_IRQ_INTERNAL)
 255:.\Generated_Source\PSoC4/uart_UART.c ****         CyIntDisable    (uart_ISR_NUMBER);
 256:.\Generated_Source\PSoC4/uart_UART.c ****         CyIntSetPriority(uart_ISR_NUMBER, uart_ISR_PRIORITY);
 257:.\Generated_Source\PSoC4/uart_UART.c ****         (void) CyIntSetVector(uart_ISR_NUMBER, &uart_SPI_UART_ISR);
 258:.\Generated_Source\PSoC4/uart_UART.c ****     #endif /* (uart_SCB_IRQ_INTERNAL) */
 259:.\Generated_Source\PSoC4/uart_UART.c **** 
 260:.\Generated_Source\PSoC4/uart_UART.c ****         /* Configure WAKE interrupt */
 261:.\Generated_Source\PSoC4/uart_UART.c ****     #if(uart_UART_RX_WAKEUP_IRQ)
 262:.\Generated_Source\PSoC4/uart_UART.c ****         CyIntDisable    (uart_RX_WAKE_ISR_NUMBER);
 263:.\Generated_Source\PSoC4/uart_UART.c ****         CyIntSetPriority(uart_RX_WAKE_ISR_NUMBER, uart_RX_WAKE_ISR_PRIORITY);
 264:.\Generated_Source\PSoC4/uart_UART.c ****         (void) CyIntSetVector(uart_RX_WAKE_ISR_NUMBER, &uart_UART_WAKEUP_ISR);
 265:.\Generated_Source\PSoC4/uart_UART.c ****     #endif /* (uart_UART_RX_WAKEUP_IRQ) */
 266:.\Generated_Source\PSoC4/uart_UART.c **** 
 267:.\Generated_Source\PSoC4/uart_UART.c ****         /* Configure interrupt sources */
 268:.\Generated_Source\PSoC4/uart_UART.c ****         uart_INTR_I2C_EC_MASK_REG = uart_UART_DEFAULT_INTR_I2C_EC_MASK;
  65              		.loc 1 268 0
  66 0036 134A     		ldr	r2, .L2+52
  67 0038 1360     		str	r3, [r2]
 269:.\Generated_Source\PSoC4/uart_UART.c ****         uart_INTR_SPI_EC_MASK_REG = uart_UART_DEFAULT_INTR_SPI_EC_MASK;
  68              		.loc 1 269 0
  69 003a 134A     		ldr	r2, .L2+56
  70 003c 1360     		str	r3, [r2]
 270:.\Generated_Source\PSoC4/uart_UART.c ****         uart_INTR_SLAVE_MASK_REG  = uart_UART_DEFAULT_INTR_SLAVE_MASK;
  71              		.loc 1 270 0
  72 003e 134A     		ldr	r2, .L2+60
ARM GAS  C:\Users\Alan\AppData\Local\Temp\ccm2Yinc.s 			page 7


  73 0040 1360     		str	r3, [r2]
 271:.\Generated_Source\PSoC4/uart_UART.c ****         uart_INTR_MASTER_MASK_REG = uart_UART_DEFAULT_INTR_MASTER_MASK;
  74              		.loc 1 271 0
  75 0042 134A     		ldr	r2, .L2+64
  76 0044 1360     		str	r3, [r2]
 272:.\Generated_Source\PSoC4/uart_UART.c ****         uart_INTR_RX_MASK_REG     = uart_UART_DEFAULT_INTR_RX_MASK;
  77              		.loc 1 272 0
  78 0046 134A     		ldr	r2, .L2+68
  79 0048 1360     		str	r3, [r2]
 273:.\Generated_Source\PSoC4/uart_UART.c ****         uart_INTR_TX_MASK_REG     = uart_UART_DEFAULT_INTR_TX_MASK;
  80              		.loc 1 273 0
  81 004a 134A     		ldr	r2, .L2+72
  82 004c 1360     		str	r3, [r2]
 274:.\Generated_Source\PSoC4/uart_UART.c **** 
 275:.\Generated_Source\PSoC4/uart_UART.c ****     #if(uart_INTERNAL_RX_SW_BUFFER_CONST)
 276:.\Generated_Source\PSoC4/uart_UART.c ****         uart_rxBufferHead     = 0u;
 277:.\Generated_Source\PSoC4/uart_UART.c ****         uart_rxBufferTail     = 0u;
 278:.\Generated_Source\PSoC4/uart_UART.c ****         uart_rxBufferOverflow = 0u;
 279:.\Generated_Source\PSoC4/uart_UART.c ****     #endif /* (uart_INTERNAL_RX_SW_BUFFER_CONST) */
 280:.\Generated_Source\PSoC4/uart_UART.c **** 
 281:.\Generated_Source\PSoC4/uart_UART.c ****     #if(uart_INTERNAL_TX_SW_BUFFER_CONST)
 282:.\Generated_Source\PSoC4/uart_UART.c ****         uart_txBufferHead = 0u;
 283:.\Generated_Source\PSoC4/uart_UART.c ****         uart_txBufferTail = 0u;
 284:.\Generated_Source\PSoC4/uart_UART.c ****     #endif /* (uart_INTERNAL_TX_SW_BUFFER_CONST) */
 285:.\Generated_Source\PSoC4/uart_UART.c ****     }
  83              		.loc 1 285 0
  84              		@ sp needed
  85 004e 7047     		bx	lr
  86              	.L3:
  87              		.align	2
  88              	.L2:
  89 0050 0B000002 		.word	33554443
  90 0054 00000940 		.word	1074331648
  91 0058 40000940 		.word	1074331712
  92 005c 01020000 		.word	513
  93 0060 48000940 		.word	1074331720
  94 0064 07000080 		.word	-2147483641
  95 0068 00030940 		.word	1074332416
  96 006c 04030940 		.word	1074332420
  97 0070 10030940 		.word	1074332432
  98 0074 44000940 		.word	1074331716
  99 0078 00020940 		.word	1074332160
 100 007c 04020940 		.word	1074332164
 101 0080 50000940 		.word	1074331728
 102 0084 880E0940 		.word	1074335368
 103 0088 C80E0940 		.word	1074335432
 104 008c 480F0940 		.word	1074335560
 105 0090 080F0940 		.word	1074335496
 106 0094 C80F0940 		.word	1074335688
 107 0098 880F0940 		.word	1074335624
 108              		.cfi_endproc
 109              	.LFE1:
 110              		.size	uart_UartInit, .-uart_UartInit
 111              		.section	.text.uart_UartPostEnable,"ax",%progbits
 112              		.align	2
 113              		.global	uart_UartPostEnable
 114              		.code	16
ARM GAS  C:\Users\Alan\AppData\Local\Temp\ccm2Yinc.s 			page 8


 115              		.thumb_func
 116              		.type	uart_UartPostEnable, %function
 117              	uart_UartPostEnable:
 118              	.LFB2:
 286:.\Generated_Source\PSoC4/uart_UART.c **** #endif /* (uart_SCB_MODE_UNCONFIG_CONST_CFG) */
 287:.\Generated_Source\PSoC4/uart_UART.c **** 
 288:.\Generated_Source\PSoC4/uart_UART.c **** 
 289:.\Generated_Source\PSoC4/uart_UART.c **** /*******************************************************************************
 290:.\Generated_Source\PSoC4/uart_UART.c **** * Function Name: uart_UartPostEnable
 291:.\Generated_Source\PSoC4/uart_UART.c **** ********************************************************************************
 292:.\Generated_Source\PSoC4/uart_UART.c **** *
 293:.\Generated_Source\PSoC4/uart_UART.c **** * Summary:
 294:.\Generated_Source\PSoC4/uart_UART.c **** *  Restores HSIOM settings for the UART output pins (TX and/or RTS) to be 
 295:.\Generated_Source\PSoC4/uart_UART.c **** *  controlled by the SCB UART.
 296:.\Generated_Source\PSoC4/uart_UART.c **** *
 297:.\Generated_Source\PSoC4/uart_UART.c **** * Parameters:
 298:.\Generated_Source\PSoC4/uart_UART.c **** *  None
 299:.\Generated_Source\PSoC4/uart_UART.c **** *
 300:.\Generated_Source\PSoC4/uart_UART.c **** * Return:
 301:.\Generated_Source\PSoC4/uart_UART.c **** *  None
 302:.\Generated_Source\PSoC4/uart_UART.c **** *
 303:.\Generated_Source\PSoC4/uart_UART.c **** *******************************************************************************/
 304:.\Generated_Source\PSoC4/uart_UART.c **** void uart_UartPostEnable(void)
 305:.\Generated_Source\PSoC4/uart_UART.c **** {
 119              		.loc 1 305 0
 120              		.cfi_startproc
 306:.\Generated_Source\PSoC4/uart_UART.c **** #if (uart_SCB_MODE_UNCONFIG_CONST_CFG)
 307:.\Generated_Source\PSoC4/uart_UART.c ****     #if (uart_TX_SDA_MISO_PIN)
 308:.\Generated_Source\PSoC4/uart_UART.c ****         if (uart_CHECK_TX_SDA_MISO_PIN_USED)
 309:.\Generated_Source\PSoC4/uart_UART.c ****         {
 310:.\Generated_Source\PSoC4/uart_UART.c ****             /* Set SCB UART to drive the output pin */
 311:.\Generated_Source\PSoC4/uart_UART.c ****             uart_SET_HSIOM_SEL(uart_TX_SDA_MISO_HSIOM_REG, uart_TX_SDA_MISO_HSIOM_MASK,
 312:.\Generated_Source\PSoC4/uart_UART.c ****                                            uart_TX_SDA_MISO_HSIOM_POS, uart_TX_SDA_MISO_HSIOM_SEL_U
 313:.\Generated_Source\PSoC4/uart_UART.c ****         }
 314:.\Generated_Source\PSoC4/uart_UART.c ****     #endif /* (uart_TX_SDA_MISO_PIN_PIN) */
 315:.\Generated_Source\PSoC4/uart_UART.c **** 
 316:.\Generated_Source\PSoC4/uart_UART.c ****     #if !(uart_CY_SCBIP_V0 || uart_CY_SCBIP_V1)
 317:.\Generated_Source\PSoC4/uart_UART.c ****         #if (uart_RTS_SS0_PIN)
 318:.\Generated_Source\PSoC4/uart_UART.c ****             if (uart_CHECK_RTS_SS0_PIN_USED)
 319:.\Generated_Source\PSoC4/uart_UART.c ****             {
 320:.\Generated_Source\PSoC4/uart_UART.c ****                 /* Set SCB UART to drive the output pin */
 321:.\Generated_Source\PSoC4/uart_UART.c ****                 uart_SET_HSIOM_SEL(uart_RTS_SS0_HSIOM_REG, uart_RTS_SS0_HSIOM_MASK,
 322:.\Generated_Source\PSoC4/uart_UART.c ****                                                uart_RTS_SS0_HSIOM_POS, uart_RTS_SS0_HSIOM_SEL_UART)
 323:.\Generated_Source\PSoC4/uart_UART.c ****             }
 324:.\Generated_Source\PSoC4/uart_UART.c ****         #endif /* (uart_RTS_SS0_PIN) */
 325:.\Generated_Source\PSoC4/uart_UART.c ****     #endif /* !(uart_CY_SCBIP_V0 || uart_CY_SCBIP_V1) */
 326:.\Generated_Source\PSoC4/uart_UART.c ****     
 327:.\Generated_Source\PSoC4/uart_UART.c **** #else    
 328:.\Generated_Source\PSoC4/uart_UART.c ****     #if (uart_UART_TX_PIN)
 329:.\Generated_Source\PSoC4/uart_UART.c ****          /* Set SCB UART to drive the output pin */
 330:.\Generated_Source\PSoC4/uart_UART.c ****         uart_SET_HSIOM_SEL(uart_TX_HSIOM_REG, uart_TX_HSIOM_MASK,
 121              		.loc 1 330 0
 122 0000 044A     		ldr	r2, .L5
 123 0002 1168     		ldr	r1, [r2]
 124 0004 044B     		ldr	r3, .L5+4
 125 0006 0B40     		and	r3, r1
 126 0008 9021     		mov	r1, #144
ARM GAS  C:\Users\Alan\AppData\Local\Temp\ccm2Yinc.s 			page 9


 127 000a 0904     		lsl	r1, r1, #16
 128 000c 0B43     		orr	r3, r1
 129 000e 1360     		str	r3, [r2]
 331:.\Generated_Source\PSoC4/uart_UART.c ****                                        uart_TX_HSIOM_POS, uart_TX_HSIOM_SEL_UART);
 332:.\Generated_Source\PSoC4/uart_UART.c ****     #endif /* (uart_UART_TX_PIN) */
 333:.\Generated_Source\PSoC4/uart_UART.c **** 
 334:.\Generated_Source\PSoC4/uart_UART.c ****     #if (uart_UART_RTS_PIN)
 335:.\Generated_Source\PSoC4/uart_UART.c ****         /* Set SCB UART to drive the output pin */
 336:.\Generated_Source\PSoC4/uart_UART.c ****         uart_SET_HSIOM_SEL(uart_RTS_HSIOM_REG, uart_RTS_HSIOM_MASK,
 337:.\Generated_Source\PSoC4/uart_UART.c ****                                        uart_RTS_HSIOM_POS, uart_RTS_HSIOM_SEL_UART);
 338:.\Generated_Source\PSoC4/uart_UART.c ****     #endif /* (uart_UART_RTS_PIN) */
 339:.\Generated_Source\PSoC4/uart_UART.c **** 
 340:.\Generated_Source\PSoC4/uart_UART.c **** #endif /* (uart_SCB_MODE_UNCONFIG_CONST_CFG) */
 341:.\Generated_Source\PSoC4/uart_UART.c **** }
 130              		.loc 1 341 0
 131              		@ sp needed
 132 0010 7047     		bx	lr
 133              	.L6:
 134 0012 C046     		.align	2
 135              	.L5:
 136 0014 00000240 		.word	1073872896
 137 0018 FFFF0FFF 		.word	-15728641
 138              		.cfi_endproc
 139              	.LFE2:
 140              		.size	uart_UartPostEnable, .-uart_UartPostEnable
 141              		.section	.text.uart_UartStop,"ax",%progbits
 142              		.align	2
 143              		.global	uart_UartStop
 144              		.code	16
 145              		.thumb_func
 146              		.type	uart_UartStop, %function
 147              	uart_UartStop:
 148              	.LFB3:
 342:.\Generated_Source\PSoC4/uart_UART.c **** 
 343:.\Generated_Source\PSoC4/uart_UART.c **** 
 344:.\Generated_Source\PSoC4/uart_UART.c **** /*******************************************************************************
 345:.\Generated_Source\PSoC4/uart_UART.c **** * Function Name: uart_UartStop
 346:.\Generated_Source\PSoC4/uart_UART.c **** ********************************************************************************
 347:.\Generated_Source\PSoC4/uart_UART.c **** *
 348:.\Generated_Source\PSoC4/uart_UART.c **** * Summary:
 349:.\Generated_Source\PSoC4/uart_UART.c **** *  Changes the HSIOM settings for the UART output pins (TX and/or RTS) to keep
 350:.\Generated_Source\PSoC4/uart_UART.c **** *  them inactive after the block is disabled. The output pins are controlled by
 351:.\Generated_Source\PSoC4/uart_UART.c **** *  the GPIO data register. Also, the function disables the skip start feature to
 352:.\Generated_Source\PSoC4/uart_UART.c **** *  not cause it to trigger after the component is enabled.
 353:.\Generated_Source\PSoC4/uart_UART.c **** *
 354:.\Generated_Source\PSoC4/uart_UART.c **** * Parameters:
 355:.\Generated_Source\PSoC4/uart_UART.c **** *  None
 356:.\Generated_Source\PSoC4/uart_UART.c **** *
 357:.\Generated_Source\PSoC4/uart_UART.c **** * Return:
 358:.\Generated_Source\PSoC4/uart_UART.c **** *  None
 359:.\Generated_Source\PSoC4/uart_UART.c **** *
 360:.\Generated_Source\PSoC4/uart_UART.c **** *******************************************************************************/
 361:.\Generated_Source\PSoC4/uart_UART.c **** void uart_UartStop(void)
 362:.\Generated_Source\PSoC4/uart_UART.c **** {
 149              		.loc 1 362 0
 150              		.cfi_startproc
 363:.\Generated_Source\PSoC4/uart_UART.c **** #if(uart_SCB_MODE_UNCONFIG_CONST_CFG)
ARM GAS  C:\Users\Alan\AppData\Local\Temp\ccm2Yinc.s 			page 10


 364:.\Generated_Source\PSoC4/uart_UART.c ****     #if (uart_TX_SDA_MISO_PIN)
 365:.\Generated_Source\PSoC4/uart_UART.c ****         if (uart_CHECK_TX_SDA_MISO_PIN_USED)
 366:.\Generated_Source\PSoC4/uart_UART.c ****         {
 367:.\Generated_Source\PSoC4/uart_UART.c ****             /* Set GPIO to drive output pin */
 368:.\Generated_Source\PSoC4/uart_UART.c ****             uart_SET_HSIOM_SEL(uart_TX_SDA_MISO_HSIOM_REG, uart_TX_SDA_MISO_HSIOM_MASK,
 369:.\Generated_Source\PSoC4/uart_UART.c ****                                            uart_TX_SDA_MISO_HSIOM_POS, uart_TX_SDA_MISO_HSIOM_SEL_G
 370:.\Generated_Source\PSoC4/uart_UART.c ****         }
 371:.\Generated_Source\PSoC4/uart_UART.c ****     #endif /* (uart_TX_SDA_MISO_PIN_PIN) */
 372:.\Generated_Source\PSoC4/uart_UART.c **** 
 373:.\Generated_Source\PSoC4/uart_UART.c ****     #if !(uart_CY_SCBIP_V0 || uart_CY_SCBIP_V1)
 374:.\Generated_Source\PSoC4/uart_UART.c ****         #if (uart_RTS_SS0_PIN)
 375:.\Generated_Source\PSoC4/uart_UART.c ****             if (uart_CHECK_RTS_SS0_PIN_USED)
 376:.\Generated_Source\PSoC4/uart_UART.c ****             {
 377:.\Generated_Source\PSoC4/uart_UART.c ****                 /* Set output pin state after block is disabled */
 378:.\Generated_Source\PSoC4/uart_UART.c ****                 uart_uart_rts_spi_ss0_Write(uart_GET_UART_RTS_INACTIVE);
 379:.\Generated_Source\PSoC4/uart_UART.c **** 
 380:.\Generated_Source\PSoC4/uart_UART.c ****                 /* Set GPIO to drive output pin */
 381:.\Generated_Source\PSoC4/uart_UART.c ****                 uart_SET_HSIOM_SEL(uart_RTS_SS0_HSIOM_REG, uart_RTS_SS0_HSIOM_MASK,
 382:.\Generated_Source\PSoC4/uart_UART.c ****                                                uart_RTS_SS0_HSIOM_POS, uart_RTS_SS0_HSIOM_SEL_GPIO)
 383:.\Generated_Source\PSoC4/uart_UART.c ****             }
 384:.\Generated_Source\PSoC4/uart_UART.c ****         #endif /* (uart_RTS_SS0_PIN) */
 385:.\Generated_Source\PSoC4/uart_UART.c ****     #endif /* !(uart_CY_SCBIP_V0 || uart_CY_SCBIP_V1) */
 386:.\Generated_Source\PSoC4/uart_UART.c **** 
 387:.\Generated_Source\PSoC4/uart_UART.c **** #else
 388:.\Generated_Source\PSoC4/uart_UART.c ****     #if (uart_UART_TX_PIN)
 389:.\Generated_Source\PSoC4/uart_UART.c ****         /* Set GPIO to drive output pin */
 390:.\Generated_Source\PSoC4/uart_UART.c ****         uart_SET_HSIOM_SEL(uart_TX_HSIOM_REG, uart_TX_HSIOM_MASK,
 151              		.loc 1 390 0
 152 0000 024A     		ldr	r2, .L8
 153 0002 1168     		ldr	r1, [r2]
 154 0004 024B     		ldr	r3, .L8+4
 155 0006 0B40     		and	r3, r1
 156 0008 1360     		str	r3, [r2]
 391:.\Generated_Source\PSoC4/uart_UART.c ****                                        uart_TX_HSIOM_POS, uart_TX_HSIOM_SEL_GPIO);
 392:.\Generated_Source\PSoC4/uart_UART.c ****     #endif /* (uart_UART_TX_PIN) */
 393:.\Generated_Source\PSoC4/uart_UART.c **** 
 394:.\Generated_Source\PSoC4/uart_UART.c ****     #if (uart_UART_RTS_PIN)
 395:.\Generated_Source\PSoC4/uart_UART.c ****         /* Set output pin state after block is disabled */
 396:.\Generated_Source\PSoC4/uart_UART.c ****         uart_rts_Write(uart_GET_UART_RTS_INACTIVE);
 397:.\Generated_Source\PSoC4/uart_UART.c **** 
 398:.\Generated_Source\PSoC4/uart_UART.c ****         /* Set GPIO to drive output pin */
 399:.\Generated_Source\PSoC4/uart_UART.c ****         uart_SET_HSIOM_SEL(uart_RTS_HSIOM_REG, uart_RTS_HSIOM_MASK,
 400:.\Generated_Source\PSoC4/uart_UART.c ****                                        uart_RTS_HSIOM_POS, uart_RTS_HSIOM_SEL_GPIO);
 401:.\Generated_Source\PSoC4/uart_UART.c ****     #endif /* (uart_UART_RTS_PIN) */
 402:.\Generated_Source\PSoC4/uart_UART.c **** 
 403:.\Generated_Source\PSoC4/uart_UART.c **** #endif /* (uart_SCB_MODE_UNCONFIG_CONST_CFG) */
 404:.\Generated_Source\PSoC4/uart_UART.c **** 
 405:.\Generated_Source\PSoC4/uart_UART.c **** #if (uart_UART_WAKE_ENABLE_CONST)
 406:.\Generated_Source\PSoC4/uart_UART.c ****     /* Disable skip start feature used for wakeup */
 407:.\Generated_Source\PSoC4/uart_UART.c ****     uart_UART_RX_CTRL_REG &= (uint32) ~uart_UART_RX_CTRL_SKIP_START;
 408:.\Generated_Source\PSoC4/uart_UART.c **** #endif /* (uart_UART_WAKE_ENABLE_CONST) */
 409:.\Generated_Source\PSoC4/uart_UART.c **** }
 157              		.loc 1 409 0
 158              		@ sp needed
 159 000a 7047     		bx	lr
 160              	.L9:
 161              		.align	2
ARM GAS  C:\Users\Alan\AppData\Local\Temp\ccm2Yinc.s 			page 11


 162              	.L8:
 163 000c 00000240 		.word	1073872896
 164 0010 FFFF0FFF 		.word	-15728641
 165              		.cfi_endproc
 166              	.LFE3:
 167              		.size	uart_UartStop, .-uart_UartStop
 168              		.section	.text.uart_UartSetRxAddress,"ax",%progbits
 169              		.align	2
 170              		.global	uart_UartSetRxAddress
 171              		.code	16
 172              		.thumb_func
 173              		.type	uart_UartSetRxAddress, %function
 174              	uart_UartSetRxAddress:
 175              	.LFB4:
 410:.\Generated_Source\PSoC4/uart_UART.c **** 
 411:.\Generated_Source\PSoC4/uart_UART.c **** 
 412:.\Generated_Source\PSoC4/uart_UART.c **** /*******************************************************************************
 413:.\Generated_Source\PSoC4/uart_UART.c **** * Function Name: uart_UartSetRxAddress
 414:.\Generated_Source\PSoC4/uart_UART.c **** ********************************************************************************
 415:.\Generated_Source\PSoC4/uart_UART.c **** *
 416:.\Generated_Source\PSoC4/uart_UART.c **** * Summary:
 417:.\Generated_Source\PSoC4/uart_UART.c **** *  Sets the hardware detectable receiver address for the UART in the
 418:.\Generated_Source\PSoC4/uart_UART.c **** *  Multiprocessor mode.
 419:.\Generated_Source\PSoC4/uart_UART.c **** *
 420:.\Generated_Source\PSoC4/uart_UART.c **** * Parameters:
 421:.\Generated_Source\PSoC4/uart_UART.c **** *  address: Address for hardware address detection.
 422:.\Generated_Source\PSoC4/uart_UART.c **** *
 423:.\Generated_Source\PSoC4/uart_UART.c **** * Return:
 424:.\Generated_Source\PSoC4/uart_UART.c **** *  None
 425:.\Generated_Source\PSoC4/uart_UART.c **** *
 426:.\Generated_Source\PSoC4/uart_UART.c **** *******************************************************************************/
 427:.\Generated_Source\PSoC4/uart_UART.c **** void uart_UartSetRxAddress(uint32 address)
 428:.\Generated_Source\PSoC4/uart_UART.c **** {
 176              		.loc 1 428 0
 177              		.cfi_startproc
 178              	.LVL0:
 429:.\Generated_Source\PSoC4/uart_UART.c ****      uint32 matchReg;
 430:.\Generated_Source\PSoC4/uart_UART.c **** 
 431:.\Generated_Source\PSoC4/uart_UART.c ****     matchReg = uart_RX_MATCH_REG;
 179              		.loc 1 431 0
 180 0000 034A     		ldr	r2, .L11
 181 0002 1368     		ldr	r3, [r2]
 182              	.LVL1:
 432:.\Generated_Source\PSoC4/uart_UART.c **** 
 433:.\Generated_Source\PSoC4/uart_UART.c ****     matchReg &= ((uint32) ~uart_RX_MATCH_ADDR_MASK); /* Clear address bits */
 183              		.loc 1 433 0
 184 0004 FF21     		mov	r1, #255
 185 0006 8B43     		bic	r3, r1
 186              	.LVL2:
 434:.\Generated_Source\PSoC4/uart_UART.c ****     matchReg |= ((uint32)  (address & uart_RX_MATCH_ADDR_MASK)); /* Set address  */
 187              		.loc 1 434 0
 188 0008 0840     		and	r0, r1
 189              	.LVL3:
 190 000a 1843     		orr	r0, r3
 191              	.LVL4:
 435:.\Generated_Source\PSoC4/uart_UART.c **** 
 436:.\Generated_Source\PSoC4/uart_UART.c ****     uart_RX_MATCH_REG = matchReg;
ARM GAS  C:\Users\Alan\AppData\Local\Temp\ccm2Yinc.s 			page 12


 192              		.loc 1 436 0
 193 000c 1060     		str	r0, [r2]
 437:.\Generated_Source\PSoC4/uart_UART.c **** }
 194              		.loc 1 437 0
 195              		@ sp needed
 196 000e 7047     		bx	lr
 197              	.L12:
 198              		.align	2
 199              	.L11:
 200 0010 10030940 		.word	1074332432
 201              		.cfi_endproc
 202              	.LFE4:
 203              		.size	uart_UartSetRxAddress, .-uart_UartSetRxAddress
 204              		.section	.text.uart_UartSetRxAddressMask,"ax",%progbits
 205              		.align	2
 206              		.global	uart_UartSetRxAddressMask
 207              		.code	16
 208              		.thumb_func
 209              		.type	uart_UartSetRxAddressMask, %function
 210              	uart_UartSetRxAddressMask:
 211              	.LFB5:
 438:.\Generated_Source\PSoC4/uart_UART.c **** 
 439:.\Generated_Source\PSoC4/uart_UART.c **** 
 440:.\Generated_Source\PSoC4/uart_UART.c **** /*******************************************************************************
 441:.\Generated_Source\PSoC4/uart_UART.c **** * Function Name: uart_UartSetRxAddressMask
 442:.\Generated_Source\PSoC4/uart_UART.c **** ********************************************************************************
 443:.\Generated_Source\PSoC4/uart_UART.c **** *
 444:.\Generated_Source\PSoC4/uart_UART.c **** * Summary:
 445:.\Generated_Source\PSoC4/uart_UART.c **** *  Sets the hardware address mask for the UART in the Multiprocessor mode.
 446:.\Generated_Source\PSoC4/uart_UART.c **** *
 447:.\Generated_Source\PSoC4/uart_UART.c **** * Parameters:
 448:.\Generated_Source\PSoC4/uart_UART.c **** *  addressMask: Address mask.
 449:.\Generated_Source\PSoC4/uart_UART.c **** *   0 - address bit does not care while comparison.
 450:.\Generated_Source\PSoC4/uart_UART.c **** *   1 - address bit is significant while comparison.
 451:.\Generated_Source\PSoC4/uart_UART.c **** *
 452:.\Generated_Source\PSoC4/uart_UART.c **** * Return:
 453:.\Generated_Source\PSoC4/uart_UART.c **** *  None
 454:.\Generated_Source\PSoC4/uart_UART.c **** *
 455:.\Generated_Source\PSoC4/uart_UART.c **** *******************************************************************************/
 456:.\Generated_Source\PSoC4/uart_UART.c **** void uart_UartSetRxAddressMask(uint32 addressMask)
 457:.\Generated_Source\PSoC4/uart_UART.c **** {
 212              		.loc 1 457 0
 213              		.cfi_startproc
 214              	.LVL5:
 458:.\Generated_Source\PSoC4/uart_UART.c ****     uint32 matchReg;
 459:.\Generated_Source\PSoC4/uart_UART.c **** 
 460:.\Generated_Source\PSoC4/uart_UART.c ****     matchReg = uart_RX_MATCH_REG;
 215              		.loc 1 460 0
 216 0000 034A     		ldr	r2, .L14
 217 0002 1168     		ldr	r1, [r2]
 218              	.LVL6:
 461:.\Generated_Source\PSoC4/uart_UART.c **** 
 462:.\Generated_Source\PSoC4/uart_UART.c ****     matchReg &= ((uint32) ~uart_RX_MATCH_MASK_MASK); /* Clear address mask bits */
 219              		.loc 1 462 0
 220 0004 034B     		ldr	r3, .L14+4
 221 0006 0B40     		and	r3, r1
 222              	.LVL7:
ARM GAS  C:\Users\Alan\AppData\Local\Temp\ccm2Yinc.s 			page 13


 463:.\Generated_Source\PSoC4/uart_UART.c ****     matchReg |= ((uint32) (addressMask << uart_RX_MATCH_MASK_POS));
 223              		.loc 1 463 0
 224 0008 0004     		lsl	r0, r0, #16
 225              	.LVL8:
 226 000a 1843     		orr	r0, r3
 227              	.LVL9:
 464:.\Generated_Source\PSoC4/uart_UART.c **** 
 465:.\Generated_Source\PSoC4/uart_UART.c ****     uart_RX_MATCH_REG = matchReg;
 228              		.loc 1 465 0
 229 000c 1060     		str	r0, [r2]
 466:.\Generated_Source\PSoC4/uart_UART.c **** }
 230              		.loc 1 466 0
 231              		@ sp needed
 232 000e 7047     		bx	lr
 233              	.L15:
 234              		.align	2
 235              	.L14:
 236 0010 10030940 		.word	1074332432
 237 0014 FFFF00FF 		.word	-16711681
 238              		.cfi_endproc
 239              	.LFE5:
 240              		.size	uart_UartSetRxAddressMask, .-uart_UartSetRxAddressMask
 241              		.section	.text.uart_UartGetChar,"ax",%progbits
 242              		.align	2
 243              		.global	uart_UartGetChar
 244              		.code	16
 245              		.thumb_func
 246              		.type	uart_UartGetChar, %function
 247              	uart_UartGetChar:
 248              	.LFB6:
 467:.\Generated_Source\PSoC4/uart_UART.c **** 
 468:.\Generated_Source\PSoC4/uart_UART.c **** 
 469:.\Generated_Source\PSoC4/uart_UART.c **** #if(uart_UART_RX_DIRECTION)
 470:.\Generated_Source\PSoC4/uart_UART.c ****     /*******************************************************************************
 471:.\Generated_Source\PSoC4/uart_UART.c ****     * Function Name: uart_UartGetChar
 472:.\Generated_Source\PSoC4/uart_UART.c ****     ********************************************************************************
 473:.\Generated_Source\PSoC4/uart_UART.c ****     *
 474:.\Generated_Source\PSoC4/uart_UART.c ****     * Summary:
 475:.\Generated_Source\PSoC4/uart_UART.c ****     *  Retrieves the next data element from the receive buffer.
 476:.\Generated_Source\PSoC4/uart_UART.c ****     *  This function is designed for ASCII characters and returns a char
 477:.\Generated_Source\PSoC4/uart_UART.c ****     *  where 1 to 255 are valid characters and 0 indicates an error occurred or
 478:.\Generated_Source\PSoC4/uart_UART.c ****     *  no data present.
 479:.\Generated_Source\PSoC4/uart_UART.c ****     *  - The RX software buffer is disabled: returns the data element
 480:.\Generated_Source\PSoC4/uart_UART.c ****     *    retrieved from the RX FIFO.
 481:.\Generated_Source\PSoC4/uart_UART.c ****     *    Undefined data will be returned if the RX FIFO is empty.
 482:.\Generated_Source\PSoC4/uart_UART.c ****     *  - The RX software buffer is enabled: returns the data element from
 483:.\Generated_Source\PSoC4/uart_UART.c ****     *    the software receive buffer.
 484:.\Generated_Source\PSoC4/uart_UART.c ****     *
 485:.\Generated_Source\PSoC4/uart_UART.c ****     * Parameters:
 486:.\Generated_Source\PSoC4/uart_UART.c ****     *  None
 487:.\Generated_Source\PSoC4/uart_UART.c ****     *
 488:.\Generated_Source\PSoC4/uart_UART.c ****     * Return:
 489:.\Generated_Source\PSoC4/uart_UART.c ****     *  The next data element from the receive buffer.
 490:.\Generated_Source\PSoC4/uart_UART.c ****     *  ASCII character values from 1 to 255 are valid.
 491:.\Generated_Source\PSoC4/uart_UART.c ****     *  A returned zero signifies an error condition or no data available.
 492:.\Generated_Source\PSoC4/uart_UART.c ****     *
 493:.\Generated_Source\PSoC4/uart_UART.c ****     * Side Effects:
ARM GAS  C:\Users\Alan\AppData\Local\Temp\ccm2Yinc.s 			page 14


 494:.\Generated_Source\PSoC4/uart_UART.c ****     *  The errors bits may not correspond with reading characters due to RX FIFO
 495:.\Generated_Source\PSoC4/uart_UART.c ****     *  and software buffer usage.
 496:.\Generated_Source\PSoC4/uart_UART.c ****     *  RX software buffer is enabled: The internal software buffer overflow
 497:.\Generated_Source\PSoC4/uart_UART.c ****     *  does not treat as an error condition.
 498:.\Generated_Source\PSoC4/uart_UART.c ****     *  Check SCB_rxBufferOverflow to capture that error condition.
 499:.\Generated_Source\PSoC4/uart_UART.c ****     *
 500:.\Generated_Source\PSoC4/uart_UART.c ****     *******************************************************************************/
 501:.\Generated_Source\PSoC4/uart_UART.c ****     uint32 uart_UartGetChar(void)
 502:.\Generated_Source\PSoC4/uart_UART.c ****     {
 249              		.loc 1 502 0
 250              		.cfi_startproc
 251 0000 08B5     		push	{r3, lr}
 252              		.cfi_def_cfa_offset 8
 253              		.cfi_offset 3, -8
 254              		.cfi_offset 14, -4
 255              	.LVL10:
 503:.\Generated_Source\PSoC4/uart_UART.c ****         uint32 rxData = 0u;
 504:.\Generated_Source\PSoC4/uart_UART.c **** 
 505:.\Generated_Source\PSoC4/uart_UART.c ****         /* Reads data only if there is data to read */
 506:.\Generated_Source\PSoC4/uart_UART.c ****         if (0u != uart_SpiUartGetRxBufferSize())
 256              		.loc 1 506 0
 257 0002 FFF7FEFF 		bl	uart_SpiUartGetRxBufferSize
 258              	.LVL11:
 259 0006 0028     		cmp	r0, #0
 260 0008 02D0     		beq	.L19
 507:.\Generated_Source\PSoC4/uart_UART.c ****         {
 508:.\Generated_Source\PSoC4/uart_UART.c ****             rxData = uart_SpiUartReadRxData();
 261              		.loc 1 508 0
 262 000a FFF7FEFF 		bl	uart_SpiUartReadRxData
 263              	.LVL12:
 264 000e 00E0     		b	.L17
 265              	.LVL13:
 266              	.L19:
 503:.\Generated_Source\PSoC4/uart_UART.c ****         uint32 rxData = 0u;
 267              		.loc 1 503 0
 268 0010 0020     		mov	r0, #0
 269              	.LVL14:
 270              	.L17:
 509:.\Generated_Source\PSoC4/uart_UART.c ****         }
 510:.\Generated_Source\PSoC4/uart_UART.c **** 
 511:.\Generated_Source\PSoC4/uart_UART.c ****         if (uart_CHECK_INTR_RX(uart_INTR_RX_ERR))
 271              		.loc 1 511 0
 272 0012 054B     		ldr	r3, .L20
 273 0014 1A68     		ldr	r2, [r3]
 274 0016 D823     		mov	r3, #216
 275 0018 9B00     		lsl	r3, r3, #2
 276 001a 1A42     		tst	r2, r3
 277 001c 03D0     		beq	.L18
 278              	.LVL15:
 512:.\Generated_Source\PSoC4/uart_UART.c ****         {
 513:.\Generated_Source\PSoC4/uart_UART.c ****             rxData = 0u; /* Error occurred: returns zero */
 514:.\Generated_Source\PSoC4/uart_UART.c ****             uart_ClearRxInterruptSource(uart_INTR_RX_ERR);
 279              		.loc 1 514 0
 280 001e 1A1C     		mov	r2, r3
 281 0020 014B     		ldr	r3, .L20
 282 0022 1A60     		str	r2, [r3]
 513:.\Generated_Source\PSoC4/uart_UART.c ****             uart_ClearRxInterruptSource(uart_INTR_RX_ERR);
ARM GAS  C:\Users\Alan\AppData\Local\Temp\ccm2Yinc.s 			page 15


 283              		.loc 1 513 0
 284 0024 0020     		mov	r0, #0
 285              	.LVL16:
 286              	.L18:
 515:.\Generated_Source\PSoC4/uart_UART.c ****         }
 516:.\Generated_Source\PSoC4/uart_UART.c **** 
 517:.\Generated_Source\PSoC4/uart_UART.c ****         return (rxData);
 518:.\Generated_Source\PSoC4/uart_UART.c ****     }
 287              		.loc 1 518 0
 288              		@ sp needed
 289 0026 08BD     		pop	{r3, pc}
 290              	.L21:
 291              		.align	2
 292              	.L20:
 293 0028 C00F0940 		.word	1074335680
 294              		.cfi_endproc
 295              	.LFE6:
 296              		.size	uart_UartGetChar, .-uart_UartGetChar
 297              		.section	.text.uart_UartGetByte,"ax",%progbits
 298              		.align	2
 299              		.global	uart_UartGetByte
 300              		.code	16
 301              		.thumb_func
 302              		.type	uart_UartGetByte, %function
 303              	uart_UartGetByte:
 304              	.LFB7:
 519:.\Generated_Source\PSoC4/uart_UART.c **** 
 520:.\Generated_Source\PSoC4/uart_UART.c **** 
 521:.\Generated_Source\PSoC4/uart_UART.c ****     /*******************************************************************************
 522:.\Generated_Source\PSoC4/uart_UART.c ****     * Function Name: uart_UartGetByte
 523:.\Generated_Source\PSoC4/uart_UART.c ****     ********************************************************************************
 524:.\Generated_Source\PSoC4/uart_UART.c ****     *
 525:.\Generated_Source\PSoC4/uart_UART.c ****     * Summary:
 526:.\Generated_Source\PSoC4/uart_UART.c ****     *  Retrieves the next data element from the receive buffer, returns the
 527:.\Generated_Source\PSoC4/uart_UART.c ****     *  received byte and error condition.
 528:.\Generated_Source\PSoC4/uart_UART.c ****     *   - The RX software buffer is disabled: returns the data element retrieved
 529:.\Generated_Source\PSoC4/uart_UART.c ****     *     from the RX FIFO. Undefined data will be returned if the RX FIFO is
 530:.\Generated_Source\PSoC4/uart_UART.c ****     *     empty.
 531:.\Generated_Source\PSoC4/uart_UART.c ****     *   - The RX software buffer is enabled: returns data element from the
 532:.\Generated_Source\PSoC4/uart_UART.c ****     *     software receive buffer.
 533:.\Generated_Source\PSoC4/uart_UART.c ****     *
 534:.\Generated_Source\PSoC4/uart_UART.c ****     * Parameters:
 535:.\Generated_Source\PSoC4/uart_UART.c ****     *  None
 536:.\Generated_Source\PSoC4/uart_UART.c ****     *
 537:.\Generated_Source\PSoC4/uart_UART.c ****     * Return:
 538:.\Generated_Source\PSoC4/uart_UART.c ****     *  Bits 7-0 contain the next data element from the receive buffer and
 539:.\Generated_Source\PSoC4/uart_UART.c ****     *  other bits contain the error condition.
 540:.\Generated_Source\PSoC4/uart_UART.c ****     *
 541:.\Generated_Source\PSoC4/uart_UART.c ****     * Side Effects:
 542:.\Generated_Source\PSoC4/uart_UART.c ****     *  The errors bits may not correspond with reading characters due to RX FIFO
 543:.\Generated_Source\PSoC4/uart_UART.c ****     *  and software buffer usage.
 544:.\Generated_Source\PSoC4/uart_UART.c ****     *  RX software buffer is disabled: The internal software buffer overflow
 545:.\Generated_Source\PSoC4/uart_UART.c ****     *  is not returned as status by this function.
 546:.\Generated_Source\PSoC4/uart_UART.c ****     *  Check SCB_rxBufferOverflow to capture that error condition.
 547:.\Generated_Source\PSoC4/uart_UART.c ****     *
 548:.\Generated_Source\PSoC4/uart_UART.c ****     *******************************************************************************/
 549:.\Generated_Source\PSoC4/uart_UART.c ****     uint32 uart_UartGetByte(void)
ARM GAS  C:\Users\Alan\AppData\Local\Temp\ccm2Yinc.s 			page 16


 550:.\Generated_Source\PSoC4/uart_UART.c ****     {
 305              		.loc 1 550 0
 306              		.cfi_startproc
 307 0000 08B5     		push	{r3, lr}
 308              		.cfi_def_cfa_offset 8
 309              		.cfi_offset 3, -8
 310              		.cfi_offset 14, -4
 551:.\Generated_Source\PSoC4/uart_UART.c ****         uint32 rxData;
 552:.\Generated_Source\PSoC4/uart_UART.c ****         uint32 tmpStatus;
 553:.\Generated_Source\PSoC4/uart_UART.c **** 
 554:.\Generated_Source\PSoC4/uart_UART.c ****         #if (uart_CHECK_RX_SW_BUFFER)
 555:.\Generated_Source\PSoC4/uart_UART.c ****         {
 556:.\Generated_Source\PSoC4/uart_UART.c ****             uart_DisableInt();
 557:.\Generated_Source\PSoC4/uart_UART.c ****         }
 558:.\Generated_Source\PSoC4/uart_UART.c ****         #endif
 559:.\Generated_Source\PSoC4/uart_UART.c **** 
 560:.\Generated_Source\PSoC4/uart_UART.c ****         if (0u != uart_SpiUartGetRxBufferSize())
 311              		.loc 1 560 0
 312 0002 FFF7FEFF 		bl	uart_SpiUartGetRxBufferSize
 313              	.LVL17:
 314 0006 0028     		cmp	r0, #0
 315 0008 02D0     		beq	.L23
 561:.\Generated_Source\PSoC4/uart_UART.c ****         {
 562:.\Generated_Source\PSoC4/uart_UART.c ****             /* Enables interrupt to receive more bytes: at least one byte is in
 563:.\Generated_Source\PSoC4/uart_UART.c ****             * buffer.
 564:.\Generated_Source\PSoC4/uart_UART.c ****             */
 565:.\Generated_Source\PSoC4/uart_UART.c ****             #if (uart_CHECK_RX_SW_BUFFER)
 566:.\Generated_Source\PSoC4/uart_UART.c ****             {            
 567:.\Generated_Source\PSoC4/uart_UART.c ****                 uart_EnableInt();
 568:.\Generated_Source\PSoC4/uart_UART.c ****             }
 569:.\Generated_Source\PSoC4/uart_UART.c ****             #endif
 570:.\Generated_Source\PSoC4/uart_UART.c **** 
 571:.\Generated_Source\PSoC4/uart_UART.c ****             /* Get received byte */
 572:.\Generated_Source\PSoC4/uart_UART.c ****             rxData = uart_SpiUartReadRxData();
 316              		.loc 1 572 0
 317 000a FFF7FEFF 		bl	uart_SpiUartReadRxData
 318              	.LVL18:
 319 000e 01E0     		b	.L24
 320              	.LVL19:
 321              	.L23:
 573:.\Generated_Source\PSoC4/uart_UART.c ****         }
 574:.\Generated_Source\PSoC4/uart_UART.c ****         else
 575:.\Generated_Source\PSoC4/uart_UART.c ****         {
 576:.\Generated_Source\PSoC4/uart_UART.c ****             /* Reads a byte directly from RX FIFO: underflow is raised in the case
 577:.\Generated_Source\PSoC4/uart_UART.c ****             * of empty. Otherwise the first received byte will be read.
 578:.\Generated_Source\PSoC4/uart_UART.c ****             */
 579:.\Generated_Source\PSoC4/uart_UART.c ****             rxData = uart_RX_FIFO_RD_REG;
 322              		.loc 1 579 0
 323 0010 054B     		ldr	r3, .L25
 324 0012 1868     		ldr	r0, [r3]
 325              	.LVL20:
 326              	.L24:
 580:.\Generated_Source\PSoC4/uart_UART.c **** 
 581:.\Generated_Source\PSoC4/uart_UART.c ****             /* Enables interrupt to receive more bytes.
 582:.\Generated_Source\PSoC4/uart_UART.c ****             * The RX_NOT_EMPTY interrupt is cleared by the interrupt routine
 583:.\Generated_Source\PSoC4/uart_UART.c ****             * in case the byte was received and read by code above.
 584:.\Generated_Source\PSoC4/uart_UART.c ****             */
ARM GAS  C:\Users\Alan\AppData\Local\Temp\ccm2Yinc.s 			page 17


 585:.\Generated_Source\PSoC4/uart_UART.c ****             #if (uart_CHECK_RX_SW_BUFFER)
 586:.\Generated_Source\PSoC4/uart_UART.c ****             {
 587:.\Generated_Source\PSoC4/uart_UART.c ****                 uart_EnableInt();
 588:.\Generated_Source\PSoC4/uart_UART.c ****             }
 589:.\Generated_Source\PSoC4/uart_UART.c ****             #endif
 590:.\Generated_Source\PSoC4/uart_UART.c ****         }
 591:.\Generated_Source\PSoC4/uart_UART.c **** 
 592:.\Generated_Source\PSoC4/uart_UART.c ****         /* Get and clear RX error mask */
 593:.\Generated_Source\PSoC4/uart_UART.c ****         tmpStatus = (uart_GetRxInterruptSource() & uart_INTR_RX_ERR);
 327              		.loc 1 593 0
 328 0014 054A     		ldr	r2, .L25+4
 329 0016 1368     		ldr	r3, [r2]
 330 0018 D821     		mov	r1, #216
 331 001a 8900     		lsl	r1, r1, #2
 332 001c 0B40     		and	r3, r1
 333              	.LVL21:
 594:.\Generated_Source\PSoC4/uart_UART.c ****         uart_ClearRxInterruptSource(uart_INTR_RX_ERR);
 334              		.loc 1 594 0
 335 001e 1160     		str	r1, [r2]
 595:.\Generated_Source\PSoC4/uart_UART.c **** 
 596:.\Generated_Source\PSoC4/uart_UART.c ****         /* Puts together data and error status:
 597:.\Generated_Source\PSoC4/uart_UART.c ****         * MP mode and accept address: 9th bit is set to notify mark.
 598:.\Generated_Source\PSoC4/uart_UART.c ****         */
 599:.\Generated_Source\PSoC4/uart_UART.c ****         rxData |= ((uint32) (tmpStatus << 8u));
 336              		.loc 1 599 0
 337 0020 1B02     		lsl	r3, r3, #8
 338              	.LVL22:
 339 0022 1843     		orr	r0, r3
 340              	.LVL23:
 600:.\Generated_Source\PSoC4/uart_UART.c **** 
 601:.\Generated_Source\PSoC4/uart_UART.c ****         return (rxData);
 602:.\Generated_Source\PSoC4/uart_UART.c ****     }
 341              		.loc 1 602 0
 342              		@ sp needed
 343 0024 08BD     		pop	{r3, pc}
 344              	.L26:
 345 0026 C046     		.align	2
 346              	.L25:
 347 0028 40030940 		.word	1074332480
 348 002c C00F0940 		.word	1074335680
 349              		.cfi_endproc
 350              	.LFE7:
 351              		.size	uart_UartGetByte, .-uart_UartGetByte
 352              		.section	.text.uart_UartSetRtsPolarity,"ax",%progbits
 353              		.align	2
 354              		.global	uart_UartSetRtsPolarity
 355              		.code	16
 356              		.thumb_func
 357              		.type	uart_UartSetRtsPolarity, %function
 358              	uart_UartSetRtsPolarity:
 359              	.LFB8:
 603:.\Generated_Source\PSoC4/uart_UART.c **** 
 604:.\Generated_Source\PSoC4/uart_UART.c **** 
 605:.\Generated_Source\PSoC4/uart_UART.c ****     #if !(uart_CY_SCBIP_V0 || uart_CY_SCBIP_V1)
 606:.\Generated_Source\PSoC4/uart_UART.c ****         /*******************************************************************************
 607:.\Generated_Source\PSoC4/uart_UART.c ****         * Function Name: uart_UartSetRtsPolarity
 608:.\Generated_Source\PSoC4/uart_UART.c ****         ********************************************************************************
ARM GAS  C:\Users\Alan\AppData\Local\Temp\ccm2Yinc.s 			page 18


 609:.\Generated_Source\PSoC4/uart_UART.c ****         *
 610:.\Generated_Source\PSoC4/uart_UART.c ****         * Summary:
 611:.\Generated_Source\PSoC4/uart_UART.c ****         *  Sets active polarity of RTS output signal.
 612:.\Generated_Source\PSoC4/uart_UART.c ****         *
 613:.\Generated_Source\PSoC4/uart_UART.c ****         * Parameters:
 614:.\Generated_Source\PSoC4/uart_UART.c ****         *  polarity: Active polarity of RTS output signal.
 615:.\Generated_Source\PSoC4/uart_UART.c ****         *   uart_UART_RTS_ACTIVE_LOW  - RTS signal is active low.
 616:.\Generated_Source\PSoC4/uart_UART.c ****         *   uart_UART_RTS_ACTIVE_HIGH - RTS signal is active high.
 617:.\Generated_Source\PSoC4/uart_UART.c ****         *
 618:.\Generated_Source\PSoC4/uart_UART.c ****         * Return:
 619:.\Generated_Source\PSoC4/uart_UART.c ****         *  None
 620:.\Generated_Source\PSoC4/uart_UART.c ****         *
 621:.\Generated_Source\PSoC4/uart_UART.c ****         *******************************************************************************/
 622:.\Generated_Source\PSoC4/uart_UART.c ****         void uart_UartSetRtsPolarity(uint32 polarity)
 623:.\Generated_Source\PSoC4/uart_UART.c ****         {
 360              		.loc 1 623 0
 361              		.cfi_startproc
 362              	.LVL24:
 624:.\Generated_Source\PSoC4/uart_UART.c ****             if(0u != polarity)
 363              		.loc 1 624 0
 364 0000 0028     		cmp	r0, #0
 365 0002 06D0     		beq	.L28
 625:.\Generated_Source\PSoC4/uart_UART.c ****             {
 626:.\Generated_Source\PSoC4/uart_UART.c ****                 uart_UART_FLOW_CTRL_REG |= (uint32)  uart_UART_FLOW_CTRL_RTS_POLARITY;
 366              		.loc 1 626 0
 367 0004 064A     		ldr	r2, .L30
 368 0006 1368     		ldr	r3, [r2]
 369 0008 8021     		mov	r1, #128
 370 000a 4902     		lsl	r1, r1, #9
 371 000c 0B43     		orr	r3, r1
 372 000e 1360     		str	r3, [r2]
 373 0010 04E0     		b	.L27
 374              	.L28:
 627:.\Generated_Source\PSoC4/uart_UART.c ****             }
 628:.\Generated_Source\PSoC4/uart_UART.c ****             else
 629:.\Generated_Source\PSoC4/uart_UART.c ****             {
 630:.\Generated_Source\PSoC4/uart_UART.c ****                 uart_UART_FLOW_CTRL_REG &= (uint32) ~uart_UART_FLOW_CTRL_RTS_POLARITY;
 375              		.loc 1 630 0
 376 0012 034A     		ldr	r2, .L30
 377 0014 1168     		ldr	r1, [r2]
 378 0016 034B     		ldr	r3, .L30+4
 379 0018 0B40     		and	r3, r1
 380 001a 1360     		str	r3, [r2]
 381              	.L27:
 631:.\Generated_Source\PSoC4/uart_UART.c ****             }
 632:.\Generated_Source\PSoC4/uart_UART.c ****         }
 382              		.loc 1 632 0
 383              		@ sp needed
 384 001c 7047     		bx	lr
 385              	.L31:
 386 001e C046     		.align	2
 387              	.L30:
 388 0020 50000940 		.word	1074331728
 389 0024 FFFFFEFF 		.word	-65537
 390              		.cfi_endproc
 391              	.LFE8:
 392              		.size	uart_UartSetRtsPolarity, .-uart_UartSetRtsPolarity
ARM GAS  C:\Users\Alan\AppData\Local\Temp\ccm2Yinc.s 			page 19


 393              		.section	.text.uart_UartSetRtsFifoLevel,"ax",%progbits
 394              		.align	2
 395              		.global	uart_UartSetRtsFifoLevel
 396              		.code	16
 397              		.thumb_func
 398              		.type	uart_UartSetRtsFifoLevel, %function
 399              	uart_UartSetRtsFifoLevel:
 400              	.LFB9:
 633:.\Generated_Source\PSoC4/uart_UART.c **** 
 634:.\Generated_Source\PSoC4/uart_UART.c **** 
 635:.\Generated_Source\PSoC4/uart_UART.c ****         /*******************************************************************************
 636:.\Generated_Source\PSoC4/uart_UART.c ****         * Function Name: uart_UartSetRtsFifoLevel
 637:.\Generated_Source\PSoC4/uart_UART.c ****         ********************************************************************************
 638:.\Generated_Source\PSoC4/uart_UART.c ****         *
 639:.\Generated_Source\PSoC4/uart_UART.c ****         * Summary:
 640:.\Generated_Source\PSoC4/uart_UART.c ****         *  Sets level in the RX FIFO for RTS signal activation.
 641:.\Generated_Source\PSoC4/uart_UART.c ****         *  While the RX FIFO has fewer entries than the RX FIFO level the RTS signal
 642:.\Generated_Source\PSoC4/uart_UART.c ****         *  remains active, otherwise the RTS signal becomes inactive.
 643:.\Generated_Source\PSoC4/uart_UART.c ****         *
 644:.\Generated_Source\PSoC4/uart_UART.c ****         * Parameters:
 645:.\Generated_Source\PSoC4/uart_UART.c ****         *  level: Level in the RX FIFO for RTS signal activation.
 646:.\Generated_Source\PSoC4/uart_UART.c ****         *         The range of valid level values is between 0 and RX FIFO depth - 1.
 647:.\Generated_Source\PSoC4/uart_UART.c ****         *         Setting level value to 0 disables RTS signal activation.
 648:.\Generated_Source\PSoC4/uart_UART.c ****         *
 649:.\Generated_Source\PSoC4/uart_UART.c ****         * Return:
 650:.\Generated_Source\PSoC4/uart_UART.c ****         *  None
 651:.\Generated_Source\PSoC4/uart_UART.c ****         *
 652:.\Generated_Source\PSoC4/uart_UART.c ****         *******************************************************************************/
 653:.\Generated_Source\PSoC4/uart_UART.c ****         void uart_UartSetRtsFifoLevel(uint32 level)
 654:.\Generated_Source\PSoC4/uart_UART.c ****         {
 401              		.loc 1 654 0
 402              		.cfi_startproc
 403              	.LVL25:
 655:.\Generated_Source\PSoC4/uart_UART.c ****             uint32 uartFlowCtrl;
 656:.\Generated_Source\PSoC4/uart_UART.c **** 
 657:.\Generated_Source\PSoC4/uart_UART.c ****             uartFlowCtrl = uart_UART_FLOW_CTRL_REG;
 404              		.loc 1 657 0
 405 0000 034A     		ldr	r2, .L33
 406 0002 1368     		ldr	r3, [r2]
 407              	.LVL26:
 658:.\Generated_Source\PSoC4/uart_UART.c **** 
 659:.\Generated_Source\PSoC4/uart_UART.c ****             uartFlowCtrl &= ((uint32) ~uart_UART_FLOW_CTRL_TRIGGER_LEVEL_MASK); /* Clear level mask
 408              		.loc 1 659 0
 409 0004 0F21     		mov	r1, #15
 410 0006 8B43     		bic	r3, r1
 411              	.LVL27:
 660:.\Generated_Source\PSoC4/uart_UART.c ****             uartFlowCtrl |= ((uint32) (uart_UART_FLOW_CTRL_TRIGGER_LEVEL_MASK & level));
 412              		.loc 1 660 0
 413 0008 0840     		and	r0, r1
 414              	.LVL28:
 415 000a 1843     		orr	r0, r3
 416              	.LVL29:
 661:.\Generated_Source\PSoC4/uart_UART.c **** 
 662:.\Generated_Source\PSoC4/uart_UART.c ****             uart_UART_FLOW_CTRL_REG = uartFlowCtrl;
 417              		.loc 1 662 0
 418 000c 1060     		str	r0, [r2]
 663:.\Generated_Source\PSoC4/uart_UART.c ****         }
ARM GAS  C:\Users\Alan\AppData\Local\Temp\ccm2Yinc.s 			page 20


 419              		.loc 1 663 0
 420              		@ sp needed
 421 000e 7047     		bx	lr
 422              	.L34:
 423              		.align	2
 424              	.L33:
 425 0010 50000940 		.word	1074331728
 426              		.cfi_endproc
 427              	.LFE9:
 428              		.size	uart_UartSetRtsFifoLevel, .-uart_UartSetRtsFifoLevel
 429              		.section	.text.uart_UartPutString,"ax",%progbits
 430              		.align	2
 431              		.global	uart_UartPutString
 432              		.code	16
 433              		.thumb_func
 434              		.type	uart_UartPutString, %function
 435              	uart_UartPutString:
 436              	.LFB10:
 664:.\Generated_Source\PSoC4/uart_UART.c ****     #endif /* !(uart_CY_SCBIP_V0 || uart_CY_SCBIP_V1) */
 665:.\Generated_Source\PSoC4/uart_UART.c **** 
 666:.\Generated_Source\PSoC4/uart_UART.c **** #endif /* (uart_UART_RX_DIRECTION) */
 667:.\Generated_Source\PSoC4/uart_UART.c **** 
 668:.\Generated_Source\PSoC4/uart_UART.c **** 
 669:.\Generated_Source\PSoC4/uart_UART.c **** #if(uart_UART_TX_DIRECTION)
 670:.\Generated_Source\PSoC4/uart_UART.c ****     /*******************************************************************************
 671:.\Generated_Source\PSoC4/uart_UART.c ****     * Function Name: uart_UartPutString
 672:.\Generated_Source\PSoC4/uart_UART.c ****     ********************************************************************************
 673:.\Generated_Source\PSoC4/uart_UART.c ****     *
 674:.\Generated_Source\PSoC4/uart_UART.c ****     * Summary:
 675:.\Generated_Source\PSoC4/uart_UART.c ****     *  Places a NULL terminated string in the transmit buffer to be sent at the
 676:.\Generated_Source\PSoC4/uart_UART.c ****     *  next available bus time.
 677:.\Generated_Source\PSoC4/uart_UART.c ****     *  This function is blocking and waits until there is space available to put
 678:.\Generated_Source\PSoC4/uart_UART.c ****     *  all the requested data into the  transmit buffer.
 679:.\Generated_Source\PSoC4/uart_UART.c ****     *
 680:.\Generated_Source\PSoC4/uart_UART.c ****     * Parameters:
 681:.\Generated_Source\PSoC4/uart_UART.c ****     *  string: pointer to the null terminated string array to be placed in the
 682:.\Generated_Source\PSoC4/uart_UART.c ****     *          transmit buffer.
 683:.\Generated_Source\PSoC4/uart_UART.c ****     *
 684:.\Generated_Source\PSoC4/uart_UART.c ****     * Return:
 685:.\Generated_Source\PSoC4/uart_UART.c ****     *  None
 686:.\Generated_Source\PSoC4/uart_UART.c ****     *
 687:.\Generated_Source\PSoC4/uart_UART.c ****     *******************************************************************************/
 688:.\Generated_Source\PSoC4/uart_UART.c ****     void uart_UartPutString(const char8 string[])
 689:.\Generated_Source\PSoC4/uart_UART.c ****     {
 437              		.loc 1 689 0
 438              		.cfi_startproc
 439              	.LVL30:
 440 0000 38B5     		push	{r3, r4, r5, lr}
 441              		.cfi_def_cfa_offset 16
 442              		.cfi_offset 3, -16
 443              		.cfi_offset 4, -12
 444              		.cfi_offset 5, -8
 445              		.cfi_offset 14, -4
 446 0002 051C     		mov	r5, r0
 447              	.LVL31:
 690:.\Generated_Source\PSoC4/uart_UART.c ****         uint32 bufIndex;
 691:.\Generated_Source\PSoC4/uart_UART.c **** 
ARM GAS  C:\Users\Alan\AppData\Local\Temp\ccm2Yinc.s 			page 21


 692:.\Generated_Source\PSoC4/uart_UART.c ****         bufIndex = 0u;
 448              		.loc 1 692 0
 449 0004 0024     		mov	r4, #0
 693:.\Generated_Source\PSoC4/uart_UART.c **** 
 694:.\Generated_Source\PSoC4/uart_UART.c ****         /* Blocks the control flow until all data has been sent */
 695:.\Generated_Source\PSoC4/uart_UART.c ****         while(string[bufIndex] != ((char8) 0))
 450              		.loc 1 695 0
 451 0006 02E0     		b	.L36
 452              	.LVL32:
 453              	.L37:
 696:.\Generated_Source\PSoC4/uart_UART.c ****         {
 697:.\Generated_Source\PSoC4/uart_UART.c ****             uart_UartPutChar((uint32) string[bufIndex]);
 454              		.loc 1 697 0
 455 0008 FFF7FEFF 		bl	uart_SpiUartWriteTxData
 456              	.LVL33:
 698:.\Generated_Source\PSoC4/uart_UART.c ****             bufIndex++;
 457              		.loc 1 698 0
 458 000c 0134     		add	r4, r4, #1
 459              	.LVL34:
 460              	.L36:
 695:.\Generated_Source\PSoC4/uart_UART.c ****         {
 461              		.loc 1 695 0
 462 000e 285D     		ldrb	r0, [r5, r4]
 463 0010 0028     		cmp	r0, #0
 464 0012 F9D1     		bne	.L37
 699:.\Generated_Source\PSoC4/uart_UART.c ****         }
 700:.\Generated_Source\PSoC4/uart_UART.c ****     }
 465              		.loc 1 700 0
 466              		@ sp needed
 467              	.LVL35:
 468              	.LVL36:
 469 0014 38BD     		pop	{r3, r4, r5, pc}
 470              		.cfi_endproc
 471              	.LFE10:
 472              		.size	uart_UartPutString, .-uart_UartPutString
 473 0016 C046     		.section	.text.uart_UartPutCRLF,"ax",%progbits
 474              		.align	2
 475              		.global	uart_UartPutCRLF
 476              		.code	16
 477              		.thumb_func
 478              		.type	uart_UartPutCRLF, %function
 479              	uart_UartPutCRLF:
 480              	.LFB11:
 701:.\Generated_Source\PSoC4/uart_UART.c **** 
 702:.\Generated_Source\PSoC4/uart_UART.c **** 
 703:.\Generated_Source\PSoC4/uart_UART.c ****     /*******************************************************************************
 704:.\Generated_Source\PSoC4/uart_UART.c ****     * Function Name: uart_UartPutCRLF
 705:.\Generated_Source\PSoC4/uart_UART.c ****     ********************************************************************************
 706:.\Generated_Source\PSoC4/uart_UART.c ****     *
 707:.\Generated_Source\PSoC4/uart_UART.c ****     * Summary:
 708:.\Generated_Source\PSoC4/uart_UART.c ****     *  Places a byte of data followed by a carriage return (0x0D) and
 709:.\Generated_Source\PSoC4/uart_UART.c ****     *  line feed (0x0A) into the transmit buffer.
 710:.\Generated_Source\PSoC4/uart_UART.c ****     *  This function is blocking and waits until there is space available to put
 711:.\Generated_Source\PSoC4/uart_UART.c ****     *  all the requested data into the  transmit buffer.
 712:.\Generated_Source\PSoC4/uart_UART.c ****     *
 713:.\Generated_Source\PSoC4/uart_UART.c ****     * Parameters:
 714:.\Generated_Source\PSoC4/uart_UART.c ****     *  txDataByte : the data to be transmitted.
ARM GAS  C:\Users\Alan\AppData\Local\Temp\ccm2Yinc.s 			page 22


 715:.\Generated_Source\PSoC4/uart_UART.c ****     *
 716:.\Generated_Source\PSoC4/uart_UART.c ****     * Return:
 717:.\Generated_Source\PSoC4/uart_UART.c ****     *  None
 718:.\Generated_Source\PSoC4/uart_UART.c ****     *
 719:.\Generated_Source\PSoC4/uart_UART.c ****     *******************************************************************************/
 720:.\Generated_Source\PSoC4/uart_UART.c ****     void uart_UartPutCRLF(uint32 txDataByte)
 721:.\Generated_Source\PSoC4/uart_UART.c ****     {
 481              		.loc 1 721 0
 482              		.cfi_startproc
 483              	.LVL37:
 484 0000 08B5     		push	{r3, lr}
 485              		.cfi_def_cfa_offset 8
 486              		.cfi_offset 3, -8
 487              		.cfi_offset 14, -4
 722:.\Generated_Source\PSoC4/uart_UART.c ****         uart_UartPutChar(txDataByte);  /* Blocks control flow until all data has been sent */
 488              		.loc 1 722 0
 489 0002 FFF7FEFF 		bl	uart_SpiUartWriteTxData
 490              	.LVL38:
 723:.\Generated_Source\PSoC4/uart_UART.c ****         uart_UartPutChar(0x0Du);       /* Blocks control flow until all data has been sent */
 491              		.loc 1 723 0
 492 0006 0D20     		mov	r0, #13
 493 0008 FFF7FEFF 		bl	uart_SpiUartWriteTxData
 494              	.LVL39:
 724:.\Generated_Source\PSoC4/uart_UART.c ****         uart_UartPutChar(0x0Au);       /* Blocks control flow until all data has been sent */
 495              		.loc 1 724 0
 496 000c 0A20     		mov	r0, #10
 497 000e FFF7FEFF 		bl	uart_SpiUartWriteTxData
 498              	.LVL40:
 725:.\Generated_Source\PSoC4/uart_UART.c ****     }
 499              		.loc 1 725 0
 500              		@ sp needed
 501 0012 08BD     		pop	{r3, pc}
 502              		.cfi_endproc
 503              	.LFE11:
 504              		.size	uart_UartPutCRLF, .-uart_UartPutCRLF
 505              		.section	.text.uart_UartEnableCts,"ax",%progbits
 506              		.align	2
 507              		.global	uart_UartEnableCts
 508              		.code	16
 509              		.thumb_func
 510              		.type	uart_UartEnableCts, %function
 511              	uart_UartEnableCts:
 512              	.LFB12:
 726:.\Generated_Source\PSoC4/uart_UART.c **** 
 727:.\Generated_Source\PSoC4/uart_UART.c **** 
 728:.\Generated_Source\PSoC4/uart_UART.c ****     #if !(uart_CY_SCBIP_V0 || uart_CY_SCBIP_V1)
 729:.\Generated_Source\PSoC4/uart_UART.c ****         /*******************************************************************************
 730:.\Generated_Source\PSoC4/uart_UART.c ****         * Function Name: uartSCB_UartEnableCts
 731:.\Generated_Source\PSoC4/uart_UART.c ****         ********************************************************************************
 732:.\Generated_Source\PSoC4/uart_UART.c ****         *
 733:.\Generated_Source\PSoC4/uart_UART.c ****         * Summary:
 734:.\Generated_Source\PSoC4/uart_UART.c ****         *  Enables usage of CTS input signal by the UART transmitter.
 735:.\Generated_Source\PSoC4/uart_UART.c ****         *
 736:.\Generated_Source\PSoC4/uart_UART.c ****         * Parameters:
 737:.\Generated_Source\PSoC4/uart_UART.c ****         *  None
 738:.\Generated_Source\PSoC4/uart_UART.c ****         *
 739:.\Generated_Source\PSoC4/uart_UART.c ****         * Return:
ARM GAS  C:\Users\Alan\AppData\Local\Temp\ccm2Yinc.s 			page 23


 740:.\Generated_Source\PSoC4/uart_UART.c ****         *  None
 741:.\Generated_Source\PSoC4/uart_UART.c ****         *
 742:.\Generated_Source\PSoC4/uart_UART.c ****         *******************************************************************************/
 743:.\Generated_Source\PSoC4/uart_UART.c ****         void uart_UartEnableCts(void)
 744:.\Generated_Source\PSoC4/uart_UART.c ****         {
 513              		.loc 1 744 0
 514              		.cfi_startproc
 745:.\Generated_Source\PSoC4/uart_UART.c ****             uart_UART_FLOW_CTRL_REG |= (uint32)  uart_UART_FLOW_CTRL_CTS_ENABLE;
 515              		.loc 1 745 0
 516 0000 034A     		ldr	r2, .L40
 517 0002 1368     		ldr	r3, [r2]
 518 0004 8021     		mov	r1, #128
 519 0006 8904     		lsl	r1, r1, #18
 520 0008 0B43     		orr	r3, r1
 521 000a 1360     		str	r3, [r2]
 746:.\Generated_Source\PSoC4/uart_UART.c ****         }
 522              		.loc 1 746 0
 523              		@ sp needed
 524 000c 7047     		bx	lr
 525              	.L41:
 526 000e C046     		.align	2
 527              	.L40:
 528 0010 50000940 		.word	1074331728
 529              		.cfi_endproc
 530              	.LFE12:
 531              		.size	uart_UartEnableCts, .-uart_UartEnableCts
 532              		.section	.text.uart_UartDisableCts,"ax",%progbits
 533              		.align	2
 534              		.global	uart_UartDisableCts
 535              		.code	16
 536              		.thumb_func
 537              		.type	uart_UartDisableCts, %function
 538              	uart_UartDisableCts:
 539              	.LFB13:
 747:.\Generated_Source\PSoC4/uart_UART.c **** 
 748:.\Generated_Source\PSoC4/uart_UART.c **** 
 749:.\Generated_Source\PSoC4/uart_UART.c ****         /*******************************************************************************
 750:.\Generated_Source\PSoC4/uart_UART.c ****         * Function Name: uart_UartDisableCts
 751:.\Generated_Source\PSoC4/uart_UART.c ****         ********************************************************************************
 752:.\Generated_Source\PSoC4/uart_UART.c ****         *
 753:.\Generated_Source\PSoC4/uart_UART.c ****         * Summary:
 754:.\Generated_Source\PSoC4/uart_UART.c ****         *  Disables usage of CTS input signal by the UART transmitter.
 755:.\Generated_Source\PSoC4/uart_UART.c ****         *
 756:.\Generated_Source\PSoC4/uart_UART.c ****         * Parameters:
 757:.\Generated_Source\PSoC4/uart_UART.c ****         *  None
 758:.\Generated_Source\PSoC4/uart_UART.c ****         *
 759:.\Generated_Source\PSoC4/uart_UART.c ****         * Return:
 760:.\Generated_Source\PSoC4/uart_UART.c ****         *  None
 761:.\Generated_Source\PSoC4/uart_UART.c ****         *
 762:.\Generated_Source\PSoC4/uart_UART.c ****         *******************************************************************************/
 763:.\Generated_Source\PSoC4/uart_UART.c ****         void uart_UartDisableCts(void)
 764:.\Generated_Source\PSoC4/uart_UART.c ****         {
 540              		.loc 1 764 0
 541              		.cfi_startproc
 765:.\Generated_Source\PSoC4/uart_UART.c ****             uart_UART_FLOW_CTRL_REG &= (uint32) ~uart_UART_FLOW_CTRL_CTS_ENABLE;
 542              		.loc 1 765 0
 543 0000 024A     		ldr	r2, .L43
ARM GAS  C:\Users\Alan\AppData\Local\Temp\ccm2Yinc.s 			page 24


 544 0002 1168     		ldr	r1, [r2]
 545 0004 024B     		ldr	r3, .L43+4
 546 0006 0B40     		and	r3, r1
 547 0008 1360     		str	r3, [r2]
 766:.\Generated_Source\PSoC4/uart_UART.c ****         }
 548              		.loc 1 766 0
 549              		@ sp needed
 550 000a 7047     		bx	lr
 551              	.L44:
 552              		.align	2
 553              	.L43:
 554 000c 50000940 		.word	1074331728
 555 0010 FFFFFFFD 		.word	-33554433
 556              		.cfi_endproc
 557              	.LFE13:
 558              		.size	uart_UartDisableCts, .-uart_UartDisableCts
 559              		.section	.text.uart_UartSetCtsPolarity,"ax",%progbits
 560              		.align	2
 561              		.global	uart_UartSetCtsPolarity
 562              		.code	16
 563              		.thumb_func
 564              		.type	uart_UartSetCtsPolarity, %function
 565              	uart_UartSetCtsPolarity:
 566              	.LFB14:
 767:.\Generated_Source\PSoC4/uart_UART.c **** 
 768:.\Generated_Source\PSoC4/uart_UART.c **** 
 769:.\Generated_Source\PSoC4/uart_UART.c ****         /*******************************************************************************
 770:.\Generated_Source\PSoC4/uart_UART.c ****         * Function Name: uart_UartSetCtsPolarity
 771:.\Generated_Source\PSoC4/uart_UART.c ****         ********************************************************************************
 772:.\Generated_Source\PSoC4/uart_UART.c ****         *
 773:.\Generated_Source\PSoC4/uart_UART.c ****         * Summary:
 774:.\Generated_Source\PSoC4/uart_UART.c ****         *  Sets active polarity of CTS input signal.
 775:.\Generated_Source\PSoC4/uart_UART.c ****         *
 776:.\Generated_Source\PSoC4/uart_UART.c ****         * Parameters:
 777:.\Generated_Source\PSoC4/uart_UART.c ****         *  polarity: Active polarity of CTS output signal.
 778:.\Generated_Source\PSoC4/uart_UART.c ****         *   uart_UART_CTS_ACTIVE_LOW  - CTS signal is active low.
 779:.\Generated_Source\PSoC4/uart_UART.c ****         *   uart_UART_CTS_ACTIVE_HIGH - CTS signal is active high.
 780:.\Generated_Source\PSoC4/uart_UART.c ****         *
 781:.\Generated_Source\PSoC4/uart_UART.c ****         * Return:
 782:.\Generated_Source\PSoC4/uart_UART.c ****         *  None
 783:.\Generated_Source\PSoC4/uart_UART.c ****         *
 784:.\Generated_Source\PSoC4/uart_UART.c ****         *******************************************************************************/
 785:.\Generated_Source\PSoC4/uart_UART.c ****         void uart_UartSetCtsPolarity(uint32 polarity)
 786:.\Generated_Source\PSoC4/uart_UART.c ****         {
 567              		.loc 1 786 0
 568              		.cfi_startproc
 569              	.LVL41:
 787:.\Generated_Source\PSoC4/uart_UART.c ****             if (0u != polarity)
 570              		.loc 1 787 0
 571 0000 0028     		cmp	r0, #0
 572 0002 06D0     		beq	.L46
 788:.\Generated_Source\PSoC4/uart_UART.c ****             {
 789:.\Generated_Source\PSoC4/uart_UART.c ****                 uart_UART_FLOW_CTRL_REG |= (uint32)  uart_UART_FLOW_CTRL_CTS_POLARITY;
 573              		.loc 1 789 0
 574 0004 064A     		ldr	r2, .L48
 575 0006 1368     		ldr	r3, [r2]
 576 0008 8021     		mov	r1, #128
ARM GAS  C:\Users\Alan\AppData\Local\Temp\ccm2Yinc.s 			page 25


 577 000a 4904     		lsl	r1, r1, #17
 578 000c 0B43     		orr	r3, r1
 579 000e 1360     		str	r3, [r2]
 580 0010 04E0     		b	.L45
 581              	.L46:
 790:.\Generated_Source\PSoC4/uart_UART.c ****             }
 791:.\Generated_Source\PSoC4/uart_UART.c ****             else
 792:.\Generated_Source\PSoC4/uart_UART.c ****             {
 793:.\Generated_Source\PSoC4/uart_UART.c ****                 uart_UART_FLOW_CTRL_REG &= (uint32) ~uart_UART_FLOW_CTRL_CTS_POLARITY;
 582              		.loc 1 793 0
 583 0012 034A     		ldr	r2, .L48
 584 0014 1168     		ldr	r1, [r2]
 585 0016 034B     		ldr	r3, .L48+4
 586 0018 0B40     		and	r3, r1
 587 001a 1360     		str	r3, [r2]
 588              	.L45:
 794:.\Generated_Source\PSoC4/uart_UART.c ****             }
 795:.\Generated_Source\PSoC4/uart_UART.c ****         }
 589              		.loc 1 795 0
 590              		@ sp needed
 591 001c 7047     		bx	lr
 592              	.L49:
 593 001e C046     		.align	2
 594              	.L48:
 595 0020 50000940 		.word	1074331728
 596 0024 FFFFFFFE 		.word	-16777217
 597              		.cfi_endproc
 598              	.LFE14:
 599              		.size	uart_UartSetCtsPolarity, .-uart_UartSetCtsPolarity
 600              		.text
 601              	.Letext0:
 602              		.file 2 "Generated_Source\\PSoC4/cytypes.h"
 603              		.file 3 ".\\Generated_Source\\PSoC4\\uart_SPI_UART.h"