ARM GAS  C:\Users\Alan\AppData\Local\Temp\ccDocR8a.s 			page 1


   1              		.cpu cortex-m0
   2              		.fpu softvfp
   3              		.eabi_attribute 20, 1
   4              		.eabi_attribute 21, 1
   5              		.eabi_attribute 23, 3
   6              		.eabi_attribute 24, 1
   7              		.eabi_attribute 25, 1
   8              		.eabi_attribute 26, 1
   9              		.eabi_attribute 30, 6
  10              		.eabi_attribute 34, 0
  11              		.eabi_attribute 18, 4
  12              		.code	16
  13              		.file	"main.c"
  14              		.text
  15              	.Ltext0:
  16              		.cfi_sections	.debug_frame
  17              		.global	fingerPos
  18              		.data
  19              		.align	1
  20              		.type	fingerPos, %object
  21              		.size	fingerPos, 2
  22              	fingerPos:
  23 0000 FFFF     		.short	-1
  24              		.global	fingerPosOld
  25              		.align	1
  26              		.type	fingerPosOld, %object
  27              		.size	fingerPosOld, 2
  28              	fingerPosOld:
  29 0002 FFFF     		.short	-1
  30              		.global	redLedState
  31              		.bss
  32              		.type	redLedState, %object
  33              		.size	redLedState, 1
  34              	redLedState:
  35 0000 00       		.space	1
  36              		.comm	capsenseNotify,4,4
  37              		.section	.text.updateLed,"ax",%progbits
  38              		.align	2
  39              		.global	updateLed
  40              		.code	16
  41              		.thumb_func
  42              		.type	updateLed, %function
  43              	updateLed:
  44              	.LFB37:
  45              		.file 1 ".\\main.c"
   1:.\main.c      **** #include <project.h>
   2:.\main.c      **** 
   3:.\main.c      **** uint16 fingerPos    = 0xFFFF;
   4:.\main.c      **** uint16 fingerPosOld = 0xFFFF;
   5:.\main.c      **** uint8 redLedState = 0; // start it as off
   6:.\main.c      **** 
   7:.\main.c      **** int capsenseNotify;
   8:.\main.c      **** 
   9:.\main.c      **** /***************************************************************
  10:.\main.c      ****  * Function to update the LED state in the GATT database
  11:.\main.c      ****  **************************************************************/
  12:.\main.c      **** void updateLed()
ARM GAS  C:\Users\Alan\AppData\Local\Temp\ccDocR8a.s 			page 2


  13:.\main.c      **** {
  46              		.loc 1 13 0
  47              		.cfi_startproc
  48 0000 80B5     		push	{r7, lr}
  49              		.cfi_def_cfa_offset 8
  50              		.cfi_offset 7, -8
  51              		.cfi_offset 14, -4
  52 0002 84B0     		sub	sp, sp, #16
  53              		.cfi_def_cfa_offset 24
  54 0004 00AF     		add	r7, sp, #0
  55              		.cfi_def_cfa_register 7
  14:.\main.c      ****     CYBLE_GATTS_HANDLE_VALUE_NTF_T 	tempHandle;
  15:.\main.c      ****    
  16:.\main.c      ****    
  17:.\main.c      ****     if(CyBle_GetState() != CYBLE_STATE_CONNECTED)
  56              		.loc 1 17 0
  57 0006 0C4B     		ldr	r3, .L4
  58 0008 1B78     		ldrb	r3, [r3]
  59 000a 022B     		cmp	r3, #2
  60 000c 10D1     		bne	.L1
  18:.\main.c      ****         return;
  19:.\main.c      ****     
  20:.\main.c      ****     tempHandle.attrHandle = CYBLE_LEDCAPSENSE_LED_CHAR_HANDLE;
  61              		.loc 1 20 0
  62 000e 3B1D     		add	r3, r7, #4
  63 0010 0E22     		mov	r2, #14
  64 0012 1A81     		strh	r2, [r3, #8]
  21:.\main.c      ****   	tempHandle.value.val = (uint8 *) &redLedState;
  65              		.loc 1 21 0
  66 0014 3B1D     		add	r3, r7, #4
  67 0016 094A     		ldr	r2, .L4+4
  68 0018 1A60     		str	r2, [r3]
  22:.\main.c      ****     tempHandle.value.len = 1;
  69              		.loc 1 22 0
  70 001a 3B1D     		add	r3, r7, #4
  71 001c 0122     		mov	r2, #1
  72 001e 9A80     		strh	r2, [r3, #4]
  23:.\main.c      ****     CyBle_GattsWriteAttributeValue(&tempHandle,0,&cyBle_connHandle,CYBLE_GATT_DB_LOCALLY_INITIATED)
  73              		.loc 1 23 0
  74 0020 3A1D     		add	r2, r7, #4
  75 0022 074B     		ldr	r3, .L4+8
  76 0024 101C     		mov	r0, r2
  77 0026 0021     		mov	r1, #0
  78 0028 1A1C     		mov	r2, r3
  79 002a 0023     		mov	r3, #0
  80 002c FFF7FEFF 		bl	CyBle_GattsWriteAttributeValue
  81              	.L1:
  24:.\main.c      **** }
  82              		.loc 1 24 0
  83 0030 BD46     		mov	sp, r7
  84 0032 04B0     		add	sp, sp, #16
  85              		@ sp needed
  86 0034 80BD     		pop	{r7, pc}
  87              	.L5:
  88 0036 C046     		.align	2
  89              	.L4:
  90 0038 00000000 		.word	cyBle_state
ARM GAS  C:\Users\Alan\AppData\Local\Temp\ccDocR8a.s 			page 3


  91 003c 00000000 		.word	redLedState
  92 0040 00000000 		.word	cyBle_connHandle
  93              		.cfi_endproc
  94              	.LFE37:
  95              		.size	updateLed, .-updateLed
  96              		.section	.text.updateCapsense,"ax",%progbits
  97              		.align	2
  98              		.global	updateCapsense
  99              		.code	16
 100              		.thumb_func
 101              		.type	updateCapsense, %function
 102              	updateCapsense:
 103              	.LFB38:
  25:.\main.c      **** 
  26:.\main.c      **** /***************************************************************
  27:.\main.c      ****  * Function to update the CapSesnse state in the GATT database
  28:.\main.c      ****  **************************************************************/
  29:.\main.c      **** void updateCapsense()
  30:.\main.c      **** {
 104              		.loc 1 30 0
 105              		.cfi_startproc
 106 0000 80B5     		push	{r7, lr}
 107              		.cfi_def_cfa_offset 8
 108              		.cfi_offset 7, -8
 109              		.cfi_offset 14, -4
 110 0002 84B0     		sub	sp, sp, #16
 111              		.cfi_def_cfa_offset 24
 112 0004 00AF     		add	r7, sp, #0
 113              		.cfi_def_cfa_register 7
  31:.\main.c      ****     if(CyBle_GetState() != CYBLE_STATE_CONNECTED)
 114              		.loc 1 31 0
 115 0006 1A4B     		ldr	r3, .L10
 116 0008 1B78     		ldrb	r3, [r3]
 117 000a 022B     		cmp	r3, #2
 118 000c 2DD1     		bne	.L6
  32:.\main.c      ****         return;
  33:.\main.c      ****     
  34:.\main.c      **** 	CYBLE_GATTS_HANDLE_VALUE_NTF_T 	tempHandle;
  35:.\main.c      ****     
  36:.\main.c      ****     tempHandle.attrHandle = CYBLE_LEDCAPSENSE_CAPSENSE_CHAR_HANDLE;
 119              		.loc 1 36 0
 120 000e 3B1D     		add	r3, r7, #4
 121 0010 1122     		mov	r2, #17
 122 0012 1A81     		strh	r2, [r3, #8]
  37:.\main.c      ****   	tempHandle.value.val = (uint8 *)&fingerPos;
 123              		.loc 1 37 0
 124 0014 3B1D     		add	r3, r7, #4
 125 0016 174A     		ldr	r2, .L10+4
 126 0018 1A60     		str	r2, [r3]
  38:.\main.c      ****     tempHandle.value.len = 2; 
 127              		.loc 1 38 0
 128 001a 3B1D     		add	r3, r7, #4
 129 001c 0222     		mov	r2, #2
 130 001e 9A80     		strh	r2, [r3, #4]
  39:.\main.c      ****     CyBle_GattsWriteAttributeValue(&tempHandle,0,&cyBle_connHandle,CYBLE_GATT_DB_LOCALLY_INITIATED 
 131              		.loc 1 39 0
 132 0020 3A1D     		add	r2, r7, #4
ARM GAS  C:\Users\Alan\AppData\Local\Temp\ccDocR8a.s 			page 4


 133 0022 154B     		ldr	r3, .L10+8
 134 0024 101C     		mov	r0, r2
 135 0026 0021     		mov	r1, #0
 136 0028 1A1C     		mov	r2, r3
 137 002a 0023     		mov	r3, #0
 138 002c FFF7FEFF 		bl	CyBle_GattsWriteAttributeValue
  40:.\main.c      ****     
  41:.\main.c      ****     /* send notification to client if notifications are enabled and finger location has changed */
  42:.\main.c      ****     if (capsenseNotify && (fingerPos != fingerPosOld) )
 139              		.loc 1 42 0
 140 0030 124B     		ldr	r3, .L10+12
 141 0032 1B68     		ldr	r3, [r3]
 142 0034 002B     		cmp	r3, #0
 143 0036 14D0     		beq	.L9
 144              		.loc 1 42 0 is_stmt 0 discriminator 1
 145 0038 0E4B     		ldr	r3, .L10+4
 146 003a 1A88     		ldrh	r2, [r3]
 147 003c 104B     		ldr	r3, .L10+16
 148 003e 1B88     		ldrh	r3, [r3]
 149 0040 9A42     		cmp	r2, r3
 150 0042 0ED0     		beq	.L9
  43:.\main.c      ****         CyBle_GattsNotification(cyBle_connHandle,&tempHandle);
 151              		.loc 1 43 0 is_stmt 1
 152 0044 0C4B     		ldr	r3, .L10+8
 153 0046 391D     		add	r1, r7, #4
 154 0048 1A78     		ldrb	r2, [r3]
 155 004a 5B78     		ldrb	r3, [r3, #1]
 156 004c 1B02     		lsl	r3, r3, #8
 157 004e 1A43     		orr	r2, r3
 158 0050 0023     		mov	r3, #0
 159 0052 1204     		lsl	r2, r2, #16
 160 0054 120C     		lsr	r2, r2, #16
 161 0056 1B0C     		lsr	r3, r3, #16
 162 0058 1B04     		lsl	r3, r3, #16
 163 005a 1343     		orr	r3, r2
 164 005c 181C     		mov	r0, r3
 165 005e FFF7FEFF 		bl	CyBle_GattsNotification
 166              	.L9:
  44:.\main.c      ****         fingerPosOld = fingerPos;
 167              		.loc 1 44 0
 168 0062 044B     		ldr	r3, .L10+4
 169 0064 1A88     		ldrh	r2, [r3]
 170 0066 064B     		ldr	r3, .L10+16
 171 0068 1A80     		strh	r2, [r3]
 172              	.L6:
  45:.\main.c      **** }
 173              		.loc 1 45 0
 174 006a BD46     		mov	sp, r7
 175 006c 04B0     		add	sp, sp, #16
 176              		@ sp needed
 177 006e 80BD     		pop	{r7, pc}
 178              	.L11:
 179              		.align	2
 180              	.L10:
 181 0070 00000000 		.word	cyBle_state
 182 0074 00000000 		.word	fingerPos
 183 0078 00000000 		.word	cyBle_connHandle
ARM GAS  C:\Users\Alan\AppData\Local\Temp\ccDocR8a.s 			page 5


 184 007c 00000000 		.word	capsenseNotify
 185 0080 00000000 		.word	fingerPosOld
 186              		.cfi_endproc
 187              	.LFE38:
 188              		.size	updateCapsense, .-updateCapsense
 189              		.section	.text.BleCallBack,"ax",%progbits
 190              		.align	2
 191              		.global	BleCallBack
 192              		.code	16
 193              		.thumb_func
 194              		.type	BleCallBack, %function
 195              	BleCallBack:
 196              	.LFB39:
  46:.\main.c      **** 
  47:.\main.c      **** /***************************************************************
  48:.\main.c      ****  * Function to handle the BLE stack
  49:.\main.c      ****  **************************************************************/
  50:.\main.c      **** void BleCallBack(uint32 event, void* eventParam)
  51:.\main.c      **** {
 197              		.loc 1 51 0
 198              		.cfi_startproc
 199 0000 80B5     		push	{r7, lr}
 200              		.cfi_def_cfa_offset 8
 201              		.cfi_offset 7, -8
 202              		.cfi_offset 14, -4
 203 0002 84B0     		sub	sp, sp, #16
 204              		.cfi_def_cfa_offset 24
 205 0004 00AF     		add	r7, sp, #0
 206              		.cfi_def_cfa_register 7
 207 0006 7860     		str	r0, [r7, #4]
 208 0008 3960     		str	r1, [r7]
  52:.\main.c      ****     CYBLE_GATTS_WRITE_REQ_PARAM_T *wrReqParam;
  53:.\main.c      **** 
  54:.\main.c      ****     switch(event)
 209              		.loc 1 54 0
 210 000a 7B68     		ldr	r3, [r7, #4]
 211 000c 282B     		cmp	r3, #40
 212 000e 08D0     		beq	.L14
 213 0010 02D8     		bhi	.L15
 214 0012 012B     		cmp	r3, #1
 215 0014 05D0     		beq	.L14
  55:.\main.c      ****     {
  56:.\main.c      ****         /* if there is a disconnect or the stack just turned on from a reset then start the adverti
  57:.\main.c      ****         case CYBLE_EVT_STACK_ON:
  58:.\main.c      ****         case CYBLE_EVT_GAP_DEVICE_DISCONNECTED:
  59:.\main.c      ****             capsenseNotify = 0;
  60:.\main.c      ****             CyBle_GappStartAdvertisement(CYBLE_ADVERTISING_FAST);
  61:.\main.c      ****             //pwm_Start();
  62:.\main.c      ****         break;
  63:.\main.c      ****         
  64:.\main.c      ****         /* when a connection is made, update the LED and Capsense states in the GATT database and s
  65:.\main.c      ****         case CYBLE_EVT_GATT_CONNECT_IND:
  66:.\main.c      ****             updateLed();
  67:.\main.c      ****             updateCapsense();  
  68:.\main.c      ****             //pwm_Stop();
  69:.\main.c      **** 		break;
  70:.\main.c      **** 
ARM GAS  C:\Users\Alan\AppData\Local\Temp\ccDocR8a.s 			page 6


  71:.\main.c      ****         /* handle a write request */
  72:.\main.c      ****         case CYBLE_EVT_GATTS_WRITE_REQ:
  73:.\main.c      ****             wrReqParam = (CYBLE_GATTS_WRITE_REQ_PARAM_T *) eventParam;
  74:.\main.c      **** 			      
  75:.\main.c      ****             /* request write the LED value */
  76:.\main.c      ****             if(wrReqParam->handleValPair.attrHandle == CYBLE_LEDCAPSENSE_LED_CHAR_HANDLE)
  77:.\main.c      ****             {
  78:.\main.c      ****                 /* only update the value and write the response if the requested write is allowed *
  79:.\main.c      ****                 if(CYBLE_GATT_ERR_NONE == CyBle_GattsWriteAttributeValue(&wrReqParam->handleValPair
  80:.\main.c      ****                 {
  81:.\main.c      ****                    
  82:.\main.c      ****                     redLedState = wrReqParam->handleValPair.value.val[0];
  83:.\main.c      ****                     uart_SpiUartWriteTxData(redLedState);
  84:.\main.c      ****                     CyBle_GattsWriteRsp(cyBle_connHandle);
  85:.\main.c      ****                 }
  86:.\main.c      ****             }
  87:.\main.c      ****             
  88:.\main.c      ****             /* request to update the CapSense notification */
  89:.\main.c      ****             if(wrReqParam->handleValPair.attrHandle == CYBLE_LEDCAPSENSE_CAPSENSE_CAPSENSECCCD_DESC
  90:.\main.c      ****             {
  91:.\main.c      ****                 CyBle_GattsWriteAttributeValue(&wrReqParam->handleValPair, 0, &cyBle_connHandle, CY
  92:.\main.c      ****                 capsenseNotify = wrReqParam->handleValPair.value.val[0] & 0x01;
  93:.\main.c      ****                 CyBle_GattsWriteRsp(cyBle_connHandle);
  94:.\main.c      ****             }		
  95:.\main.c      **** 			break;  
  96:.\main.c      ****         
  97:.\main.c      ****         default:
  98:.\main.c      ****             break;
 216              		.loc 1 98 0
 217 0016 5EE0     		b	.L12
 218              	.L15:
  54:.\main.c      ****     {
 219              		.loc 1 54 0
 220 0018 412B     		cmp	r3, #65
 221 001a 09D0     		beq	.L16
 222 001c 4C2B     		cmp	r3, #76
 223 001e 0CD0     		beq	.L17
 224              		.loc 1 98 0
 225 0020 59E0     		b	.L12
 226              	.L14:
  59:.\main.c      ****             CyBle_GappStartAdvertisement(CYBLE_ADVERTISING_FAST);
 227              		.loc 1 59 0
 228 0022 2E4B     		ldr	r3, .L22
 229 0024 0022     		mov	r2, #0
 230 0026 1A60     		str	r2, [r3]
  60:.\main.c      ****             //pwm_Start();
 231              		.loc 1 60 0
 232 0028 0020     		mov	r0, #0
 233 002a FFF7FEFF 		bl	CyBle_GappStartAdvertisement
  62:.\main.c      ****         
 234              		.loc 1 62 0
 235 002e 52E0     		b	.L12
 236              	.L16:
  66:.\main.c      ****             updateCapsense();  
 237              		.loc 1 66 0
 238 0030 FFF7FEFF 		bl	updateLed
  67:.\main.c      ****             //pwm_Stop();
ARM GAS  C:\Users\Alan\AppData\Local\Temp\ccDocR8a.s 			page 7


 239              		.loc 1 67 0
 240 0034 FFF7FEFF 		bl	updateCapsense
  69:.\main.c      **** 
 241              		.loc 1 69 0
 242 0038 4DE0     		b	.L12
 243              	.L17:
  73:.\main.c      **** 			      
 244              		.loc 1 73 0
 245 003a 3B68     		ldr	r3, [r7]
 246 003c FB60     		str	r3, [r7, #12]
  76:.\main.c      ****             {
 247              		.loc 1 76 0
 248 003e FB68     		ldr	r3, [r7, #12]
 249 0040 9B89     		ldrh	r3, [r3, #12]
 250 0042 0E2B     		cmp	r3, #14
 251 0044 22D1     		bne	.L19
  79:.\main.c      ****                 {
 252              		.loc 1 79 0
 253 0046 FB68     		ldr	r3, [r7, #12]
 254 0048 1A1D     		add	r2, r3, #4
 255 004a 254B     		ldr	r3, .L22+4
 256 004c 101C     		mov	r0, r2
 257 004e 0021     		mov	r1, #0
 258 0050 1A1C     		mov	r2, r3
 259 0052 4023     		mov	r3, #64
 260 0054 FFF7FEFF 		bl	CyBle_GattsWriteAttributeValue
 261 0058 031E     		sub	r3, r0, #0
 262 005a 17D1     		bne	.L19
  82:.\main.c      ****                     uart_SpiUartWriteTxData(redLedState);
 263              		.loc 1 82 0
 264 005c FB68     		ldr	r3, [r7, #12]
 265 005e 5B68     		ldr	r3, [r3, #4]
 266 0060 1A78     		ldrb	r2, [r3]
 267 0062 204B     		ldr	r3, .L22+8
 268 0064 1A70     		strb	r2, [r3]
  83:.\main.c      ****                     CyBle_GattsWriteRsp(cyBle_connHandle);
 269              		.loc 1 83 0
 270 0066 1F4B     		ldr	r3, .L22+8
 271 0068 1B78     		ldrb	r3, [r3]
 272 006a 181C     		mov	r0, r3
 273 006c FFF7FEFF 		bl	uart_SpiUartWriteTxData
  84:.\main.c      ****                 }
 274              		.loc 1 84 0
 275 0070 1B4B     		ldr	r3, .L22+4
 276 0072 1A78     		ldrb	r2, [r3]
 277 0074 5B78     		ldrb	r3, [r3, #1]
 278 0076 1B02     		lsl	r3, r3, #8
 279 0078 1A43     		orr	r2, r3
 280 007a 0023     		mov	r3, #0
 281 007c 1204     		lsl	r2, r2, #16
 282 007e 120C     		lsr	r2, r2, #16
 283 0080 1B0C     		lsr	r3, r3, #16
 284 0082 1B04     		lsl	r3, r3, #16
 285 0084 1343     		orr	r3, r2
 286 0086 181C     		mov	r0, r3
 287 0088 FFF7FEFF 		bl	CyBle_GattsWriteRsp
 288              	.L19:
ARM GAS  C:\Users\Alan\AppData\Local\Temp\ccDocR8a.s 			page 8


  89:.\main.c      ****             {
 289              		.loc 1 89 0
 290 008c FB68     		ldr	r3, [r7, #12]
 291 008e 9B89     		ldrh	r3, [r3, #12]
 292 0090 122B     		cmp	r3, #18
 293 0092 1FD1     		bne	.L20
  91:.\main.c      ****                 capsenseNotify = wrReqParam->handleValPair.value.val[0] & 0x01;
 294              		.loc 1 91 0
 295 0094 FB68     		ldr	r3, [r7, #12]
 296 0096 1A1D     		add	r2, r3, #4
 297 0098 114B     		ldr	r3, .L22+4
 298 009a 101C     		mov	r0, r2
 299 009c 0021     		mov	r1, #0
 300 009e 1A1C     		mov	r2, r3
 301 00a0 4023     		mov	r3, #64
 302 00a2 FFF7FEFF 		bl	CyBle_GattsWriteAttributeValue
  92:.\main.c      ****                 CyBle_GattsWriteRsp(cyBle_connHandle);
 303              		.loc 1 92 0
 304 00a6 FB68     		ldr	r3, [r7, #12]
 305 00a8 5B68     		ldr	r3, [r3, #4]
 306 00aa 1B78     		ldrb	r3, [r3]
 307 00ac 1A1C     		mov	r2, r3
 308 00ae 0123     		mov	r3, #1
 309 00b0 1A40     		and	r2, r3
 310 00b2 0A4B     		ldr	r3, .L22
 311 00b4 1A60     		str	r2, [r3]
  93:.\main.c      ****             }		
 312              		.loc 1 93 0
 313 00b6 0A4B     		ldr	r3, .L22+4
 314 00b8 1A78     		ldrb	r2, [r3]
 315 00ba 5B78     		ldrb	r3, [r3, #1]
 316 00bc 1B02     		lsl	r3, r3, #8
 317 00be 1A43     		orr	r2, r3
 318 00c0 0023     		mov	r3, #0
 319 00c2 1204     		lsl	r2, r2, #16
 320 00c4 120C     		lsr	r2, r2, #16
 321 00c6 1B0C     		lsr	r3, r3, #16
 322 00c8 1B04     		lsl	r3, r3, #16
 323 00ca 1343     		orr	r3, r2
 324 00cc 181C     		mov	r0, r3
 325 00ce FFF7FEFF 		bl	CyBle_GattsWriteRsp
  95:.\main.c      ****         
 326              		.loc 1 95 0
 327 00d2 FFE7     		b	.L21
 328              	.L20:
 329              	.L21:
 330 00d4 C046     		mov	r8, r8
 331              	.L12:
  99:.\main.c      ****     }
 100:.\main.c      **** } 
 332              		.loc 1 100 0
 333 00d6 BD46     		mov	sp, r7
 334 00d8 04B0     		add	sp, sp, #16
 335              		@ sp needed
 336 00da 80BD     		pop	{r7, pc}
 337              	.L23:
 338              		.align	2
ARM GAS  C:\Users\Alan\AppData\Local\Temp\ccDocR8a.s 			page 9


 339              	.L22:
 340 00dc 00000000 		.word	capsenseNotify
 341 00e0 00000000 		.word	cyBle_connHandle
 342 00e4 00000000 		.word	redLedState
 343              		.cfi_endproc
 344              	.LFE39:
 345              		.size	BleCallBack, .-BleCallBack
 346              		.section	.text.main,"ax",%progbits
 347              		.align	2
 348              		.global	main
 349              		.code	16
 350              		.thumb_func
 351              		.type	main, %function
 352              	main:
 353              	.LFB40:
 101:.\main.c      **** 
 102:.\main.c      **** /***************************************************************
 103:.\main.c      ****  * Main
 104:.\main.c      ****  **************************************************************/
 105:.\main.c      **** int main()
 106:.\main.c      **** {
 354              		.loc 1 106 0
 355              		.cfi_startproc
 356 0000 80B5     		push	{r7, lr}
 357              		.cfi_def_cfa_offset 8
 358              		.cfi_offset 7, -8
 359              		.cfi_offset 14, -4
 360 0002 00AF     		add	r7, sp, #0
 361              		.cfi_def_cfa_register 7
 107:.\main.c      ****     CyGlobalIntEnable; 
 362              		.loc 1 107 0
 363              	@ 107 ".\main.c" 1
 364 0004 62B6     		CPSIE   i
 365              	@ 0 "" 2
 108:.\main.c      ****     
 109:.\main.c      ****     uart_Start();
 366              		.loc 1 109 0
 367              		.code	16
 368 0006 FFF7FEFF 		bl	uart_Start
 110:.\main.c      ****     
 111:.\main.c      ****     /* Start BLE stack and register the callback function */
 112:.\main.c      ****     CyBle_Start(BleCallBack);
 369              		.loc 1 112 0
 370 000a 0B4B     		ldr	r3, .L27
 371 000c 181C     		mov	r0, r3
 372 000e FFF7FEFF 		bl	CyBle_Start
 373              	.L26:
 113:.\main.c      **** 
 114:.\main.c      ****     for(;;)
 115:.\main.c      ****     {        
 116:.\main.c      ****         if(uart_SpiUartGetRxBufferSize())
 374              		.loc 1 116 0
 375 0012 FFF7FEFF 		bl	uart_SpiUartGetRxBufferSize
 376 0016 031E     		sub	r3, r0, #0
 377 0018 07D0     		beq	.L25
 117:.\main.c      ****         {
 118:.\main.c      ****             fingerPos = uart_UartGetByte();
ARM GAS  C:\Users\Alan\AppData\Local\Temp\ccDocR8a.s 			page 10


 378              		.loc 1 118 0
 379 001a FFF7FEFF 		bl	uart_UartGetByte
 380 001e 031C     		mov	r3, r0
 381 0020 9AB2     		uxth	r2, r3
 382 0022 064B     		ldr	r3, .L27+4
 383 0024 1A80     		strh	r2, [r3]
 119:.\main.c      ****             updateCapsense();
 384              		.loc 1 119 0
 385 0026 FFF7FEFF 		bl	updateCapsense
 386              	.L25:
 120:.\main.c      ****         }
 121:.\main.c      ****         
 122:.\main.c      ****         CyBle_ProcessEvents();
 387              		.loc 1 122 0
 388 002a FFF7FEFF 		bl	CyBle_ProcessEvents
 123:.\main.c      ****         CyBle_EnterLPM(CYBLE_BLESS_DEEPSLEEP);    
 389              		.loc 1 123 0
 390 002e 0320     		mov	r0, #3
 391 0030 FFF7FEFF 		bl	CyBle_EnterLPM
 124:.\main.c      ****     }
 392              		.loc 1 124 0
 393 0034 EDE7     		b	.L26
 394              	.L28:
 395 0036 C046     		.align	2
 396              	.L27:
 397 0038 00000000 		.word	BleCallBack
 398 003c 00000000 		.word	fingerPos
 399              		.cfi_endproc
 400              	.LFE40:
 401              		.size	main, .-main
 402              		.text
 403              	.Letext0:
 404              		.file 2 "Generated_Source\\PSoC4/cytypes.h"
 405              		.file 3 "Generated_Source\\PSoC4/ble_Stack.h"
 406              		.file 4 "Generated_Source\\PSoC4/ble_StackGatt.h"
 407              		.file 5 "Generated_Source\\PSoC4/ble_StackGattServer.h"
 408              		.file 6 "Generated_Source\\PSoC4/ble_eventHandler.h"